(dp1
S'output'
p2
S"<type 'exceptions.AttributeError'> 'str' object has no attribute 'function'"
p3
sS'layer'
p4
S'P:\\School\\DePaul\\Projects\\CSC_438\\web2py\\applications\\init\\views\\default/challenge.html'
p5
sS'code'
p6
S'response.write(\'<!DOCTYPE html PUBLIC "-//W3C//DTD XHTML 1.0 Transitional//EN" "http://www.w3.org/TR/xhtml1/DTD/xhtml1-transitional.dtd">\\r\\n<html xmlns="http://www.w3.org/1999/xhtml" xml:lang="en" lang="en">\\r\\n<head>\\r\\n  <meta http-equiv="Content-Type" content="text/html; charset=UTF-8" />\\r\\n    \', escape=False)\n###### include web2py specific js code (jquery, calendar, form stuff)\nresponse.write(\'\\r\\n    \', escape=False)\nresponse.files.insert(0,URL(\'static\',\'js/jquery.js\'))\nresponse.files.insert(1,URL(\'static\',\'css/anytime.css\'))\nresponse.files.insert(2,URL(\'static\',\'js/anytime.js\'))\nresponse.include_meta()\nresponse.include_files()\nresponse.write(\'\\n<script type="text/javascript"><!--\\n    // These variables are used by the web2py_ajax_init function in web2py_ajax.js (which is loaded below).\\n    var w2p_ajax_confirm_message = "\', escape=False)\nresponse.write(T(\'Are you sure you want to delete this object?\'))\nresponse.write(\'";\\n    var w2p_ajax_date_format = "\', escape=False)\nresponse.write(T(\'%Y-%m-%d\'))\nresponse.write(\'";\\n    var w2p_ajax_datetime_format = "\', escape=False)\nresponse.write(T(\'%Y-%m-%d %H:%M:%S\'))\nresponse.write(\'";\\n    //--></script>\\n    <script src="\', escape=False)\nresponse.write(URL(\'static\',\'js/web2py_ajax.js\'))\nresponse.write(\'" type="text/javascript"></script>\\n\', escape=False)\nresponse.write(\'\\r\\n    \\r\\n    <title>Fitness Challenge    </title>\\r\\n  <link rel="stylesheet" media="screen" href="\', escape=False)\nresponse.write(URL(\'static\', \'css/UNd-style.css\'))\nresponse.write(\'" />\\r\\n</head>\\r\\n<body>\\r\\n\\r\\n<div id="header">\\r\\n    <h1 id="site-title">Fitness Challenge</h1>\\r\\n    <h3 id="slogan">Step Up To The Challenge</h3>\\r\\n\\r\\n</div>\\r\\n\\r\\n<div id="top-menu">\\r\\n    \', escape=False)\nresponse.write(\'\\r\\n    <ul>\\r\\n        <li class="top-menu-item"><a href="\', escape=False)\nresponse.write(URL(r=request,f=\'index\'))\nresponse.write(\'">Home</a></li>\\r\\n        <li class="before-selected"></li>\\r\\n        <li class="selected"><a href="#">Challenge</a></li>\\r\\n        <li class="after-selected"></li>\\r\\n        <li class="top-menu-item"><a href="#">Check In</a></li>\\r\\n        <li class="top-menu-item"><a href="\', escape=False)\nresponse.write(URL(r=request,f=\'contact\'))\nresponse.write(\'">Contact</a></li>\\r\\n        <li class="top-menu-item"><a href="#">About</a></li>\\r\\n    </ul>\\r\\n\', escape=False)\nresponse.write(\'\\r\\n    <div id="auth_navbar">\\r\\n        <br/>\\r\\n        \', escape=False)\ntry:\n    response.write(auth.navbar(action=URL(\'default\',\'user\')))\nexcept:pass\nresponse.write(\'</h3>\\r\\n    </div>\\r\\n</div>\\r\\n\\r\\n<div id="wrap-website">\\r\\n    <div id="content">\\r\\n        <div class="post">\\r\\n            <div class="head-post">\\r\\n            \', escape=False)\nresponse.write(\'\\r\\n\\t <h1 class="titlePage">\', escape=False)\nresponse.write(form.name)\nresponse.write(\'</h1>\\r\\n<!-- \\t <h1 class="titlePage">\', escape=False)\nresponse.write(T(form.name.function.replace(\'_\',\' \').capitalize()))\nresponse.write(\'</h1> -->\\r\\n\\tTEST POSITION\\r\\n\', escape=False)\nresponse.write(\'\\r\\n            <!-- \\r\\n                \', escape=False)\nif request.args(0) != None:\n    response.write(\'\\r\\n                    <h1 class="titlePage">\', escape=False)\n    response.write(T(request.args(0).replace(\'_\',\' \').capitalize()))\n    response.write(\'</h1>\\r\\n                \', escape=False)\nelse:\n    response.write(\'\\r\\n                    <h1 class="titlePage">\', escape=False)\n    response.write(T(request.function.replace(\'_\',\' \').capitalize()))\n    response.write(\'</h1>\\r\\n                \', escape=False)\n    pass\nresponse.write(\'\\r\\n            -->\\r\\n            </div>\\r\\n            <div class="body-post">\\r\\n                \', escape=False)\nresponse.write(\'\\r\\n\', escape=False)\nresponse.write(\'\\r\\n\\r\\n\', escape=False)\nresponse.write(\'\\r\\n\\r\\n\', escape=False)\nresponse.write(\'\\r\\n\\r\\n<table class=\\\'event\\\' width="100%">\\r\\n    <tr>\\r\\n<!--         <td width="70%" rowspan="2"><h2> \', escape=False)\nresponse.write(form.name)\nresponse.write(\' </h2></td> -->\\r\\n        <td width="20%">Start Date: </td>\\r\\n        <td width="10%"> \', escape=False)\nresponse.write(form.start_date)\nresponse.write(\'</td>\\r\\n    </tr>\\r\\n    <tr>\\r\\n        <td>End Date: </td>\\r\\n        <td> \', escape=False)\nresponse.write(form.end_date)\nresponse.write(\' </td>\\r\\n    </tr>\\r\\n    <tr>\\r\\n        <td rowspan="4"><h2> \', escape=False)\nresponse.write(form.description)\nresponse.write(\' </h2></td>\\r\\n        <td>Status: </td>\\r\\n        <td>\', escape=False)\nresponse.write(form.status)\nresponse.write(\' </td>\\r\\n    </tr>\\r\\n    <tr>\\r\\n        <td>Check In: </td><td> \', escape=False)\nresponse.write(form.check_in)\nresponse.write(\' </td>\\r\\n    </tr>\\r\\n    <tr>\\r\\n        <td>Metric Name: </td><td> \', escape=False)\nresponse.write(form.metric_name)\nresponse.write(\' </td>\\r\\n    </tr>\\r\\n    <tr>\\r\\n        <td># of Partcipants: </td><td>\', escape=False)\nresponse.write(num_users)\nresponse.write(\'</td>\\r\\n    </tr>    \\r\\n</table> \\r\\n<hr>\\r\\n<br>\\r\\n<center><h3> Leaders Board </h3></center>\\r\\n<h2> Under Development </h2>\\r\\n</br>\\r\\n<table>\\r\\n    <th>Name</th>\\r\\n    <th>Entry</th>\\r\\n    <th>Date of Last Entry</th>\\r\\n\\t\', escape=False)\nfor entry in entries:\n    response.write(\'    \\r\\n        <tr>        \\r\\n            <td>\', escape=False)\n    response.write(entry.user.user_name.first_name)\n    response.write(\'</td>\\r\\n            <td>\', escape=False)\n    response.write(entry.value)\n    response.write(\'</td>\\r\\n            <td>\', escape=False)\n    response.write(entry.date_entered)\n    response.write(\'</td>\\r\\n        </tr>\\r\\n    \', escape=False)\n    pass\nresponse.write(\'\\r\\n</table>\\r\\n\\r\\n<br>\\r\\n<hr>\\r\\n\', escape=False)\nresponse.write(\'\\r\\n            </div>\\r\\n        </div>\\r\\n    </div>\\r\\n    <div id="right-menu">\\r\\n        <div class="right-menu-item">\\r\\n            <div class="right-menu-title">\\r\\n                <h3>Links</h3>\\r\\n            </div>\\r\\n            <ul>\\r\\n                <li><a href="\', escape=False)\nresponse.write(URL(r=request,f=\'create\'))\nresponse.write(\'">Create a Challenge</a></li>\\r\\n                <li><a href="\', escape=False)\nresponse.write(URL(r=request,f=\'search\'))\nresponse.write(\'">Search for a Challenge</a></li>\\r\\n            \\t\', escape=False)\nresponse.write(\'\\r\\n\\t\', escape=False)\nif auth.user.id == form.created_by:\n    response.write(\'\\r\\n\\t\\t<li>\', escape=False)\n    response.write(A(\'Edit Challenge\', _href=URL(\'edit\', vars=dict(event=form.id))))\n    response.write(\'</li>\\r\\n\\t\', escape=False)\n    pass\nresponse.write(\'\\r\\n\', escape=False)\nresponse.write(\'\\r\\n            </ul>\\r\\n            <div class="right-menu-bottom"></div>\\r\\n        </div>\\r\\n        \\r\\n    </div>\\r\\n    <div class="clean"></div>\\r\\n</div>\\r\\n\\r\\n<div id="footer">\\r\\n    <p>\\r\\n        UNd Theme - <a href="http://www.florian-hacquebart.eu">florian-hacquebart.eu</a> - <a href="http://validator.w3.org/check?uri=referer">xhtml</a> &amp; <a href="http://jigsaw.w3.org/css-validator/check/referer">css</a> valid\\r\\n    </p>\\r\\n</div>\\r\\n\\r\\n</body>\\r\\n</html>\\r\\n\', escape=False)'
p7
sS'snapshot'
p8
(dp9
S'exception'
p10
(dp11
S'__hash__'
p12
S"<method-wrapper '__hash__' of exceptions.AttributeError object>"
p13
sS'__setattr__'
p14
S"<method-wrapper '__setattr__' of exceptions.AttributeError object>"
p15
sS'__reduce_ex__'
p16
S'<built-in method __reduce_ex__ of exceptions.AttributeError object>'
p17
sS'__getslice__'
p18
S"<method-wrapper '__getslice__' of exceptions.AttributeError object>"
p19
sS'__getitem__'
p20
S"<method-wrapper '__getitem__' of exceptions.AttributeError object>"
p21
sS'__setstate__'
p22
S'<built-in method __setstate__ of exceptions.AttributeError object>'
p23
sS'__reduce__'
p24
S'<built-in method __reduce__ of exceptions.AttributeError object>'
p25
sS'__str__'
p26
S"<method-wrapper '__str__' of exceptions.AttributeError object>"
p27
sS'__format__'
p28
S'<built-in method __format__ of exceptions.AttributeError object>'
p29
sS'__getattribute__'
p30
S"<method-wrapper '__getattribute__' of exceptions.AttributeError object>"
p31
sS'__class__'
p32
S"<type 'exceptions.AttributeError'>"
p33
sS'__unicode__'
p34
S'<built-in method __unicode__ of exceptions.AttributeError object>'
p35
sS'__delattr__'
p36
S"<method-wrapper '__delattr__' of exceptions.AttributeError object>"
p37
sS'__subclasshook__'
p38
S'<built-in method __subclasshook__ of type object>'
p39
sS'__repr__'
p40
S"<method-wrapper '__repr__' of exceptions.AttributeError object>"
p41
sS'args'
p42
S'("\'str\' object has no attribute \'function\'",)'
p43
sS'__dict__'
p44
S'{}'
p45
sS'__sizeof__'
p46
S'<built-in method __sizeof__ of exceptions.AttributeError object>'
p47
sS'__doc__'
p48
S"'Attribute not found.'"
p49
sS'__init__'
p50
S"<method-wrapper '__init__' of exceptions.AttributeError object>"
p51
sS'__new__'
p52
S'<built-in method __new__ of type object>'
p53
ssS'evalue'
p54
S"'str' object has no attribute 'function'"
p55
sS'request'
p56
ccopy_reg
_reconstructor
p57
(cgluon.html
BEAUTIFY
p58
c__builtin__
object
p59
NtRp60
(dp61
S'attributes'
p62
(dp63
sS'components'
p64
(lp65
g57
(cgluon.html
TABLE
p66
g59
NtRp67
(dp68
g62
(dp69
S'level'
p70
I5
ssS'parent'
p71
Nsg64
(lp72
g57
(cgluon.html
TR
p73
g59
NtRp74
(dp75
g62
(dp76
sg71
g67
sg64
(lp77
g57
(cgluon.html
TD
p78
g59
NtRp79
(dp80
g62
(dp81
S'_style'
p82
S'font-weight:bold;vertical-align:top'
p83
ssg71
g74
sg64
(lp84
S'ajax'
p85
asbag57
(g78
g59
NtRp86
(dp87
g62
(dp88
S'_valign'
p89
S'top'
p90
ssg71
g74
sg64
(lp91
S':'
asbag57
(g78
g59
NtRp92
(dp93
g62
(dp94
sg71
g74
sg64
(lp95
g57
(g58
g59
NtRp96
(dp97
g62
(dp98
g70
I5
ssg71
g92
sg64
(lp99
S'False'
p100
asbasbasbag57
(g73
g59
NtRp101
(dp102
g62
(dp103
sg71
g67
sg64
(lp104
g57
(g78
g59
NtRp105
(dp106
g62
(dp107
g82
g83
ssg71
g101
sg64
(lp108
S'application'
p109
asbag57
(g78
g59
NtRp110
(dp111
g62
(dp112
g89
g90
ssg71
g101
sg64
(lp113
S':'
asbag57
(g78
g59
NtRp114
(dp115
g62
(dp116
sg71
g101
sg64
(lp117
g57
(g58
g59
NtRp118
(dp119
g62
(dp120
g70
I5
ssg71
g114
sg64
(lp121
S'init'
p122
asbasbasbag57
(g73
g59
NtRp123
(dp124
g62
(dp125
sg71
g67
sg64
(lp126
g57
(g78
g59
NtRp127
(dp128
g62
(dp129
g82
g83
ssg71
g123
sg64
(lp130
g42
asbag57
(g78
g59
NtRp131
(dp132
g62
(dp133
g89
g90
ssg71
g123
sg64
(lp134
S':'
asbag57
(g78
g59
NtRp135
(dp136
g62
(dp137
sg71
g123
sg64
(lp138
g57
(g58
g59
NtRp139
(dp140
g62
(dp141
g70
I5
ssg71
g135
sg64
(lp142
g57
(g66
g59
NtRp143
(dp144
g62
(dp145
g70
I4
ssg71
Nsg64
(lp146
sbasbasbasbag57
(g73
g59
NtRp147
(dp148
g62
(dp149
sg71
g67
sg64
(lp150
g57
(g78
g59
NtRp151
(dp152
g62
(dp153
g82
g83
ssg71
g147
sg64
(lp154
S'body'
p155
asbag57
(g78
g59
NtRp156
(dp157
g62
(dp158
g89
g90
ssg71
g147
sg64
(lp159
S':'
asbag57
(g78
g59
NtRp160
(dp161
g62
(dp162
sg71
g147
sg64
(lp163
g57
(g58
g59
NtRp164
(dp165
g62
(dp166
g70
I5
ssg71
g160
sg64
(lp167
S'<cStringIO.StringO object at 0x03144A40>'
p168
asbasbasbag57
(g73
g59
NtRp169
(dp170
g62
(dp171
sg71
g67
sg64
(lp172
g57
(g78
g59
NtRp173
(dp174
g62
(dp175
g82
g83
ssg71
g169
sg64
(lp176
S'client'
p177
asbag57
(g78
g59
NtRp178
(dp179
g62
(dp180
g89
g90
ssg71
g169
sg64
(lp181
S':'
asbag57
(g78
g59
NtRp182
(dp183
g62
(dp184
sg71
g169
sg64
(lp185
g57
(g58
g59
NtRp186
(dp187
g62
(dp188
g70
I5
ssg71
g182
sg64
(lp189
S'127.0.0.1'
p190
asbasbasbag57
(g73
g59
NtRp191
(dp192
g62
(dp193
sg71
g67
sg64
(lp194
g57
(g78
g59
NtRp195
(dp196
g62
(dp197
g82
g83
ssg71
g191
sg64
(lp198
S'controller'
p199
asbag57
(g78
g59
NtRp200
(dp201
g62
(dp202
g89
g90
ssg71
g191
sg64
(lp203
S':'
asbag57
(g78
g59
NtRp204
(dp205
g62
(dp206
sg71
g191
sg64
(lp207
g57
(g58
g59
NtRp208
(dp209
g62
(dp210
g70
I5
ssg71
g204
sg64
(lp211
S'default'
p212
asbasbasbag57
(g73
g59
NtRp213
(dp214
g62
(dp215
sg71
g67
sg64
(lp216
g57
(g78
g59
NtRp217
(dp218
g62
(dp219
g82
g83
ssg71
g213
sg64
(lp220
S'cookies'
p221
asbag57
(g78
g59
NtRp222
(dp223
g62
(dp224
g89
g90
ssg71
g213
sg64
(lp225
S':'
asbag57
(g78
g59
NtRp226
(dp227
g62
(dp228
sg71
g213
sg64
(lp229
g57
(g58
g59
NtRp230
(dp231
g62
(dp232
g70
I5
ssg71
g226
sg64
(lp233
g57
(g66
g59
NtRp234
(dp235
g62
(dp236
g70
I4
ssg71
Nsg64
(lp237
g57
(g73
g59
NtRp238
(dp239
g62
(dp240
sg71
g234
sg64
(lp241
g57
(g78
g59
NtRp242
(dp243
g62
(dp244
g82
g83
ssg71
g238
sg64
(lp245
S'session_id_admin'
p246
asbag57
(g78
g59
NtRp247
(dp248
g62
(dp249
g89
g90
ssg71
g238
sg64
(lp250
S':'
asbag57
(g78
g59
NtRp251
(dp252
g62
(dp253
sg71
g238
sg64
(lp254
g57
(g58
g59
NtRp255
(dp256
g62
(dp257
g70
I4
ssg71
g251
sg64
(lp258
g57
(g66
g59
NtRp259
(dp260
g62
(dp261
g70
I3
ssg71
Nsg64
(lp262
g57
(g73
g59
NtRp263
(dp264
g62
(dp265
sg71
g259
sg64
(lp266
g57
(g78
g59
NtRp267
(dp268
g62
(dp269
g82
g83
ssg71
g263
sg64
(lp270
S'comment'
p271
asbag57
(g78
g59
NtRp272
(dp273
g62
(dp274
g89
g90
ssg71
g263
sg64
(lp275
S':'
asbag57
(g78
g59
NtRp276
(dp277
g62
(dp278
sg71
g263
sg64
(lp279
g57
(g58
g59
NtRp280
(dp281
g62
(dp282
g70
I3
ssg71
g276
sg64
(lp283
S''
asbasbasbag57
(g73
g59
NtRp284
(dp285
g62
(dp286
sg71
g259
sg64
(lp287
g57
(g78
g59
NtRp288
(dp289
g62
(dp290
g82
g83
ssg71
g284
sg64
(lp291
S'domain'
p292
asbag57
(g78
g59
NtRp293
(dp294
g62
(dp295
g89
g90
ssg71
g284
sg64
(lp296
S':'
asbag57
(g78
g59
NtRp297
(dp298
g62
(dp299
sg71
g284
sg64
(lp300
g57
(g58
g59
NtRp301
(dp302
g62
(dp303
g70
I3
ssg71
g297
sg64
(lp304
S''
asbasbasbag57
(g73
g59
NtRp305
(dp306
g62
(dp307
sg71
g259
sg64
(lp308
g57
(g78
g59
NtRp309
(dp310
g62
(dp311
g82
g83
ssg71
g305
sg64
(lp312
S'expires'
p313
asbag57
(g78
g59
NtRp314
(dp315
g62
(dp316
g89
g90
ssg71
g305
sg64
(lp317
S':'
asbag57
(g78
g59
NtRp318
(dp319
g62
(dp320
sg71
g305
sg64
(lp321
g57
(g58
g59
NtRp322
(dp323
g62
(dp324
g70
I3
ssg71
g318
sg64
(lp325
S''
asbasbasbag57
(g73
g59
NtRp326
(dp327
g62
(dp328
sg71
g259
sg64
(lp329
g57
(g78
g59
NtRp330
(dp331
g62
(dp332
g82
g83
ssg71
g326
sg64
(lp333
S'httponly'
p334
asbag57
(g78
g59
NtRp335
(dp336
g62
(dp337
g89
g90
ssg71
g326
sg64
(lp338
S':'
asbag57
(g78
g59
NtRp339
(dp340
g62
(dp341
sg71
g326
sg64
(lp342
g57
(g58
g59
NtRp343
(dp344
g62
(dp345
g70
I3
ssg71
g339
sg64
(lp346
S''
asbasbasbag57
(g73
g59
NtRp347
(dp348
g62
(dp349
sg71
g259
sg64
(lp350
g57
(g78
g59
NtRp351
(dp352
g62
(dp353
g82
g83
ssg71
g347
sg64
(lp354
S'max-age'
p355
asbag57
(g78
g59
NtRp356
(dp357
g62
(dp358
g89
g90
ssg71
g347
sg64
(lp359
S':'
asbag57
(g78
g59
NtRp360
(dp361
g62
(dp362
sg71
g347
sg64
(lp363
g57
(g58
g59
NtRp364
(dp365
g62
(dp366
g70
I3
ssg71
g360
sg64
(lp367
S''
asbasbasbag57
(g73
g59
NtRp368
(dp369
g62
(dp370
sg71
g259
sg64
(lp371
g57
(g78
g59
NtRp372
(dp373
g62
(dp374
g82
g83
ssg71
g368
sg64
(lp375
S'path'
p376
asbag57
(g78
g59
NtRp377
(dp378
g62
(dp379
g89
g90
ssg71
g368
sg64
(lp380
S':'
asbag57
(g78
g59
NtRp381
(dp382
g62
(dp383
sg71
g368
sg64
(lp384
g57
(g58
g59
NtRp385
(dp386
g62
(dp387
g70
I3
ssg71
g381
sg64
(lp388
S''
asbasbasbag57
(g73
g59
NtRp389
(dp390
g62
(dp391
sg71
g259
sg64
(lp392
g57
(g78
g59
NtRp393
(dp394
g62
(dp395
g82
g83
ssg71
g389
sg64
(lp396
S'secure'
p397
asbag57
(g78
g59
NtRp398
(dp399
g62
(dp400
g89
g90
ssg71
g389
sg64
(lp401
S':'
asbag57
(g78
g59
NtRp402
(dp403
g62
(dp404
sg71
g389
sg64
(lp405
g57
(g58
g59
NtRp406
(dp407
g62
(dp408
g70
I3
ssg71
g402
sg64
(lp409
S''
asbasbasbag57
(g73
g59
NtRp410
(dp411
g62
(dp412
sg71
g259
sg64
(lp413
g57
(g78
g59
NtRp414
(dp415
g62
(dp416
g82
g83
ssg71
g410
sg64
(lp417
S'version'
p418
asbag57
(g78
g59
NtRp419
(dp420
g62
(dp421
g89
g90
ssg71
g410
sg64
(lp422
S':'
asbag57
(g78
g59
NtRp423
(dp424
g62
(dp425
sg71
g410
sg64
(lp426
g57
(g58
g59
NtRp427
(dp428
g62
(dp429
g70
I3
ssg71
g423
sg64
(lp430
S''
asbasbasbasbasbasbasbag57
(g73
g59
NtRp431
(dp432
g62
(dp433
sg71
g234
sg64
(lp434
g57
(g78
g59
NtRp435
(dp436
g62
(dp437
g82
g83
ssg71
g431
sg64
(lp438
S'session_id_init'
p439
asbag57
(g78
g59
NtRp440
(dp441
g62
(dp442
g89
g90
ssg71
g431
sg64
(lp443
S':'
asbag57
(g78
g59
NtRp444
(dp445
g62
(dp446
sg71
g431
sg64
(lp447
g57
(g58
g59
NtRp448
(dp449
g62
(dp450
g70
I4
ssg71
g444
sg64
(lp451
g57
(g66
g59
NtRp452
(dp453
g62
(dp454
g70
I3
ssg71
Nsg64
(lp455
g57
(g73
g59
NtRp456
(dp457
g62
(dp458
sg71
g452
sg64
(lp459
g57
(g78
g59
NtRp460
(dp461
g62
(dp462
g82
g83
ssg71
g456
sg64
(lp463
g271
asbag57
(g78
g59
NtRp464
(dp465
g62
(dp466
g89
g90
ssg71
g456
sg64
(lp467
S':'
asbag57
(g78
g59
NtRp468
(dp469
g62
(dp470
sg71
g456
sg64
(lp471
g57
(g58
g59
NtRp472
(dp473
g62
(dp474
g70
I3
ssg71
g468
sg64
(lp475
S''
asbasbasbag57
(g73
g59
NtRp476
(dp477
g62
(dp478
sg71
g452
sg64
(lp479
g57
(g78
g59
NtRp480
(dp481
g62
(dp482
g82
g83
ssg71
g476
sg64
(lp483
g292
asbag57
(g78
g59
NtRp484
(dp485
g62
(dp486
g89
g90
ssg71
g476
sg64
(lp487
S':'
asbag57
(g78
g59
NtRp488
(dp489
g62
(dp490
sg71
g476
sg64
(lp491
g57
(g58
g59
NtRp492
(dp493
g62
(dp494
g70
I3
ssg71
g488
sg64
(lp495
S''
asbasbasbag57
(g73
g59
NtRp496
(dp497
g62
(dp498
sg71
g452
sg64
(lp499
g57
(g78
g59
NtRp500
(dp501
g62
(dp502
g82
g83
ssg71
g496
sg64
(lp503
g313
asbag57
(g78
g59
NtRp504
(dp505
g62
(dp506
g89
g90
ssg71
g496
sg64
(lp507
S':'
asbag57
(g78
g59
NtRp508
(dp509
g62
(dp510
sg71
g496
sg64
(lp511
g57
(g58
g59
NtRp512
(dp513
g62
(dp514
g70
I3
ssg71
g508
sg64
(lp515
S''
asbasbasbag57
(g73
g59
NtRp516
(dp517
g62
(dp518
sg71
g452
sg64
(lp519
g57
(g78
g59
NtRp520
(dp521
g62
(dp522
g82
g83
ssg71
g516
sg64
(lp523
g334
asbag57
(g78
g59
NtRp524
(dp525
g62
(dp526
g89
g90
ssg71
g516
sg64
(lp527
S':'
asbag57
(g78
g59
NtRp528
(dp529
g62
(dp530
sg71
g516
sg64
(lp531
g57
(g58
g59
NtRp532
(dp533
g62
(dp534
g70
I3
ssg71
g528
sg64
(lp535
S''
asbasbasbag57
(g73
g59
NtRp536
(dp537
g62
(dp538
sg71
g452
sg64
(lp539
g57
(g78
g59
NtRp540
(dp541
g62
(dp542
g82
g83
ssg71
g536
sg64
(lp543
g355
asbag57
(g78
g59
NtRp544
(dp545
g62
(dp546
g89
g90
ssg71
g536
sg64
(lp547
S':'
asbag57
(g78
g59
NtRp548
(dp549
g62
(dp550
sg71
g536
sg64
(lp551
g57
(g58
g59
NtRp552
(dp553
g62
(dp554
g70
I3
ssg71
g548
sg64
(lp555
S''
asbasbasbag57
(g73
g59
NtRp556
(dp557
g62
(dp558
sg71
g452
sg64
(lp559
g57
(g78
g59
NtRp560
(dp561
g62
(dp562
g82
g83
ssg71
g556
sg64
(lp563
g376
asbag57
(g78
g59
NtRp564
(dp565
g62
(dp566
g89
g90
ssg71
g556
sg64
(lp567
S':'
asbag57
(g78
g59
NtRp568
(dp569
g62
(dp570
sg71
g556
sg64
(lp571
g57
(g58
g59
NtRp572
(dp573
g62
(dp574
g70
I3
ssg71
g568
sg64
(lp575
S''
asbasbasbag57
(g73
g59
NtRp576
(dp577
g62
(dp578
sg71
g452
sg64
(lp579
g57
(g78
g59
NtRp580
(dp581
g62
(dp582
g82
g83
ssg71
g576
sg64
(lp583
g397
asbag57
(g78
g59
NtRp584
(dp585
g62
(dp586
g89
g90
ssg71
g576
sg64
(lp587
S':'
asbag57
(g78
g59
NtRp588
(dp589
g62
(dp590
sg71
g576
sg64
(lp591
g57
(g58
g59
NtRp592
(dp593
g62
(dp594
g70
I3
ssg71
g588
sg64
(lp595
S''
asbasbasbag57
(g73
g59
NtRp596
(dp597
g62
(dp598
sg71
g452
sg64
(lp599
g57
(g78
g59
NtRp600
(dp601
g62
(dp602
g82
g83
ssg71
g596
sg64
(lp603
g418
asbag57
(g78
g59
NtRp604
(dp605
g62
(dp606
g89
g90
ssg71
g596
sg64
(lp607
S':'
asbag57
(g78
g59
NtRp608
(dp609
g62
(dp610
sg71
g596
sg64
(lp611
g57
(g58
g59
NtRp612
(dp613
g62
(dp614
g70
I3
ssg71
g608
sg64
(lp615
S''
asbasbasbasbasbasbasbasbasbasbasbag57
(g73
g59
NtRp616
(dp617
g62
(dp618
sg71
g67
sg64
(lp619
g57
(g78
g59
NtRp620
(dp621
g62
(dp622
g82
g83
ssg71
g616
sg64
(lp623
S'env'
p624
asbag57
(g78
g59
NtRp625
(dp626
g62
(dp627
g89
g90
ssg71
g616
sg64
(lp628
S':'
asbag57
(g78
g59
NtRp629
(dp630
g62
(dp631
sg71
g616
sg64
(lp632
g57
(g58
g59
NtRp633
(dp634
g62
(dp635
g70
I5
ssg71
g629
sg64
(lp636
g57
(g66
g59
NtRp637
(dp638
g62
(dp639
g70
I4
ssg71
Nsg64
(lp640
g57
(g73
g59
NtRp641
(dp642
g62
(dp643
sg71
g637
sg64
(lp644
g57
(g78
g59
NtRp645
(dp646
g62
(dp647
g82
g83
ssg71
g641
sg64
(lp648
S'app_folders'
p649
asbag57
(g78
g59
NtRp650
(dp651
g62
(dp652
g89
g90
ssg71
g641
sg64
(lp653
S':'
asbag57
(g78
g59
NtRp654
(dp655
g62
(dp656
sg71
g641
sg64
(lp657
g57
(g58
g59
NtRp658
(dp659
g62
(dp660
g70
I4
ssg71
g654
sg64
(lp661
S"set(['P:\\\\School\\\\DePaul\\\\Projects\\\\CSC_438\\\\web2py\\\\applications\\\\init\\\\', 'P:\\\\School\\\\DePaul\\\\Projects\\\\CSC_438\\\\web2py\\\\applications\\\\admin\\\\'])"
p662
asbasbasbag57
(g73
g59
NtRp663
(dp664
g62
(dp665
sg71
g637
sg64
(lp666
g57
(g78
g59
NtRp667
(dp668
g62
(dp669
g82
g83
ssg71
g663
sg64
(lp670
S'applications_parent'
p671
asbag57
(g78
g59
NtRp672
(dp673
g62
(dp674
g89
g90
ssg71
g663
sg64
(lp675
S':'
asbag57
(g78
g59
NtRp676
(dp677
g62
(dp678
sg71
g663
sg64
(lp679
g57
(g58
g59
NtRp680
(dp681
g62
(dp682
g70
I4
ssg71
g676
sg64
(lp683
S'P:\\School\\DePaul\\Projects\\CSC_438\\web2py'
p684
asbasbasbag57
(g73
g59
NtRp685
(dp686
g62
(dp687
sg71
g637
sg64
(lp688
g57
(g78
g59
NtRp689
(dp690
g62
(dp691
g82
g83
ssg71
g685
sg64
(lp692
S'cmd_args'
p693
asbag57
(g78
g59
NtRp694
(dp695
g62
(dp696
g89
g90
ssg71
g685
sg64
(lp697
S':'
asbag57
(g78
g59
NtRp698
(dp699
g62
(dp700
sg71
g685
sg64
(lp701
g57
(g58
g59
NtRp702
(dp703
g62
(dp704
g70
I4
ssg71
g698
sg64
(lp705
g57
(g66
g59
NtRp706
(dp707
g62
(dp708
g70
I3
ssg71
Nsg64
(lp709
sbasbasbasbag57
(g73
g59
NtRp710
(dp711
g62
(dp712
sg71
g637
sg64
(lp713
g57
(g78
g59
NtRp714
(dp715
g62
(dp716
g82
g83
ssg71
g710
sg64
(lp717
S'cmd_options'
p718
asbag57
(g78
g59
NtRp719
(dp720
g62
(dp721
g89
g90
ssg71
g710
sg64
(lp722
S':'
asbag57
(g78
g59
NtRp723
(dp724
g62
(dp725
sg71
g710
sg64
(lp726
g57
(g58
g59
NtRp727
(dp728
g62
(dp729
g70
I4
ssg71
g723
sg64
(lp730
S"<Values at 0x2e0ccd8: {'verbose': False, 'ip': '127.0.0.1', 'shutdown_timeout': 5, 'taskbar': False, 'nocron': False, 'pid_filename': 'httpserver.pid', 'maxthreads': None, 'softcron': False, 'server_name': 'Bishop-PC', 'bpython': False, 'nogui': False, 'port': 8000, 'extcron': False, 'debuglevel': 30, 'test': None, 'folder': 'P:\\\\School\\\\DePaul\\\\Projects\\\\CSC_438\\\\web2py', 'config': '', 'import_models': False, 'winservice': '', 'shell': None, 'run': '', 'log_filename': 'httpserver.log', 'args': [''], 'ssl_ca_certificate': None, 'scheduler': None, 'profiler_filename': None, 'ssl_private_key': '', 'password': '<ask>', 'request_queue_size': 5, 'ssl_certificate': '', 'cronjob': False, 'plain': False, 'quiet': False, 'interfaces': None, 'minthreads': None, 'timeout': 10, 'numthreads': None, 'nobanner': False}>"
p731
asbasbasbag57
(g73
g59
NtRp732
(dp733
g62
(dp734
sg71
g637
sg64
(lp735
g57
(g78
g59
NtRp736
(dp737
g62
(dp738
g82
g83
ssg71
g732
sg64
(lp739
S'db_sessions'
p740
asbag57
(g78
g59
NtRp741
(dp742
g62
(dp743
g89
g90
ssg71
g732
sg64
(lp744
S':'
asbag57
(g78
g59
NtRp745
(dp746
g62
(dp747
sg71
g732
sg64
(lp748
g57
(g58
g59
NtRp749
(dp750
g62
(dp751
g70
I4
ssg71
g745
sg64
(lp752
S'set([])'
p753
asbasbasbag57
(g73
g59
NtRp754
(dp755
g62
(dp756
sg71
g637
sg64
(lp757
g57
(g78
g59
NtRp758
(dp759
g62
(dp760
g82
g83
ssg71
g754
sg64
(lp761
S'debugging'
p762
asbag57
(g78
g59
NtRp763
(dp764
g62
(dp765
g89
g90
ssg71
g754
sg64
(lp766
S':'
asbag57
(g78
g59
NtRp767
(dp768
g62
(dp769
sg71
g754
sg64
(lp770
g57
(g58
g59
NtRp771
(dp772
g62
(dp773
g70
I4
ssg71
g767
sg64
(lp774
g100
asbasbasbag57
(g73
g59
NtRp775
(dp776
g62
(dp777
sg71
g637
sg64
(lp778
g57
(g78
g59
NtRp779
(dp780
g62
(dp781
g82
g83
ssg71
g775
sg64
(lp782
S'gluon_parent'
p783
asbag57
(g78
g59
NtRp784
(dp785
g62
(dp786
g89
g90
ssg71
g775
sg64
(lp787
S':'
asbag57
(g78
g59
NtRp788
(dp789
g62
(dp790
sg71
g775
sg64
(lp791
g57
(g58
g59
NtRp792
(dp793
g62
(dp794
g70
I4
ssg71
g788
sg64
(lp795
S'P:\\School\\DePaul\\Projects\\CSC_438\\web2py'
p796
asbasbasbag57
(g73
g59
NtRp797
(dp798
g62
(dp799
sg71
g637
sg64
(lp800
g57
(g78
g59
NtRp801
(dp802
g62
(dp803
g82
g83
ssg71
g797
sg64
(lp804
S'http_accept'
p805
asbag57
(g78
g59
NtRp806
(dp807
g62
(dp808
g89
g90
ssg71
g797
sg64
(lp809
S':'
asbag57
(g78
g59
NtRp810
(dp811
g62
(dp812
sg71
g797
sg64
(lp813
g57
(g58
g59
NtRp814
(dp815
g62
(dp816
g70
I4
ssg71
g810
sg64
(lp817
S'text/html,application/xhtml+xml,application/xml;q=0.9,*/*;q=0.8'
p818
asbasbasbag57
(g73
g59
NtRp819
(dp820
g62
(dp821
sg71
g637
sg64
(lp822
g57
(g78
g59
NtRp823
(dp824
g62
(dp825
g82
g83
ssg71
g819
sg64
(lp826
S'http_accept_charset'
p827
asbag57
(g78
g59
NtRp828
(dp829
g62
(dp830
g89
g90
ssg71
g819
sg64
(lp831
S':'
asbag57
(g78
g59
NtRp832
(dp833
g62
(dp834
sg71
g819
sg64
(lp835
g57
(g58
g59
NtRp836
(dp837
g62
(dp838
g70
I4
ssg71
g832
sg64
(lp839
S'ISO-8859-1,utf-8;q=0.7,*;q=0.7'
p840
asbasbasbag57
(g73
g59
NtRp841
(dp842
g62
(dp843
sg71
g637
sg64
(lp844
g57
(g78
g59
NtRp845
(dp846
g62
(dp847
g82
g83
ssg71
g841
sg64
(lp848
S'http_accept_encoding'
p849
asbag57
(g78
g59
NtRp850
(dp851
g62
(dp852
g89
g90
ssg71
g841
sg64
(lp853
S':'
asbag57
(g78
g59
NtRp854
(dp855
g62
(dp856
sg71
g841
sg64
(lp857
g57
(g58
g59
NtRp858
(dp859
g62
(dp860
g70
I4
ssg71
g854
sg64
(lp861
S'gzip,deflate'
p862
asbasbasbag57
(g73
g59
NtRp863
(dp864
g62
(dp865
sg71
g637
sg64
(lp866
g57
(g78
g59
NtRp867
(dp868
g62
(dp869
g82
g83
ssg71
g863
sg64
(lp870
S'http_accept_language'
p871
asbag57
(g78
g59
NtRp872
(dp873
g62
(dp874
g89
g90
ssg71
g863
sg64
(lp875
S':'
asbag57
(g78
g59
NtRp876
(dp877
g62
(dp878
sg71
g863
sg64
(lp879
g57
(g58
g59
NtRp880
(dp881
g62
(dp882
g70
I4
ssg71
g876
sg64
(lp883
S'en-us,en;q=0.5'
p884
asbasbasbag57
(g73
g59
NtRp885
(dp886
g62
(dp887
sg71
g637
sg64
(lp888
g57
(g78
g59
NtRp889
(dp890
g62
(dp891
g82
g83
ssg71
g885
sg64
(lp892
S'http_connection'
p893
asbag57
(g78
g59
NtRp894
(dp895
g62
(dp896
g89
g90
ssg71
g885
sg64
(lp897
S':'
asbag57
(g78
g59
NtRp898
(dp899
g62
(dp900
sg71
g885
sg64
(lp901
g57
(g58
g59
NtRp902
(dp903
g62
(dp904
g70
I4
ssg71
g898
sg64
(lp905
S'keep-alive'
p906
asbasbasbag57
(g73
g59
NtRp907
(dp908
g62
(dp909
sg71
g637
sg64
(lp910
g57
(g78
g59
NtRp911
(dp912
g62
(dp913
g82
g83
ssg71
g907
sg64
(lp914
S'http_cookie'
p915
asbag57
(g78
g59
NtRp916
(dp917
g62
(dp918
g89
g90
ssg71
g907
sg64
(lp919
S':'
asbag57
(g78
g59
NtRp920
(dp921
g62
(dp922
sg71
g907
sg64
(lp923
g57
(g58
g59
NtRp924
(dp925
g62
(dp926
g70
I4
ssg71
g920
sg64
(lp927
S'__utma_a2a=4518867300.1350888199.1319331273.1319375111.1319375111.5; session_id_init=127.0.0.1-9cf14084-4033-491f-99b2-106d13fb9973; session_id_admin=127.0.0.1-ca11266a-1e6f-4c85-a03e-d1cb0b2024f8'
p928
asbasbasbag57
(g73
g59
NtRp929
(dp930
g62
(dp931
sg71
g637
sg64
(lp932
g57
(g78
g59
NtRp933
(dp934
g62
(dp935
g82
g83
ssg71
g929
sg64
(lp936
S'http_host'
p937
asbag57
(g78
g59
NtRp938
(dp939
g62
(dp940
g89
g90
ssg71
g929
sg64
(lp941
S':'
asbag57
(g78
g59
NtRp942
(dp943
g62
(dp944
sg71
g929
sg64
(lp945
g57
(g58
g59
NtRp946
(dp947
g62
(dp948
g70
I4
ssg71
g942
sg64
(lp949
S'127.0.0.1:8000'
p950
asbasbasbag57
(g73
g59
NtRp951
(dp952
g62
(dp953
sg71
g637
sg64
(lp954
g57
(g78
g59
NtRp955
(dp956
g62
(dp957
g82
g83
ssg71
g951
sg64
(lp958
S'http_keep_alive'
p959
asbag57
(g78
g59
NtRp960
(dp961
g62
(dp962
g89
g90
ssg71
g951
sg64
(lp963
S':'
asbag57
(g78
g59
NtRp964
(dp965
g62
(dp966
sg71
g951
sg64
(lp967
g57
(g58
g59
NtRp968
(dp969
g62
(dp970
g70
I4
ssg71
g964
sg64
(lp971
S'115'
p972
asbasbasbag57
(g73
g59
NtRp973
(dp974
g62
(dp975
sg71
g637
sg64
(lp976
g57
(g78
g59
NtRp977
(dp978
g62
(dp979
g82
g83
ssg71
g973
sg64
(lp980
S'http_user_agent'
p981
asbag57
(g78
g59
NtRp982
(dp983
g62
(dp984
g89
g90
ssg71
g973
sg64
(lp985
S':'
asbag57
(g78
g59
NtRp986
(dp987
g62
(dp988
sg71
g973
sg64
(lp989
g57
(g58
g59
NtRp990
(dp991
g62
(dp992
g70
I4
ssg71
g986
sg64
(lp993
S'Mozilla/5.0 (Windows; U; Windows NT 6.1; en-US; rv:1.9.2.24) Gecko/20111103 Firefox/3.6.24'
p994
asbasbasbag57
(g73
g59
NtRp995
(dp996
g62
(dp997
sg71
g637
sg64
(lp998
g57
(g78
g59
NtRp999
(dp1000
g62
(dp1001
g82
g83
ssg71
g995
sg64
(lp1002
S'is_jython'
p1003
asbag57
(g78
g59
NtRp1004
(dp1005
g62
(dp1006
g89
g90
ssg71
g995
sg64
(lp1007
S':'
asbag57
(g78
g59
NtRp1008
(dp1009
g62
(dp1010
sg71
g995
sg64
(lp1011
g57
(g58
g59
NtRp1012
(dp1013
g62
(dp1014
g70
I4
ssg71
g1008
sg64
(lp1015
g100
asbasbasbag57
(g73
g59
NtRp1016
(dp1017
g62
(dp1018
sg71
g637
sg64
(lp1019
g57
(g78
g59
NtRp1020
(dp1021
g62
(dp1022
g82
g83
ssg71
g1016
sg64
(lp1023
S'path_info'
p1024
asbag57
(g78
g59
NtRp1025
(dp1026
g62
(dp1027
g89
g90
ssg71
g1016
sg64
(lp1028
S':'
asbag57
(g78
g59
NtRp1029
(dp1030
g62
(dp1031
sg71
g1016
sg64
(lp1032
g57
(g58
g59
NtRp1033
(dp1034
g62
(dp1035
g70
I4
ssg71
g1029
sg64
(lp1036
S'/init/default/challenge'
p1037
asbasbasbag57
(g73
g59
NtRp1038
(dp1039
g62
(dp1040
sg71
g637
sg64
(lp1041
g57
(g78
g59
NtRp1042
(dp1043
g62
(dp1044
g82
g83
ssg71
g1038
sg64
(lp1045
S'query_string'
p1046
asbag57
(g78
g59
NtRp1047
(dp1048
g62
(dp1049
g89
g90
ssg71
g1038
sg64
(lp1050
S':'
asbag57
(g78
g59
NtRp1051
(dp1052
g62
(dp1053
sg71
g1038
sg64
(lp1054
g57
(g58
g59
NtRp1055
(dp1056
g62
(dp1057
g70
I4
ssg71
g1051
sg64
(lp1058
S'event=12'
p1059
asbasbasbag57
(g73
g59
NtRp1060
(dp1061
g62
(dp1062
sg71
g637
sg64
(lp1063
g57
(g78
g59
NtRp1064
(dp1065
g62
(dp1066
g82
g83
ssg71
g1060
sg64
(lp1067
S'remote_addr'
p1068
asbag57
(g78
g59
NtRp1069
(dp1070
g62
(dp1071
g89
g90
ssg71
g1060
sg64
(lp1072
S':'
asbag57
(g78
g59
NtRp1073
(dp1074
g62
(dp1075
sg71
g1060
sg64
(lp1076
g57
(g58
g59
NtRp1077
(dp1078
g62
(dp1079
g70
I4
ssg71
g1073
sg64
(lp1080
g190
asbasbasbag57
(g73
g59
NtRp1081
(dp1082
g62
(dp1083
sg71
g637
sg64
(lp1084
g57
(g78
g59
NtRp1085
(dp1086
g62
(dp1087
g82
g83
ssg71
g1081
sg64
(lp1088
S'remote_port'
p1089
asbag57
(g78
g59
NtRp1090
(dp1091
g62
(dp1092
g89
g90
ssg71
g1081
sg64
(lp1093
S':'
asbag57
(g78
g59
NtRp1094
(dp1095
g62
(dp1096
sg71
g1081
sg64
(lp1097
g57
(g58
g59
NtRp1098
(dp1099
g62
(dp1100
g70
I4
ssg71
g1094
sg64
(lp1101
S'62420'
p1102
asbasbasbag57
(g73
g59
NtRp1103
(dp1104
g62
(dp1105
sg71
g637
sg64
(lp1106
g57
(g78
g59
NtRp1107
(dp1108
g62
(dp1109
g82
g83
ssg71
g1103
sg64
(lp1110
S'request_method'
p1111
asbag57
(g78
g59
NtRp1112
(dp1113
g62
(dp1114
g89
g90
ssg71
g1103
sg64
(lp1115
S':'
asbag57
(g78
g59
NtRp1116
(dp1117
g62
(dp1118
sg71
g1103
sg64
(lp1119
g57
(g58
g59
NtRp1120
(dp1121
g62
(dp1122
g70
I4
ssg71
g1116
sg64
(lp1123
S'GET'
p1124
asbasbasbag57
(g73
g59
NtRp1125
(dp1126
g62
(dp1127
sg71
g637
sg64
(lp1128
g57
(g78
g59
NtRp1129
(dp1130
g62
(dp1131
g82
g83
ssg71
g1125
sg64
(lp1132
S'script_name'
p1133
asbag57
(g78
g59
NtRp1134
(dp1135
g62
(dp1136
g89
g90
ssg71
g1125
sg64
(lp1137
S':'
asbag57
(g78
g59
NtRp1138
(dp1139
g62
(dp1140
sg71
g1125
sg64
(lp1141
g57
(g58
g59
NtRp1142
(dp1143
g62
(dp1144
g70
I4
ssg71
g1138
sg64
(lp1145
S''
asbasbasbag57
(g73
g59
NtRp1146
(dp1147
g62
(dp1148
sg71
g637
sg64
(lp1149
g57
(g78
g59
NtRp1150
(dp1151
g62
(dp1152
g82
g83
ssg71
g1146
sg64
(lp1153
S'server_name'
p1154
asbag57
(g78
g59
NtRp1155
(dp1156
g62
(dp1157
g89
g90
ssg71
g1146
sg64
(lp1158
S':'
asbag57
(g78
g59
NtRp1159
(dp1160
g62
(dp1161
sg71
g1146
sg64
(lp1162
g57
(g58
g59
NtRp1163
(dp1164
g62
(dp1165
g70
I4
ssg71
g1159
sg64
(lp1166
S'Bishop-PC'
p1167
asbasbasbag57
(g73
g59
NtRp1168
(dp1169
g62
(dp1170
sg71
g637
sg64
(lp1171
g57
(g78
g59
NtRp1172
(dp1173
g62
(dp1174
g82
g83
ssg71
g1168
sg64
(lp1175
S'server_port'
p1176
asbag57
(g78
g59
NtRp1177
(dp1178
g62
(dp1179
g89
g90
ssg71
g1168
sg64
(lp1180
S':'
asbag57
(g78
g59
NtRp1181
(dp1182
g62
(dp1183
sg71
g1168
sg64
(lp1184
g57
(g58
g59
NtRp1185
(dp1186
g62
(dp1187
g70
I4
ssg71
g1181
sg64
(lp1188
S'8000'
p1189
asbasbasbag57
(g73
g59
NtRp1190
(dp1191
g62
(dp1192
sg71
g637
sg64
(lp1193
g57
(g78
g59
NtRp1194
(dp1195
g62
(dp1196
g82
g83
ssg71
g1190
sg64
(lp1197
S'server_protocol'
p1198
asbag57
(g78
g59
NtRp1199
(dp1200
g62
(dp1201
g89
g90
ssg71
g1190
sg64
(lp1202
S':'
asbag57
(g78
g59
NtRp1203
(dp1204
g62
(dp1205
sg71
g1190
sg64
(lp1206
g57
(g58
g59
NtRp1207
(dp1208
g62
(dp1209
g70
I4
ssg71
g1203
sg64
(lp1210
S'HTTP/1.1'
p1211
asbasbasbag57
(g73
g59
NtRp1212
(dp1213
g62
(dp1214
sg71
g637
sg64
(lp1215
g57
(g78
g59
NtRp1216
(dp1217
g62
(dp1218
g82
g83
ssg71
g1212
sg64
(lp1219
S'server_software'
p1220
asbag57
(g78
g59
NtRp1221
(dp1222
g62
(dp1223
g89
g90
ssg71
g1212
sg64
(lp1224
S':'
asbag57
(g78
g59
NtRp1225
(dp1226
g62
(dp1227
sg71
g1212
sg64
(lp1228
g57
(g58
g59
NtRp1229
(dp1230
g62
(dp1231
g70
I4
ssg71
g1225
sg64
(lp1232
S'Rocket 1.2.4'
p1233
asbasbasbag57
(g73
g59
NtRp1234
(dp1235
g62
(dp1236
sg71
g637
sg64
(lp1237
g57
(g78
g59
NtRp1238
(dp1239
g62
(dp1240
g82
g83
ssg71
g1234
sg64
(lp1241
S'web2py_crontype'
p1242
asbag57
(g78
g59
NtRp1243
(dp1244
g62
(dp1245
g89
g90
ssg71
g1234
sg64
(lp1246
S':'
asbag57
(g78
g59
NtRp1247
(dp1248
g62
(dp1249
sg71
g1234
sg64
(lp1250
g57
(g58
g59
NtRp1251
(dp1252
g62
(dp1253
g70
I4
ssg71
g1247
sg64
(lp1254
S'hard'
p1255
asbasbasbag57
(g73
g59
NtRp1256
(dp1257
g62
(dp1258
sg71
g637
sg64
(lp1259
g57
(g78
g59
NtRp1260
(dp1261
g62
(dp1262
g82
g83
ssg71
g1256
sg64
(lp1263
S'web2py_path'
p1264
asbag57
(g78
g59
NtRp1265
(dp1266
g62
(dp1267
g89
g90
ssg71
g1256
sg64
(lp1268
S':'
asbag57
(g78
g59
NtRp1269
(dp1270
g62
(dp1271
sg71
g1256
sg64
(lp1272
g57
(g58
g59
NtRp1273
(dp1274
g62
(dp1275
g70
I4
ssg71
g1269
sg64
(lp1276
g684
asbasbasbag57
(g73
g59
NtRp1277
(dp1278
g62
(dp1279
sg71
g637
sg64
(lp1280
g57
(g78
g59
NtRp1281
(dp1282
g62
(dp1283
g82
g83
ssg71
g1277
sg64
(lp1284
S'web2py_version'
p1285
asbag57
(g78
g59
NtRp1286
(dp1287
g62
(dp1288
g89
g90
ssg71
g1277
sg64
(lp1289
S':'
asbag57
(g78
g59
NtRp1290
(dp1291
g62
(dp1292
sg71
g1277
sg64
(lp1293
g57
(g58
g59
NtRp1294
(dp1295
g62
(dp1296
g70
I4
ssg71
g1290
sg64
(lp1297
g57
(g66
g59
NtRp1298
(dp1299
g62
(dp1300
g70
I3
ssg71
Nsg64
(lp1301
g57
(g73
g59
NtRp1302
(dp1303
g62
(dp1304
sg71
g1298
sg64
(lp1305
g57
(g78
g59
NtRp1306
(dp1307
g62
(dp1308
sg71
g1302
sg64
(lp1309
g57
(g58
g59
NtRp1310
(dp1311
g62
(dp1312
g70
I3
ssg71
g1306
sg64
(lp1313
S'1'
asbasbasbag57
(g73
g59
NtRp1314
(dp1315
g62
(dp1316
sg71
g1298
sg64
(lp1317
g57
(g78
g59
NtRp1318
(dp1319
g62
(dp1320
sg71
g1314
sg64
(lp1321
g57
(g58
g59
NtRp1322
(dp1323
g62
(dp1324
g70
I3
ssg71
g1318
sg64
(lp1325
S'99'
p1326
asbasbasbag57
(g73
g59
NtRp1327
(dp1328
g62
(dp1329
sg71
g1298
sg64
(lp1330
g57
(g78
g59
NtRp1331
(dp1332
g62
(dp1333
sg71
g1327
sg64
(lp1334
g57
(g58
g59
NtRp1335
(dp1336
g62
(dp1337
g70
I3
ssg71
g1331
sg64
(lp1338
S'3'
asbasbasbag57
(g73
g59
NtRp1339
(dp1340
g62
(dp1341
sg71
g1298
sg64
(lp1342
g57
(g78
g59
NtRp1343
(dp1344
g62
(dp1345
sg71
g1339
sg64
(lp1346
g57
(g58
g59
NtRp1347
(dp1348
g62
(dp1349
g70
I3
ssg71
g1343
sg64
(lp1350
S'datetime.datetime(2011, 11, 1, 8, 28, 28)'
p1351
asbasbasbag57
(g73
g59
NtRp1352
(dp1353
g62
(dp1354
sg71
g1298
sg64
(lp1355
g57
(g78
g59
NtRp1356
(dp1357
g62
(dp1358
sg71
g1352
sg64
(lp1359
g57
(g58
g59
NtRp1360
(dp1361
g62
(dp1362
g70
I3
ssg71
g1356
sg64
(lp1363
S'dev'
p1364
asbasbasbasbasbasbasbag57
(g73
g59
NtRp1365
(dp1366
g62
(dp1367
sg71
g637
sg64
(lp1368
g57
(g78
g59
NtRp1369
(dp1370
g62
(dp1371
g82
g83
ssg71
g1365
sg64
(lp1372
S'wsgi_errors'
p1373
asbag57
(g78
g59
NtRp1374
(dp1375
g62
(dp1376
g89
g90
ssg71
g1365
sg64
(lp1377
S':'
asbag57
(g78
g59
NtRp1378
(dp1379
g62
(dp1380
sg71
g1365
sg64
(lp1381
g57
(g58
g59
NtRp1382
(dp1383
g62
(dp1384
g70
I4
ssg71
g1378
sg64
(lp1385
S"<open file '<stderr>', mode 'w' at 0x01DC50D0>"
p1386
asbasbasbag57
(g73
g59
NtRp1387
(dp1388
g62
(dp1389
sg71
g637
sg64
(lp1390
g57
(g78
g59
NtRp1391
(dp1392
g62
(dp1393
g82
g83
ssg71
g1387
sg64
(lp1394
S'wsgi_file_wrapper'
p1395
asbag57
(g78
g59
NtRp1396
(dp1397
g62
(dp1398
g89
g90
ssg71
g1387
sg64
(lp1399
S':'
asbag57
(g78
g59
NtRp1400
(dp1401
g62
(dp1402
sg71
g1387
sg64
(lp1403
g57
(g58
g59
NtRp1404
(dp1405
g62
(dp1406
g70
I4
ssg71
g1400
sg64
(lp1407
S'<class wsgiref.util.FileWrapper at 0x02D38AB0>'
p1408
asbasbasbag57
(g73
g59
NtRp1409
(dp1410
g62
(dp1411
sg71
g637
sg64
(lp1412
g57
(g78
g59
NtRp1413
(dp1414
g62
(dp1415
g82
g83
ssg71
g1409
sg64
(lp1416
S'wsgi_input'
p1417
asbag57
(g78
g59
NtRp1418
(dp1419
g62
(dp1420
g89
g90
ssg71
g1409
sg64
(lp1421
S':'
asbag57
(g78
g59
NtRp1422
(dp1423
g62
(dp1424
sg71
g1409
sg64
(lp1425
g57
(g58
g59
NtRp1426
(dp1427
g62
(dp1428
g70
I4
ssg71
g1422
sg64
(lp1429
S'<socket._fileobject object at 0x07121EF0>'
p1430
asbasbasbag57
(g73
g59
NtRp1431
(dp1432
g62
(dp1433
sg71
g637
sg64
(lp1434
g57
(g78
g59
NtRp1435
(dp1436
g62
(dp1437
g82
g83
ssg71
g1431
sg64
(lp1438
S'wsgi_multiprocess'
p1439
asbag57
(g78
g59
NtRp1440
(dp1441
g62
(dp1442
g89
g90
ssg71
g1431
sg64
(lp1443
S':'
asbag57
(g78
g59
NtRp1444
(dp1445
g62
(dp1446
sg71
g1431
sg64
(lp1447
g57
(g58
g59
NtRp1448
(dp1449
g62
(dp1450
g70
I4
ssg71
g1444
sg64
(lp1451
g100
asbasbasbag57
(g73
g59
NtRp1452
(dp1453
g62
(dp1454
sg71
g637
sg64
(lp1455
g57
(g78
g59
NtRp1456
(dp1457
g62
(dp1458
g82
g83
ssg71
g1452
sg64
(lp1459
S'wsgi_multithread'
p1460
asbag57
(g78
g59
NtRp1461
(dp1462
g62
(dp1463
g89
g90
ssg71
g1452
sg64
(lp1464
S':'
asbag57
(g78
g59
NtRp1465
(dp1466
g62
(dp1467
sg71
g1452
sg64
(lp1468
g57
(g58
g59
NtRp1469
(dp1470
g62
(dp1471
g70
I4
ssg71
g1465
sg64
(lp1472
S'True'
p1473
asbasbasbag57
(g73
g59
NtRp1474
(dp1475
g62
(dp1476
sg71
g637
sg64
(lp1477
g57
(g78
g59
NtRp1478
(dp1479
g62
(dp1480
g82
g83
ssg71
g1474
sg64
(lp1481
S'wsgi_run_once'
p1482
asbag57
(g78
g59
NtRp1483
(dp1484
g62
(dp1485
g89
g90
ssg71
g1474
sg64
(lp1486
S':'
asbag57
(g78
g59
NtRp1487
(dp1488
g62
(dp1489
sg71
g1474
sg64
(lp1490
g57
(g58
g59
NtRp1491
(dp1492
g62
(dp1493
g70
I4
ssg71
g1487
sg64
(lp1494
g100
asbasbasbag57
(g73
g59
NtRp1495
(dp1496
g62
(dp1497
sg71
g637
sg64
(lp1498
g57
(g78
g59
NtRp1499
(dp1500
g62
(dp1501
g82
g83
ssg71
g1495
sg64
(lp1502
S'wsgi_url_scheme'
p1503
asbag57
(g78
g59
NtRp1504
(dp1505
g62
(dp1506
g89
g90
ssg71
g1495
sg64
(lp1507
S':'
asbag57
(g78
g59
NtRp1508
(dp1509
g62
(dp1510
sg71
g1495
sg64
(lp1511
g57
(g58
g59
NtRp1512
(dp1513
g62
(dp1514
g70
I4
ssg71
g1508
sg64
(lp1515
S'http'
p1516
asbasbasbag57
(g73
g59
NtRp1517
(dp1518
g62
(dp1519
sg71
g637
sg64
(lp1520
g57
(g78
g59
NtRp1521
(dp1522
g62
(dp1523
g82
g83
ssg71
g1517
sg64
(lp1524
S'wsgi_version'
p1525
asbag57
(g78
g59
NtRp1526
(dp1527
g62
(dp1528
g89
g90
ssg71
g1517
sg64
(lp1529
S':'
asbag57
(g78
g59
NtRp1530
(dp1531
g62
(dp1532
sg71
g1517
sg64
(lp1533
g57
(g58
g59
NtRp1534
(dp1535
g62
(dp1536
g70
I4
ssg71
g1530
sg64
(lp1537
g57
(g66
g59
NtRp1538
(dp1539
g62
(dp1540
g70
I3
ssg71
Nsg64
(lp1541
g57
(g73
g59
NtRp1542
(dp1543
g62
(dp1544
sg71
g1538
sg64
(lp1545
g57
(g78
g59
NtRp1546
(dp1547
g62
(dp1548
sg71
g1542
sg64
(lp1549
g57
(g58
g59
NtRp1550
(dp1551
g62
(dp1552
g70
I3
ssg71
g1546
sg64
(lp1553
S'1'
asbasbasbag57
(g73
g59
NtRp1554
(dp1555
g62
(dp1556
sg71
g1538
sg64
(lp1557
g57
(g78
g59
NtRp1558
(dp1559
g62
(dp1560
sg71
g1554
sg64
(lp1561
g57
(g58
g59
NtRp1562
(dp1563
g62
(dp1564
g70
I3
ssg71
g1558
sg64
(lp1565
S'0'
asbasbasbasbasbasbasbasbasbasbasbag57
(g73
g59
NtRp1566
(dp1567
g62
(dp1568
sg71
g67
sg64
(lp1569
g57
(g78
g59
NtRp1570
(dp1571
g62
(dp1572
g82
g83
ssg71
g1566
sg64
(lp1573
S'extension'
p1574
asbag57
(g78
g59
NtRp1575
(dp1576
g62
(dp1577
g89
g90
ssg71
g1566
sg64
(lp1578
S':'
asbag57
(g78
g59
NtRp1579
(dp1580
g62
(dp1581
sg71
g1566
sg64
(lp1582
g57
(g58
g59
NtRp1583
(dp1584
g62
(dp1585
g70
I5
ssg71
g1579
sg64
(lp1586
S'html'
p1587
asbasbasbag57
(g73
g59
NtRp1588
(dp1589
g62
(dp1590
sg71
g67
sg64
(lp1591
g57
(g78
g59
NtRp1592
(dp1593
g62
(dp1594
g82
g83
ssg71
g1588
sg64
(lp1595
S'folder'
p1596
asbag57
(g78
g59
NtRp1597
(dp1598
g62
(dp1599
g89
g90
ssg71
g1588
sg64
(lp1600
S':'
asbag57
(g78
g59
NtRp1601
(dp1602
g62
(dp1603
sg71
g1588
sg64
(lp1604
g57
(g58
g59
NtRp1605
(dp1606
g62
(dp1607
g70
I5
ssg71
g1601
sg64
(lp1608
S'P:\\School\\DePaul\\Projects\\CSC_438\\web2py\\applications\\init\\'
p1609
asbasbasbag57
(g73
g59
NtRp1610
(dp1611
g62
(dp1612
sg71
g67
sg64
(lp1613
g57
(g78
g59
NtRp1614
(dp1615
g62
(dp1616
g82
g83
ssg71
g1610
sg64
(lp1617
S'function'
p1618
asbag57
(g78
g59
NtRp1619
(dp1620
g62
(dp1621
g89
g90
ssg71
g1610
sg64
(lp1622
S':'
asbag57
(g78
g59
NtRp1623
(dp1624
g62
(dp1625
sg71
g1610
sg64
(lp1626
g57
(g58
g59
NtRp1627
(dp1628
g62
(dp1629
g70
I5
ssg71
g1623
sg64
(lp1630
S'challenge'
p1631
asbasbasbag57
(g73
g59
NtRp1632
(dp1633
g62
(dp1634
sg71
g67
sg64
(lp1635
g57
(g78
g59
NtRp1636
(dp1637
g62
(dp1638
g82
g83
ssg71
g1632
sg64
(lp1639
S'get_vars'
p1640
asbag57
(g78
g59
NtRp1641
(dp1642
g62
(dp1643
g89
g90
ssg71
g1632
sg64
(lp1644
S':'
asbag57
(g78
g59
NtRp1645
(dp1646
g62
(dp1647
sg71
g1632
sg64
(lp1648
g57
(g58
g59
NtRp1649
(dp1650
g62
(dp1651
g70
I5
ssg71
g1645
sg64
(lp1652
g57
(g66
g59
NtRp1653
(dp1654
g62
(dp1655
g70
I4
ssg71
Nsg64
(lp1656
g57
(g73
g59
NtRp1657
(dp1658
g62
(dp1659
sg71
g1653
sg64
(lp1660
g57
(g78
g59
NtRp1661
(dp1662
g62
(dp1663
g82
g83
ssg71
g1657
sg64
(lp1664
S'event'
p1665
asbag57
(g78
g59
NtRp1666
(dp1667
g62
(dp1668
g89
g90
ssg71
g1657
sg64
(lp1669
S':'
asbag57
(g78
g59
NtRp1670
(dp1671
g62
(dp1672
sg71
g1657
sg64
(lp1673
g57
(g58
g59
NtRp1674
(dp1675
g62
(dp1676
g70
I4
ssg71
g1670
sg64
(lp1677
S'12'
p1678
asbasbasbasbasbasbasbag57
(g73
g59
NtRp1679
(dp1680
g62
(dp1681
sg71
g67
sg64
(lp1682
g57
(g78
g59
NtRp1683
(dp1684
g62
(dp1685
g82
g83
ssg71
g1679
sg64
(lp1686
S'global_settings'
p1687
asbag57
(g78
g59
NtRp1688
(dp1689
g62
(dp1690
g89
g90
ssg71
g1679
sg64
(lp1691
S':'
asbag57
(g78
g59
NtRp1692
(dp1693
g62
(dp1694
sg71
g1679
sg64
(lp1695
g57
(g58
g59
NtRp1696
(dp1697
g62
(dp1698
g70
I5
ssg71
g1692
sg64
(lp1699
g57
(g66
g59
NtRp1700
(dp1701
g62
(dp1702
g70
I4
ssg71
Nsg64
(lp1703
g57
(g73
g59
NtRp1704
(dp1705
g62
(dp1706
sg71
g1700
sg64
(lp1707
g57
(g78
g59
NtRp1708
(dp1709
g62
(dp1710
g82
g83
ssg71
g1704
sg64
(lp1711
g649
asbag57
(g78
g59
NtRp1712
(dp1713
g62
(dp1714
g89
g90
ssg71
g1704
sg64
(lp1715
S':'
asbag57
(g78
g59
NtRp1716
(dp1717
g62
(dp1718
sg71
g1704
sg64
(lp1719
g57
(g58
g59
NtRp1720
(dp1721
g62
(dp1722
g70
I4
ssg71
g1716
sg64
(lp1723
S"set(['P:\\\\School\\\\DePaul\\\\Projects\\\\CSC_438\\\\web2py\\\\applications\\\\init\\\\', 'P:\\\\School\\\\DePaul\\\\Projects\\\\CSC_438\\\\web2py\\\\applications\\\\admin\\\\'])"
p1724
asbasbasbag57
(g73
g59
NtRp1725
(dp1726
g62
(dp1727
sg71
g1700
sg64
(lp1728
g57
(g78
g59
NtRp1729
(dp1730
g62
(dp1731
g82
g83
ssg71
g1725
sg64
(lp1732
g671
asbag57
(g78
g59
NtRp1733
(dp1734
g62
(dp1735
g89
g90
ssg71
g1725
sg64
(lp1736
S':'
asbag57
(g78
g59
NtRp1737
(dp1738
g62
(dp1739
sg71
g1725
sg64
(lp1740
g57
(g58
g59
NtRp1741
(dp1742
g62
(dp1743
g70
I4
ssg71
g1737
sg64
(lp1744
g684
asbasbasbag57
(g73
g59
NtRp1745
(dp1746
g62
(dp1747
sg71
g1700
sg64
(lp1748
g57
(g78
g59
NtRp1749
(dp1750
g62
(dp1751
g82
g83
ssg71
g1745
sg64
(lp1752
g693
asbag57
(g78
g59
NtRp1753
(dp1754
g62
(dp1755
g89
g90
ssg71
g1745
sg64
(lp1756
S':'
asbag57
(g78
g59
NtRp1757
(dp1758
g62
(dp1759
sg71
g1745
sg64
(lp1760
g57
(g58
g59
NtRp1761
(dp1762
g62
(dp1763
g70
I4
ssg71
g1757
sg64
(lp1764
g57
(g66
g59
NtRp1765
(dp1766
g62
(dp1767
g70
I3
ssg71
Nsg64
(lp1768
sbasbasbasbag57
(g73
g59
NtRp1769
(dp1770
g62
(dp1771
sg71
g1700
sg64
(lp1772
g57
(g78
g59
NtRp1773
(dp1774
g62
(dp1775
g82
g83
ssg71
g1769
sg64
(lp1776
g718
asbag57
(g78
g59
NtRp1777
(dp1778
g62
(dp1779
g89
g90
ssg71
g1769
sg64
(lp1780
S':'
asbag57
(g78
g59
NtRp1781
(dp1782
g62
(dp1783
sg71
g1769
sg64
(lp1784
g57
(g58
g59
NtRp1785
(dp1786
g62
(dp1787
g70
I4
ssg71
g1781
sg64
(lp1788
S"<Values at 0x2e0ccd8: {'verbose': False, 'ip': '127.0.0.1', 'shutdown_timeout': 5, 'taskbar': False, 'nocron': False, 'pid_filename': 'httpserver.pid', 'maxthreads': None, 'softcron': False, 'server_name': 'Bishop-PC', 'bpython': False, 'nogui': False, 'port': 8000, 'extcron': False, 'debuglevel': 30, 'test': None, 'folder': 'P:\\\\School\\\\DePaul\\\\Projects\\\\CSC_438\\\\web2py', 'config': '', 'import_models': False, 'winservice': '', 'shell': None, 'run': '', 'log_filename': 'httpserver.log', 'args': [''], 'ssl_ca_certificate': None, 'scheduler': None, 'profiler_filename': None, 'ssl_private_key': '', 'password': '<ask>', 'request_queue_size': 5, 'ssl_certificate': '', 'cronjob': False, 'plain': False, 'quiet': False, 'interfaces': None, 'minthreads': None, 'timeout': 10, 'numthreads': None, 'nobanner': False}>"
p1789
asbasbasbag57
(g73
g59
NtRp1790
(dp1791
g62
(dp1792
sg71
g1700
sg64
(lp1793
g57
(g78
g59
NtRp1794
(dp1795
g62
(dp1796
g82
g83
ssg71
g1790
sg64
(lp1797
g740
asbag57
(g78
g59
NtRp1798
(dp1799
g62
(dp1800
g89
g90
ssg71
g1790
sg64
(lp1801
S':'
asbag57
(g78
g59
NtRp1802
(dp1803
g62
(dp1804
sg71
g1790
sg64
(lp1805
g57
(g58
g59
NtRp1806
(dp1807
g62
(dp1808
g70
I4
ssg71
g1802
sg64
(lp1809
S'set([])'
p1810
asbasbasbag57
(g73
g59
NtRp1811
(dp1812
g62
(dp1813
sg71
g1700
sg64
(lp1814
g57
(g78
g59
NtRp1815
(dp1816
g62
(dp1817
g82
g83
ssg71
g1811
sg64
(lp1818
g762
asbag57
(g78
g59
NtRp1819
(dp1820
g62
(dp1821
g89
g90
ssg71
g1811
sg64
(lp1822
S':'
asbag57
(g78
g59
NtRp1823
(dp1824
g62
(dp1825
sg71
g1811
sg64
(lp1826
g57
(g58
g59
NtRp1827
(dp1828
g62
(dp1829
g70
I4
ssg71
g1823
sg64
(lp1830
g100
asbasbasbag57
(g73
g59
NtRp1831
(dp1832
g62
(dp1833
sg71
g1700
sg64
(lp1834
g57
(g78
g59
NtRp1835
(dp1836
g62
(dp1837
g82
g83
ssg71
g1831
sg64
(lp1838
g783
asbag57
(g78
g59
NtRp1839
(dp1840
g62
(dp1841
g89
g90
ssg71
g1831
sg64
(lp1842
S':'
asbag57
(g78
g59
NtRp1843
(dp1844
g62
(dp1845
sg71
g1831
sg64
(lp1846
g57
(g58
g59
NtRp1847
(dp1848
g62
(dp1849
g70
I4
ssg71
g1843
sg64
(lp1850
g796
asbasbasbag57
(g73
g59
NtRp1851
(dp1852
g62
(dp1853
sg71
g1700
sg64
(lp1854
g57
(g78
g59
NtRp1855
(dp1856
g62
(dp1857
g82
g83
ssg71
g1851
sg64
(lp1858
g1003
asbag57
(g78
g59
NtRp1859
(dp1860
g62
(dp1861
g89
g90
ssg71
g1851
sg64
(lp1862
S':'
asbag57
(g78
g59
NtRp1863
(dp1864
g62
(dp1865
sg71
g1851
sg64
(lp1866
g57
(g58
g59
NtRp1867
(dp1868
g62
(dp1869
g70
I4
ssg71
g1863
sg64
(lp1870
g100
asbasbasbag57
(g73
g59
NtRp1871
(dp1872
g62
(dp1873
sg71
g1700
sg64
(lp1874
g57
(g78
g59
NtRp1875
(dp1876
g62
(dp1877
g82
g83
ssg71
g1871
sg64
(lp1878
g1242
asbag57
(g78
g59
NtRp1879
(dp1880
g62
(dp1881
g89
g90
ssg71
g1871
sg64
(lp1882
S':'
asbag57
(g78
g59
NtRp1883
(dp1884
g62
(dp1885
sg71
g1871
sg64
(lp1886
g57
(g58
g59
NtRp1887
(dp1888
g62
(dp1889
g70
I4
ssg71
g1883
sg64
(lp1890
g1255
asbasbasbag57
(g73
g59
NtRp1891
(dp1892
g62
(dp1893
sg71
g1700
sg64
(lp1894
g57
(g78
g59
NtRp1895
(dp1896
g62
(dp1897
g82
g83
ssg71
g1891
sg64
(lp1898
g1285
asbag57
(g78
g59
NtRp1899
(dp1900
g62
(dp1901
g89
g90
ssg71
g1891
sg64
(lp1902
S':'
asbag57
(g78
g59
NtRp1903
(dp1904
g62
(dp1905
sg71
g1891
sg64
(lp1906
g57
(g58
g59
NtRp1907
(dp1908
g62
(dp1909
g70
I4
ssg71
g1903
sg64
(lp1910
g57
(g66
g59
NtRp1911
(dp1912
g62
(dp1913
g70
I3
ssg71
Nsg64
(lp1914
g57
(g73
g59
NtRp1915
(dp1916
g62
(dp1917
sg71
g1911
sg64
(lp1918
g57
(g78
g59
NtRp1919
(dp1920
g62
(dp1921
sg71
g1915
sg64
(lp1922
g57
(g58
g59
NtRp1923
(dp1924
g62
(dp1925
g70
I3
ssg71
g1919
sg64
(lp1926
S'1'
asbasbasbag57
(g73
g59
NtRp1927
(dp1928
g62
(dp1929
sg71
g1911
sg64
(lp1930
g57
(g78
g59
NtRp1931
(dp1932
g62
(dp1933
sg71
g1927
sg64
(lp1934
g57
(g58
g59
NtRp1935
(dp1936
g62
(dp1937
g70
I3
ssg71
g1931
sg64
(lp1938
S'99'
p1939
asbasbasbag57
(g73
g59
NtRp1940
(dp1941
g62
(dp1942
sg71
g1911
sg64
(lp1943
g57
(g78
g59
NtRp1944
(dp1945
g62
(dp1946
sg71
g1940
sg64
(lp1947
g57
(g58
g59
NtRp1948
(dp1949
g62
(dp1950
g70
I3
ssg71
g1944
sg64
(lp1951
S'3'
asbasbasbag57
(g73
g59
NtRp1952
(dp1953
g62
(dp1954
sg71
g1911
sg64
(lp1955
g57
(g78
g59
NtRp1956
(dp1957
g62
(dp1958
sg71
g1952
sg64
(lp1959
g57
(g58
g59
NtRp1960
(dp1961
g62
(dp1962
g70
I3
ssg71
g1956
sg64
(lp1963
S'datetime.datetime(2011, 11, 1, 8, 28, 28)'
p1964
asbasbasbag57
(g73
g59
NtRp1965
(dp1966
g62
(dp1967
sg71
g1911
sg64
(lp1968
g57
(g78
g59
NtRp1969
(dp1970
g62
(dp1971
sg71
g1965
sg64
(lp1972
g57
(g58
g59
NtRp1973
(dp1974
g62
(dp1975
g70
I3
ssg71
g1969
sg64
(lp1976
g1364
asbasbasbasbasbasbasbasbasbasbasbag57
(g73
g59
NtRp1977
(dp1978
g62
(dp1979
sg71
g67
sg64
(lp1980
g57
(g78
g59
NtRp1981
(dp1982
g62
(dp1983
g82
g83
ssg71
g1977
sg64
(lp1984
S'is_https'
p1985
asbag57
(g78
g59
NtRp1986
(dp1987
g62
(dp1988
g89
g90
ssg71
g1977
sg64
(lp1989
S':'
asbag57
(g78
g59
NtRp1990
(dp1991
g62
(dp1992
sg71
g1977
sg64
(lp1993
g57
(g58
g59
NtRp1994
(dp1995
g62
(dp1996
g70
I5
ssg71
g1990
sg64
(lp1997
g100
asbasbasbag57
(g73
g59
NtRp1998
(dp1999
g62
(dp2000
sg71
g67
sg64
(lp2001
g57
(g78
g59
NtRp2002
(dp2003
g62
(dp2004
g82
g83
ssg71
g1998
sg64
(lp2005
S'is_local'
p2006
asbag57
(g78
g59
NtRp2007
(dp2008
g62
(dp2009
g89
g90
ssg71
g1998
sg64
(lp2010
S':'
asbag57
(g78
g59
NtRp2011
(dp2012
g62
(dp2013
sg71
g1998
sg64
(lp2014
g57
(g58
g59
NtRp2015
(dp2016
g62
(dp2017
g70
I5
ssg71
g2011
sg64
(lp2018
g1473
asbasbasbag57
(g73
g59
NtRp2019
(dp2020
g62
(dp2021
sg71
g67
sg64
(lp2022
g57
(g78
g59
NtRp2023
(dp2024
g62
(dp2025
g82
g83
ssg71
g2019
sg64
(lp2026
S'is_restful'
p2027
asbag57
(g78
g59
NtRp2028
(dp2029
g62
(dp2030
g89
g90
ssg71
g2019
sg64
(lp2031
S':'
asbag57
(g78
g59
NtRp2032
(dp2033
g62
(dp2034
sg71
g2019
sg64
(lp2035
g57
(g58
g59
NtRp2036
(dp2037
g62
(dp2038
g70
I5
ssg71
g2032
sg64
(lp2039
g100
asbasbasbag57
(g73
g59
NtRp2040
(dp2041
g62
(dp2042
sg71
g67
sg64
(lp2043
g57
(g78
g59
NtRp2044
(dp2045
g62
(dp2046
g82
g83
ssg71
g2040
sg64
(lp2047
S'now'
p2048
asbag57
(g78
g59
NtRp2049
(dp2050
g62
(dp2051
g89
g90
ssg71
g2040
sg64
(lp2052
S':'
asbag57
(g78
g59
NtRp2053
(dp2054
g62
(dp2055
sg71
g2040
sg64
(lp2056
g57
(g58
g59
NtRp2057
(dp2058
g62
(dp2059
g70
I5
ssg71
g2053
sg64
(lp2060
S'datetime.datetime(2011, 11, 19, 21, 34, 51, 179000)'
p2061
asbasbasbag57
(g73
g59
NtRp2062
(dp2063
g62
(dp2064
sg71
g67
sg64
(lp2065
g57
(g78
g59
NtRp2066
(dp2067
g62
(dp2068
g82
g83
ssg71
g2062
sg64
(lp2069
S'post_vars'
p2070
asbag57
(g78
g59
NtRp2071
(dp2072
g62
(dp2073
g89
g90
ssg71
g2062
sg64
(lp2074
S':'
asbag57
(g78
g59
NtRp2075
(dp2076
g62
(dp2077
sg71
g2062
sg64
(lp2078
g57
(g58
g59
NtRp2079
(dp2080
g62
(dp2081
g70
I5
ssg71
g2075
sg64
(lp2082
g57
(g66
g59
NtRp2083
(dp2084
g62
(dp2085
g70
I4
ssg71
Nsg64
(lp2086
sbasbasbasbag57
(g73
g59
NtRp2087
(dp2088
g62
(dp2089
sg71
g67
sg64
(lp2090
g57
(g78
g59
NtRp2091
(dp2092
g62
(dp2093
g82
g83
ssg71
g2087
sg64
(lp2094
S'url'
p2095
asbag57
(g78
g59
NtRp2096
(dp2097
g62
(dp2098
g89
g90
ssg71
g2087
sg64
(lp2099
S':'
asbag57
(g78
g59
NtRp2100
(dp2101
g62
(dp2102
sg71
g2087
sg64
(lp2103
g57
(g58
g59
NtRp2104
(dp2105
g62
(dp2106
g70
I5
ssg71
g2100
sg64
(lp2107
S'/init/default/challenge'
p2108
asbasbasbag57
(g73
g59
NtRp2109
(dp2110
g62
(dp2111
sg71
g67
sg64
(lp2112
g57
(g78
g59
NtRp2113
(dp2114
g62
(dp2115
g82
g83
ssg71
g2109
sg64
(lp2116
S'utcnow'
p2117
asbag57
(g78
g59
NtRp2118
(dp2119
g62
(dp2120
g89
g90
ssg71
g2109
sg64
(lp2121
S':'
asbag57
(g78
g59
NtRp2122
(dp2123
g62
(dp2124
sg71
g2109
sg64
(lp2125
g57
(g58
g59
NtRp2126
(dp2127
g62
(dp2128
g70
I5
ssg71
g2122
sg64
(lp2129
S'datetime.datetime(2011, 11, 20, 2, 34, 51, 179000)'
p2130
asbasbasbag57
(g73
g59
NtRp2131
(dp2132
g62
(dp2133
sg71
g67
sg64
(lp2134
g57
(g78
g59
NtRp2135
(dp2136
g62
(dp2137
g82
g83
ssg71
g2131
sg64
(lp2138
S'uuid'
p2139
asbag57
(g78
g59
NtRp2140
(dp2141
g62
(dp2142
g89
g90
ssg71
g2131
sg64
(lp2143
S':'
asbag57
(g78
g59
NtRp2144
(dp2145
g62
(dp2146
sg71
g2131
sg64
(lp2147
g57
(g58
g59
NtRp2148
(dp2149
g62
(dp2150
g70
I5
ssg71
g2144
sg64
(lp2151
S'init/127.0.0.1.2011-11-19.21-34-51.5efb518d-f959-44f7-9904-7dff942716e9'
p2152
asbasbasbag57
(g73
g59
NtRp2153
(dp2154
g62
(dp2155
sg71
g67
sg64
(lp2156
g57
(g78
g59
NtRp2157
(dp2158
g62
(dp2159
g82
g83
ssg71
g2153
sg64
(lp2160
S'vars'
p2161
asbag57
(g78
g59
NtRp2162
(dp2163
g62
(dp2164
g89
g90
ssg71
g2153
sg64
(lp2165
S':'
asbag57
(g78
g59
NtRp2166
(dp2167
g62
(dp2168
sg71
g2153
sg64
(lp2169
g57
(g58
g59
NtRp2170
(dp2171
g62
(dp2172
g70
I5
ssg71
g2166
sg64
(lp2173
g57
(g66
g59
NtRp2174
(dp2175
g62
(dp2176
g70
I4
ssg71
Nsg64
(lp2177
g57
(g73
g59
NtRp2178
(dp2179
g62
(dp2180
sg71
g2174
sg64
(lp2181
g57
(g78
g59
NtRp2182
(dp2183
g62
(dp2184
g82
g83
ssg71
g2178
sg64
(lp2185
g1665
asbag57
(g78
g59
NtRp2186
(dp2187
g62
(dp2188
g89
g90
ssg71
g2178
sg64
(lp2189
S':'
asbag57
(g78
g59
NtRp2190
(dp2191
g62
(dp2192
sg71
g2178
sg64
(lp2193
g57
(g58
g59
NtRp2194
(dp2195
g62
(dp2196
g70
I4
ssg71
g2190
sg64
(lp2197
g1678
asbasbasbasbasbasbasbag57
(g73
g59
NtRp2198
(dp2199
g62
(dp2200
sg71
g67
sg64
(lp2201
g57
(g78
g59
NtRp2202
(dp2203
g62
(dp2204
g82
g83
ssg71
g2198
sg64
(lp2205
S'wsgi'
p2206
asbag57
(g78
g59
NtRp2207
(dp2208
g62
(dp2209
g89
g90
ssg71
g2198
sg64
(lp2210
S':'
asbag57
(g78
g59
NtRp2211
(dp2212
g62
(dp2213
sg71
g2198
sg64
(lp2214
g57
(g58
g59
NtRp2215
(dp2216
g62
(dp2217
g70
I5
ssg71
g2211
sg64
(lp2218
g57
(g66
g59
NtRp2219
(dp2220
g62
(dp2221
g70
I4
ssg71
Nsg64
(lp2222
g57
(g73
g59
NtRp2223
(dp2224
g62
(dp2225
sg71
g2219
sg64
(lp2226
g57
(g78
g59
NtRp2227
(dp2228
g62
(dp2229
g82
g83
ssg71
g2223
sg64
(lp2230
S'environ'
p2231
asbag57
(g78
g59
NtRp2232
(dp2233
g62
(dp2234
g89
g90
ssg71
g2223
sg64
(lp2235
S':'
asbag57
(g78
g59
NtRp2236
(dp2237
g62
(dp2238
sg71
g2223
sg64
(lp2239
g57
(g58
g59
NtRp2240
(dp2241
g62
(dp2242
g70
I4
ssg71
g2236
sg64
(lp2243
g57
(g66
g59
NtRp2244
(dp2245
g62
(dp2246
g70
I3
ssg71
Nsg64
(lp2247
g57
(g73
g59
NtRp2248
(dp2249
g62
(dp2250
sg71
g2244
sg64
(lp2251
g57
(g78
g59
NtRp2252
(dp2253
g62
(dp2254
g82
g83
ssg71
g2248
sg64
(lp2255
S'HTTP_ACCEPT'
p2256
asbag57
(g78
g59
NtRp2257
(dp2258
g62
(dp2259
g89
g90
ssg71
g2248
sg64
(lp2260
S':'
asbag57
(g78
g59
NtRp2261
(dp2262
g62
(dp2263
sg71
g2248
sg64
(lp2264
g57
(g58
g59
NtRp2265
(dp2266
g62
(dp2267
g70
I3
ssg71
g2261
sg64
(lp2268
g818
asbasbasbag57
(g73
g59
NtRp2269
(dp2270
g62
(dp2271
sg71
g2244
sg64
(lp2272
g57
(g78
g59
NtRp2273
(dp2274
g62
(dp2275
g82
g83
ssg71
g2269
sg64
(lp2276
S'HTTP_ACCEPT_CHARSET'
p2277
asbag57
(g78
g59
NtRp2278
(dp2279
g62
(dp2280
g89
g90
ssg71
g2269
sg64
(lp2281
S':'
asbag57
(g78
g59
NtRp2282
(dp2283
g62
(dp2284
sg71
g2269
sg64
(lp2285
g57
(g58
g59
NtRp2286
(dp2287
g62
(dp2288
g70
I3
ssg71
g2282
sg64
(lp2289
g840
asbasbasbag57
(g73
g59
NtRp2290
(dp2291
g62
(dp2292
sg71
g2244
sg64
(lp2293
g57
(g78
g59
NtRp2294
(dp2295
g62
(dp2296
g82
g83
ssg71
g2290
sg64
(lp2297
S'HTTP_ACCEPT_ENCODING'
p2298
asbag57
(g78
g59
NtRp2299
(dp2300
g62
(dp2301
g89
g90
ssg71
g2290
sg64
(lp2302
S':'
asbag57
(g78
g59
NtRp2303
(dp2304
g62
(dp2305
sg71
g2290
sg64
(lp2306
g57
(g58
g59
NtRp2307
(dp2308
g62
(dp2309
g70
I3
ssg71
g2303
sg64
(lp2310
g862
asbasbasbag57
(g73
g59
NtRp2311
(dp2312
g62
(dp2313
sg71
g2244
sg64
(lp2314
g57
(g78
g59
NtRp2315
(dp2316
g62
(dp2317
g82
g83
ssg71
g2311
sg64
(lp2318
S'HTTP_ACCEPT_LANGUAGE'
p2319
asbag57
(g78
g59
NtRp2320
(dp2321
g62
(dp2322
g89
g90
ssg71
g2311
sg64
(lp2323
S':'
asbag57
(g78
g59
NtRp2324
(dp2325
g62
(dp2326
sg71
g2311
sg64
(lp2327
g57
(g58
g59
NtRp2328
(dp2329
g62
(dp2330
g70
I3
ssg71
g2324
sg64
(lp2331
g884
asbasbasbag57
(g73
g59
NtRp2332
(dp2333
g62
(dp2334
sg71
g2244
sg64
(lp2335
g57
(g78
g59
NtRp2336
(dp2337
g62
(dp2338
g82
g83
ssg71
g2332
sg64
(lp2339
S'HTTP_CONNECTION'
p2340
asbag57
(g78
g59
NtRp2341
(dp2342
g62
(dp2343
g89
g90
ssg71
g2332
sg64
(lp2344
S':'
asbag57
(g78
g59
NtRp2345
(dp2346
g62
(dp2347
sg71
g2332
sg64
(lp2348
g57
(g58
g59
NtRp2349
(dp2350
g62
(dp2351
g70
I3
ssg71
g2345
sg64
(lp2352
g906
asbasbasbag57
(g73
g59
NtRp2353
(dp2354
g62
(dp2355
sg71
g2244
sg64
(lp2356
g57
(g78
g59
NtRp2357
(dp2358
g62
(dp2359
g82
g83
ssg71
g2353
sg64
(lp2360
S'HTTP_COOKIE'
p2361
asbag57
(g78
g59
NtRp2362
(dp2363
g62
(dp2364
g89
g90
ssg71
g2353
sg64
(lp2365
S':'
asbag57
(g78
g59
NtRp2366
(dp2367
g62
(dp2368
sg71
g2353
sg64
(lp2369
g57
(g58
g59
NtRp2370
(dp2371
g62
(dp2372
g70
I3
ssg71
g2366
sg64
(lp2373
g928
asbasbasbag57
(g73
g59
NtRp2374
(dp2375
g62
(dp2376
sg71
g2244
sg64
(lp2377
g57
(g78
g59
NtRp2378
(dp2379
g62
(dp2380
g82
g83
ssg71
g2374
sg64
(lp2381
S'HTTP_HOST'
p2382
asbag57
(g78
g59
NtRp2383
(dp2384
g62
(dp2385
g89
g90
ssg71
g2374
sg64
(lp2386
S':'
asbag57
(g78
g59
NtRp2387
(dp2388
g62
(dp2389
sg71
g2374
sg64
(lp2390
g57
(g58
g59
NtRp2391
(dp2392
g62
(dp2393
g70
I3
ssg71
g2387
sg64
(lp2394
g950
asbasbasbag57
(g73
g59
NtRp2395
(dp2396
g62
(dp2397
sg71
g2244
sg64
(lp2398
g57
(g78
g59
NtRp2399
(dp2400
g62
(dp2401
g82
g83
ssg71
g2395
sg64
(lp2402
S'HTTP_KEEP_ALIVE'
p2403
asbag57
(g78
g59
NtRp2404
(dp2405
g62
(dp2406
g89
g90
ssg71
g2395
sg64
(lp2407
S':'
asbag57
(g78
g59
NtRp2408
(dp2409
g62
(dp2410
sg71
g2395
sg64
(lp2411
g57
(g58
g59
NtRp2412
(dp2413
g62
(dp2414
g70
I3
ssg71
g2408
sg64
(lp2415
g972
asbasbasbag57
(g73
g59
NtRp2416
(dp2417
g62
(dp2418
sg71
g2244
sg64
(lp2419
g57
(g78
g59
NtRp2420
(dp2421
g62
(dp2422
g82
g83
ssg71
g2416
sg64
(lp2423
S'HTTP_USER_AGENT'
p2424
asbag57
(g78
g59
NtRp2425
(dp2426
g62
(dp2427
g89
g90
ssg71
g2416
sg64
(lp2428
S':'
asbag57
(g78
g59
NtRp2429
(dp2430
g62
(dp2431
sg71
g2416
sg64
(lp2432
g57
(g58
g59
NtRp2433
(dp2434
g62
(dp2435
g70
I3
ssg71
g2429
sg64
(lp2436
g994
asbasbasbag57
(g73
g59
NtRp2437
(dp2438
g62
(dp2439
sg71
g2244
sg64
(lp2440
g57
(g78
g59
NtRp2441
(dp2442
g62
(dp2443
g82
g83
ssg71
g2437
sg64
(lp2444
S'PATH_INFO'
p2445
asbag57
(g78
g59
NtRp2446
(dp2447
g62
(dp2448
g89
g90
ssg71
g2437
sg64
(lp2449
S':'
asbag57
(g78
g59
NtRp2450
(dp2451
g62
(dp2452
sg71
g2437
sg64
(lp2453
g57
(g58
g59
NtRp2454
(dp2455
g62
(dp2456
g70
I3
ssg71
g2450
sg64
(lp2457
g1037
asbasbasbag57
(g73
g59
NtRp2458
(dp2459
g62
(dp2460
sg71
g2244
sg64
(lp2461
g57
(g78
g59
NtRp2462
(dp2463
g62
(dp2464
g82
g83
ssg71
g2458
sg64
(lp2465
S'QUERY_STRING'
p2466
asbag57
(g78
g59
NtRp2467
(dp2468
g62
(dp2469
g89
g90
ssg71
g2458
sg64
(lp2470
S':'
asbag57
(g78
g59
NtRp2471
(dp2472
g62
(dp2473
sg71
g2458
sg64
(lp2474
g57
(g58
g59
NtRp2475
(dp2476
g62
(dp2477
g70
I3
ssg71
g2471
sg64
(lp2478
g1059
asbasbasbag57
(g73
g59
NtRp2479
(dp2480
g62
(dp2481
sg71
g2244
sg64
(lp2482
g57
(g78
g59
NtRp2483
(dp2484
g62
(dp2485
g82
g83
ssg71
g2479
sg64
(lp2486
S'REMOTE_ADDR'
p2487
asbag57
(g78
g59
NtRp2488
(dp2489
g62
(dp2490
g89
g90
ssg71
g2479
sg64
(lp2491
S':'
asbag57
(g78
g59
NtRp2492
(dp2493
g62
(dp2494
sg71
g2479
sg64
(lp2495
g57
(g58
g59
NtRp2496
(dp2497
g62
(dp2498
g70
I3
ssg71
g2492
sg64
(lp2499
g190
asbasbasbag57
(g73
g59
NtRp2500
(dp2501
g62
(dp2502
sg71
g2244
sg64
(lp2503
g57
(g78
g59
NtRp2504
(dp2505
g62
(dp2506
g82
g83
ssg71
g2500
sg64
(lp2507
S'REMOTE_PORT'
p2508
asbag57
(g78
g59
NtRp2509
(dp2510
g62
(dp2511
g89
g90
ssg71
g2500
sg64
(lp2512
S':'
asbag57
(g78
g59
NtRp2513
(dp2514
g62
(dp2515
sg71
g2500
sg64
(lp2516
g57
(g58
g59
NtRp2517
(dp2518
g62
(dp2519
g70
I3
ssg71
g2513
sg64
(lp2520
g1102
asbasbasbag57
(g73
g59
NtRp2521
(dp2522
g62
(dp2523
sg71
g2244
sg64
(lp2524
g57
(g78
g59
NtRp2525
(dp2526
g62
(dp2527
g82
g83
ssg71
g2521
sg64
(lp2528
S'REQUEST_METHOD'
p2529
asbag57
(g78
g59
NtRp2530
(dp2531
g62
(dp2532
g89
g90
ssg71
g2521
sg64
(lp2533
S':'
asbag57
(g78
g59
NtRp2534
(dp2535
g62
(dp2536
sg71
g2521
sg64
(lp2537
g57
(g58
g59
NtRp2538
(dp2539
g62
(dp2540
g70
I3
ssg71
g2534
sg64
(lp2541
g1124
asbasbasbag57
(g73
g59
NtRp2542
(dp2543
g62
(dp2544
sg71
g2244
sg64
(lp2545
g57
(g78
g59
NtRp2546
(dp2547
g62
(dp2548
g82
g83
ssg71
g2542
sg64
(lp2549
S'SCRIPT_NAME'
p2550
asbag57
(g78
g59
NtRp2551
(dp2552
g62
(dp2553
g89
g90
ssg71
g2542
sg64
(lp2554
S':'
asbag57
(g78
g59
NtRp2555
(dp2556
g62
(dp2557
sg71
g2542
sg64
(lp2558
g57
(g58
g59
NtRp2559
(dp2560
g62
(dp2561
g70
I3
ssg71
g2555
sg64
(lp2562
S''
asbasbasbag57
(g73
g59
NtRp2563
(dp2564
g62
(dp2565
sg71
g2244
sg64
(lp2566
g57
(g78
g59
NtRp2567
(dp2568
g62
(dp2569
g82
g83
ssg71
g2563
sg64
(lp2570
S'SERVER_NAME'
p2571
asbag57
(g78
g59
NtRp2572
(dp2573
g62
(dp2574
g89
g90
ssg71
g2563
sg64
(lp2575
S':'
asbag57
(g78
g59
NtRp2576
(dp2577
g62
(dp2578
sg71
g2563
sg64
(lp2579
g57
(g58
g59
NtRp2580
(dp2581
g62
(dp2582
g70
I3
ssg71
g2576
sg64
(lp2583
g1167
asbasbasbag57
(g73
g59
NtRp2584
(dp2585
g62
(dp2586
sg71
g2244
sg64
(lp2587
g57
(g78
g59
NtRp2588
(dp2589
g62
(dp2590
g82
g83
ssg71
g2584
sg64
(lp2591
S'SERVER_PORT'
p2592
asbag57
(g78
g59
NtRp2593
(dp2594
g62
(dp2595
g89
g90
ssg71
g2584
sg64
(lp2596
S':'
asbag57
(g78
g59
NtRp2597
(dp2598
g62
(dp2599
sg71
g2584
sg64
(lp2600
g57
(g58
g59
NtRp2601
(dp2602
g62
(dp2603
g70
I3
ssg71
g2597
sg64
(lp2604
g1189
asbasbasbag57
(g73
g59
NtRp2605
(dp2606
g62
(dp2607
sg71
g2244
sg64
(lp2608
g57
(g78
g59
NtRp2609
(dp2610
g62
(dp2611
g82
g83
ssg71
g2605
sg64
(lp2612
S'SERVER_PROTOCOL'
p2613
asbag57
(g78
g59
NtRp2614
(dp2615
g62
(dp2616
g89
g90
ssg71
g2605
sg64
(lp2617
S':'
asbag57
(g78
g59
NtRp2618
(dp2619
g62
(dp2620
sg71
g2605
sg64
(lp2621
g57
(g58
g59
NtRp2622
(dp2623
g62
(dp2624
g70
I3
ssg71
g2618
sg64
(lp2625
g1211
asbasbasbag57
(g73
g59
NtRp2626
(dp2627
g62
(dp2628
sg71
g2244
sg64
(lp2629
g57
(g78
g59
NtRp2630
(dp2631
g62
(dp2632
g82
g83
ssg71
g2626
sg64
(lp2633
S'SERVER_SOFTWARE'
p2634
asbag57
(g78
g59
NtRp2635
(dp2636
g62
(dp2637
g89
g90
ssg71
g2626
sg64
(lp2638
S':'
asbag57
(g78
g59
NtRp2639
(dp2640
g62
(dp2641
sg71
g2626
sg64
(lp2642
g57
(g58
g59
NtRp2643
(dp2644
g62
(dp2645
g70
I3
ssg71
g2639
sg64
(lp2646
g1233
asbasbasbag57
(g73
g59
NtRp2647
(dp2648
g62
(dp2649
sg71
g2244
sg64
(lp2650
g57
(g78
g59
NtRp2651
(dp2652
g62
(dp2653
g82
g83
ssg71
g2647
sg64
(lp2654
S'wsgi.errors'
p2655
asbag57
(g78
g59
NtRp2656
(dp2657
g62
(dp2658
g89
g90
ssg71
g2647
sg64
(lp2659
S':'
asbag57
(g78
g59
NtRp2660
(dp2661
g62
(dp2662
sg71
g2647
sg64
(lp2663
g57
(g58
g59
NtRp2664
(dp2665
g62
(dp2666
g70
I3
ssg71
g2660
sg64
(lp2667
S"<open file '<stderr>', mode 'w' at 0x01DC50D0>"
p2668
asbasbasbag57
(g73
g59
NtRp2669
(dp2670
g62
(dp2671
sg71
g2244
sg64
(lp2672
g57
(g78
g59
NtRp2673
(dp2674
g62
(dp2675
g82
g83
ssg71
g2669
sg64
(lp2676
S'wsgi.file_wrapper'
p2677
asbag57
(g78
g59
NtRp2678
(dp2679
g62
(dp2680
g89
g90
ssg71
g2669
sg64
(lp2681
S':'
asbag57
(g78
g59
NtRp2682
(dp2683
g62
(dp2684
sg71
g2669
sg64
(lp2685
g57
(g58
g59
NtRp2686
(dp2687
g62
(dp2688
g70
I3
ssg71
g2682
sg64
(lp2689
S'<class wsgiref.util.FileWrapper at 0x02D38AB0>'
p2690
asbasbasbag57
(g73
g59
NtRp2691
(dp2692
g62
(dp2693
sg71
g2244
sg64
(lp2694
g57
(g78
g59
NtRp2695
(dp2696
g62
(dp2697
g82
g83
ssg71
g2691
sg64
(lp2698
S'wsgi.input'
p2699
asbag57
(g78
g59
NtRp2700
(dp2701
g62
(dp2702
g89
g90
ssg71
g2691
sg64
(lp2703
S':'
asbag57
(g78
g59
NtRp2704
(dp2705
g62
(dp2706
sg71
g2691
sg64
(lp2707
g57
(g58
g59
NtRp2708
(dp2709
g62
(dp2710
g70
I3
ssg71
g2704
sg64
(lp2711
S'<cStringIO.StringO object at 0x03144A40>'
p2712
asbasbasbag57
(g73
g59
NtRp2713
(dp2714
g62
(dp2715
sg71
g2244
sg64
(lp2716
g57
(g78
g59
NtRp2717
(dp2718
g62
(dp2719
g82
g83
ssg71
g2713
sg64
(lp2720
S'wsgi.multiprocess'
p2721
asbag57
(g78
g59
NtRp2722
(dp2723
g62
(dp2724
g89
g90
ssg71
g2713
sg64
(lp2725
S':'
asbag57
(g78
g59
NtRp2726
(dp2727
g62
(dp2728
sg71
g2713
sg64
(lp2729
g57
(g58
g59
NtRp2730
(dp2731
g62
(dp2732
g70
I3
ssg71
g2726
sg64
(lp2733
g100
asbasbasbag57
(g73
g59
NtRp2734
(dp2735
g62
(dp2736
sg71
g2244
sg64
(lp2737
g57
(g78
g59
NtRp2738
(dp2739
g62
(dp2740
g82
g83
ssg71
g2734
sg64
(lp2741
S'wsgi.multithread'
p2742
asbag57
(g78
g59
NtRp2743
(dp2744
g62
(dp2745
g89
g90
ssg71
g2734
sg64
(lp2746
S':'
asbag57
(g78
g59
NtRp2747
(dp2748
g62
(dp2749
sg71
g2734
sg64
(lp2750
g57
(g58
g59
NtRp2751
(dp2752
g62
(dp2753
g70
I3
ssg71
g2747
sg64
(lp2754
g1473
asbasbasbag57
(g73
g59
NtRp2755
(dp2756
g62
(dp2757
sg71
g2244
sg64
(lp2758
g57
(g78
g59
NtRp2759
(dp2760
g62
(dp2761
g82
g83
ssg71
g2755
sg64
(lp2762
S'wsgi.run_once'
p2763
asbag57
(g78
g59
NtRp2764
(dp2765
g62
(dp2766
g89
g90
ssg71
g2755
sg64
(lp2767
S':'
asbag57
(g78
g59
NtRp2768
(dp2769
g62
(dp2770
sg71
g2755
sg64
(lp2771
g57
(g58
g59
NtRp2772
(dp2773
g62
(dp2774
g70
I3
ssg71
g2768
sg64
(lp2775
g100
asbasbasbag57
(g73
g59
NtRp2776
(dp2777
g62
(dp2778
sg71
g2244
sg64
(lp2779
g57
(g78
g59
NtRp2780
(dp2781
g62
(dp2782
g82
g83
ssg71
g2776
sg64
(lp2783
S'wsgi.url_scheme'
p2784
asbag57
(g78
g59
NtRp2785
(dp2786
g62
(dp2787
g89
g90
ssg71
g2776
sg64
(lp2788
S':'
asbag57
(g78
g59
NtRp2789
(dp2790
g62
(dp2791
sg71
g2776
sg64
(lp2792
g57
(g58
g59
NtRp2793
(dp2794
g62
(dp2795
g70
I3
ssg71
g2789
sg64
(lp2796
g1516
asbasbasbag57
(g73
g59
NtRp2797
(dp2798
g62
(dp2799
sg71
g2244
sg64
(lp2800
g57
(g78
g59
NtRp2801
(dp2802
g62
(dp2803
g82
g83
ssg71
g2797
sg64
(lp2804
S'wsgi.version'
p2805
asbag57
(g78
g59
NtRp2806
(dp2807
g62
(dp2808
g89
g90
ssg71
g2797
sg64
(lp2809
S':'
asbag57
(g78
g59
NtRp2810
(dp2811
g62
(dp2812
sg71
g2797
sg64
(lp2813
g57
(g58
g59
NtRp2814
(dp2815
g62
(dp2816
g70
I3
ssg71
g2810
sg64
(lp2817
S'1'
asbasbasbasbasbasbasbasbasbasbasbasbasbsS'frames'
p2818
(lp2819
(dp2820
S'file'
p2821
S'P:\\School\\DePaul\\Projects\\CSC_438\\web2py\\gluon\\restricted.py'
p2822
sS'dump'
p2823
(dp2824
S'environment'
p2825
S"{'A': <class 'gluon.html.A'>, 'Auth': <class 'gluon.tools.Auth'>, 'B': <class 'gluon.html.B'>, 'BEAUTIFY': <class 'gluon.html.BEAUTIFY'>, 'BODY': <class 'gluon.html.BODY'>, 'BR': <class 'gluon.html.BR'>, 'BUTTON': <class 'gluon.html.BUTTON'>, 'CAT': <class 'gluon.html.CAT'>, 'CENTER': <class 'gluon.html.CENTER'>, 'CLEANUP': <class 'gluon.validators.CLEANUP'>, ...}"
p2826
sS'ccode'
p2827
S'<code object <module> at 072209F8, file "P:\\Scho...tions\\init\\views\\default/challenge.html", line 1>'
p2828
ssS'lnum'
p2829
I204
sS'lines'
p2830
(dp2831
I199
S'    try:'
p2832
sI200
S'        if type(code) == types.CodeType:'
p2833
sI201
S'            ccode = code'
p2834
sI202
S'        else:'
p2835
sI203
S'            ccode = compile2(code,layer)'
p2836
sI204
S'        exec ccode in environment'
p2837
sI205
S'    except HTTP:'
p2838
sI206
S'        raise'
p2839
sI207
S'    except RestrictedError:'
p2840
sI208
S'        # do not encapsulate (obfuscate) the original RestrictedError'
p2841
ssS'call'
p2842
S'(code=\'response.write(\\\'<!DOCTYPE html PUBLIC "-//W3C//D...iv>\\\\r\\\\n\\\\r\\\\n</body>\\\\r\\\\n</html>\\\\r\\\\n\\\', escape=False)\', environment={\'A\': <class \'gluon.html.A\'>, \'Auth\': <class \'gluon.tools.Auth\'>, \'B\': <class \'gluon.html.B\'>, \'BEAUTIFY\': <class \'gluon.html.BEAUTIFY\'>, \'BODY\': <class \'gluon.html.BODY\'>, \'BR\': <class \'gluon.html.BR\'>, \'BUTTON\': <class \'gluon.html.BUTTON\'>, \'CAT\': <class \'gluon.html.CAT\'>, \'CENTER\': <class \'gluon.html.CENTER\'>, \'CLEANUP\': <class \'gluon.validators.CLEANUP\'>, ...}, layer=r\'P:\\School\\DePaul\\Projects\\CSC_438\\web2py\\applications\\init\\views\\default/challenge.html\')'
p2843
sS'func'
p2844
S'restricted'
p2845
sa(dp2846
g2821
S'P:\\School\\DePaul\\Projects\\CSC_438\\web2py\\applications\\init\\views\\default\\challenge.html'
p2847
sg2823
(dp2848
S'tr'
p2849
S'undefined'
p2850
ssg2829
I34
sg2830
(dp2851
I32
S'response.write(form.name)'
p2852
sI33
S'response.write(\'</h1>\\r\\n<!-- \\t <h1 class="titlePage">\', escape=False)'
p2853
sI34
S"response.write(T(form.name.function.replace('_',' ').capitalize()))"
p2854
sI35
S"response.write('</h1> -->\\r\\n\\tTEST POSITION\\r\\n', escape=False)"
p2855
sI36
S"response.write('\\r\\n            <!-- \\r\\n                ', escape=False)"
p2856
sI37
S'if request.args(0) != None:'
p2857
sI38
S'    response.write(\'\\r\\n                    <h1 class="titlePage">\', escape=False)'
p2858
sI39
S"    response.write(T(request.args(0).replace('_',' ').capitalize()))"
p2859
sI40
S"    response.write('</h1>\\r\\n                ', escape=False)"
p2860
sI41
S'else:'
p2861
sI42
S'    response.write(\'\\r\\n                    <h1 class="titlePage">\', escape=False)'
p2862
sI43
S"    response.write(T(request.function.replace('_',' ').capitalize()))"
p2863
sI44
S"    response.write('</h1>\\r\\n                ', escape=False)"
p2864
sI25
S'response.write(\'">Contact</a></li>\\r\\n        <li class="top-menu-item"><a href="#">About</a></li>\\r\\n    </ul>\\r\\n\', escape=False)'
p2865
sI26
S'response.write(\'\\r\\n    <div id="auth_navbar">\\r\\n        <br/>\\r\\n        \', escape=False)'
p2866
sI27
S'try:'
p2867
sI28
S"    response.write(auth.navbar(action=URL('default','user')))"
p2868
sI29
S'except:pass'
p2869
sI30
S'response.write(\'</h3>\\r\\n    </div>\\r\\n</div>\\r\\n\\r\\n<div id="wrap-website">\\r\\n    <div id="content">\\r\\n        <div class="post">\\r\\n            <div class="head-post">\\r\\n            \', escape=False)'
p2870
sI31
S'response.write(\'\\r\\n\\t <h1 class="titlePage">\', escape=False)'
p2871
ssg2842
S'()'
p2872
sg2844
S'<module>'
p2873
sasS'pyver'
p2874
S'Python 2.7.2: P:\\Workbench\\DevEnv\\Python27\\python.exe'
p2875
sS'session'
p2876
g57
(g58
g59
NtRp2877
(dp2878
g62
(dp2879
sg64
(lp2880
g57
(g66
g59
NtRp2881
(dp2882
g62
(dp2883
g70
I5
ssg71
Nsg64
(lp2884
g57
(g73
g59
NtRp2885
(dp2886
g62
(dp2887
sg71
g2881
sg64
(lp2888
g57
(g78
g59
NtRp2889
(dp2890
g62
(dp2891
g82
g83
ssg71
g2885
sg64
(lp2892
S'auth'
p2893
asbag57
(g78
g59
NtRp2894
(dp2895
g62
(dp2896
g89
g90
ssg71
g2885
sg64
(lp2897
S':'
asbag57
(g78
g59
NtRp2898
(dp2899
g62
(dp2900
sg71
g2885
sg64
(lp2901
g57
(g58
g59
NtRp2902
(dp2903
g62
(dp2904
g70
I5
ssg71
g2898
sg64
(lp2905
g57
(g66
g59
NtRp2906
(dp2907
g62
(dp2908
g70
I4
ssg71
Nsg64
(lp2909
g57
(g73
g59
NtRp2910
(dp2911
g62
(dp2912
sg71
g2906
sg64
(lp2913
g57
(g78
g59
NtRp2914
(dp2915
g62
(dp2916
g82
g83
ssg71
g2910
sg64
(lp2917
S'expiration'
p2918
asbag57
(g78
g59
NtRp2919
(dp2920
g62
(dp2921
g89
g90
ssg71
g2910
sg64
(lp2922
S':'
asbag57
(g78
g59
NtRp2923
(dp2924
g62
(dp2925
sg71
g2910
sg64
(lp2926
g57
(g58
g59
NtRp2927
(dp2928
g62
(dp2929
g70
I4
ssg71
g2923
sg64
(lp2930
S'2592000'
p2931
asbasbasbag57
(g73
g59
NtRp2932
(dp2933
g62
(dp2934
sg71
g2906
sg64
(lp2935
g57
(g78
g59
NtRp2936
(dp2937
g62
(dp2938
g82
g83
ssg71
g2932
sg64
(lp2939
S'hmac_key'
p2940
asbag57
(g78
g59
NtRp2941
(dp2942
g62
(dp2943
g89
g90
ssg71
g2932
sg64
(lp2944
S':'
asbag57
(g78
g59
NtRp2945
(dp2946
g62
(dp2947
sg71
g2932
sg64
(lp2948
g57
(g58
g59
NtRp2949
(dp2950
g62
(dp2951
g70
I4
ssg71
g2945
sg64
(lp2952
S'be6b6463-0fba-445f-9298-553058d56616'
p2953
asbasbasbag57
(g73
g59
NtRp2954
(dp2955
g62
(dp2956
sg71
g2906
sg64
(lp2957
g57
(g78
g59
NtRp2958
(dp2959
g62
(dp2960
g82
g83
ssg71
g2954
sg64
(lp2961
S'last_visit'
p2962
asbag57
(g78
g59
NtRp2963
(dp2964
g62
(dp2965
g89
g90
ssg71
g2954
sg64
(lp2966
S':'
asbag57
(g78
g59
NtRp2967
(dp2968
g62
(dp2969
sg71
g2954
sg64
(lp2970
g57
(g58
g59
NtRp2971
(dp2972
g62
(dp2973
g70
I4
ssg71
g2967
sg64
(lp2974
S'datetime.datetime(2011, 11, 19, 21, 26, 41, 492000)'
p2975
asbasbasbag57
(g73
g59
NtRp2976
(dp2977
g62
(dp2978
sg71
g2906
sg64
(lp2979
g57
(g78
g59
NtRp2980
(dp2981
g62
(dp2982
g82
g83
ssg71
g2976
sg64
(lp2983
S'remember'
p2984
asbag57
(g78
g59
NtRp2985
(dp2986
g62
(dp2987
g89
g90
ssg71
g2976
sg64
(lp2988
S':'
asbag57
(g78
g59
NtRp2989
(dp2990
g62
(dp2991
sg71
g2976
sg64
(lp2992
g57
(g58
g59
NtRp2993
(dp2994
g62
(dp2995
g70
I4
ssg71
g2989
sg64
(lp2996
g100
asbasbasbag57
(g73
g59
NtRp2997
(dp2998
g62
(dp2999
sg71
g2906
sg64
(lp3000
g57
(g78
g59
NtRp3001
(dp3002
g62
(dp3003
g82
g83
ssg71
g2997
sg64
(lp3004
S'user'
p3005
asbag57
(g78
g59
NtRp3006
(dp3007
g62
(dp3008
g89
g90
ssg71
g2997
sg64
(lp3009
S':'
asbag57
(g78
g59
NtRp3010
(dp3011
g62
(dp3012
sg71
g2997
sg64
(lp3013
g57
(g58
g59
NtRp3014
(dp3015
g62
(dp3016
g70
I4
ssg71
g3010
sg64
(lp3017
g57
(g66
g59
NtRp3018
(dp3019
g62
(dp3020
g70
I3
ssg71
Nsg64
(lp3021
g57
(g73
g59
NtRp3022
(dp3023
g62
(dp3024
sg71
g3018
sg64
(lp3025
g57
(g78
g59
NtRp3026
(dp3027
g62
(dp3028
g82
g83
ssg71
g3022
sg64
(lp3029
S'birthday'
p3030
asbag57
(g78
g59
NtRp3031
(dp3032
g62
(dp3033
g89
g90
ssg71
g3022
sg64
(lp3034
S':'
asbag57
(g78
g59
NtRp3035
(dp3036
g62
(dp3037
sg71
g3022
sg64
(lp3038
g57
(g58
g59
NtRp3039
(dp3040
g62
(dp3041
g70
I3
ssg71
g3035
sg64
(lp3042
S'datetime.date(1974, 5, 2)'
p3043
asbasbasbag57
(g73
g59
NtRp3044
(dp3045
g62
(dp3046
sg71
g3018
sg64
(lp3047
g57
(g78
g59
NtRp3048
(dp3049
g62
(dp3050
g82
g83
ssg71
g3044
sg64
(lp3051
S'challenges'
p3052
asbag57
(g78
g59
NtRp3053
(dp3054
g62
(dp3055
g89
g90
ssg71
g3044
sg64
(lp3056
S':'
asbag57
(g78
g59
NtRp3057
(dp3058
g62
(dp3059
sg71
g3044
sg64
(lp3060
g57
(g58
g59
NtRp3061
(dp3062
g62
(dp3063
g70
I3
ssg71
g3057
sg64
(lp3064
g57
(g66
g59
NtRp3065
(dp3066
g62
(dp3067
g70
I2
ssg71
Nsg64
(lp3068
sbasbasbasbag57
(g73
g59
NtRp3069
(dp3070
g62
(dp3071
sg71
g3018
sg64
(lp3072
g57
(g78
g59
NtRp3073
(dp3074
g62
(dp3075
g82
g83
ssg71
g3069
sg64
(lp3076
S'current_weight'
p3077
asbag57
(g78
g59
NtRp3078
(dp3079
g62
(dp3080
g89
g90
ssg71
g3069
sg64
(lp3081
S':'
asbag57
(g78
g59
NtRp3082
(dp3083
g62
(dp3084
sg71
g3069
sg64
(lp3085
g57
(g58
g59
NtRp3086
(dp3087
g62
(dp3088
g70
I3
ssg71
g3082
sg64
(lp3089
S'200'
p3090
asbasbasbag57
(g73
g59
NtRp3091
(dp3092
g62
(dp3093
sg71
g3018
sg64
(lp3094
g57
(g78
g59
NtRp3095
(dp3096
g62
(dp3097
g82
g83
ssg71
g3091
sg64
(lp3098
S'email'
p3099
asbag57
(g78
g59
NtRp3100
(dp3101
g62
(dp3102
g89
g90
ssg71
g3091
sg64
(lp3103
S':'
asbag57
(g78
g59
NtRp3104
(dp3105
g62
(dp3106
sg71
g3091
sg64
(lp3107
g57
(g58
g59
NtRp3108
(dp3109
g62
(dp3110
g70
I3
ssg71
g3104
sg64
(lp3111
S'aedwards92@gmail.com'
p3112
asbasbasbag57
(g73
g59
NtRp3113
(dp3114
g62
(dp3115
sg71
g3018
sg64
(lp3116
g57
(g78
g59
NtRp3117
(dp3118
g62
(dp3119
g82
g83
ssg71
g3113
sg64
(lp3120
S'first_name'
p3121
asbag57
(g78
g59
NtRp3122
(dp3123
g62
(dp3124
g89
g90
ssg71
g3113
sg64
(lp3125
S':'
asbag57
(g78
g59
NtRp3126
(dp3127
g62
(dp3128
sg71
g3113
sg64
(lp3129
g57
(g58
g59
NtRp3130
(dp3131
g62
(dp3132
g70
I3
ssg71
g3126
sg64
(lp3133
S'Adrian'
p3134
asbasbasbag57
(g73
g59
NtRp3135
(dp3136
g62
(dp3137
sg71
g3018
sg64
(lp3138
g57
(g78
g59
NtRp3139
(dp3140
g62
(dp3141
g82
g83
ssg71
g3135
sg64
(lp3142
S'gender'
p3143
asbag57
(g78
g59
NtRp3144
(dp3145
g62
(dp3146
g89
g90
ssg71
g3135
sg64
(lp3147
S':'
asbag57
(g78
g59
NtRp3148
(dp3149
g62
(dp3150
sg71
g3135
sg64
(lp3151
g57
(g58
g59
NtRp3152
(dp3153
g62
(dp3154
g70
I3
ssg71
g3148
sg64
(lp3155
S'Male'
p3156
asbasbasbag57
(g73
g59
NtRp3157
(dp3158
g62
(dp3159
sg71
g3018
sg64
(lp3160
g57
(g78
g59
NtRp3161
(dp3162
g62
(dp3163
g82
g83
ssg71
g3157
sg64
(lp3164
S'height'
p3165
asbag57
(g78
g59
NtRp3166
(dp3167
g62
(dp3168
g89
g90
ssg71
g3157
sg64
(lp3169
S':'
asbag57
(g78
g59
NtRp3170
(dp3171
g62
(dp3172
sg71
g3157
sg64
(lp3173
g57
(g58
g59
NtRp3174
(dp3175
g62
(dp3176
g70
I3
ssg71
g3170
sg64
(lp3177
S'72'
p3178
asbasbasbag57
(g73
g59
NtRp3179
(dp3180
g62
(dp3181
sg71
g3018
sg64
(lp3182
g57
(g78
g59
NtRp3183
(dp3184
g62
(dp3185
g82
g83
ssg71
g3179
sg64
(lp3186
S'id'
p3187
asbag57
(g78
g59
NtRp3188
(dp3189
g62
(dp3190
g89
g90
ssg71
g3179
sg64
(lp3191
S':'
asbag57
(g78
g59
NtRp3192
(dp3193
g62
(dp3194
sg71
g3179
sg64
(lp3195
g57
(g58
g59
NtRp3196
(dp3197
g62
(dp3198
g70
I3
ssg71
g3192
sg64
(lp3199
S'6'
asbasbasbag57
(g73
g59
NtRp3200
(dp3201
g62
(dp3202
sg71
g3018
sg64
(lp3203
g57
(g78
g59
NtRp3204
(dp3205
g62
(dp3206
g82
g83
ssg71
g3200
sg64
(lp3207
S'image'
p3208
asbag57
(g78
g59
NtRp3209
(dp3210
g62
(dp3211
g89
g90
ssg71
g3200
sg64
(lp3212
S':'
asbag57
(g78
g59
NtRp3213
(dp3214
g62
(dp3215
sg71
g3200
sg64
(lp3216
g57
(g58
g59
NtRp3217
(dp3218
g62
(dp3219
g70
I3
ssg71
g3213
sg64
(lp3220
S''
asbasbasbag57
(g73
g59
NtRp3221
(dp3222
g62
(dp3223
sg71
g3018
sg64
(lp3224
g57
(g78
g59
NtRp3225
(dp3226
g62
(dp3227
g82
g83
ssg71
g3221
sg64
(lp3228
S'last_name'
p3229
asbag57
(g78
g59
NtRp3230
(dp3231
g62
(dp3232
g89
g90
ssg71
g3221
sg64
(lp3233
S':'
asbag57
(g78
g59
NtRp3234
(dp3235
g62
(dp3236
sg71
g3221
sg64
(lp3237
g57
(g58
g59
NtRp3238
(dp3239
g62
(dp3240
g70
I3
ssg71
g3234
sg64
(lp3241
S'Edwards'
p3242
asbasbasbag57
(g73
g59
NtRp3243
(dp3244
g62
(dp3245
sg71
g3018
sg64
(lp3246
g57
(g78
g59
NtRp3247
(dp3248
g62
(dp3249
g82
g83
ssg71
g3243
sg64
(lp3250
S'password'
p3251
asbag57
(g78
g59
NtRp3252
(dp3253
g62
(dp3254
g89
g90
ssg71
g3243
sg64
(lp3255
S':'
asbag57
(g78
g59
NtRp3256
(dp3257
g62
(dp3258
sg71
g3243
sg64
(lp3259
g57
(g58
g59
NtRp3260
(dp3261
g62
(dp3262
g70
I3
ssg71
g3256
sg64
(lp3263
S'12923092f4d9e86e56018b9cdd790947'
p3264
asbasbasbag57
(g73
g59
NtRp3265
(dp3266
g62
(dp3267
sg71
g3018
sg64
(lp3268
g57
(g78
g59
NtRp3269
(dp3270
g62
(dp3271
g82
g83
ssg71
g3265
sg64
(lp3272
S'registration_id'
p3273
asbag57
(g78
g59
NtRp3274
(dp3275
g62
(dp3276
g89
g90
ssg71
g3265
sg64
(lp3277
S':'
asbag57
(g78
g59
NtRp3278
(dp3279
g62
(dp3280
sg71
g3265
sg64
(lp3281
g57
(g58
g59
NtRp3282
(dp3283
g62
(dp3284
g70
I3
ssg71
g3278
sg64
(lp3285
S''
asbasbasbag57
(g73
g59
NtRp3286
(dp3287
g62
(dp3288
sg71
g3018
sg64
(lp3289
g57
(g78
g59
NtRp3290
(dp3291
g62
(dp3292
g82
g83
ssg71
g3286
sg64
(lp3293
S'registration_key'
p3294
asbag57
(g78
g59
NtRp3295
(dp3296
g62
(dp3297
g89
g90
ssg71
g3286
sg64
(lp3298
S':'
asbag57
(g78
g59
NtRp3299
(dp3300
g62
(dp3301
sg71
g3286
sg64
(lp3302
g57
(g58
g59
NtRp3303
(dp3304
g62
(dp3305
g70
I3
ssg71
g3299
sg64
(lp3306
S''
asbasbasbag57
(g73
g59
NtRp3307
(dp3308
g62
(dp3309
sg71
g3018
sg64
(lp3310
g57
(g78
g59
NtRp3311
(dp3312
g62
(dp3313
g82
g83
ssg71
g3307
sg64
(lp3314
S'reset_password_key'
p3315
asbag57
(g78
g59
NtRp3316
(dp3317
g62
(dp3318
g89
g90
ssg71
g3307
sg64
(lp3319
S':'
asbag57
(g78
g59
NtRp3320
(dp3321
g62
(dp3322
sg71
g3307
sg64
(lp3323
g57
(g58
g59
NtRp3324
(dp3325
g62
(dp3326
g70
I3
ssg71
g3320
sg64
(lp3327
S''
asbasbasbasbasbasbasbasbasbasbasbasbasbsS'etype'
p3328
S"<type 'exceptions.AttributeError'>"
p3329
sS'date'
p3330
S'Sat Nov 19 21:34:51 2011'
p3331
sS'response'
p3332
g57
(g58
g59
NtRp3333
(dp3334
g62
(dp3335
sg64
(lp3336
g57
(g66
g59
NtRp3337
(dp3338
g62
(dp3339
g70
I5
ssg71
Nsg64
(lp3340
g57
(g73
g59
NtRp3341
(dp3342
g62
(dp3343
sg71
g3337
sg64
(lp3344
g57
(g78
g59
NtRp3345
(dp3346
g62
(dp3347
g82
g83
ssg71
g3341
sg64
(lp3348
g155
asbag57
(g78
g59
NtRp3349
(dp3350
g62
(dp3351
g89
g90
ssg71
g3341
sg64
(lp3352
S':'
asbag57
(g78
g59
NtRp3353
(dp3354
g62
(dp3355
sg71
g3341
sg64
(lp3356
g57
(g58
g59
NtRp3357
(dp3358
g62
(dp3359
g70
I5
ssg71
g3353
sg64
(lp3360
S'<cStringIO.StringO object at 0x07108420>'
p3361
asbasbasbag57
(g73
g59
NtRp3362
(dp3363
g62
(dp3364
sg71
g3337
sg64
(lp3365
g57
(g78
g59
NtRp3366
(dp3367
g62
(dp3368
g82
g83
ssg71
g3362
sg64
(lp3369
g221
asbag57
(g78
g59
NtRp3370
(dp3371
g62
(dp3372
g89
g90
ssg71
g3362
sg64
(lp3373
S':'
asbag57
(g78
g59
NtRp3374
(dp3375
g62
(dp3376
sg71
g3362
sg64
(lp3377
g57
(g58
g59
NtRp3378
(dp3379
g62
(dp3380
g70
I5
ssg71
g3374
sg64
(lp3381
g57
(g66
g59
NtRp3382
(dp3383
g62
(dp3384
g70
I4
ssg71
Nsg64
(lp3385
g57
(g73
g59
NtRp3386
(dp3387
g62
(dp3388
sg71
g3382
sg64
(lp3389
g57
(g78
g59
NtRp3390
(dp3391
g62
(dp3392
g82
g83
ssg71
g3386
sg64
(lp3393
S'session_id_init'
p3394
asbag57
(g78
g59
NtRp3395
(dp3396
g62
(dp3397
g89
g90
ssg71
g3386
sg64
(lp3398
S':'
asbag57
(g78
g59
NtRp3399
(dp3400
g62
(dp3401
sg71
g3386
sg64
(lp3402
g57
(g58
g59
NtRp3403
(dp3404
g62
(dp3405
g70
I4
ssg71
g3399
sg64
(lp3406
g57
(g66
g59
NtRp3407
(dp3408
g62
(dp3409
g70
I3
ssg71
Nsg64
(lp3410
g57
(g73
g59
NtRp3411
(dp3412
g62
(dp3413
sg71
g3407
sg64
(lp3414
g57
(g78
g59
NtRp3415
(dp3416
g62
(dp3417
g82
g83
ssg71
g3411
sg64
(lp3418
g271
asbag57
(g78
g59
NtRp3419
(dp3420
g62
(dp3421
g89
g90
ssg71
g3411
sg64
(lp3422
S':'
asbag57
(g78
g59
NtRp3423
(dp3424
g62
(dp3425
sg71
g3411
sg64
(lp3426
g57
(g58
g59
NtRp3427
(dp3428
g62
(dp3429
g70
I3
ssg71
g3423
sg64
(lp3430
S''
asbasbasbag57
(g73
g59
NtRp3431
(dp3432
g62
(dp3433
sg71
g3407
sg64
(lp3434
g57
(g78
g59
NtRp3435
(dp3436
g62
(dp3437
g82
g83
ssg71
g3431
sg64
(lp3438
g292
asbag57
(g78
g59
NtRp3439
(dp3440
g62
(dp3441
g89
g90
ssg71
g3431
sg64
(lp3442
S':'
asbag57
(g78
g59
NtRp3443
(dp3444
g62
(dp3445
sg71
g3431
sg64
(lp3446
g57
(g58
g59
NtRp3447
(dp3448
g62
(dp3449
g70
I3
ssg71
g3443
sg64
(lp3450
S''
asbasbasbag57
(g73
g59
NtRp3451
(dp3452
g62
(dp3453
sg71
g3407
sg64
(lp3454
g57
(g78
g59
NtRp3455
(dp3456
g62
(dp3457
g82
g83
ssg71
g3451
sg64
(lp3458
g313
asbag57
(g78
g59
NtRp3459
(dp3460
g62
(dp3461
g89
g90
ssg71
g3451
sg64
(lp3462
S':'
asbag57
(g78
g59
NtRp3463
(dp3464
g62
(dp3465
sg71
g3451
sg64
(lp3466
g57
(g58
g59
NtRp3467
(dp3468
g62
(dp3469
g70
I3
ssg71
g3463
sg64
(lp3470
S''
asbasbasbag57
(g73
g59
NtRp3471
(dp3472
g62
(dp3473
sg71
g3407
sg64
(lp3474
g57
(g78
g59
NtRp3475
(dp3476
g62
(dp3477
g82
g83
ssg71
g3471
sg64
(lp3478
g334
asbag57
(g78
g59
NtRp3479
(dp3480
g62
(dp3481
g89
g90
ssg71
g3471
sg64
(lp3482
S':'
asbag57
(g78
g59
NtRp3483
(dp3484
g62
(dp3485
sg71
g3471
sg64
(lp3486
g57
(g58
g59
NtRp3487
(dp3488
g62
(dp3489
g70
I3
ssg71
g3483
sg64
(lp3490
S''
asbasbasbag57
(g73
g59
NtRp3491
(dp3492
g62
(dp3493
sg71
g3407
sg64
(lp3494
g57
(g78
g59
NtRp3495
(dp3496
g62
(dp3497
g82
g83
ssg71
g3491
sg64
(lp3498
g355
asbag57
(g78
g59
NtRp3499
(dp3500
g62
(dp3501
g89
g90
ssg71
g3491
sg64
(lp3502
S':'
asbag57
(g78
g59
NtRp3503
(dp3504
g62
(dp3505
sg71
g3491
sg64
(lp3506
g57
(g58
g59
NtRp3507
(dp3508
g62
(dp3509
g70
I3
ssg71
g3503
sg64
(lp3510
S''
asbasbasbag57
(g73
g59
NtRp3511
(dp3512
g62
(dp3513
sg71
g3407
sg64
(lp3514
g57
(g78
g59
NtRp3515
(dp3516
g62
(dp3517
g82
g83
ssg71
g3511
sg64
(lp3518
g376
asbag57
(g78
g59
NtRp3519
(dp3520
g62
(dp3521
g89
g90
ssg71
g3511
sg64
(lp3522
S':'
asbag57
(g78
g59
NtRp3523
(dp3524
g62
(dp3525
sg71
g3511
sg64
(lp3526
g57
(g58
g59
NtRp3527
(dp3528
g62
(dp3529
g70
I3
ssg71
g3523
sg64
(lp3530
S'/'
asbasbasbag57
(g73
g59
NtRp3531
(dp3532
g62
(dp3533
sg71
g3407
sg64
(lp3534
g57
(g78
g59
NtRp3535
(dp3536
g62
(dp3537
g82
g83
ssg71
g3531
sg64
(lp3538
g397
asbag57
(g78
g59
NtRp3539
(dp3540
g62
(dp3541
g89
g90
ssg71
g3531
sg64
(lp3542
S':'
asbag57
(g78
g59
NtRp3543
(dp3544
g62
(dp3545
sg71
g3531
sg64
(lp3546
g57
(g58
g59
NtRp3547
(dp3548
g62
(dp3549
g70
I3
ssg71
g3543
sg64
(lp3550
S''
asbasbasbag57
(g73
g59
NtRp3551
(dp3552
g62
(dp3553
sg71
g3407
sg64
(lp3554
g57
(g78
g59
NtRp3555
(dp3556
g62
(dp3557
g82
g83
ssg71
g3551
sg64
(lp3558
g418
asbag57
(g78
g59
NtRp3559
(dp3560
g62
(dp3561
g89
g90
ssg71
g3551
sg64
(lp3562
S':'
asbag57
(g78
g59
NtRp3563
(dp3564
g62
(dp3565
sg71
g3551
sg64
(lp3566
g57
(g58
g59
NtRp3567
(dp3568
g62
(dp3569
g70
I3
ssg71
g3563
sg64
(lp3570
S''
asbasbasbasbasbasbasbasbasbasbasbag57
(g73
g59
NtRp3571
(dp3572
g62
(dp3573
sg71
g3337
sg64
(lp3574
g57
(g78
g59
NtRp3575
(dp3576
g62
(dp3577
g82
g83
ssg71
g3571
sg64
(lp3578
S'files'
p3579
asbag57
(g78
g59
NtRp3580
(dp3581
g62
(dp3582
g89
g90
ssg71
g3571
sg64
(lp3583
S':'
asbag57
(g78
g59
NtRp3584
(dp3585
g62
(dp3586
sg71
g3571
sg64
(lp3587
g57
(g58
g59
NtRp3588
(dp3589
g62
(dp3590
g70
I5
ssg71
g3584
sg64
(lp3591
g57
(g66
g59
NtRp3592
(dp3593
g62
(dp3594
g70
I4
ssg71
Nsg64
(lp3595
g57
(g73
g59
NtRp3596
(dp3597
g62
(dp3598
sg71
g3592
sg64
(lp3599
g57
(g78
g59
NtRp3600
(dp3601
g62
(dp3602
sg71
g3596
sg64
(lp3603
g57
(g58
g59
NtRp3604
(dp3605
g62
(dp3606
g70
I4
ssg71
g3600
sg64
(lp3607
S'/init/static/js/jquery.js'
p3608
asbasbasbag57
(g73
g59
NtRp3609
(dp3610
g62
(dp3611
sg71
g3592
sg64
(lp3612
g57
(g78
g59
NtRp3613
(dp3614
g62
(dp3615
sg71
g3609
sg64
(lp3616
g57
(g58
g59
NtRp3617
(dp3618
g62
(dp3619
g70
I4
ssg71
g3613
sg64
(lp3620
S'/init/static/css/anytime.css'
p3621
asbasbasbag57
(g73
g59
NtRp3622
(dp3623
g62
(dp3624
sg71
g3592
sg64
(lp3625
g57
(g78
g59
NtRp3626
(dp3627
g62
(dp3628
sg71
g3622
sg64
(lp3629
g57
(g58
g59
NtRp3630
(dp3631
g62
(dp3632
g70
I4
ssg71
g3626
sg64
(lp3633
S'/init/static/js/anytime.js'
p3634
asbasbasbasbasbasbasbag57
(g73
g59
NtRp3635
(dp3636
g62
(dp3637
sg71
g3337
sg64
(lp3638
g57
(g78
g59
NtRp3639
(dp3640
g62
(dp3641
g82
g83
ssg71
g3635
sg64
(lp3642
S'flash'
p3643
asbag57
(g78
g59
NtRp3644
(dp3645
g62
(dp3646
g89
g90
ssg71
g3635
sg64
(lp3647
S':'
asbag57
(g78
g59
NtRp3648
(dp3649
g62
(dp3650
sg71
g3635
sg64
(lp3651
g57
(g58
g59
NtRp3652
(dp3653
g62
(dp3654
g70
I5
ssg71
g3648
sg64
(lp3655
S''
asbasbasbag57
(g73
g59
NtRp3656
(dp3657
g62
(dp3658
sg71
g3337
sg64
(lp3659
g57
(g78
g59
NtRp3660
(dp3661
g62
(dp3662
g82
g83
ssg71
g3656
sg64
(lp3663
S'generic_patterns'
p3664
asbag57
(g78
g59
NtRp3665
(dp3666
g62
(dp3667
g89
g90
ssg71
g3656
sg64
(lp3668
S':'
asbag57
(g78
g59
NtRp3669
(dp3670
g62
(dp3671
sg71
g3656
sg64
(lp3672
g57
(g58
g59
NtRp3673
(dp3674
g62
(dp3675
g70
I5
ssg71
g3669
sg64
(lp3676
g57
(g66
g59
NtRp3677
(dp3678
g62
(dp3679
g70
I4
ssg71
Nsg64
(lp3680
g57
(g73
g59
NtRp3681
(dp3682
g62
(dp3683
sg71
g3677
sg64
(lp3684
g57
(g78
g59
NtRp3685
(dp3686
g62
(dp3687
sg71
g3681
sg64
(lp3688
g57
(g58
g59
NtRp3689
(dp3690
g62
(dp3691
g70
I4
ssg71
g3685
sg64
(lp3692
S'*'
asbasbasbasbasbasbasbag57
(g73
g59
NtRp3693
(dp3694
g62
(dp3695
sg71
g3337
sg64
(lp3696
g57
(g78
g59
NtRp3697
(dp3698
g62
(dp3699
g82
g83
ssg71
g3693
sg64
(lp3700
S'headers'
p3701
asbag57
(g78
g59
NtRp3702
(dp3703
g62
(dp3704
g89
g90
ssg71
g3693
sg64
(lp3705
S':'
asbag57
(g78
g59
NtRp3706
(dp3707
g62
(dp3708
sg71
g3693
sg64
(lp3709
g57
(g58
g59
NtRp3710
(dp3711
g62
(dp3712
g70
I5
ssg71
g3706
sg64
(lp3713
g57
(g66
g59
NtRp3714
(dp3715
g62
(dp3716
g70
I4
ssg71
Nsg64
(lp3717
g57
(g73
g59
NtRp3718
(dp3719
g62
(dp3720
sg71
g3714
sg64
(lp3721
g57
(g78
g59
NtRp3722
(dp3723
g62
(dp3724
g82
g83
ssg71
g3718
sg64
(lp3725
S'Cache-Control'
p3726
asbag57
(g78
g59
NtRp3727
(dp3728
g62
(dp3729
g89
g90
ssg71
g3718
sg64
(lp3730
S':'
asbag57
(g78
g59
NtRp3731
(dp3732
g62
(dp3733
sg71
g3718
sg64
(lp3734
g57
(g58
g59
NtRp3735
(dp3736
g62
(dp3737
g70
I4
ssg71
g3731
sg64
(lp3738
S'no-store, no-cache, must-revalidate, post-check=0, pre-check=0'
p3739
asbasbasbag57
(g73
g59
NtRp3740
(dp3741
g62
(dp3742
sg71
g3714
sg64
(lp3743
g57
(g78
g59
NtRp3744
(dp3745
g62
(dp3746
g82
g83
ssg71
g3740
sg64
(lp3747
S'Content-Type'
p3748
asbag57
(g78
g59
NtRp3749
(dp3750
g62
(dp3751
g89
g90
ssg71
g3740
sg64
(lp3752
S':'
asbag57
(g78
g59
NtRp3753
(dp3754
g62
(dp3755
sg71
g3740
sg64
(lp3756
g57
(g58
g59
NtRp3757
(dp3758
g62
(dp3759
g70
I4
ssg71
g3753
sg64
(lp3760
S'text/html; charset=utf-8'
p3761
asbasbasbag57
(g73
g59
NtRp3762
(dp3763
g62
(dp3764
sg71
g3714
sg64
(lp3765
g57
(g78
g59
NtRp3766
(dp3767
g62
(dp3768
g82
g83
ssg71
g3762
sg64
(lp3769
S'Expires'
p3770
asbag57
(g78
g59
NtRp3771
(dp3772
g62
(dp3773
g89
g90
ssg71
g3762
sg64
(lp3774
S':'
asbag57
(g78
g59
NtRp3775
(dp3776
g62
(dp3777
sg71
g3762
sg64
(lp3778
g57
(g58
g59
NtRp3779
(dp3780
g62
(dp3781
g70
I4
ssg71
g3775
sg64
(lp3782
S'Sun, 20 Nov 2011 02:34:51 GMT'
p3783
asbasbasbag57
(g73
g59
NtRp3784
(dp3785
g62
(dp3786
sg71
g3714
sg64
(lp3787
g57
(g78
g59
NtRp3788
(dp3789
g62
(dp3790
g82
g83
ssg71
g3784
sg64
(lp3791
S'Pragma'
p3792
asbag57
(g78
g59
NtRp3793
(dp3794
g62
(dp3795
g89
g90
ssg71
g3784
sg64
(lp3796
S':'
asbag57
(g78
g59
NtRp3797
(dp3798
g62
(dp3799
sg71
g3784
sg64
(lp3800
g57
(g58
g59
NtRp3801
(dp3802
g62
(dp3803
g70
I4
ssg71
g3797
sg64
(lp3804
S'no-cache'
p3805
asbasbasbag57
(g73
g59
NtRp3806
(dp3807
g62
(dp3808
sg71
g3714
sg64
(lp3809
g57
(g78
g59
NtRp3810
(dp3811
g62
(dp3812
g82
g83
ssg71
g3806
sg64
(lp3813
S'X-Powered-By'
p3814
asbag57
(g78
g59
NtRp3815
(dp3816
g62
(dp3817
g89
g90
ssg71
g3806
sg64
(lp3818
S':'
asbag57
(g78
g59
NtRp3819
(dp3820
g62
(dp3821
sg71
g3806
sg64
(lp3822
g57
(g58
g59
NtRp3823
(dp3824
g62
(dp3825
g70
I4
ssg71
g3819
sg64
(lp3826
S'web2py'
p3827
asbasbasbasbasbasbasbag57
(g73
g59
NtRp3828
(dp3829
g62
(dp3830
sg71
g3337
sg64
(lp3831
g57
(g78
g59
NtRp3832
(dp3833
g62
(dp3834
g82
g83
ssg71
g3828
sg64
(lp3835
S'menu'
p3836
asbag57
(g78
g59
NtRp3837
(dp3838
g62
(dp3839
g89
g90
ssg71
g3828
sg64
(lp3840
S':'
asbag57
(g78
g59
NtRp3841
(dp3842
g62
(dp3843
sg71
g3828
sg64
(lp3844
g57
(g58
g59
NtRp3845
(dp3846
g62
(dp3847
g70
I5
ssg71
g3841
sg64
(lp3848
g57
(g66
g59
NtRp3849
(dp3850
g62
(dp3851
g70
I4
ssg71
Nsg64
(lp3852
g57
(g73
g59
NtRp3853
(dp3854
g62
(dp3855
sg71
g3849
sg64
(lp3856
g57
(g78
g59
NtRp3857
(dp3858
g62
(dp3859
sg71
g3853
sg64
(lp3860
g57
(g58
g59
NtRp3861
(dp3862
g62
(dp3863
g70
I4
ssg71
g3857
sg64
(lp3864
g57
(g66
g59
NtRp3865
(dp3866
g62
(dp3867
g70
I3
ssg71
Nsg64
(lp3868
g57
(g73
g59
NtRp3869
(dp3870
g62
(dp3871
sg71
g3865
sg64
(lp3872
g57
(g78
g59
NtRp3873
(dp3874
g62
(dp3875
sg71
g3869
sg64
(lp3876
g57
(g58
g59
NtRp3877
(dp3878
g62
(dp3879
g70
I3
ssg71
g3873
sg64
(lp3880
cgluon.languages
lazyT_unpickle
p3881
(S't\x04\x00\x00\x00Home'
tRp3882
asbasbasbag57
(g73
g59
NtRp3883
(dp3884
g62
(dp3885
sg71
g3865
sg64
(lp3886
g57
(g78
g59
NtRp3887
(dp3888
g62
(dp3889
sg71
g3883
sg64
(lp3890
g57
(g58
g59
NtRp3891
(dp3892
g62
(dp3893
g70
I3
ssg71
g3887
sg64
(lp3894
g100
asbasbasbag57
(g73
g59
NtRp3895
(dp3896
g62
(dp3897
sg71
g3865
sg64
(lp3898
g57
(g78
g59
NtRp3899
(dp3900
g62
(dp3901
sg71
g3895
sg64
(lp3902
g57
(g58
g59
NtRp3903
(dp3904
g62
(dp3905
g70
I3
ssg71
g3899
sg64
(lp3906
S'/init/default/index'
p3907
asbasbasbag57
(g73
g59
NtRp3908
(dp3909
g62
(dp3910
sg71
g3865
sg64
(lp3911
g57
(g78
g59
NtRp3912
(dp3913
g62
(dp3914
sg71
g3908
sg64
(lp3915
g57
(g58
g59
NtRp3916
(dp3917
g62
(dp3918
g70
I3
ssg71
g3912
sg64
(lp3919
g57
(g66
g59
NtRp3920
(dp3921
g62
(dp3922
g70
I2
ssg71
Nsg64
(lp3923
sbasbasbasbasbasbasbasbag57
(g73
g59
NtRp3924
(dp3925
g62
(dp3926
sg71
g3849
sg64
(lp3927
g57
(g78
g59
NtRp3928
(dp3929
g62
(dp3930
sg71
g3924
sg64
(lp3931
g57
(g58
g59
NtRp3932
(dp3933
g62
(dp3934
g70
I4
ssg71
g3928
sg64
(lp3935
g57
(g66
g59
NtRp3936
(dp3937
g62
(dp3938
g70
I3
ssg71
Nsg64
(lp3939
g57
(g73
g59
NtRp3940
(dp3941
g62
(dp3942
sg71
g3936
sg64
(lp3943
g57
(g78
g59
NtRp3944
(dp3945
g62
(dp3946
sg71
g3940
sg64
(lp3947
g57
(g58
g59
NtRp3948
(dp3949
g62
(dp3950
g70
I3
ssg71
g3944
sg64
(lp3951
g3881
(S's\x08\x00\x00\x00This App'
tRp3952
asbasbasbag57
(g73
g59
NtRp3953
(dp3954
g62
(dp3955
sg71
g3936
sg64
(lp3956
g57
(g78
g59
NtRp3957
(dp3958
g62
(dp3959
sg71
g3953
sg64
(lp3960
g57
(g58
g59
NtRp3961
(dp3962
g62
(dp3963
g70
I3
ssg71
g3957
sg64
(lp3964
g100
asbasbasbag57
(g73
g59
NtRp3965
(dp3966
g62
(dp3967
sg71
g3936
sg64
(lp3968
g57
(g78
g59
NtRp3969
(dp3970
g62
(dp3971
sg71
g3965
sg64
(lp3972
g57
(g58
g59
NtRp3973
(dp3974
g62
(dp3975
g70
I3
ssg71
g3969
sg64
(lp3976
S'/admin/default/design/init'
p3977
asbasbasbag57
(g73
g59
NtRp3978
(dp3979
g62
(dp3980
sg71
g3936
sg64
(lp3981
g57
(g78
g59
NtRp3982
(dp3983
g62
(dp3984
sg71
g3978
sg64
(lp3985
g57
(g58
g59
NtRp3986
(dp3987
g62
(dp3988
g70
I3
ssg71
g3982
sg64
(lp3989
g57
(g66
g59
NtRp3990
(dp3991
g62
(dp3992
g70
I2
ssg71
Nsg64
(lp3993
g57
(g73
g59
NtRp3994
(dp3995
g62
(dp3996
sg71
g3990
sg64
(lp3997
g57
(g78
g59
NtRp3998
(dp3999
g62
(dp4000
sg71
g3994
sg64
(lp4001
g57
(g58
g59
NtRp4002
(dp4003
g62
(dp4004
g70
I2
ssg71
g3998
sg64
(lp4005
g57
(g66
g59
NtRp4006
(dp4007
g62
(dp4008
g70
I1
ssg71
Nsg64
(lp4009
g57
(g73
g59
NtRp4010
(dp4011
g62
(dp4012
sg71
g4006
sg64
(lp4013
g57
(g78
g59
NtRp4014
(dp4015
g62
(dp4016
sg71
g4010
sg64
(lp4017
g57
(g58
g59
NtRp4018
(dp4019
g62
(dp4020
g70
I1
ssg71
g4014
sg64
(lp4021
g3881
(S't\n\x00\x00\x00Controller'
tRp4022
asbasbasbag57
(g73
g59
NtRp4023
(dp4024
g62
(dp4025
sg71
g4006
sg64
(lp4026
g57
(g78
g59
NtRp4027
(dp4028
g62
(dp4029
sg71
g4023
sg64
(lp4030
g57
(g58
g59
NtRp4031
(dp4032
g62
(dp4033
g70
I1
ssg71
g4027
sg64
(lp4034
I00
asbasbasbag57
(g73
g59
NtRp4035
(dp4036
g62
(dp4037
sg71
g4006
sg64
(lp4038
g57
(g78
g59
NtRp4039
(dp4040
g62
(dp4041
sg71
g4035
sg64
(lp4042
g57
(g58
g59
NtRp4043
(dp4044
g62
(dp4045
g70
I1
ssg71
g4039
sg64
(lp4046
S'/admin/default/edit/init/controllers/default.py'
p4047
asbasbasbasbasbasbasbag57
(g73
g59
NtRp4048
(dp4049
g62
(dp4050
sg71
g3990
sg64
(lp4051
g57
(g78
g59
NtRp4052
(dp4053
g62
(dp4054
sg71
g4048
sg64
(lp4055
g57
(g58
g59
NtRp4056
(dp4057
g62
(dp4058
g70
I2
ssg71
g4052
sg64
(lp4059
g57
(g66
g59
NtRp4060
(dp4061
g62
(dp4062
g70
I1
ssg71
Nsg64
(lp4063
g57
(g73
g59
NtRp4064
(dp4065
g62
(dp4066
sg71
g4060
sg64
(lp4067
g57
(g78
g59
NtRp4068
(dp4069
g62
(dp4070
sg71
g4064
sg64
(lp4071
g57
(g58
g59
NtRp4072
(dp4073
g62
(dp4074
g70
I1
ssg71
g4068
sg64
(lp4075
g3881
(S't\x04\x00\x00\x00View'
tRp4076
asbasbasbag57
(g73
g59
NtRp4077
(dp4078
g62
(dp4079
sg71
g4060
sg64
(lp4080
g57
(g78
g59
NtRp4081
(dp4082
g62
(dp4083
sg71
g4077
sg64
(lp4084
g57
(g58
g59
NtRp4085
(dp4086
g62
(dp4087
g70
I1
ssg71
g4081
sg64
(lp4088
I00
asbasbasbag57
(g73
g59
NtRp4089
(dp4090
g62
(dp4091
sg71
g4060
sg64
(lp4092
g57
(g78
g59
NtRp4093
(dp4094
g62
(dp4095
sg71
g4089
sg64
(lp4096
g57
(g58
g59
NtRp4097
(dp4098
g62
(dp4099
g70
I1
ssg71
g4093
sg64
(lp4100
S'/admin/default/edit/init/views/default/challenge.html'
p4101
asbasbasbasbasbasbasbag57
(g73
g59
NtRp4102
(dp4103
g62
(dp4104
sg71
g3990
sg64
(lp4105
g57
(g78
g59
NtRp4106
(dp4107
g62
(dp4108
sg71
g4102
sg64
(lp4109
g57
(g58
g59
NtRp4110
(dp4111
g62
(dp4112
g70
I2
ssg71
g4106
sg64
(lp4113
g57
(g66
g59
NtRp4114
(dp4115
g62
(dp4116
g70
I1
ssg71
Nsg64
(lp4117
g57
(g73
g59
NtRp4118
(dp4119
g62
(dp4120
sg71
g4114
sg64
(lp4121
g57
(g78
g59
NtRp4122
(dp4123
g62
(dp4124
sg71
g4118
sg64
(lp4125
g57
(g58
g59
NtRp4126
(dp4127
g62
(dp4128
g70
I1
ssg71
g4122
sg64
(lp4129
g3881
(S't\x06\x00\x00\x00Layout'
tRp4130
asbasbasbag57
(g73
g59
NtRp4131
(dp4132
g62
(dp4133
sg71
g4114
sg64
(lp4134
g57
(g78
g59
NtRp4135
(dp4136
g62
(dp4137
sg71
g4131
sg64
(lp4138
g57
(g58
g59
NtRp4139
(dp4140
g62
(dp4141
g70
I1
ssg71
g4135
sg64
(lp4142
I00
asbasbasbag57
(g73
g59
NtRp4143
(dp4144
g62
(dp4145
sg71
g4114
sg64
(lp4146
g57
(g78
g59
NtRp4147
(dp4148
g62
(dp4149
sg71
g4143
sg64
(lp4150
g57
(g58
g59
NtRp4151
(dp4152
g62
(dp4153
g70
I1
ssg71
g4147
sg64
(lp4154
S'/admin/default/edit/init/views/layout.html'
p4155
asbasbasbasbasbasbasbag57
(g73
g59
NtRp4156
(dp4157
g62
(dp4158
sg71
g3990
sg64
(lp4159
g57
(g78
g59
NtRp4160
(dp4161
g62
(dp4162
sg71
g4156
sg64
(lp4163
g57
(g58
g59
NtRp4164
(dp4165
g62
(dp4166
g70
I2
ssg71
g4160
sg64
(lp4167
g57
(g66
g59
NtRp4168
(dp4169
g62
(dp4170
g70
I1
ssg71
Nsg64
(lp4171
g57
(g73
g59
NtRp4172
(dp4173
g62
(dp4174
sg71
g4168
sg64
(lp4175
g57
(g78
g59
NtRp4176
(dp4177
g62
(dp4178
sg71
g4172
sg64
(lp4179
g57
(g58
g59
NtRp4180
(dp4181
g62
(dp4182
g70
I1
ssg71
g4176
sg64
(lp4183
g3881
(S't\n\x00\x00\x00Stylesheet'
tRp4184
asbasbasbag57
(g73
g59
NtRp4185
(dp4186
g62
(dp4187
sg71
g4168
sg64
(lp4188
g57
(g78
g59
NtRp4189
(dp4190
g62
(dp4191
sg71
g4185
sg64
(lp4192
g57
(g58
g59
NtRp4193
(dp4194
g62
(dp4195
g70
I1
ssg71
g4189
sg64
(lp4196
I00
asbasbasbag57
(g73
g59
NtRp4197
(dp4198
g62
(dp4199
sg71
g4168
sg64
(lp4200
g57
(g78
g59
NtRp4201
(dp4202
g62
(dp4203
sg71
g4197
sg64
(lp4204
g57
(g58
g59
NtRp4205
(dp4206
g62
(dp4207
g70
I1
ssg71
g4201
sg64
(lp4208
S'/admin/default/edit/init/static/base.css'
p4209
asbasbasbasbasbasbasbag57
(g73
g59
NtRp4210
(dp4211
g62
(dp4212
sg71
g3990
sg64
(lp4213
g57
(g78
g59
NtRp4214
(dp4215
g62
(dp4216
sg71
g4210
sg64
(lp4217
g57
(g58
g59
NtRp4218
(dp4219
g62
(dp4220
g70
I2
ssg71
g4214
sg64
(lp4221
g57
(g66
g59
NtRp4222
(dp4223
g62
(dp4224
g70
I1
ssg71
Nsg64
(lp4225
g57
(g73
g59
NtRp4226
(dp4227
g62
(dp4228
sg71
g4222
sg64
(lp4229
g57
(g78
g59
NtRp4230
(dp4231
g62
(dp4232
sg71
g4226
sg64
(lp4233
g57
(g58
g59
NtRp4234
(dp4235
g62
(dp4236
g70
I1
ssg71
g4230
sg64
(lp4237
g3881
(S's\x08\x00\x00\x00DB Model'
tRp4238
asbasbasbag57
(g73
g59
NtRp4239
(dp4240
g62
(dp4241
sg71
g4222
sg64
(lp4242
g57
(g78
g59
NtRp4243
(dp4244
g62
(dp4245
sg71
g4239
sg64
(lp4246
g57
(g58
g59
NtRp4247
(dp4248
g62
(dp4249
g70
I1
ssg71
g4243
sg64
(lp4250
I00
asbasbasbag57
(g73
g59
NtRp4251
(dp4252
g62
(dp4253
sg71
g4222
sg64
(lp4254
g57
(g78
g59
NtRp4255
(dp4256
g62
(dp4257
sg71
g4251
sg64
(lp4258
g57
(g58
g59
NtRp4259
(dp4260
g62
(dp4261
g70
I1
ssg71
g4255
sg64
(lp4262
S'/admin/default/edit/init/models/db.py'
p4263
asbasbasbasbasbasbasbag57
(g73
g59
NtRp4264
(dp4265
g62
(dp4266
sg71
g3990
sg64
(lp4267
g57
(g78
g59
NtRp4268
(dp4269
g62
(dp4270
sg71
g4264
sg64
(lp4271
g57
(g58
g59
NtRp4272
(dp4273
g62
(dp4274
g70
I2
ssg71
g4268
sg64
(lp4275
g57
(g66
g59
NtRp4276
(dp4277
g62
(dp4278
g70
I1
ssg71
Nsg64
(lp4279
g57
(g73
g59
NtRp4280
(dp4281
g62
(dp4282
sg71
g4276
sg64
(lp4283
g57
(g78
g59
NtRp4284
(dp4285
g62
(dp4286
sg71
g4280
sg64
(lp4287
g57
(g58
g59
NtRp4288
(dp4289
g62
(dp4290
g70
I1
ssg71
g4284
sg64
(lp4291
g3881
(S's\n\x00\x00\x00Menu Model'
tRp4292
asbasbasbag57
(g73
g59
NtRp4293
(dp4294
g62
(dp4295
sg71
g4276
sg64
(lp4296
g57
(g78
g59
NtRp4297
(dp4298
g62
(dp4299
sg71
g4293
sg64
(lp4300
g57
(g58
g59
NtRp4301
(dp4302
g62
(dp4303
g70
I1
ssg71
g4297
sg64
(lp4304
I00
asbasbasbag57
(g73
g59
NtRp4305
(dp4306
g62
(dp4307
sg71
g4276
sg64
(lp4308
g57
(g78
g59
NtRp4309
(dp4310
g62
(dp4311
sg71
g4305
sg64
(lp4312
g57
(g58
g59
NtRp4313
(dp4314
g62
(dp4315
g70
I1
ssg71
g4309
sg64
(lp4316
S'/admin/default/edit/init/models/menu.py'
p4317
asbasbasbasbasbasbasbag57
(g73
g59
NtRp4318
(dp4319
g62
(dp4320
sg71
g3990
sg64
(lp4321
g57
(g78
g59
NtRp4322
(dp4323
g62
(dp4324
sg71
g4318
sg64
(lp4325
g57
(g58
g59
NtRp4326
(dp4327
g62
(dp4328
g70
I2
ssg71
g4322
sg64
(lp4329
g57
(g66
g59
NtRp4330
(dp4331
g62
(dp4332
g70
I1
ssg71
Nsg64
(lp4333
g57
(g73
g59
NtRp4334
(dp4335
g62
(dp4336
sg71
g4330
sg64
(lp4337
g57
(g78
g59
NtRp4338
(dp4339
g62
(dp4340
sg71
g4334
sg64
(lp4341
g57
(g58
g59
NtRp4342
(dp4343
g62
(dp4344
g70
I1
ssg71
g4338
sg64
(lp4345
g3881
(S't\x08\x00\x00\x00Database'
tRp4346
asbasbasbag57
(g73
g59
NtRp4347
(dp4348
g62
(dp4349
sg71
g4330
sg64
(lp4350
g57
(g78
g59
NtRp4351
(dp4352
g62
(dp4353
sg71
g4347
sg64
(lp4354
g57
(g58
g59
NtRp4355
(dp4356
g62
(dp4357
g70
I1
ssg71
g4351
sg64
(lp4358
I00
asbasbasbag57
(g73
g59
NtRp4359
(dp4360
g62
(dp4361
sg71
g4330
sg64
(lp4362
g57
(g78
g59
NtRp4363
(dp4364
g62
(dp4365
sg71
g4359
sg64
(lp4366
g57
(g58
g59
NtRp4367
(dp4368
g62
(dp4369
g70
I1
ssg71
g4363
sg64
(lp4370
S'/init/appadmin/index'
p4371
asbasbasbasbasbasbasbag57
(g73
g59
NtRp4372
(dp4373
g62
(dp4374
sg71
g3990
sg64
(lp4375
g57
(g78
g59
NtRp4376
(dp4377
g62
(dp4378
sg71
g4372
sg64
(lp4379
g57
(g58
g59
NtRp4380
(dp4381
g62
(dp4382
g70
I2
ssg71
g4376
sg64
(lp4383
g57
(g66
g59
NtRp4384
(dp4385
g62
(dp4386
g70
I1
ssg71
Nsg64
(lp4387
g57
(g73
g59
NtRp4388
(dp4389
g62
(dp4390
sg71
g4384
sg64
(lp4391
g57
(g78
g59
NtRp4392
(dp4393
g62
(dp4394
sg71
g4388
sg64
(lp4395
g57
(g58
g59
NtRp4396
(dp4397
g62
(dp4398
g70
I1
ssg71
g4392
sg64
(lp4399
g3881
(S't\x06\x00\x00\x00Errors'
tRp4400
asbasbasbag57
(g73
g59
NtRp4401
(dp4402
g62
(dp4403
sg71
g4384
sg64
(lp4404
g57
(g78
g59
NtRp4405
(dp4406
g62
(dp4407
sg71
g4401
sg64
(lp4408
g57
(g58
g59
NtRp4409
(dp4410
g62
(dp4411
g70
I1
ssg71
g4405
sg64
(lp4412
I00
asbasbasbag57
(g73
g59
NtRp4413
(dp4414
g62
(dp4415
sg71
g4384
sg64
(lp4416
g57
(g78
g59
NtRp4417
(dp4418
g62
(dp4419
sg71
g4413
sg64
(lp4420
g57
(g58
g59
NtRp4421
(dp4422
g62
(dp4423
g70
I1
ssg71
g4417
sg64
(lp4424
S'/admin/default/errors/init'
p4425
asbasbasbasbasbasbasbag57
(g73
g59
NtRp4426
(dp4427
g62
(dp4428
sg71
g3990
sg64
(lp4429
g57
(g78
g59
NtRp4430
(dp4431
g62
(dp4432
sg71
g4426
sg64
(lp4433
g57
(g58
g59
NtRp4434
(dp4435
g62
(dp4436
g70
I2
ssg71
g4430
sg64
(lp4437
g57
(g66
g59
NtRp4438
(dp4439
g62
(dp4440
g70
I1
ssg71
Nsg64
(lp4441
g57
(g73
g59
NtRp4442
(dp4443
g62
(dp4444
sg71
g4438
sg64
(lp4445
g57
(g78
g59
NtRp4446
(dp4447
g62
(dp4448
sg71
g4442
sg64
(lp4449
g57
(g58
g59
NtRp4450
(dp4451
g62
(dp4452
g70
I1
ssg71
g4446
sg64
(lp4453
g3881
(S't\x05\x00\x00\x00About'
tRp4454
asbasbasbag57
(g73
g59
NtRp4455
(dp4456
g62
(dp4457
sg71
g4438
sg64
(lp4458
g57
(g78
g59
NtRp4459
(dp4460
g62
(dp4461
sg71
g4455
sg64
(lp4462
g57
(g58
g59
NtRp4463
(dp4464
g62
(dp4465
g70
I1
ssg71
g4459
sg64
(lp4466
I00
asbasbasbag57
(g73
g59
NtRp4467
(dp4468
g62
(dp4469
sg71
g4438
sg64
(lp4470
g57
(g78
g59
NtRp4471
(dp4472
g62
(dp4473
sg71
g4467
sg64
(lp4474
g57
(g58
g59
NtRp4475
(dp4476
g62
(dp4477
g70
I1
ssg71
g4471
sg64
(lp4478
S'/admin/default/about/init'
p4479
asbasbasbasbasbasbasbasbasbasbasbasbasbasbasbag57
(g73
g59
NtRp4480
(dp4481
g62
(dp4482
sg71
g3849
sg64
(lp4483
g57
(g78
g59
NtRp4484
(dp4485
g62
(dp4486
sg71
g4480
sg64
(lp4487
g57
(g58
g59
NtRp4488
(dp4489
g62
(dp4490
g70
I4
ssg71
g4484
sg64
(lp4491
g57
(g66
g59
NtRp4492
(dp4493
g62
(dp4494
g70
I3
ssg71
Nsg64
(lp4495
g57
(g73
g59
NtRp4496
(dp4497
g62
(dp4498
sg71
g4492
sg64
(lp4499
g57
(g78
g59
NtRp4500
(dp4501
g62
(dp4502
sg71
g4496
sg64
(lp4503
g57
(g58
g59
NtRp4504
(dp4505
g62
(dp4506
g70
I3
ssg71
g4500
sg64
(lp4507
g3881
(S't\t\x00\x00\x00Resources'
tRp4508
asbasbasbag57
(g73
g59
NtRp4509
(dp4510
g62
(dp4511
sg71
g4492
sg64
(lp4512
g57
(g78
g59
NtRp4513
(dp4514
g62
(dp4515
sg71
g4509
sg64
(lp4516
g57
(g58
g59
NtRp4517
(dp4518
g62
(dp4519
g70
I3
ssg71
g4513
sg64
(lp4520
g100
asbasbasbag57
(g73
g59
NtRp4521
(dp4522
g62
(dp4523
sg71
g4492
sg64
(lp4524
g57
(g78
g59
NtRp4525
(dp4526
g62
(dp4527
sg71
g4521
sg64
(lp4528
g57
(g58
g59
NtRp4529
(dp4530
g62
(dp4531
g70
I3
ssg71
g4525
sg64
(lp4532
S'None'
p4533
asbasbasbag57
(g73
g59
NtRp4534
(dp4535
g62
(dp4536
sg71
g4492
sg64
(lp4537
g57
(g78
g59
NtRp4538
(dp4539
g62
(dp4540
sg71
g4534
sg64
(lp4541
g57
(g58
g59
NtRp4542
(dp4543
g62
(dp4544
g70
I3
ssg71
g4538
sg64
(lp4545
g57
(g66
g59
NtRp4546
(dp4547
g62
(dp4548
g70
I2
ssg71
Nsg64
(lp4549
g57
(g73
g59
NtRp4550
(dp4551
g62
(dp4552
sg71
g4546
sg64
(lp4553
g57
(g78
g59
NtRp4554
(dp4555
g62
(dp4556
sg71
g4550
sg64
(lp4557
g57
(g58
g59
NtRp4558
(dp4559
g62
(dp4560
g70
I2
ssg71
g4554
sg64
(lp4561
g57
(g66
g59
NtRp4562
(dp4563
g62
(dp4564
g70
I1
ssg71
Nsg64
(lp4565
g57
(g73
g59
NtRp4566
(dp4567
g62
(dp4568
sg71
g4562
sg64
(lp4569
g57
(g78
g59
NtRp4570
(dp4571
g62
(dp4572
sg71
g4566
sg64
(lp4573
g57
(g58
g59
NtRp4574
(dp4575
g62
(dp4576
g70
I1
ssg71
g4570
sg64
(lp4577
g3881
(S't\r\x00\x00\x00Documentation'
tRp4578
asbasbasbag57
(g73
g59
NtRp4579
(dp4580
g62
(dp4581
sg71
g4562
sg64
(lp4582
g57
(g78
g59
NtRp4583
(dp4584
g62
(dp4585
sg71
g4579
sg64
(lp4586
g57
(g58
g59
NtRp4587
(dp4588
g62
(dp4589
g70
I1
ssg71
g4583
sg64
(lp4590
I00
asbasbasbag57
(g73
g59
NtRp4591
(dp4592
g62
(dp4593
sg71
g4562
sg64
(lp4594
g57
(g78
g59
NtRp4595
(dp4596
g62
(dp4597
sg71
g4591
sg64
(lp4598
g57
(g58
g59
NtRp4599
(dp4600
g62
(dp4601
g70
I1
ssg71
g4595
sg64
(lp4602
S'http://www.web2py.com/book'
p4603
asbasbasbag57
(g73
g59
NtRp4604
(dp4605
g62
(dp4606
sg71
g4562
sg64
(lp4607
g57
(g78
g59
NtRp4608
(dp4609
g62
(dp4610
sg71
g4604
sg64
(lp4611
g57
(g58
g59
NtRp4612
(dp4613
g62
(dp4614
g70
I1
ssg71
g4608
sg64
(lp4615
(lp4616
(g3881
(S't\x07\x00\x00\x00Preface'
tRp4617
I00
S'http://www.web2py.com/book/default/chapter/00'
p4618
tp4619
a(g3881
(S't\x0c\x00\x00\x00Introduction'
tRp4620
I00
S'http://www.web2py.com/book/default/chapter/01'
p4621
tp4622
a(g3881
(S't\x06\x00\x00\x00Python'
tRp4623
I00
S'http://www.web2py.com/book/default/chapter/02'
p4624
tp4625
a(g3881
(S't\x08\x00\x00\x00Overview'
tRp4626
I00
S'http://www.web2py.com/book/default/chapter/03'
p4627
tp4628
a(g3881
(S's\x08\x00\x00\x00The Core'
tRp4629
I00
S'http://www.web2py.com/book/default/chapter/04'
p4630
tp4631
a(g3881
(S's\t\x00\x00\x00The Views'
tRp4632
I00
S'http://www.web2py.com/book/default/chapter/05'
p4633
tp4634
a(g3881
(S't\x08\x00\x00\x00Database'
tRp4635
I00
S'http://www.web2py.com/book/default/chapter/06'
p4636
tp4637
a(g3881
(S's\x14\x00\x00\x00Forms and Validators'
tRp4638
I00
S'http://www.web2py.com/book/default/chapter/07'
p4639
tp4640
a(g3881
(S's\x0e\x00\x00\x00Access Control'
tRp4641
I00
S'http://www.web2py.com/book/default/chapter/08'
p4642
tp4643
a(g3881
(S't\x08\x00\x00\x00Services'
tRp4644
I00
S'http://www.web2py.com/book/default/chapter/09'
p4645
tp4646
a(g3881
(S's\x0c\x00\x00\x00Ajax Recipes'
tRp4647
I00
S'http://www.web2py.com/book/default/chapter/10'
p4648
tp4649
a(g3881
(S's\x12\x00\x00\x00Deployment Recipes'
tRp4650
I00
S'http://www.web2py.com/book/default/chapter/11'
p4651
tp4652
a(g3881
(S's\r\x00\x00\x00Other Recipes'
tRp4653
I00
S'http://www.web2py.com/book/default/chapter/12'
p4654
tp4655
a(g3881
(S's\r\x00\x00\x00Buy this book'
tRp4656
I00
S'http://stores.lulu.com/web2py'
p4657
tp4658
aasbasbasbasbasbasbasbag57
(g73
g59
NtRp4659
(dp4660
g62
(dp4661
sg71
g4546
sg64
(lp4662
g57
(g78
g59
NtRp4663
(dp4664
g62
(dp4665
sg71
g4659
sg64
(lp4666
g57
(g58
g59
NtRp4667
(dp4668
g62
(dp4669
g70
I2
ssg71
g4663
sg64
(lp4670
g57
(g66
g59
NtRp4671
(dp4672
g62
(dp4673
g70
I1
ssg71
Nsg64
(lp4674
g57
(g73
g59
NtRp4675
(dp4676
g62
(dp4677
sg71
g4671
sg64
(lp4678
g57
(g78
g59
NtRp4679
(dp4680
g62
(dp4681
sg71
g4675
sg64
(lp4682
g57
(g58
g59
NtRp4683
(dp4684
g62
(dp4685
g70
I1
ssg71
g4679
sg64
(lp4686
g3881
(S't\t\x00\x00\x00Community'
tRp4687
asbasbasbag57
(g73
g59
NtRp4688
(dp4689
g62
(dp4690
sg71
g4671
sg64
(lp4691
g57
(g78
g59
NtRp4692
(dp4693
g62
(dp4694
sg71
g4688
sg64
(lp4695
g57
(g58
g59
NtRp4696
(dp4697
g62
(dp4698
g70
I1
ssg71
g4692
sg64
(lp4699
I00
asbasbasbag57
(g73
g59
NtRp4700
(dp4701
g62
(dp4702
sg71
g4671
sg64
(lp4703
g57
(g78
g59
NtRp4704
(dp4705
g62
(dp4706
sg71
g4700
sg64
(lp4707
g57
(g58
g59
NtRp4708
(dp4709
g62
(dp4710
g70
I1
ssg71
g4704
sg64
(lp4711
Nasbasbasbag57
(g73
g59
NtRp4712
(dp4713
g62
(dp4714
sg71
g4671
sg64
(lp4715
g57
(g78
g59
NtRp4716
(dp4717
g62
(dp4718
sg71
g4712
sg64
(lp4719
g57
(g58
g59
NtRp4720
(dp4721
g62
(dp4722
g70
I1
ssg71
g4716
sg64
(lp4723
(lp4724
(g3881
(S't\x06\x00\x00\x00Groups'
tRp4725
I00
S'http://www.web2py.com/examples/default/usergroups'
p4726
tp4727
a(g3881
(S't\x07\x00\x00\x00Twitter'
tRp4728
I00
S'http://twitter.com/web2py'
p4729
tp4730
a(g3881
(S's\t\x00\x00\x00Live chat'
tRp4731
I00
S'http://mibbit.com/?channel=%23web2py&server=irc.mibbit.net'
p4732
tp4733
a(g3881
(S's\n\x00\x00\x00User Voice'
tRp4734
I00
S'http://web2py.uservoice.com/'
p4735
tp4736
aasbasbasbasbasbasbasbag57
(g73
g59
NtRp4737
(dp4738
g62
(dp4739
sg71
g4546
sg64
(lp4740
g57
(g78
g59
NtRp4741
(dp4742
g62
(dp4743
sg71
g4737
sg64
(lp4744
g57
(g58
g59
NtRp4745
(dp4746
g62
(dp4747
g70
I2
ssg71
g4741
sg64
(lp4748
g57
(g66
g59
NtRp4749
(dp4750
g62
(dp4751
g70
I1
ssg71
Nsg64
(lp4752
g57
(g73
g59
NtRp4753
(dp4754
g62
(dp4755
sg71
g4749
sg64
(lp4756
g57
(g78
g59
NtRp4757
(dp4758
g62
(dp4759
sg71
g4753
sg64
(lp4760
g57
(g58
g59
NtRp4761
(dp4762
g62
(dp4763
g70
I1
ssg71
g4757
sg64
(lp4764
g3881
(S't\x06\x00\x00\x00Web2py'
tRp4765
asbasbasbag57
(g73
g59
NtRp4766
(dp4767
g62
(dp4768
sg71
g4749
sg64
(lp4769
g57
(g78
g59
NtRp4770
(dp4771
g62
(dp4772
sg71
g4766
sg64
(lp4773
g57
(g58
g59
NtRp4774
(dp4775
g62
(dp4776
g70
I1
ssg71
g4770
sg64
(lp4777
I00
asbasbasbag57
(g73
g59
NtRp4778
(dp4779
g62
(dp4780
sg71
g4749
sg64
(lp4781
g57
(g78
g59
NtRp4782
(dp4783
g62
(dp4784
sg71
g4778
sg64
(lp4785
g57
(g58
g59
NtRp4786
(dp4787
g62
(dp4788
g70
I1
ssg71
g4782
sg64
(lp4789
S'http://www.web2py.com'
p4790
asbasbasbag57
(g73
g59
NtRp4791
(dp4792
g62
(dp4793
sg71
g4749
sg64
(lp4794
g57
(g78
g59
NtRp4795
(dp4796
g62
(dp4797
sg71
g4791
sg64
(lp4798
g57
(g58
g59
NtRp4799
(dp4800
g62
(dp4801
g70
I1
ssg71
g4795
sg64
(lp4802
(lp4803
(g3881
(S't\x08\x00\x00\x00Download'
tRp4804
I00
S'http://www.web2py.com/examples/default/download'
p4805
tp4806
a(g3881
(S't\x07\x00\x00\x00Support'
tRp4807
I00
S'http://www.web2py.com/examples/default/support'
p4808
tp4809
a(g3881
(S's\x0e\x00\x00\x00Quick Examples'
tRp4810
I00
S'http://web2py.com/examples/default/examples'
p4811
tp4812
a(g3881
(S't\x03\x00\x00\x00FAQ'
tRp4813
I00
S'http://web2py.com/AlterEgo'
p4814
tp4815
a(g3881
(S's\x11\x00\x00\x00Free Applications'
tRp4816
I00
S'http://web2py.com/appliances'
p4817
tp4818
a(g3881
(S't\x07\x00\x00\x00Plugins'
tRp4819
I00
S'http://web2py.com/plugins'
p4820
tp4821
a(g3881
(S't\x07\x00\x00\x00Recipes'
tRp4822
I00
S'http://web2pyslices.com/'
p4823
tp4824
a(g3881
(S't\x04\x00\x00\x00Demo'
tRp4825
I00
S'http://web2py.com/demo_admin'
p4826
tp4827
a(g3881
(S't\x08\x00\x00\x00Semantic'
tRp4828
I00
S'http://web2py.com/semantic'
p4829
tp4830
a(g3881
(S't\x07\x00\x00\x00Layouts'
tRp4831
I00
S'http://web2py.com/layouts'
p4832
tp4833
a(g3881
(S't\x06\x00\x00\x00Videos'
tRp4834
I00
S'http://www.web2py.com/examples/default/videos/'
p4835
tp4836
aasbasbasbasbasbasbasbasbasbasbasbasbasbasbasbasbasbasbasbag57
(g73
g59
NtRp4837
(dp4838
g62
(dp4839
sg71
g3337
sg64
(lp4840
g57
(g78
g59
NtRp4841
(dp4842
g62
(dp4843
g82
g83
ssg71
g4837
sg64
(lp4844
S'meta'
p4845
asbag57
(g78
g59
NtRp4846
(dp4847
g62
(dp4848
g89
g90
ssg71
g4837
sg64
(lp4849
S':'
asbag57
(g78
g59
NtRp4850
(dp4851
g62
(dp4852
sg71
g4837
sg64
(lp4853
g57
(g58
g59
NtRp4854
(dp4855
g62
(dp4856
g70
I5
ssg71
g4850
sg64
(lp4857
g57
(g66
g59
NtRp4858
(dp4859
g62
(dp4860
g70
I4
ssg71
Nsg64
(lp4861
g57
(g73
g59
NtRp4862
(dp4863
g62
(dp4864
sg71
g4858
sg64
(lp4865
g57
(g78
g59
NtRp4866
(dp4867
g62
(dp4868
g82
g83
ssg71
g4862
sg64
(lp4869
S'author'
p4870
asbag57
(g78
g59
NtRp4871
(dp4872
g62
(dp4873
g89
g90
ssg71
g4862
sg64
(lp4874
S':'
asbag57
(g78
g59
NtRp4875
(dp4876
g62
(dp4877
sg71
g4862
sg64
(lp4878
g57
(g58
g59
NtRp4879
(dp4880
g62
(dp4881
g70
I4
ssg71
g4875
sg64
(lp4882
S'Adrian Edwards'
p4883
asbasbasbag57
(g73
g59
NtRp4884
(dp4885
g62
(dp4886
sg71
g4858
sg64
(lp4887
g57
(g78
g59
NtRp4888
(dp4889
g62
(dp4890
g82
g83
ssg71
g4884
sg64
(lp4891
S'copyright'
p4892
asbag57
(g78
g59
NtRp4893
(dp4894
g62
(dp4895
g89
g90
ssg71
g4884
sg64
(lp4896
S':'
asbag57
(g78
g59
NtRp4897
(dp4898
g62
(dp4899
sg71
g4884
sg64
(lp4900
g57
(g58
g59
NtRp4901
(dp4902
g62
(dp4903
g70
I4
ssg71
g4897
sg64
(lp4904
S'Copyright 2011'
p4905
asbasbasbag57
(g73
g59
NtRp4906
(dp4907
g62
(dp4908
sg71
g4858
sg64
(lp4909
g57
(g78
g59
NtRp4910
(dp4911
g62
(dp4912
g82
g83
ssg71
g4906
sg64
(lp4913
S'description'
p4914
asbag57
(g78
g59
NtRp4915
(dp4916
g62
(dp4917
g89
g90
ssg71
g4906
sg64
(lp4918
S':'
asbag57
(g78
g59
NtRp4919
(dp4920
g62
(dp4921
sg71
g4906
sg64
(lp4922
g57
(g58
g59
NtRp4923
(dp4924
g62
(dp4925
g70
I4
ssg71
g4919
sg64
(lp4926
S'Fitness Challenge'
p4927
asbasbasbag57
(g73
g59
NtRp4928
(dp4929
g62
(dp4930
sg71
g4858
sg64
(lp4931
g57
(g78
g59
NtRp4932
(dp4933
g62
(dp4934
g82
g83
ssg71
g4928
sg64
(lp4935
S'generator'
p4936
asbag57
(g78
g59
NtRp4937
(dp4938
g62
(dp4939
g89
g90
ssg71
g4928
sg64
(lp4940
S':'
asbag57
(g78
g59
NtRp4941
(dp4942
g62
(dp4943
sg71
g4928
sg64
(lp4944
g57
(g58
g59
NtRp4945
(dp4946
g62
(dp4947
g70
I4
ssg71
g4941
sg64
(lp4948
S'Web2py Web Framework'
p4949
asbasbasbag57
(g73
g59
NtRp4950
(dp4951
g62
(dp4952
sg71
g4858
sg64
(lp4953
g57
(g78
g59
NtRp4954
(dp4955
g62
(dp4956
g82
g83
ssg71
g4950
sg64
(lp4957
S'keywords'
p4958
asbag57
(g78
g59
NtRp4959
(dp4960
g62
(dp4961
g89
g90
ssg71
g4950
sg64
(lp4962
S':'
asbag57
(g78
g59
NtRp4963
(dp4964
g62
(dp4965
sg71
g4950
sg64
(lp4966
g57
(g58
g59
NtRp4967
(dp4968
g62
(dp4969
g70
I4
ssg71
g4963
sg64
(lp4970
S'web2py, python, framework'
p4971
asbasbasbasbasbasbasbag57
(g73
g59
NtRp4972
(dp4973
g62
(dp4974
sg71
g3337
sg64
(lp4975
g57
(g78
g59
NtRp4976
(dp4977
g62
(dp4978
g82
g83
ssg71
g4972
sg64
(lp4979
S'postprocessing'
p4980
asbag57
(g78
g59
NtRp4981
(dp4982
g62
(dp4983
g89
g90
ssg71
g4972
sg64
(lp4984
S':'
asbag57
(g78
g59
NtRp4985
(dp4986
g62
(dp4987
sg71
g4972
sg64
(lp4988
g57
(g58
g59
NtRp4989
(dp4990
g62
(dp4991
g70
I5
ssg71
g4985
sg64
(lp4992
g57
(g66
g59
NtRp4993
(dp4994
g62
(dp4995
g70
I4
ssg71
Nsg64
(lp4996
sbasbasbasbag57
(g73
g59
NtRp4997
(dp4998
g62
(dp4999
sg71
g3337
sg64
(lp5000
g57
(g78
g59
NtRp5001
(dp5002
g62
(dp5003
g82
g83
ssg71
g4997
sg64
(lp5004
S'session_file'
p5005
asbag57
(g78
g59
NtRp5006
(dp5007
g62
(dp5008
g89
g90
ssg71
g4997
sg64
(lp5009
S':'
asbag57
(g78
g59
NtRp5010
(dp5011
g62
(dp5012
sg71
g4997
sg64
(lp5013
g57
(g58
g59
NtRp5014
(dp5015
g62
(dp5016
g70
I5
ssg71
g5010
sg64
(lp5017
S"<open file 'P:\\School\\DePaul\\Projects\\CSC_438\\web2py\\applications\\init\\sessions\\127.0.0.1-9cf14084-4033-491f-99b2-106d13fb9973', mode 'rb+' at 0x03148180>"
p5018
asbasbasbag57
(g73
g59
NtRp5019
(dp5020
g62
(dp5021
sg71
g3337
sg64
(lp5022
g57
(g78
g59
NtRp5023
(dp5024
g62
(dp5025
g82
g83
ssg71
g5019
sg64
(lp5026
S'session_filename'
p5027
asbag57
(g78
g59
NtRp5028
(dp5029
g62
(dp5030
g89
g90
ssg71
g5019
sg64
(lp5031
S':'
asbag57
(g78
g59
NtRp5032
(dp5033
g62
(dp5034
sg71
g5019
sg64
(lp5035
g57
(g58
g59
NtRp5036
(dp5037
g62
(dp5038
g70
I5
ssg71
g5032
sg64
(lp5039
S'P:\\School\\DePaul\\Projects\\CSC_438\\web2py\\applications\\init\\sessions\\127.0.0.1-9cf14084-4033-491f-99b2-106d13fb9973'
p5040
asbasbasbag57
(g73
g59
NtRp5041
(dp5042
g62
(dp5043
sg71
g3337
sg64
(lp5044
g57
(g78
g59
NtRp5045
(dp5046
g62
(dp5047
g82
g83
ssg71
g5041
sg64
(lp5048
S'session_id'
p5049
asbag57
(g78
g59
NtRp5050
(dp5051
g62
(dp5052
g89
g90
ssg71
g5041
sg64
(lp5053
S':'
asbag57
(g78
g59
NtRp5054
(dp5055
g62
(dp5056
sg71
g5041
sg64
(lp5057
g57
(g58
g59
NtRp5058
(dp5059
g62
(dp5060
g70
I5
ssg71
g5054
sg64
(lp5061
S'127.0.0.1-9cf14084-4033-491f-99b2-106d13fb9973'
p5062
asbasbasbag57
(g73
g59
NtRp5063
(dp5064
g62
(dp5065
sg71
g3337
sg64
(lp5066
g57
(g78
g59
NtRp5067
(dp5068
g62
(dp5069
g82
g83
ssg71
g5063
sg64
(lp5070
S'session_id_name'
p5071
asbag57
(g78
g59
NtRp5072
(dp5073
g62
(dp5074
g89
g90
ssg71
g5063
sg64
(lp5075
S':'
asbag57
(g78
g59
NtRp5076
(dp5077
g62
(dp5078
sg71
g5063
sg64
(lp5079
g57
(g58
g59
NtRp5080
(dp5081
g62
(dp5082
g70
I5
ssg71
g5076
sg64
(lp5083
g3394
asbasbasbag57
(g73
g59
NtRp5084
(dp5085
g62
(dp5086
sg71
g3337
sg64
(lp5087
g57
(g78
g59
NtRp5088
(dp5089
g62
(dp5090
g82
g83
ssg71
g5084
sg64
(lp5091
S'session_locked'
p5092
asbag57
(g78
g59
NtRp5093
(dp5094
g62
(dp5095
g89
g90
ssg71
g5084
sg64
(lp5096
S':'
asbag57
(g78
g59
NtRp5097
(dp5098
g62
(dp5099
sg71
g5084
sg64
(lp5100
g57
(g58
g59
NtRp5101
(dp5102
g62
(dp5103
g70
I5
ssg71
g5097
sg64
(lp5104
g1473
asbasbasbag57
(g73
g59
NtRp5105
(dp5106
g62
(dp5107
sg71
g3337
sg64
(lp5108
g57
(g78
g59
NtRp5109
(dp5110
g62
(dp5111
g82
g83
ssg71
g5105
sg64
(lp5112
S'session_new'
p5113
asbag57
(g78
g59
NtRp5114
(dp5115
g62
(dp5116
g89
g90
ssg71
g5105
sg64
(lp5117
S':'
asbag57
(g78
g59
NtRp5118
(dp5119
g62
(dp5120
sg71
g5105
sg64
(lp5121
g57
(g58
g59
NtRp5122
(dp5123
g62
(dp5124
g70
I5
ssg71
g5118
sg64
(lp5125
g100
asbasbasbag57
(g73
g59
NtRp5126
(dp5127
g62
(dp5128
sg71
g3337
sg64
(lp5129
g57
(g78
g59
NtRp5130
(dp5131
g62
(dp5132
g82
g83
ssg71
g5126
sg64
(lp5133
S'status'
p5134
asbag57
(g78
g59
NtRp5135
(dp5136
g62
(dp5137
g89
g90
ssg71
g5126
sg64
(lp5138
S':'
asbag57
(g78
g59
NtRp5139
(dp5140
g62
(dp5141
sg71
g5126
sg64
(lp5142
g57
(g58
g59
NtRp5143
(dp5144
g62
(dp5145
g70
I5
ssg71
g5139
sg64
(lp5146
S'200'
p5147
asbasbasbag57
(g73
g59
NtRp5148
(dp5149
g62
(dp5150
sg71
g3337
sg64
(lp5151
g57
(g78
g59
NtRp5152
(dp5153
g62
(dp5154
g82
g83
ssg71
g5148
sg64
(lp5155
S'subtitle'
p5156
asbag57
(g78
g59
NtRp5157
(dp5158
g62
(dp5159
g89
g90
ssg71
g5148
sg64
(lp5160
S':'
asbag57
(g78
g59
NtRp5161
(dp5162
g62
(dp5163
sg71
g5148
sg64
(lp5164
g57
(g58
g59
NtRp5165
(dp5166
g62
(dp5167
g70
I5
ssg71
g5161
sg64
(lp5168
g3881
(S's\r\x00\x00\x00customize me!'
tRp5169
asbasbasbag57
(g73
g59
NtRp5170
(dp5171
g62
(dp5172
sg71
g3337
sg64
(lp5173
g57
(g78
g59
NtRp5174
(dp5175
g62
(dp5176
g82
g83
ssg71
g5170
sg64
(lp5177
S'title'
p5178
asbag57
(g78
g59
NtRp5179
(dp5180
g62
(dp5181
g89
g90
ssg71
g5170
sg64
(lp5182
S':'
asbag57
(g78
g59
NtRp5183
(dp5184
g62
(dp5185
sg71
g5170
sg64
(lp5186
g57
(g58
g59
NtRp5187
(dp5188
g62
(dp5189
g70
I5
ssg71
g5183
sg64
(lp5190
g122
asbasbasbag57
(g73
g59
NtRp5191
(dp5192
g62
(dp5193
sg71
g3337
sg64
(lp5194
g57
(g78
g59
NtRp5195
(dp5196
g62
(dp5197
g82
g83
ssg71
g5191
sg64
(lp5198
g2139
asbag57
(g78
g59
NtRp5199
(dp5200
g62
(dp5201
g89
g90
ssg71
g5191
sg64
(lp5202
S':'
asbag57
(g78
g59
NtRp5203
(dp5204
g62
(dp5205
sg71
g5191
sg64
(lp5206
g57
(g58
g59
NtRp5207
(dp5208
g62
(dp5209
g70
I5
ssg71
g5203
sg64
(lp5210
g2152
asbasbasbag57
(g73
g59
NtRp5211
(dp5212
g62
(dp5213
sg71
g3337
sg64
(lp5214
g57
(g78
g59
NtRp5215
(dp5216
g62
(dp5217
g82
g83
ssg71
g5211
sg64
(lp5218
S'view'
p5219
asbag57
(g78
g59
NtRp5220
(dp5221
g62
(dp5222
g89
g90
ssg71
g5211
sg64
(lp5223
S':'
asbag57
(g78
g59
NtRp5224
(dp5225
g62
(dp5226
sg71
g5211
sg64
(lp5227
g57
(g58
g59
NtRp5228
(dp5229
g62
(dp5230
g70
I5
ssg71
g5224
sg64
(lp5231
S'default/challenge.html'
p5232
asbasbasbasbasbsS'locals'
p5233
(dp5234
S'Service'
p5235
S"<class 'gluon.tools.Service'>"
p5236
sS'OBJECT'
p5237
S"<class 'gluon.html.OBJECT'>"
p5238
sS'SQLDB'
p5239
S"<class 'gluon.dal.DAL'>"
p5240
sg2876
S"<Storage {'_formkey[change_password]': 'df9f36f9...': False}>, '_auth_next': '/init/default/index'}>"
p5241
sS'LINK'
p5242
S"<class 'gluon.html.LINK'>"
p5243
sS'BR'
p5244
S"<class 'gluon.html.BR'>"
p5245
sS'local_import'
p5246
S'<function <lambda>>'
p5247
sS'OPTGROUP'
p5248
S"<class 'gluon.html.OPTGROUP'>"
p5249
sS'PRE'
p5250
S"<class 'gluon.html.PRE'>"
p5251
sS'IS_INT_IN_RANGE'
p5252
S"<class 'gluon.validators.IS_INT_IN_RANGE'>"
p5253
sS'IS_LOWER'
p5254
S"<class 'gluon.validators.IS_LOWER'>"
p5255
sS'IS_STRONG'
p5256
S"<class 'gluon.validators.IS_STRONG'>"
p5257
sS'cache'
p5258
S'<gluon.cache.Cache object>'
p5259
sS'IS_IN_DB'
p5260
S"<class 'gluon.validators.IS_IN_DB'>"
p5261
sS'TAG'
p5262
S'<gluon.html.__TAG__ object>'
p5263
sS'SQLField'
p5264
S"<class 'gluon.dal.Field'>"
p5265
sS'mail'
p5266
S'<gluon.tools.Mail object>'
p5267
sS'BODY'
p5268
S"<class 'gluon.html.BODY'>"
p5269
sS'IS_DATE_IN_RANGE'
p5270
S"<class 'gluon.validators.IS_DATE_IN_RANGE'>"
p5271
sS'TH'
p5272
S"<class 'gluon.html.TH'>"
p5273
sS'URL'
p5274
S'<function URL>'
p5275
sS'__file__'
p5276
S"r'P:\\School\\DePaul\\Projects\\CSC_438\\web2py\\applications\\init\\views\\default/challenge.html'"
p5277
sS'db'
p5278
S"<DAL {'auth_event': <Table {'origin': <gluon.dal...'_id': <gluon.dal.Field object at 0x03151090>}>}>"
p5279
sS'auth'
p5280
S'<gluon.tools.Auth object>'
p5281
sS'P'
S"<class 'gluon.html.P'>"
p5282
sS'TFOOT'
p5283
S"<class 'gluon.html.TFOOT'>"
p5284
sS'entries'
p5285
S'<gluon.dal.Rows object>'
p5286
sS'XHTML'
p5287
S"<class 'gluon.html.XHTML'>"
p5288
sS'ON'
p5289
g1473
sS'OL'
p5290
S"<class 'gluon.html.OL'>"
p5291
sS'TEXTAREA'
p5292
S"<class 'gluon.html.TEXTAREA'>"
p5293
sS'MENU'
p5294
S"<class 'gluon.html.MENU'>"
p5295
sS'LOAD'
p5296
S'<gluon.compileapp.LoadFactory object>'
p5297
sS'CODE'
p5298
S"<class 'gluon.html.CODE'>"
p5299
sS'HTTP'
p5300
S"<class 'gluon.http.HTTP'>"
p5301
sS'HR'
p5302
S"<class 'gluon.html.HR'>"
p5303
sS'IS_DATETIME'
p5304
S"<class 'gluon.validators.IS_DATETIME'>"
p5305
sS'HEAD'
p5306
S"<class 'gluon.html.HEAD'>"
p5307
sS'LABEL'
p5308
S"<class 'gluon.html.LABEL'>"
p5309
sS'CLEANUP'
p5310
S"<class 'gluon.validators.CLEANUP'>"
p5311
sS'plugins'
p5312
S'<gluon.tools.PluginManager object>'
p5313
sS'SELECT'
p5314
S"<class 'gluon.html.SELECT'>"
p5315
sS'use_janrain'
p5316
S'<function use_janrain>'
p5317
sS'CENTER'
p5318
S"<class 'gluon.html.CENTER'>"
p5319
sS'prettydate'
p5320
S'<function prettydate>'
p5321
sS'Crud'
p5322
S"<class 'gluon.tools.Crud'>"
p5323
sS'Auth'
p5324
S"<class 'gluon.tools.Auth'>"
p5325
sS'__builtins__'
p5326
S"{'ArithmeticError': <type 'exceptions.ArithmeticError'>, 'AssertionError': <type 'exceptions.AssertionError'>, 'AttributeError': <type 'exceptions.AttributeError'>, 'BaseException': <type 'exceptions.BaseException'>, 'BufferError': <type 'exceptions.BufferError'>, 'BytesWarning': <type 'exceptions.BytesWarning'>, 'DeprecationWarning': <type 'exceptions.DeprecationWarning'>, 'EOFError': <type 'exceptions.EOFError'>, 'Ellipsis': Ellipsis, 'EnvironmentError': <type 'exceptions.EnvironmentError'>, ...}"
p5327
sS'HTML'
p5328
S"<class 'gluon.html.HTML'>"
p5329
sS'SQLFORM'
p5330
S"<class 'gluon.sqlhtml.SQLFORM'>"
p5331
sS'EM'
p5332
S"<class 'gluon.html.EM'>"
p5333
sS'redirect'
p5334
S'<function redirect>'
p5335
sS'FIELDSET'
p5336
S"<class 'gluon.html.FIELDSET'>"
p5337
sS'IS_EQUAL_TO'
p5338
S"<class 'gluon.validators.IS_EQUAL_TO'>"
p5339
sS'embed64'
p5340
S'<function embed64>'
p5341
sS'IS_LIST_OF'
p5342
S"<class 'gluon.validators.IS_LIST_OF'>"
p5343
sS'INPUT'
p5344
S"<class 'gluon.html.INPUT'>"
p5345
sS'EMBED'
p5346
S"<class 'gluon.html.EMBED'>"
p5347
sS'_'
S'<function _>'
p5348
sS'FORM'
p5349
S"<class 'gluon.html.FORM'>"
p5350
sS'H2'
p5351
S"<class 'gluon.html.H2'>"
p5352
sS'H3'
p5353
S"<class 'gluon.html.H3'>"
p5354
sS'BUTTON'
p5355
S"<class 'gluon.html.BUTTON'>"
p5356
sS'H1'
p5357
S"<class 'gluon.html.H1'>"
p5358
sS'H6'
p5359
S"<class 'gluon.html.H6'>"
p5360
sS'H4'
p5361
S"<class 'gluon.html.H4'>"
p5362
sS'H5'
p5363
S"<class 'gluon.html.H5'>"
p5364
sS'UL'
p5365
S"<class 'gluon.html.UL'>"
p5366
sS'IS_UPPER'
p5367
S"<class 'gluon.validators.IS_UPPER'>"
p5368
sS'xmlescape'
p5369
S'<function xmlescape>'
p5370
sS'IS_TIME'
p5371
S"<class 'gluon.validators.IS_TIME'>"
p5372
sS'OPTION'
p5373
S"<class 'gluon.html.OPTION'>"
p5374
sS'TITLE'
p5375
S"<class 'gluon.html.TITLE'>"
p5376
sS'CRYPT'
p5377
S"<class 'gluon.validators.CRYPT'>"
p5378
sS'IS_EMPTY_OR'
p5379
S"<class 'gluon.validators.IS_EMPTY_OR'>"
p5380
sS'MARKMIN'
p5381
S"<class 'gluon.html.MARKMIN'>"
p5382
sS'COL'
p5383
S"<class 'gluon.html.COL'>"
p5384
sS'service'
p5385
S'<gluon.tools.Service object>'
p5386
sS'SCRIPT'
p5387
S"<class 'gluon.html.SCRIPT'>"
p5388
sS'TABLE'
p5389
S"<class 'gluon.html.TABLE'>"
p5390
sS'IS_IPV4'
p5391
S"<class 'gluon.validators.IS_IPV4'>"
p5392
sS'IS_LENGTH'
p5393
S"<class 'gluon.validators.IS_LENGTH'>"
p5394
sS'XML'
p5395
S"<class 'gluon.html.XML'>"
p5396
sS'B'
S"<class 'gluon.html.B'>"
p5397
sS'form'
p5398
S"<Row {'status': None, 'check_in': 'Daily', 'modi...314F830>, 'name': 'Another Kick Butt Challenge'}>"
p5399
sS'SQLTABLE'
p5400
S"<class 'gluon.sqlhtml.SQLTABLE'>"
p5401
sS'IS_MATCH'
p5402
S"<class 'gluon.validators.IS_MATCH'>"
p5403
sS'IS_ALPHANUMERIC'
p5404
S"<class 'gluon.validators.IS_ALPHANUMERIC'>"
p5405
sS'SPAN'
p5406
S"<class 'gluon.html.SPAN'>"
p5407
sS'IS_SLUG'
p5408
S"<class 'gluon.validators.IS_SLUG'>"
p5409
sS'BEAUTIFY'
p5410
S"<class 'gluon.html.BEAUTIFY'>"
p5411
sS'META'
p5412
S"<class 'gluon.html.META'>"
p5413
sS'IS_DATE'
p5414
S"<class 'gluon.validators.IS_DATE'>"
p5415
sS'IS_EMAIL'
p5416
S"<class 'gluon.validators.IS_EMAIL'>"
p5417
sS'IS_NOT_EMPTY'
p5418
S"<class 'gluon.validators.IS_NOT_EMPTY'>"
p5419
sS'IS_FLOAT_IN_RANGE'
p5420
S"<class 'gluon.validators.IS_FLOAT_IN_RANGE'>"
p5421
sS'TBODY'
p5422
S"<class 'gluon.html.TBODY'>"
p5423
sS'CAT'
p5424
S"<class 'gluon.html.CAT'>"
p5425
sS'Field'
p5426
S"<class 'gluon.dal.Field'>"
p5427
sS'DIV'
p5428
S"<class 'gluon.html.DIV'>"
p5429
sS'LEGEND'
p5430
S"<class 'gluon.html.LEGEND'>"
p5431
sS'IMG'
p5432
S"<class 'gluon.html.IMG'>"
p5433
sS'COLGROUP'
p5434
S"<class 'gluon.html.COLGROUP'>"
p5435
sS'DAL'
p5436
S"<class 'gluon.dal.DAL'>"
p5437
sS'TT'
p5438
S"<class 'gluon.html.TT'>"
p5439
sS'TR'
p5440
S"<class 'gluon.html.TR'>"
p5441
sS'LI'
p5442
S"<class 'gluon.html.LI'>"
p5443
sS'IFRAME'
p5444
S"<class 'gluon.html.IFRAME'>"
p5445
sS'TD'
p5446
S"<class 'gluon.html.TD'>"
p5447
sS'PluginManager'
p5448
S"<class 'gluon.tools.PluginManager'>"
p5449
sS'IS_URL'
p5450
S"<class 'gluon.validators.IS_URL'>"
p5451
sS'A'
S"<class 'gluon.html.A'>"
p5452
sS'STYLE'
p5453
S"<class 'gluon.html.STYLE'>"
p5454
sS'IS_DATETIME_IN_RANGE'
p5455
S"<class 'gluon.validators.IS_DATETIME_IN_RANGE'>"
p5456
sS'IS_IMAGE'
p5457
S"<class 'gluon.validators.IS_IMAGE'>"
p5458
sS'I'
S"<class 'gluon.html.I'>"
p5459
sS'crud'
p5460
S'<gluon.tools.Crud object>'
p5461
sS'IS_NOT_IN_DB'
p5462
S"<class 'gluon.validators.IS_NOT_IN_DB'>"
p5463
sg3332
S"<Storage {'body': <cStringIO.StringO object at 0...t 0x02E397F0>, 'view': 'default/challenge.html'}>"
p5464
sS'THEAD'
p5465
S"<class 'gluon.html.THEAD'>"
p5466
sS'IS_NULL_OR'
p5467
S"<class 'gluon.validators.IS_EMPTY_OR'>"
p5468
sg56
S"<Storage {'body': <cStringIO.StringO object at 0...age {'event': '12'}>, 'post_vars': <Storage {}>}>"
p5469
sS'IS_EXPR'
p5470
S"<class 'gluon.validators.IS_EXPR'>"
p5471
sS'T'
S'<gluon.languages.translator object>'
p5472
sS'num_users'
p5473
S'2'
sS'IS_IN_SET'
p5474
S"<class 'gluon.validators.IS_IN_SET'>"
p5475
sS'IS_UPLOAD_FILENAME'
p5476
S"<class 'gluon.validators.IS_UPLOAD_FILENAME'>"
p5477
sS'IS_DECIMAL_IN_RANGE'
p5478
S"<class 'gluon.validators.IS_DECIMAL_IN_RANGE'>"
p5479
sssS'traceback'
p5480
S'Traceback (most recent call last):\n  File "P:\\School\\DePaul\\Projects\\CSC_438\\web2py\\gluon\\restricted.py", line 204, in restricted\n    exec ccode in environment\n  File "P:\\School\\DePaul\\Projects\\CSC_438\\web2py\\applications\\init\\views\\default/challenge.html", line 34, in <module>\n    <td> {{=form.end_date}} </td>\nAttributeError: \'str\' object has no attribute \'function\'\n'
p5481
s.