(dp1
S'output'
p2
S"<type 'exceptions.AttributeError'> 'NoneType' object has no attribute 'update_record'"
p3
sS'layer'
p4
S'P:\\School\\DePaul\\Projects\\CSC_438\\web2py\\applications\\init\\controllers/default.py'
p5
sS'code'
p6
S'# -*- coding: utf-8 -*-\n# this file is released under public domain and you can use without limitations\n\n##### Page Functions #####\n@auth.requires_login()\ndef index():\n   redirect(URL(\'home\'))\n\ndef user():\n    """\n    exposes:\n    http://..../[app]/default/user/login\n    http://..../[app]/default/user/logout\n    http://..../[app]/default/user/register\n    http://..../[app]/default/user/profile\n    http://..../[app]/default/user/retrieve_password\n    http://..../[app]/default/user/change_password\n    use @auth.requires_login()\n        @auth.requires_membership(\'group name\')\n        @auth.requires_permission(\'read\',\'table name\',record_id)\n    to decorate functions that need access control\n    """\n\n    return dict(form=auth())\n\n## Users home page.\n@auth.requires_login()\ndef home():\n\n    db.events.name.represent = lambda name, row: A(name, _href=URL(\'home\'))\n        \n    ## get the challenges the users is currently enrolled in\n    query = db.events.participants.contains(auth.user.id)\n    events = db(query).select(orderby=db.events.name)\n\n    return dict(events=events)\n\n# Create a new challenge\n@auth.requires_login()\ndef create():\n\n    form = SQLFORM(db.events)\n         \n    if form.process(session=None, onvalidation=date_compare, formname=\'create\').accepted:\n        response.flash = \'form accepted\'\n        redirect(URL(\'home\'))\n    elif form.errors:\n        response.flash = \'form has errors\'\n    else:\n        response.flash = \'please fill the form\'\n \n    return dict(form = form)\n\n# Edit an existing Challenge. You can only edit challenges you created\n@auth.requires_login()\ndef edit():\n\n    event_id= request.vars.event\n    event_query = db.events.id == event_id\n    event = db(event_query).select().first()\n    form= SQLFORM(db.events, event)\n    \n    if form.process(session=None, onvalidation=date_compare, formname=\'edit\').accepted:\n        response.flash = \'form accepted\'\n        redirect(URL(\'home\'))\n    elif form.errors:\n        response.flash = \'form has errors\'\n    else:\n        response.flash = \'please fill the form\'\n\n    return dict(form = form)\n    \n## View the details of a challenge        \n@auth.requires_login()\ndef challenge():\n\n    event_id= request.vars.event\n    event_query = db.events.id == event_id\n    form= db(event_query).select().first()\n    \n    # Get the registered users\n    entries_query = db.event_users.event == event_id\n    entries = db(entries_query).select(db.entries.ALL, groupby=db.entries.user)\n\n    num_users = len(entries)        \n    form.writable = False\n\n    return dict(form=form, entries=entries, num_users=num_users)\n\ndef join():\n    \n    event_id=request.vars.event\n    event_update = db.events.id == event_id\n    event = db(event_update).select().first()\n    event.update_record(partcipants=auth.user.id)\n    \n    redirect(URL(\'home\',  vars=dict(event=event)))\n\n@auth.requires_login()\ndef search():\n\n    ## get all challenges\n\n    events = db(db.events).select(orderby=db.events.name)\n\n    return dict(events=events)\n        \ndef contact():\n\n    return dict()\n    \n##### Utility Functions #####    \n\n# Get the users registered for this event\ndef get_users(event_id):\n\n    user_query = db.event_users.event == event_id\n    users = db(user_query).select()\n            \n    return (users)\n    \ndef get_entries(user):\n    \n    entry_query = db.entries.user == user\n    entry = db(entry_query).select(orderby=db.entries.date_entered).last()\n\n    return (entry)    \n\n# Make sure Start Date is less then End Date\ndef date_compare(form):\n    if form.vars.start_date > form.vars.end_date:\n        form.errors.end_date = \'End Date must be after Start Date\'\n\ndef download():\n    """\n    allows downloading of uploaded files\n    http://..../[app]/default/download/[filename]\n    """\n    return response.download(request,db)\n\n\ndef call():\n    """\n    exposes services. for example:\n    http://..../[app]/default/call/jsonrpc\n    decorate with @services.jsonrpc the functions to expose\n    supports xml, json, xmlrpc, jsonrpc, amfrpc, rss, csv\n    """\n    return service()\n\n\n@auth.requires_signature()\ndef data():\n    """\n    http://..../[app]/default/data/tables\n    http://..../[app]/default/data/create/[table]\n    http://..../[app]/default/data/read/[table]/[id]\n    http://..../[app]/default/data/update/[table]/[id]\n    http://..../[app]/default/data/delete/[table]/[id]\n    http://..../[app]/default/data/select/[table]\n    http://..../[app]/default/data/search/[table]\n    but URLs bust be signed, i.e. linked with\n      A(\'table\',_href=URL(\'data/tables\',user_signature=True))\n    or with the signed load operator\n      LOAD(\'default\',\'data.load\',args=\'tables\',ajax=True,user_signature=True)\n    """\n    return dict(form=crud())\n\nresponse._vars=response._caller(join)\n'
p7
sS'snapshot'
p8
(dp9
S'exception'
p10
(dp11
S'__hash__'
p12
S"<method-wrapper '__hash__' of exceptions.AttributeError object>"
p13
sS'__setattr__'
p14
S"<method-wrapper '__setattr__' of exceptions.AttributeError object>"
p15
sS'__reduce_ex__'
p16
S'<built-in method __reduce_ex__ of exceptions.AttributeError object>'
p17
sS'__getslice__'
p18
S"<method-wrapper '__getslice__' of exceptions.AttributeError object>"
p19
sS'__getitem__'
p20
S"<method-wrapper '__getitem__' of exceptions.AttributeError object>"
p21
sS'__setstate__'
p22
S'<built-in method __setstate__ of exceptions.AttributeError object>'
p23
sS'__reduce__'
p24
S'<built-in method __reduce__ of exceptions.AttributeError object>'
p25
sS'__str__'
p26
S"<method-wrapper '__str__' of exceptions.AttributeError object>"
p27
sS'__format__'
p28
S'<built-in method __format__ of exceptions.AttributeError object>'
p29
sS'__getattribute__'
p30
S"<method-wrapper '__getattribute__' of exceptions.AttributeError object>"
p31
sS'__class__'
p32
S"<type 'exceptions.AttributeError'>"
p33
sS'__unicode__'
p34
S'<built-in method __unicode__ of exceptions.AttributeError object>'
p35
sS'__delattr__'
p36
S"<method-wrapper '__delattr__' of exceptions.AttributeError object>"
p37
sS'__subclasshook__'
p38
S'<built-in method __subclasshook__ of type object>'
p39
sS'__repr__'
p40
S"<method-wrapper '__repr__' of exceptions.AttributeError object>"
p41
sS'args'
p42
S'("\'NoneType\' object has no attribute \'update_record\'",)'
p43
sS'__dict__'
p44
S'{}'
p45
sS'__sizeof__'
p46
S'<built-in method __sizeof__ of exceptions.AttributeError object>'
p47
sS'__doc__'
p48
S"'Attribute not found.'"
p49
sS'__init__'
p50
S"<method-wrapper '__init__' of exceptions.AttributeError object>"
p51
sS'__new__'
p52
S'<built-in method __new__ of type object>'
p53
ssS'evalue'
p54
S"'NoneType' object has no attribute 'update_record'"
p55
sS'request'
p56
ccopy_reg
_reconstructor
p57
(cgluon.html
BEAUTIFY
p58
c__builtin__
object
p59
NtRp60
(dp61
S'attributes'
p62
(dp63
sS'components'
p64
(lp65
g57
(cgluon.html
TABLE
p66
g59
NtRp67
(dp68
g62
(dp69
S'level'
p70
I5
ssS'parent'
p71
Nsg64
(lp72
g57
(cgluon.html
TR
p73
g59
NtRp74
(dp75
g62
(dp76
sg71
g67
sg64
(lp77
g57
(cgluon.html
TD
p78
g59
NtRp79
(dp80
g62
(dp81
S'_style'
p82
S'font-weight:bold;vertical-align:top'
p83
ssg71
g74
sg64
(lp84
S'ajax'
p85
asbag57
(g78
g59
NtRp86
(dp87
g62
(dp88
S'_valign'
p89
S'top'
p90
ssg71
g74
sg64
(lp91
S':'
asbag57
(g78
g59
NtRp92
(dp93
g62
(dp94
sg71
g74
sg64
(lp95
g57
(g58
g59
NtRp96
(dp97
g62
(dp98
g70
I5
ssg71
g92
sg64
(lp99
S'False'
p100
asbasbasbag57
(g73
g59
NtRp101
(dp102
g62
(dp103
sg71
g67
sg64
(lp104
g57
(g78
g59
NtRp105
(dp106
g62
(dp107
g82
g83
ssg71
g101
sg64
(lp108
S'application'
p109
asbag57
(g78
g59
NtRp110
(dp111
g62
(dp112
g89
g90
ssg71
g101
sg64
(lp113
S':'
asbag57
(g78
g59
NtRp114
(dp115
g62
(dp116
sg71
g101
sg64
(lp117
g57
(g58
g59
NtRp118
(dp119
g62
(dp120
g70
I5
ssg71
g114
sg64
(lp121
S'init'
p122
asbasbasbag57
(g73
g59
NtRp123
(dp124
g62
(dp125
sg71
g67
sg64
(lp126
g57
(g78
g59
NtRp127
(dp128
g62
(dp129
g82
g83
ssg71
g123
sg64
(lp130
g42
asbag57
(g78
g59
NtRp131
(dp132
g62
(dp133
g89
g90
ssg71
g123
sg64
(lp134
S':'
asbag57
(g78
g59
NtRp135
(dp136
g62
(dp137
sg71
g123
sg64
(lp138
g57
(g58
g59
NtRp139
(dp140
g62
(dp141
g70
I5
ssg71
g135
sg64
(lp142
g57
(g66
g59
NtRp143
(dp144
g62
(dp145
g70
I4
ssg71
Nsg64
(lp146
sbasbasbasbag57
(g73
g59
NtRp147
(dp148
g62
(dp149
sg71
g67
sg64
(lp150
g57
(g78
g59
NtRp151
(dp152
g62
(dp153
g82
g83
ssg71
g147
sg64
(lp154
S'body'
p155
asbag57
(g78
g59
NtRp156
(dp157
g62
(dp158
g89
g90
ssg71
g147
sg64
(lp159
S':'
asbag57
(g78
g59
NtRp160
(dp161
g62
(dp162
sg71
g147
sg64
(lp163
g57
(g58
g59
NtRp164
(dp165
g62
(dp166
g70
I5
ssg71
g160
sg64
(lp167
S'<cStringIO.StringO object at 0x03929D80>'
p168
asbasbasbag57
(g73
g59
NtRp169
(dp170
g62
(dp171
sg71
g67
sg64
(lp172
g57
(g78
g59
NtRp173
(dp174
g62
(dp175
g82
g83
ssg71
g169
sg64
(lp176
S'client'
p177
asbag57
(g78
g59
NtRp178
(dp179
g62
(dp180
g89
g90
ssg71
g169
sg64
(lp181
S':'
asbag57
(g78
g59
NtRp182
(dp183
g62
(dp184
sg71
g169
sg64
(lp185
g57
(g58
g59
NtRp186
(dp187
g62
(dp188
g70
I5
ssg71
g182
sg64
(lp189
S'127.0.0.1'
p190
asbasbasbag57
(g73
g59
NtRp191
(dp192
g62
(dp193
sg71
g67
sg64
(lp194
g57
(g78
g59
NtRp195
(dp196
g62
(dp197
g82
g83
ssg71
g191
sg64
(lp198
S'controller'
p199
asbag57
(g78
g59
NtRp200
(dp201
g62
(dp202
g89
g90
ssg71
g191
sg64
(lp203
S':'
asbag57
(g78
g59
NtRp204
(dp205
g62
(dp206
sg71
g191
sg64
(lp207
g57
(g58
g59
NtRp208
(dp209
g62
(dp210
g70
I5
ssg71
g204
sg64
(lp211
S'default'
p212
asbasbasbag57
(g73
g59
NtRp213
(dp214
g62
(dp215
sg71
g67
sg64
(lp216
g57
(g78
g59
NtRp217
(dp218
g62
(dp219
g82
g83
ssg71
g213
sg64
(lp220
S'cookies'
p221
asbag57
(g78
g59
NtRp222
(dp223
g62
(dp224
g89
g90
ssg71
g213
sg64
(lp225
S':'
asbag57
(g78
g59
NtRp226
(dp227
g62
(dp228
sg71
g213
sg64
(lp229
g57
(g58
g59
NtRp230
(dp231
g62
(dp232
g70
I5
ssg71
g226
sg64
(lp233
g57
(g66
g59
NtRp234
(dp235
g62
(dp236
g70
I4
ssg71
Nsg64
(lp237
g57
(g73
g59
NtRp238
(dp239
g62
(dp240
sg71
g234
sg64
(lp241
g57
(g78
g59
NtRp242
(dp243
g62
(dp244
g82
g83
ssg71
g238
sg64
(lp245
S'session_id_admin'
p246
asbag57
(g78
g59
NtRp247
(dp248
g62
(dp249
g89
g90
ssg71
g238
sg64
(lp250
S':'
asbag57
(g78
g59
NtRp251
(dp252
g62
(dp253
sg71
g238
sg64
(lp254
g57
(g58
g59
NtRp255
(dp256
g62
(dp257
g70
I4
ssg71
g251
sg64
(lp258
g57
(g66
g59
NtRp259
(dp260
g62
(dp261
g70
I3
ssg71
Nsg64
(lp262
g57
(g73
g59
NtRp263
(dp264
g62
(dp265
sg71
g259
sg64
(lp266
g57
(g78
g59
NtRp267
(dp268
g62
(dp269
g82
g83
ssg71
g263
sg64
(lp270
S'comment'
p271
asbag57
(g78
g59
NtRp272
(dp273
g62
(dp274
g89
g90
ssg71
g263
sg64
(lp275
S':'
asbag57
(g78
g59
NtRp276
(dp277
g62
(dp278
sg71
g263
sg64
(lp279
g57
(g58
g59
NtRp280
(dp281
g62
(dp282
g70
I3
ssg71
g276
sg64
(lp283
S''
asbasbasbag57
(g73
g59
NtRp284
(dp285
g62
(dp286
sg71
g259
sg64
(lp287
g57
(g78
g59
NtRp288
(dp289
g62
(dp290
g82
g83
ssg71
g284
sg64
(lp291
S'domain'
p292
asbag57
(g78
g59
NtRp293
(dp294
g62
(dp295
g89
g90
ssg71
g284
sg64
(lp296
S':'
asbag57
(g78
g59
NtRp297
(dp298
g62
(dp299
sg71
g284
sg64
(lp300
g57
(g58
g59
NtRp301
(dp302
g62
(dp303
g70
I3
ssg71
g297
sg64
(lp304
S''
asbasbasbag57
(g73
g59
NtRp305
(dp306
g62
(dp307
sg71
g259
sg64
(lp308
g57
(g78
g59
NtRp309
(dp310
g62
(dp311
g82
g83
ssg71
g305
sg64
(lp312
S'expires'
p313
asbag57
(g78
g59
NtRp314
(dp315
g62
(dp316
g89
g90
ssg71
g305
sg64
(lp317
S':'
asbag57
(g78
g59
NtRp318
(dp319
g62
(dp320
sg71
g305
sg64
(lp321
g57
(g58
g59
NtRp322
(dp323
g62
(dp324
g70
I3
ssg71
g318
sg64
(lp325
S''
asbasbasbag57
(g73
g59
NtRp326
(dp327
g62
(dp328
sg71
g259
sg64
(lp329
g57
(g78
g59
NtRp330
(dp331
g62
(dp332
g82
g83
ssg71
g326
sg64
(lp333
S'httponly'
p334
asbag57
(g78
g59
NtRp335
(dp336
g62
(dp337
g89
g90
ssg71
g326
sg64
(lp338
S':'
asbag57
(g78
g59
NtRp339
(dp340
g62
(dp341
sg71
g326
sg64
(lp342
g57
(g58
g59
NtRp343
(dp344
g62
(dp345
g70
I3
ssg71
g339
sg64
(lp346
S''
asbasbasbag57
(g73
g59
NtRp347
(dp348
g62
(dp349
sg71
g259
sg64
(lp350
g57
(g78
g59
NtRp351
(dp352
g62
(dp353
g82
g83
ssg71
g347
sg64
(lp354
S'max-age'
p355
asbag57
(g78
g59
NtRp356
(dp357
g62
(dp358
g89
g90
ssg71
g347
sg64
(lp359
S':'
asbag57
(g78
g59
NtRp360
(dp361
g62
(dp362
sg71
g347
sg64
(lp363
g57
(g58
g59
NtRp364
(dp365
g62
(dp366
g70
I3
ssg71
g360
sg64
(lp367
S''
asbasbasbag57
(g73
g59
NtRp368
(dp369
g62
(dp370
sg71
g259
sg64
(lp371
g57
(g78
g59
NtRp372
(dp373
g62
(dp374
g82
g83
ssg71
g368
sg64
(lp375
S'path'
p376
asbag57
(g78
g59
NtRp377
(dp378
g62
(dp379
g89
g90
ssg71
g368
sg64
(lp380
S':'
asbag57
(g78
g59
NtRp381
(dp382
g62
(dp383
sg71
g368
sg64
(lp384
g57
(g58
g59
NtRp385
(dp386
g62
(dp387
g70
I3
ssg71
g381
sg64
(lp388
S''
asbasbasbag57
(g73
g59
NtRp389
(dp390
g62
(dp391
sg71
g259
sg64
(lp392
g57
(g78
g59
NtRp393
(dp394
g62
(dp395
g82
g83
ssg71
g389
sg64
(lp396
S'secure'
p397
asbag57
(g78
g59
NtRp398
(dp399
g62
(dp400
g89
g90
ssg71
g389
sg64
(lp401
S':'
asbag57
(g78
g59
NtRp402
(dp403
g62
(dp404
sg71
g389
sg64
(lp405
g57
(g58
g59
NtRp406
(dp407
g62
(dp408
g70
I3
ssg71
g402
sg64
(lp409
S''
asbasbasbag57
(g73
g59
NtRp410
(dp411
g62
(dp412
sg71
g259
sg64
(lp413
g57
(g78
g59
NtRp414
(dp415
g62
(dp416
g82
g83
ssg71
g410
sg64
(lp417
S'version'
p418
asbag57
(g78
g59
NtRp419
(dp420
g62
(dp421
g89
g90
ssg71
g410
sg64
(lp422
S':'
asbag57
(g78
g59
NtRp423
(dp424
g62
(dp425
sg71
g410
sg64
(lp426
g57
(g58
g59
NtRp427
(dp428
g62
(dp429
g70
I3
ssg71
g423
sg64
(lp430
S''
asbasbasbasbasbasbasbag57
(g73
g59
NtRp431
(dp432
g62
(dp433
sg71
g234
sg64
(lp434
g57
(g78
g59
NtRp435
(dp436
g62
(dp437
g82
g83
ssg71
g431
sg64
(lp438
S'session_id_init'
p439
asbag57
(g78
g59
NtRp440
(dp441
g62
(dp442
g89
g90
ssg71
g431
sg64
(lp443
S':'
asbag57
(g78
g59
NtRp444
(dp445
g62
(dp446
sg71
g431
sg64
(lp447
g57
(g58
g59
NtRp448
(dp449
g62
(dp450
g70
I4
ssg71
g444
sg64
(lp451
g57
(g66
g59
NtRp452
(dp453
g62
(dp454
g70
I3
ssg71
Nsg64
(lp455
g57
(g73
g59
NtRp456
(dp457
g62
(dp458
sg71
g452
sg64
(lp459
g57
(g78
g59
NtRp460
(dp461
g62
(dp462
g82
g83
ssg71
g456
sg64
(lp463
g271
asbag57
(g78
g59
NtRp464
(dp465
g62
(dp466
g89
g90
ssg71
g456
sg64
(lp467
S':'
asbag57
(g78
g59
NtRp468
(dp469
g62
(dp470
sg71
g456
sg64
(lp471
g57
(g58
g59
NtRp472
(dp473
g62
(dp474
g70
I3
ssg71
g468
sg64
(lp475
S''
asbasbasbag57
(g73
g59
NtRp476
(dp477
g62
(dp478
sg71
g452
sg64
(lp479
g57
(g78
g59
NtRp480
(dp481
g62
(dp482
g82
g83
ssg71
g476
sg64
(lp483
g292
asbag57
(g78
g59
NtRp484
(dp485
g62
(dp486
g89
g90
ssg71
g476
sg64
(lp487
S':'
asbag57
(g78
g59
NtRp488
(dp489
g62
(dp490
sg71
g476
sg64
(lp491
g57
(g58
g59
NtRp492
(dp493
g62
(dp494
g70
I3
ssg71
g488
sg64
(lp495
S''
asbasbasbag57
(g73
g59
NtRp496
(dp497
g62
(dp498
sg71
g452
sg64
(lp499
g57
(g78
g59
NtRp500
(dp501
g62
(dp502
g82
g83
ssg71
g496
sg64
(lp503
g313
asbag57
(g78
g59
NtRp504
(dp505
g62
(dp506
g89
g90
ssg71
g496
sg64
(lp507
S':'
asbag57
(g78
g59
NtRp508
(dp509
g62
(dp510
sg71
g496
sg64
(lp511
g57
(g58
g59
NtRp512
(dp513
g62
(dp514
g70
I3
ssg71
g508
sg64
(lp515
S''
asbasbasbag57
(g73
g59
NtRp516
(dp517
g62
(dp518
sg71
g452
sg64
(lp519
g57
(g78
g59
NtRp520
(dp521
g62
(dp522
g82
g83
ssg71
g516
sg64
(lp523
g334
asbag57
(g78
g59
NtRp524
(dp525
g62
(dp526
g89
g90
ssg71
g516
sg64
(lp527
S':'
asbag57
(g78
g59
NtRp528
(dp529
g62
(dp530
sg71
g516
sg64
(lp531
g57
(g58
g59
NtRp532
(dp533
g62
(dp534
g70
I3
ssg71
g528
sg64
(lp535
S''
asbasbasbag57
(g73
g59
NtRp536
(dp537
g62
(dp538
sg71
g452
sg64
(lp539
g57
(g78
g59
NtRp540
(dp541
g62
(dp542
g82
g83
ssg71
g536
sg64
(lp543
g355
asbag57
(g78
g59
NtRp544
(dp545
g62
(dp546
g89
g90
ssg71
g536
sg64
(lp547
S':'
asbag57
(g78
g59
NtRp548
(dp549
g62
(dp550
sg71
g536
sg64
(lp551
g57
(g58
g59
NtRp552
(dp553
g62
(dp554
g70
I3
ssg71
g548
sg64
(lp555
S''
asbasbasbag57
(g73
g59
NtRp556
(dp557
g62
(dp558
sg71
g452
sg64
(lp559
g57
(g78
g59
NtRp560
(dp561
g62
(dp562
g82
g83
ssg71
g556
sg64
(lp563
g376
asbag57
(g78
g59
NtRp564
(dp565
g62
(dp566
g89
g90
ssg71
g556
sg64
(lp567
S':'
asbag57
(g78
g59
NtRp568
(dp569
g62
(dp570
sg71
g556
sg64
(lp571
g57
(g58
g59
NtRp572
(dp573
g62
(dp574
g70
I3
ssg71
g568
sg64
(lp575
S''
asbasbasbag57
(g73
g59
NtRp576
(dp577
g62
(dp578
sg71
g452
sg64
(lp579
g57
(g78
g59
NtRp580
(dp581
g62
(dp582
g82
g83
ssg71
g576
sg64
(lp583
g397
asbag57
(g78
g59
NtRp584
(dp585
g62
(dp586
g89
g90
ssg71
g576
sg64
(lp587
S':'
asbag57
(g78
g59
NtRp588
(dp589
g62
(dp590
sg71
g576
sg64
(lp591
g57
(g58
g59
NtRp592
(dp593
g62
(dp594
g70
I3
ssg71
g588
sg64
(lp595
S''
asbasbasbag57
(g73
g59
NtRp596
(dp597
g62
(dp598
sg71
g452
sg64
(lp599
g57
(g78
g59
NtRp600
(dp601
g62
(dp602
g82
g83
ssg71
g596
sg64
(lp603
g418
asbag57
(g78
g59
NtRp604
(dp605
g62
(dp606
g89
g90
ssg71
g596
sg64
(lp607
S':'
asbag57
(g78
g59
NtRp608
(dp609
g62
(dp610
sg71
g596
sg64
(lp611
g57
(g58
g59
NtRp612
(dp613
g62
(dp614
g70
I3
ssg71
g608
sg64
(lp615
S''
asbasbasbasbasbasbasbasbasbasbasbag57
(g73
g59
NtRp616
(dp617
g62
(dp618
sg71
g67
sg64
(lp619
g57
(g78
g59
NtRp620
(dp621
g62
(dp622
g82
g83
ssg71
g616
sg64
(lp623
S'env'
p624
asbag57
(g78
g59
NtRp625
(dp626
g62
(dp627
g89
g90
ssg71
g616
sg64
(lp628
S':'
asbag57
(g78
g59
NtRp629
(dp630
g62
(dp631
sg71
g616
sg64
(lp632
g57
(g58
g59
NtRp633
(dp634
g62
(dp635
g70
I5
ssg71
g629
sg64
(lp636
g57
(g66
g59
NtRp637
(dp638
g62
(dp639
g70
I4
ssg71
Nsg64
(lp640
g57
(g73
g59
NtRp641
(dp642
g62
(dp643
sg71
g637
sg64
(lp644
g57
(g78
g59
NtRp645
(dp646
g62
(dp647
g82
g83
ssg71
g641
sg64
(lp648
S'app_folders'
p649
asbag57
(g78
g59
NtRp650
(dp651
g62
(dp652
g89
g90
ssg71
g641
sg64
(lp653
S':'
asbag57
(g78
g59
NtRp654
(dp655
g62
(dp656
sg71
g641
sg64
(lp657
g57
(g58
g59
NtRp658
(dp659
g62
(dp660
g70
I4
ssg71
g654
sg64
(lp661
S"set(['P:\\\\School\\\\DePaul\\\\Projects\\\\CSC_438\\\\web2py\\\\applications\\\\init\\\\'])"
p662
asbasbasbag57
(g73
g59
NtRp663
(dp664
g62
(dp665
sg71
g637
sg64
(lp666
g57
(g78
g59
NtRp667
(dp668
g62
(dp669
g82
g83
ssg71
g663
sg64
(lp670
S'applications_parent'
p671
asbag57
(g78
g59
NtRp672
(dp673
g62
(dp674
g89
g90
ssg71
g663
sg64
(lp675
S':'
asbag57
(g78
g59
NtRp676
(dp677
g62
(dp678
sg71
g663
sg64
(lp679
g57
(g58
g59
NtRp680
(dp681
g62
(dp682
g70
I4
ssg71
g676
sg64
(lp683
S'P:\\School\\DePaul\\Projects\\CSC_438\\web2py'
p684
asbasbasbag57
(g73
g59
NtRp685
(dp686
g62
(dp687
sg71
g637
sg64
(lp688
g57
(g78
g59
NtRp689
(dp690
g62
(dp691
g82
g83
ssg71
g685
sg64
(lp692
S'cmd_args'
p693
asbag57
(g78
g59
NtRp694
(dp695
g62
(dp696
g89
g90
ssg71
g685
sg64
(lp697
S':'
asbag57
(g78
g59
NtRp698
(dp699
g62
(dp700
sg71
g685
sg64
(lp701
g57
(g58
g59
NtRp702
(dp703
g62
(dp704
g70
I4
ssg71
g698
sg64
(lp705
g57
(g66
g59
NtRp706
(dp707
g62
(dp708
g70
I3
ssg71
Nsg64
(lp709
sbasbasbasbag57
(g73
g59
NtRp710
(dp711
g62
(dp712
sg71
g637
sg64
(lp713
g57
(g78
g59
NtRp714
(dp715
g62
(dp716
g82
g83
ssg71
g710
sg64
(lp717
S'cmd_options'
p718
asbag57
(g78
g59
NtRp719
(dp720
g62
(dp721
g89
g90
ssg71
g710
sg64
(lp722
S':'
asbag57
(g78
g59
NtRp723
(dp724
g62
(dp725
sg71
g710
sg64
(lp726
g57
(g58
g59
NtRp727
(dp728
g62
(dp729
g70
I4
ssg71
g723
sg64
(lp730
S"<Values at 0x35b1ee0: {'verbose': False, 'ip': '127.0.0.1', 'shutdown_timeout': 5, 'taskbar': False, 'nocron': False, 'pid_filename': 'httpserver.pid', 'maxthreads': None, 'softcron': False, 'server_name': 'Bishop-PC', 'bpython': False, 'nogui': False, 'port': 8000, 'extcron': False, 'debuglevel': 30, 'test': None, 'folder': 'P:\\\\School\\\\DePaul\\\\Projects\\\\CSC_438\\\\web2py', 'config': '', 'import_models': False, 'winservice': '', 'shell': None, 'run': '', 'log_filename': 'httpserver.log', 'args': [''], 'ssl_ca_certificate': None, 'scheduler': None, 'profiler_filename': None, 'ssl_private_key': '', 'password': '<ask>', 'request_queue_size': 5, 'ssl_certificate': '', 'cronjob': False, 'plain': False, 'quiet': False, 'interfaces': None, 'minthreads': None, 'timeout': 10, 'numthreads': None, 'nobanner': False}>"
p731
asbasbasbag57
(g73
g59
NtRp732
(dp733
g62
(dp734
sg71
g637
sg64
(lp735
g57
(g78
g59
NtRp736
(dp737
g62
(dp738
g82
g83
ssg71
g732
sg64
(lp739
S'db_sessions'
p740
asbag57
(g78
g59
NtRp741
(dp742
g62
(dp743
g89
g90
ssg71
g732
sg64
(lp744
S':'
asbag57
(g78
g59
NtRp745
(dp746
g62
(dp747
sg71
g732
sg64
(lp748
g57
(g58
g59
NtRp749
(dp750
g62
(dp751
g70
I4
ssg71
g745
sg64
(lp752
S'set([])'
p753
asbasbasbag57
(g73
g59
NtRp754
(dp755
g62
(dp756
sg71
g637
sg64
(lp757
g57
(g78
g59
NtRp758
(dp759
g62
(dp760
g82
g83
ssg71
g754
sg64
(lp761
S'debugging'
p762
asbag57
(g78
g59
NtRp763
(dp764
g62
(dp765
g89
g90
ssg71
g754
sg64
(lp766
S':'
asbag57
(g78
g59
NtRp767
(dp768
g62
(dp769
sg71
g754
sg64
(lp770
g57
(g58
g59
NtRp771
(dp772
g62
(dp773
g70
I4
ssg71
g767
sg64
(lp774
g100
asbasbasbag57
(g73
g59
NtRp775
(dp776
g62
(dp777
sg71
g637
sg64
(lp778
g57
(g78
g59
NtRp779
(dp780
g62
(dp781
g82
g83
ssg71
g775
sg64
(lp782
S'gluon_parent'
p783
asbag57
(g78
g59
NtRp784
(dp785
g62
(dp786
g89
g90
ssg71
g775
sg64
(lp787
S':'
asbag57
(g78
g59
NtRp788
(dp789
g62
(dp790
sg71
g775
sg64
(lp791
g57
(g58
g59
NtRp792
(dp793
g62
(dp794
g70
I4
ssg71
g788
sg64
(lp795
S'P:\\School\\DePaul\\Projects\\CSC_438\\web2py'
p796
asbasbasbag57
(g73
g59
NtRp797
(dp798
g62
(dp799
sg71
g637
sg64
(lp800
g57
(g78
g59
NtRp801
(dp802
g62
(dp803
g82
g83
ssg71
g797
sg64
(lp804
S'http_accept'
p805
asbag57
(g78
g59
NtRp806
(dp807
g62
(dp808
g89
g90
ssg71
g797
sg64
(lp809
S':'
asbag57
(g78
g59
NtRp810
(dp811
g62
(dp812
sg71
g797
sg64
(lp813
g57
(g58
g59
NtRp814
(dp815
g62
(dp816
g70
I4
ssg71
g810
sg64
(lp817
S'text/html,application/xhtml+xml,application/xml;q=0.9,*/*;q=0.8'
p818
asbasbasbag57
(g73
g59
NtRp819
(dp820
g62
(dp821
sg71
g637
sg64
(lp822
g57
(g78
g59
NtRp823
(dp824
g62
(dp825
g82
g83
ssg71
g819
sg64
(lp826
S'http_accept_charset'
p827
asbag57
(g78
g59
NtRp828
(dp829
g62
(dp830
g89
g90
ssg71
g819
sg64
(lp831
S':'
asbag57
(g78
g59
NtRp832
(dp833
g62
(dp834
sg71
g819
sg64
(lp835
g57
(g58
g59
NtRp836
(dp837
g62
(dp838
g70
I4
ssg71
g832
sg64
(lp839
S'ISO-8859-1,utf-8;q=0.7,*;q=0.7'
p840
asbasbasbag57
(g73
g59
NtRp841
(dp842
g62
(dp843
sg71
g637
sg64
(lp844
g57
(g78
g59
NtRp845
(dp846
g62
(dp847
g82
g83
ssg71
g841
sg64
(lp848
S'http_accept_encoding'
p849
asbag57
(g78
g59
NtRp850
(dp851
g62
(dp852
g89
g90
ssg71
g841
sg64
(lp853
S':'
asbag57
(g78
g59
NtRp854
(dp855
g62
(dp856
sg71
g841
sg64
(lp857
g57
(g58
g59
NtRp858
(dp859
g62
(dp860
g70
I4
ssg71
g854
sg64
(lp861
S'gzip,deflate'
p862
asbasbasbag57
(g73
g59
NtRp863
(dp864
g62
(dp865
sg71
g637
sg64
(lp866
g57
(g78
g59
NtRp867
(dp868
g62
(dp869
g82
g83
ssg71
g863
sg64
(lp870
S'http_accept_language'
p871
asbag57
(g78
g59
NtRp872
(dp873
g62
(dp874
g89
g90
ssg71
g863
sg64
(lp875
S':'
asbag57
(g78
g59
NtRp876
(dp877
g62
(dp878
sg71
g863
sg64
(lp879
g57
(g58
g59
NtRp880
(dp881
g62
(dp882
g70
I4
ssg71
g876
sg64
(lp883
S'en-us,en;q=0.5'
p884
asbasbasbag57
(g73
g59
NtRp885
(dp886
g62
(dp887
sg71
g637
sg64
(lp888
g57
(g78
g59
NtRp889
(dp890
g62
(dp891
g82
g83
ssg71
g885
sg64
(lp892
S'http_connection'
p893
asbag57
(g78
g59
NtRp894
(dp895
g62
(dp896
g89
g90
ssg71
g885
sg64
(lp897
S':'
asbag57
(g78
g59
NtRp898
(dp899
g62
(dp900
sg71
g885
sg64
(lp901
g57
(g58
g59
NtRp902
(dp903
g62
(dp904
g70
I4
ssg71
g898
sg64
(lp905
S'keep-alive'
p906
asbasbasbag57
(g73
g59
NtRp907
(dp908
g62
(dp909
sg71
g637
sg64
(lp910
g57
(g78
g59
NtRp911
(dp912
g62
(dp913
g82
g83
ssg71
g907
sg64
(lp914
S'http_cookie'
p915
asbag57
(g78
g59
NtRp916
(dp917
g62
(dp918
g89
g90
ssg71
g907
sg64
(lp919
S':'
asbag57
(g78
g59
NtRp920
(dp921
g62
(dp922
sg71
g907
sg64
(lp923
g57
(g58
g59
NtRp924
(dp925
g62
(dp926
g70
I4
ssg71
g920
sg64
(lp927
S'__utma_a2a=4518867300.1350888199.1319331273.1319375111.1319375111.5; session_id_init=127.0.0.1-9cf14084-4033-491f-99b2-106d13fb9973; session_id_admin=127.0.0.1-ca11266a-1e6f-4c85-a03e-d1cb0b2024f8'
p928
asbasbasbag57
(g73
g59
NtRp929
(dp930
g62
(dp931
sg71
g637
sg64
(lp932
g57
(g78
g59
NtRp933
(dp934
g62
(dp935
g82
g83
ssg71
g929
sg64
(lp936
S'http_host'
p937
asbag57
(g78
g59
NtRp938
(dp939
g62
(dp940
g89
g90
ssg71
g929
sg64
(lp941
S':'
asbag57
(g78
g59
NtRp942
(dp943
g62
(dp944
sg71
g929
sg64
(lp945
g57
(g58
g59
NtRp946
(dp947
g62
(dp948
g70
I4
ssg71
g942
sg64
(lp949
S'127.0.0.1:8000'
p950
asbasbasbag57
(g73
g59
NtRp951
(dp952
g62
(dp953
sg71
g637
sg64
(lp954
g57
(g78
g59
NtRp955
(dp956
g62
(dp957
g82
g83
ssg71
g951
sg64
(lp958
S'http_keep_alive'
p959
asbag57
(g78
g59
NtRp960
(dp961
g62
(dp962
g89
g90
ssg71
g951
sg64
(lp963
S':'
asbag57
(g78
g59
NtRp964
(dp965
g62
(dp966
sg71
g951
sg64
(lp967
g57
(g58
g59
NtRp968
(dp969
g62
(dp970
g70
I4
ssg71
g964
sg64
(lp971
S'115'
p972
asbasbasbag57
(g73
g59
NtRp973
(dp974
g62
(dp975
sg71
g637
sg64
(lp976
g57
(g78
g59
NtRp977
(dp978
g62
(dp979
g82
g83
ssg71
g973
sg64
(lp980
S'http_referer'
p981
asbag57
(g78
g59
NtRp982
(dp983
g62
(dp984
g89
g90
ssg71
g973
sg64
(lp985
S':'
asbag57
(g78
g59
NtRp986
(dp987
g62
(dp988
sg71
g973
sg64
(lp989
g57
(g58
g59
NtRp990
(dp991
g62
(dp992
g70
I4
ssg71
g986
sg64
(lp993
S'http://127.0.0.1:8000/init/default/challenge?event=12'
p994
asbasbasbag57
(g73
g59
NtRp995
(dp996
g62
(dp997
sg71
g637
sg64
(lp998
g57
(g78
g59
NtRp999
(dp1000
g62
(dp1001
g82
g83
ssg71
g995
sg64
(lp1002
S'http_user_agent'
p1003
asbag57
(g78
g59
NtRp1004
(dp1005
g62
(dp1006
g89
g90
ssg71
g995
sg64
(lp1007
S':'
asbag57
(g78
g59
NtRp1008
(dp1009
g62
(dp1010
sg71
g995
sg64
(lp1011
g57
(g58
g59
NtRp1012
(dp1013
g62
(dp1014
g70
I4
ssg71
g1008
sg64
(lp1015
S'Mozilla/5.0 (Windows; U; Windows NT 6.1; en-US; rv:1.9.2.24) Gecko/20111103 Firefox/3.6.24'
p1016
asbasbasbag57
(g73
g59
NtRp1017
(dp1018
g62
(dp1019
sg71
g637
sg64
(lp1020
g57
(g78
g59
NtRp1021
(dp1022
g62
(dp1023
g82
g83
ssg71
g1017
sg64
(lp1024
S'is_jython'
p1025
asbag57
(g78
g59
NtRp1026
(dp1027
g62
(dp1028
g89
g90
ssg71
g1017
sg64
(lp1029
S':'
asbag57
(g78
g59
NtRp1030
(dp1031
g62
(dp1032
sg71
g1017
sg64
(lp1033
g57
(g58
g59
NtRp1034
(dp1035
g62
(dp1036
g70
I4
ssg71
g1030
sg64
(lp1037
g100
asbasbasbag57
(g73
g59
NtRp1038
(dp1039
g62
(dp1040
sg71
g637
sg64
(lp1041
g57
(g78
g59
NtRp1042
(dp1043
g62
(dp1044
g82
g83
ssg71
g1038
sg64
(lp1045
S'path_info'
p1046
asbag57
(g78
g59
NtRp1047
(dp1048
g62
(dp1049
g89
g90
ssg71
g1038
sg64
(lp1050
S':'
asbag57
(g78
g59
NtRp1051
(dp1052
g62
(dp1053
sg71
g1038
sg64
(lp1054
g57
(g58
g59
NtRp1055
(dp1056
g62
(dp1057
g70
I4
ssg71
g1051
sg64
(lp1058
S'/init/default/join.html'
p1059
asbasbasbag57
(g73
g59
NtRp1060
(dp1061
g62
(dp1062
sg71
g637
sg64
(lp1063
g57
(g78
g59
NtRp1064
(dp1065
g62
(dp1066
g82
g83
ssg71
g1060
sg64
(lp1067
S'query_string'
p1068
asbag57
(g78
g59
NtRp1069
(dp1070
g62
(dp1071
g89
g90
ssg71
g1060
sg64
(lp1072
S':'
asbag57
(g78
g59
NtRp1073
(dp1074
g62
(dp1075
sg71
g1060
sg64
(lp1076
g57
(g58
g59
NtRp1077
(dp1078
g62
(dp1079
g70
I4
ssg71
g1073
sg64
(lp1080
S''
asbasbasbag57
(g73
g59
NtRp1081
(dp1082
g62
(dp1083
sg71
g637
sg64
(lp1084
g57
(g78
g59
NtRp1085
(dp1086
g62
(dp1087
g82
g83
ssg71
g1081
sg64
(lp1088
S'remote_addr'
p1089
asbag57
(g78
g59
NtRp1090
(dp1091
g62
(dp1092
g89
g90
ssg71
g1081
sg64
(lp1093
S':'
asbag57
(g78
g59
NtRp1094
(dp1095
g62
(dp1096
sg71
g1081
sg64
(lp1097
g57
(g58
g59
NtRp1098
(dp1099
g62
(dp1100
g70
I4
ssg71
g1094
sg64
(lp1101
g190
asbasbasbag57
(g73
g59
NtRp1102
(dp1103
g62
(dp1104
sg71
g637
sg64
(lp1105
g57
(g78
g59
NtRp1106
(dp1107
g62
(dp1108
g82
g83
ssg71
g1102
sg64
(lp1109
S'remote_port'
p1110
asbag57
(g78
g59
NtRp1111
(dp1112
g62
(dp1113
g89
g90
ssg71
g1102
sg64
(lp1114
S':'
asbag57
(g78
g59
NtRp1115
(dp1116
g62
(dp1117
sg71
g1102
sg64
(lp1118
g57
(g58
g59
NtRp1119
(dp1120
g62
(dp1121
g70
I4
ssg71
g1115
sg64
(lp1122
S'64455'
p1123
asbasbasbag57
(g73
g59
NtRp1124
(dp1125
g62
(dp1126
sg71
g637
sg64
(lp1127
g57
(g78
g59
NtRp1128
(dp1129
g62
(dp1130
g82
g83
ssg71
g1124
sg64
(lp1131
S'request_method'
p1132
asbag57
(g78
g59
NtRp1133
(dp1134
g62
(dp1135
g89
g90
ssg71
g1124
sg64
(lp1136
S':'
asbag57
(g78
g59
NtRp1137
(dp1138
g62
(dp1139
sg71
g1124
sg64
(lp1140
g57
(g58
g59
NtRp1141
(dp1142
g62
(dp1143
g70
I4
ssg71
g1137
sg64
(lp1144
S'GET'
p1145
asbasbasbag57
(g73
g59
NtRp1146
(dp1147
g62
(dp1148
sg71
g637
sg64
(lp1149
g57
(g78
g59
NtRp1150
(dp1151
g62
(dp1152
g82
g83
ssg71
g1146
sg64
(lp1153
S'script_name'
p1154
asbag57
(g78
g59
NtRp1155
(dp1156
g62
(dp1157
g89
g90
ssg71
g1146
sg64
(lp1158
S':'
asbag57
(g78
g59
NtRp1159
(dp1160
g62
(dp1161
sg71
g1146
sg64
(lp1162
g57
(g58
g59
NtRp1163
(dp1164
g62
(dp1165
g70
I4
ssg71
g1159
sg64
(lp1166
S''
asbasbasbag57
(g73
g59
NtRp1167
(dp1168
g62
(dp1169
sg71
g637
sg64
(lp1170
g57
(g78
g59
NtRp1171
(dp1172
g62
(dp1173
g82
g83
ssg71
g1167
sg64
(lp1174
S'server_name'
p1175
asbag57
(g78
g59
NtRp1176
(dp1177
g62
(dp1178
g89
g90
ssg71
g1167
sg64
(lp1179
S':'
asbag57
(g78
g59
NtRp1180
(dp1181
g62
(dp1182
sg71
g1167
sg64
(lp1183
g57
(g58
g59
NtRp1184
(dp1185
g62
(dp1186
g70
I4
ssg71
g1180
sg64
(lp1187
S'Bishop-PC'
p1188
asbasbasbag57
(g73
g59
NtRp1189
(dp1190
g62
(dp1191
sg71
g637
sg64
(lp1192
g57
(g78
g59
NtRp1193
(dp1194
g62
(dp1195
g82
g83
ssg71
g1189
sg64
(lp1196
S'server_port'
p1197
asbag57
(g78
g59
NtRp1198
(dp1199
g62
(dp1200
g89
g90
ssg71
g1189
sg64
(lp1201
S':'
asbag57
(g78
g59
NtRp1202
(dp1203
g62
(dp1204
sg71
g1189
sg64
(lp1205
g57
(g58
g59
NtRp1206
(dp1207
g62
(dp1208
g70
I4
ssg71
g1202
sg64
(lp1209
S'8000'
p1210
asbasbasbag57
(g73
g59
NtRp1211
(dp1212
g62
(dp1213
sg71
g637
sg64
(lp1214
g57
(g78
g59
NtRp1215
(dp1216
g62
(dp1217
g82
g83
ssg71
g1211
sg64
(lp1218
S'server_protocol'
p1219
asbag57
(g78
g59
NtRp1220
(dp1221
g62
(dp1222
g89
g90
ssg71
g1211
sg64
(lp1223
S':'
asbag57
(g78
g59
NtRp1224
(dp1225
g62
(dp1226
sg71
g1211
sg64
(lp1227
g57
(g58
g59
NtRp1228
(dp1229
g62
(dp1230
g70
I4
ssg71
g1224
sg64
(lp1231
S'HTTP/1.1'
p1232
asbasbasbag57
(g73
g59
NtRp1233
(dp1234
g62
(dp1235
sg71
g637
sg64
(lp1236
g57
(g78
g59
NtRp1237
(dp1238
g62
(dp1239
g82
g83
ssg71
g1233
sg64
(lp1240
S'server_software'
p1241
asbag57
(g78
g59
NtRp1242
(dp1243
g62
(dp1244
g89
g90
ssg71
g1233
sg64
(lp1245
S':'
asbag57
(g78
g59
NtRp1246
(dp1247
g62
(dp1248
sg71
g1233
sg64
(lp1249
g57
(g58
g59
NtRp1250
(dp1251
g62
(dp1252
g70
I4
ssg71
g1246
sg64
(lp1253
S'Rocket 1.2.4'
p1254
asbasbasbag57
(g73
g59
NtRp1255
(dp1256
g62
(dp1257
sg71
g637
sg64
(lp1258
g57
(g78
g59
NtRp1259
(dp1260
g62
(dp1261
g82
g83
ssg71
g1255
sg64
(lp1262
S'web2py_crontype'
p1263
asbag57
(g78
g59
NtRp1264
(dp1265
g62
(dp1266
g89
g90
ssg71
g1255
sg64
(lp1267
S':'
asbag57
(g78
g59
NtRp1268
(dp1269
g62
(dp1270
sg71
g1255
sg64
(lp1271
g57
(g58
g59
NtRp1272
(dp1273
g62
(dp1274
g70
I4
ssg71
g1268
sg64
(lp1275
S'hard'
p1276
asbasbasbag57
(g73
g59
NtRp1277
(dp1278
g62
(dp1279
sg71
g637
sg64
(lp1280
g57
(g78
g59
NtRp1281
(dp1282
g62
(dp1283
g82
g83
ssg71
g1277
sg64
(lp1284
S'web2py_path'
p1285
asbag57
(g78
g59
NtRp1286
(dp1287
g62
(dp1288
g89
g90
ssg71
g1277
sg64
(lp1289
S':'
asbag57
(g78
g59
NtRp1290
(dp1291
g62
(dp1292
sg71
g1277
sg64
(lp1293
g57
(g58
g59
NtRp1294
(dp1295
g62
(dp1296
g70
I4
ssg71
g1290
sg64
(lp1297
g684
asbasbasbag57
(g73
g59
NtRp1298
(dp1299
g62
(dp1300
sg71
g637
sg64
(lp1301
g57
(g78
g59
NtRp1302
(dp1303
g62
(dp1304
g82
g83
ssg71
g1298
sg64
(lp1305
S'web2py_version'
p1306
asbag57
(g78
g59
NtRp1307
(dp1308
g62
(dp1309
g89
g90
ssg71
g1298
sg64
(lp1310
S':'
asbag57
(g78
g59
NtRp1311
(dp1312
g62
(dp1313
sg71
g1298
sg64
(lp1314
g57
(g58
g59
NtRp1315
(dp1316
g62
(dp1317
g70
I4
ssg71
g1311
sg64
(lp1318
g57
(g66
g59
NtRp1319
(dp1320
g62
(dp1321
g70
I3
ssg71
Nsg64
(lp1322
g57
(g73
g59
NtRp1323
(dp1324
g62
(dp1325
sg71
g1319
sg64
(lp1326
g57
(g78
g59
NtRp1327
(dp1328
g62
(dp1329
sg71
g1323
sg64
(lp1330
g57
(g58
g59
NtRp1331
(dp1332
g62
(dp1333
g70
I3
ssg71
g1327
sg64
(lp1334
S'1'
asbasbasbag57
(g73
g59
NtRp1335
(dp1336
g62
(dp1337
sg71
g1319
sg64
(lp1338
g57
(g78
g59
NtRp1339
(dp1340
g62
(dp1341
sg71
g1335
sg64
(lp1342
g57
(g58
g59
NtRp1343
(dp1344
g62
(dp1345
g70
I3
ssg71
g1339
sg64
(lp1346
S'99'
p1347
asbasbasbag57
(g73
g59
NtRp1348
(dp1349
g62
(dp1350
sg71
g1319
sg64
(lp1351
g57
(g78
g59
NtRp1352
(dp1353
g62
(dp1354
sg71
g1348
sg64
(lp1355
g57
(g58
g59
NtRp1356
(dp1357
g62
(dp1358
g70
I3
ssg71
g1352
sg64
(lp1359
S'3'
asbasbasbag57
(g73
g59
NtRp1360
(dp1361
g62
(dp1362
sg71
g1319
sg64
(lp1363
g57
(g78
g59
NtRp1364
(dp1365
g62
(dp1366
sg71
g1360
sg64
(lp1367
g57
(g58
g59
NtRp1368
(dp1369
g62
(dp1370
g70
I3
ssg71
g1364
sg64
(lp1371
S'datetime.datetime(2011, 11, 1, 8, 28, 28)'
p1372
asbasbasbag57
(g73
g59
NtRp1373
(dp1374
g62
(dp1375
sg71
g1319
sg64
(lp1376
g57
(g78
g59
NtRp1377
(dp1378
g62
(dp1379
sg71
g1373
sg64
(lp1380
g57
(g58
g59
NtRp1381
(dp1382
g62
(dp1383
g70
I3
ssg71
g1377
sg64
(lp1384
S'dev'
p1385
asbasbasbasbasbasbasbag57
(g73
g59
NtRp1386
(dp1387
g62
(dp1388
sg71
g637
sg64
(lp1389
g57
(g78
g59
NtRp1390
(dp1391
g62
(dp1392
g82
g83
ssg71
g1386
sg64
(lp1393
S'wsgi_errors'
p1394
asbag57
(g78
g59
NtRp1395
(dp1396
g62
(dp1397
g89
g90
ssg71
g1386
sg64
(lp1398
S':'
asbag57
(g78
g59
NtRp1399
(dp1400
g62
(dp1401
sg71
g1386
sg64
(lp1402
g57
(g58
g59
NtRp1403
(dp1404
g62
(dp1405
g70
I4
ssg71
g1399
sg64
(lp1406
S"<open file '<stderr>', mode 'w' at 0x004950D0>"
p1407
asbasbasbag57
(g73
g59
NtRp1408
(dp1409
g62
(dp1410
sg71
g637
sg64
(lp1411
g57
(g78
g59
NtRp1412
(dp1413
g62
(dp1414
g82
g83
ssg71
g1408
sg64
(lp1415
S'wsgi_file_wrapper'
p1416
asbag57
(g78
g59
NtRp1417
(dp1418
g62
(dp1419
g89
g90
ssg71
g1408
sg64
(lp1420
S':'
asbag57
(g78
g59
NtRp1421
(dp1422
g62
(dp1423
sg71
g1408
sg64
(lp1424
g57
(g58
g59
NtRp1425
(dp1426
g62
(dp1427
g70
I4
ssg71
g1421
sg64
(lp1428
S'<class wsgiref.util.FileWrapper at 0x034A8B20>'
p1429
asbasbasbag57
(g73
g59
NtRp1430
(dp1431
g62
(dp1432
sg71
g637
sg64
(lp1433
g57
(g78
g59
NtRp1434
(dp1435
g62
(dp1436
g82
g83
ssg71
g1430
sg64
(lp1437
S'wsgi_input'
p1438
asbag57
(g78
g59
NtRp1439
(dp1440
g62
(dp1441
g89
g90
ssg71
g1430
sg64
(lp1442
S':'
asbag57
(g78
g59
NtRp1443
(dp1444
g62
(dp1445
sg71
g1430
sg64
(lp1446
g57
(g58
g59
NtRp1447
(dp1448
g62
(dp1449
g70
I4
ssg71
g1443
sg64
(lp1450
S'<socket._fileobject object at 0x039132B0>'
p1451
asbasbasbag57
(g73
g59
NtRp1452
(dp1453
g62
(dp1454
sg71
g637
sg64
(lp1455
g57
(g78
g59
NtRp1456
(dp1457
g62
(dp1458
g82
g83
ssg71
g1452
sg64
(lp1459
S'wsgi_multiprocess'
p1460
asbag57
(g78
g59
NtRp1461
(dp1462
g62
(dp1463
g89
g90
ssg71
g1452
sg64
(lp1464
S':'
asbag57
(g78
g59
NtRp1465
(dp1466
g62
(dp1467
sg71
g1452
sg64
(lp1468
g57
(g58
g59
NtRp1469
(dp1470
g62
(dp1471
g70
I4
ssg71
g1465
sg64
(lp1472
g100
asbasbasbag57
(g73
g59
NtRp1473
(dp1474
g62
(dp1475
sg71
g637
sg64
(lp1476
g57
(g78
g59
NtRp1477
(dp1478
g62
(dp1479
g82
g83
ssg71
g1473
sg64
(lp1480
S'wsgi_multithread'
p1481
asbag57
(g78
g59
NtRp1482
(dp1483
g62
(dp1484
g89
g90
ssg71
g1473
sg64
(lp1485
S':'
asbag57
(g78
g59
NtRp1486
(dp1487
g62
(dp1488
sg71
g1473
sg64
(lp1489
g57
(g58
g59
NtRp1490
(dp1491
g62
(dp1492
g70
I4
ssg71
g1486
sg64
(lp1493
S'True'
p1494
asbasbasbag57
(g73
g59
NtRp1495
(dp1496
g62
(dp1497
sg71
g637
sg64
(lp1498
g57
(g78
g59
NtRp1499
(dp1500
g62
(dp1501
g82
g83
ssg71
g1495
sg64
(lp1502
S'wsgi_run_once'
p1503
asbag57
(g78
g59
NtRp1504
(dp1505
g62
(dp1506
g89
g90
ssg71
g1495
sg64
(lp1507
S':'
asbag57
(g78
g59
NtRp1508
(dp1509
g62
(dp1510
sg71
g1495
sg64
(lp1511
g57
(g58
g59
NtRp1512
(dp1513
g62
(dp1514
g70
I4
ssg71
g1508
sg64
(lp1515
g100
asbasbasbag57
(g73
g59
NtRp1516
(dp1517
g62
(dp1518
sg71
g637
sg64
(lp1519
g57
(g78
g59
NtRp1520
(dp1521
g62
(dp1522
g82
g83
ssg71
g1516
sg64
(lp1523
S'wsgi_url_scheme'
p1524
asbag57
(g78
g59
NtRp1525
(dp1526
g62
(dp1527
g89
g90
ssg71
g1516
sg64
(lp1528
S':'
asbag57
(g78
g59
NtRp1529
(dp1530
g62
(dp1531
sg71
g1516
sg64
(lp1532
g57
(g58
g59
NtRp1533
(dp1534
g62
(dp1535
g70
I4
ssg71
g1529
sg64
(lp1536
S'http'
p1537
asbasbasbag57
(g73
g59
NtRp1538
(dp1539
g62
(dp1540
sg71
g637
sg64
(lp1541
g57
(g78
g59
NtRp1542
(dp1543
g62
(dp1544
g82
g83
ssg71
g1538
sg64
(lp1545
S'wsgi_version'
p1546
asbag57
(g78
g59
NtRp1547
(dp1548
g62
(dp1549
g89
g90
ssg71
g1538
sg64
(lp1550
S':'
asbag57
(g78
g59
NtRp1551
(dp1552
g62
(dp1553
sg71
g1538
sg64
(lp1554
g57
(g58
g59
NtRp1555
(dp1556
g62
(dp1557
g70
I4
ssg71
g1551
sg64
(lp1558
g57
(g66
g59
NtRp1559
(dp1560
g62
(dp1561
g70
I3
ssg71
Nsg64
(lp1562
g57
(g73
g59
NtRp1563
(dp1564
g62
(dp1565
sg71
g1559
sg64
(lp1566
g57
(g78
g59
NtRp1567
(dp1568
g62
(dp1569
sg71
g1563
sg64
(lp1570
g57
(g58
g59
NtRp1571
(dp1572
g62
(dp1573
g70
I3
ssg71
g1567
sg64
(lp1574
S'1'
asbasbasbag57
(g73
g59
NtRp1575
(dp1576
g62
(dp1577
sg71
g1559
sg64
(lp1578
g57
(g78
g59
NtRp1579
(dp1580
g62
(dp1581
sg71
g1575
sg64
(lp1582
g57
(g58
g59
NtRp1583
(dp1584
g62
(dp1585
g70
I3
ssg71
g1579
sg64
(lp1586
S'0'
asbasbasbasbasbasbasbasbasbasbasbag57
(g73
g59
NtRp1587
(dp1588
g62
(dp1589
sg71
g67
sg64
(lp1590
g57
(g78
g59
NtRp1591
(dp1592
g62
(dp1593
g82
g83
ssg71
g1587
sg64
(lp1594
S'extension'
p1595
asbag57
(g78
g59
NtRp1596
(dp1597
g62
(dp1598
g89
g90
ssg71
g1587
sg64
(lp1599
S':'
asbag57
(g78
g59
NtRp1600
(dp1601
g62
(dp1602
sg71
g1587
sg64
(lp1603
g57
(g58
g59
NtRp1604
(dp1605
g62
(dp1606
g70
I5
ssg71
g1600
sg64
(lp1607
S'html'
p1608
asbasbasbag57
(g73
g59
NtRp1609
(dp1610
g62
(dp1611
sg71
g67
sg64
(lp1612
g57
(g78
g59
NtRp1613
(dp1614
g62
(dp1615
g82
g83
ssg71
g1609
sg64
(lp1616
S'folder'
p1617
asbag57
(g78
g59
NtRp1618
(dp1619
g62
(dp1620
g89
g90
ssg71
g1609
sg64
(lp1621
S':'
asbag57
(g78
g59
NtRp1622
(dp1623
g62
(dp1624
sg71
g1609
sg64
(lp1625
g57
(g58
g59
NtRp1626
(dp1627
g62
(dp1628
g70
I5
ssg71
g1622
sg64
(lp1629
S'P:\\School\\DePaul\\Projects\\CSC_438\\web2py\\applications\\init\\'
p1630
asbasbasbag57
(g73
g59
NtRp1631
(dp1632
g62
(dp1633
sg71
g67
sg64
(lp1634
g57
(g78
g59
NtRp1635
(dp1636
g62
(dp1637
g82
g83
ssg71
g1631
sg64
(lp1638
S'function'
p1639
asbag57
(g78
g59
NtRp1640
(dp1641
g62
(dp1642
g89
g90
ssg71
g1631
sg64
(lp1643
S':'
asbag57
(g78
g59
NtRp1644
(dp1645
g62
(dp1646
sg71
g1631
sg64
(lp1647
g57
(g58
g59
NtRp1648
(dp1649
g62
(dp1650
g70
I5
ssg71
g1644
sg64
(lp1651
S'join'
p1652
asbasbasbag57
(g73
g59
NtRp1653
(dp1654
g62
(dp1655
sg71
g67
sg64
(lp1656
g57
(g78
g59
NtRp1657
(dp1658
g62
(dp1659
g82
g83
ssg71
g1653
sg64
(lp1660
S'get_vars'
p1661
asbag57
(g78
g59
NtRp1662
(dp1663
g62
(dp1664
g89
g90
ssg71
g1653
sg64
(lp1665
S':'
asbag57
(g78
g59
NtRp1666
(dp1667
g62
(dp1668
sg71
g1653
sg64
(lp1669
g57
(g58
g59
NtRp1670
(dp1671
g62
(dp1672
g70
I5
ssg71
g1666
sg64
(lp1673
g57
(g66
g59
NtRp1674
(dp1675
g62
(dp1676
g70
I4
ssg71
Nsg64
(lp1677
sbasbasbasbag57
(g73
g59
NtRp1678
(dp1679
g62
(dp1680
sg71
g67
sg64
(lp1681
g57
(g78
g59
NtRp1682
(dp1683
g62
(dp1684
g82
g83
ssg71
g1678
sg64
(lp1685
S'global_settings'
p1686
asbag57
(g78
g59
NtRp1687
(dp1688
g62
(dp1689
g89
g90
ssg71
g1678
sg64
(lp1690
S':'
asbag57
(g78
g59
NtRp1691
(dp1692
g62
(dp1693
sg71
g1678
sg64
(lp1694
g57
(g58
g59
NtRp1695
(dp1696
g62
(dp1697
g70
I5
ssg71
g1691
sg64
(lp1698
g57
(g66
g59
NtRp1699
(dp1700
g62
(dp1701
g70
I4
ssg71
Nsg64
(lp1702
g57
(g73
g59
NtRp1703
(dp1704
g62
(dp1705
sg71
g1699
sg64
(lp1706
g57
(g78
g59
NtRp1707
(dp1708
g62
(dp1709
g82
g83
ssg71
g1703
sg64
(lp1710
g649
asbag57
(g78
g59
NtRp1711
(dp1712
g62
(dp1713
g89
g90
ssg71
g1703
sg64
(lp1714
S':'
asbag57
(g78
g59
NtRp1715
(dp1716
g62
(dp1717
sg71
g1703
sg64
(lp1718
g57
(g58
g59
NtRp1719
(dp1720
g62
(dp1721
g70
I4
ssg71
g1715
sg64
(lp1722
S"set(['P:\\\\School\\\\DePaul\\\\Projects\\\\CSC_438\\\\web2py\\\\applications\\\\init\\\\'])"
p1723
asbasbasbag57
(g73
g59
NtRp1724
(dp1725
g62
(dp1726
sg71
g1699
sg64
(lp1727
g57
(g78
g59
NtRp1728
(dp1729
g62
(dp1730
g82
g83
ssg71
g1724
sg64
(lp1731
g671
asbag57
(g78
g59
NtRp1732
(dp1733
g62
(dp1734
g89
g90
ssg71
g1724
sg64
(lp1735
S':'
asbag57
(g78
g59
NtRp1736
(dp1737
g62
(dp1738
sg71
g1724
sg64
(lp1739
g57
(g58
g59
NtRp1740
(dp1741
g62
(dp1742
g70
I4
ssg71
g1736
sg64
(lp1743
g684
asbasbasbag57
(g73
g59
NtRp1744
(dp1745
g62
(dp1746
sg71
g1699
sg64
(lp1747
g57
(g78
g59
NtRp1748
(dp1749
g62
(dp1750
g82
g83
ssg71
g1744
sg64
(lp1751
g693
asbag57
(g78
g59
NtRp1752
(dp1753
g62
(dp1754
g89
g90
ssg71
g1744
sg64
(lp1755
S':'
asbag57
(g78
g59
NtRp1756
(dp1757
g62
(dp1758
sg71
g1744
sg64
(lp1759
g57
(g58
g59
NtRp1760
(dp1761
g62
(dp1762
g70
I4
ssg71
g1756
sg64
(lp1763
g57
(g66
g59
NtRp1764
(dp1765
g62
(dp1766
g70
I3
ssg71
Nsg64
(lp1767
sbasbasbasbag57
(g73
g59
NtRp1768
(dp1769
g62
(dp1770
sg71
g1699
sg64
(lp1771
g57
(g78
g59
NtRp1772
(dp1773
g62
(dp1774
g82
g83
ssg71
g1768
sg64
(lp1775
g718
asbag57
(g78
g59
NtRp1776
(dp1777
g62
(dp1778
g89
g90
ssg71
g1768
sg64
(lp1779
S':'
asbag57
(g78
g59
NtRp1780
(dp1781
g62
(dp1782
sg71
g1768
sg64
(lp1783
g57
(g58
g59
NtRp1784
(dp1785
g62
(dp1786
g70
I4
ssg71
g1780
sg64
(lp1787
S"<Values at 0x35b1ee0: {'verbose': False, 'ip': '127.0.0.1', 'shutdown_timeout': 5, 'taskbar': False, 'nocron': False, 'pid_filename': 'httpserver.pid', 'maxthreads': None, 'softcron': False, 'server_name': 'Bishop-PC', 'bpython': False, 'nogui': False, 'port': 8000, 'extcron': False, 'debuglevel': 30, 'test': None, 'folder': 'P:\\\\School\\\\DePaul\\\\Projects\\\\CSC_438\\\\web2py', 'config': '', 'import_models': False, 'winservice': '', 'shell': None, 'run': '', 'log_filename': 'httpserver.log', 'args': [''], 'ssl_ca_certificate': None, 'scheduler': None, 'profiler_filename': None, 'ssl_private_key': '', 'password': '<ask>', 'request_queue_size': 5, 'ssl_certificate': '', 'cronjob': False, 'plain': False, 'quiet': False, 'interfaces': None, 'minthreads': None, 'timeout': 10, 'numthreads': None, 'nobanner': False}>"
p1788
asbasbasbag57
(g73
g59
NtRp1789
(dp1790
g62
(dp1791
sg71
g1699
sg64
(lp1792
g57
(g78
g59
NtRp1793
(dp1794
g62
(dp1795
g82
g83
ssg71
g1789
sg64
(lp1796
g740
asbag57
(g78
g59
NtRp1797
(dp1798
g62
(dp1799
g89
g90
ssg71
g1789
sg64
(lp1800
S':'
asbag57
(g78
g59
NtRp1801
(dp1802
g62
(dp1803
sg71
g1789
sg64
(lp1804
g57
(g58
g59
NtRp1805
(dp1806
g62
(dp1807
g70
I4
ssg71
g1801
sg64
(lp1808
S'set([])'
p1809
asbasbasbag57
(g73
g59
NtRp1810
(dp1811
g62
(dp1812
sg71
g1699
sg64
(lp1813
g57
(g78
g59
NtRp1814
(dp1815
g62
(dp1816
g82
g83
ssg71
g1810
sg64
(lp1817
g762
asbag57
(g78
g59
NtRp1818
(dp1819
g62
(dp1820
g89
g90
ssg71
g1810
sg64
(lp1821
S':'
asbag57
(g78
g59
NtRp1822
(dp1823
g62
(dp1824
sg71
g1810
sg64
(lp1825
g57
(g58
g59
NtRp1826
(dp1827
g62
(dp1828
g70
I4
ssg71
g1822
sg64
(lp1829
g100
asbasbasbag57
(g73
g59
NtRp1830
(dp1831
g62
(dp1832
sg71
g1699
sg64
(lp1833
g57
(g78
g59
NtRp1834
(dp1835
g62
(dp1836
g82
g83
ssg71
g1830
sg64
(lp1837
g783
asbag57
(g78
g59
NtRp1838
(dp1839
g62
(dp1840
g89
g90
ssg71
g1830
sg64
(lp1841
S':'
asbag57
(g78
g59
NtRp1842
(dp1843
g62
(dp1844
sg71
g1830
sg64
(lp1845
g57
(g58
g59
NtRp1846
(dp1847
g62
(dp1848
g70
I4
ssg71
g1842
sg64
(lp1849
g796
asbasbasbag57
(g73
g59
NtRp1850
(dp1851
g62
(dp1852
sg71
g1699
sg64
(lp1853
g57
(g78
g59
NtRp1854
(dp1855
g62
(dp1856
g82
g83
ssg71
g1850
sg64
(lp1857
g1025
asbag57
(g78
g59
NtRp1858
(dp1859
g62
(dp1860
g89
g90
ssg71
g1850
sg64
(lp1861
S':'
asbag57
(g78
g59
NtRp1862
(dp1863
g62
(dp1864
sg71
g1850
sg64
(lp1865
g57
(g58
g59
NtRp1866
(dp1867
g62
(dp1868
g70
I4
ssg71
g1862
sg64
(lp1869
g100
asbasbasbag57
(g73
g59
NtRp1870
(dp1871
g62
(dp1872
sg71
g1699
sg64
(lp1873
g57
(g78
g59
NtRp1874
(dp1875
g62
(dp1876
g82
g83
ssg71
g1870
sg64
(lp1877
g1263
asbag57
(g78
g59
NtRp1878
(dp1879
g62
(dp1880
g89
g90
ssg71
g1870
sg64
(lp1881
S':'
asbag57
(g78
g59
NtRp1882
(dp1883
g62
(dp1884
sg71
g1870
sg64
(lp1885
g57
(g58
g59
NtRp1886
(dp1887
g62
(dp1888
g70
I4
ssg71
g1882
sg64
(lp1889
g1276
asbasbasbag57
(g73
g59
NtRp1890
(dp1891
g62
(dp1892
sg71
g1699
sg64
(lp1893
g57
(g78
g59
NtRp1894
(dp1895
g62
(dp1896
g82
g83
ssg71
g1890
sg64
(lp1897
g1306
asbag57
(g78
g59
NtRp1898
(dp1899
g62
(dp1900
g89
g90
ssg71
g1890
sg64
(lp1901
S':'
asbag57
(g78
g59
NtRp1902
(dp1903
g62
(dp1904
sg71
g1890
sg64
(lp1905
g57
(g58
g59
NtRp1906
(dp1907
g62
(dp1908
g70
I4
ssg71
g1902
sg64
(lp1909
g57
(g66
g59
NtRp1910
(dp1911
g62
(dp1912
g70
I3
ssg71
Nsg64
(lp1913
g57
(g73
g59
NtRp1914
(dp1915
g62
(dp1916
sg71
g1910
sg64
(lp1917
g57
(g78
g59
NtRp1918
(dp1919
g62
(dp1920
sg71
g1914
sg64
(lp1921
g57
(g58
g59
NtRp1922
(dp1923
g62
(dp1924
g70
I3
ssg71
g1918
sg64
(lp1925
S'1'
asbasbasbag57
(g73
g59
NtRp1926
(dp1927
g62
(dp1928
sg71
g1910
sg64
(lp1929
g57
(g78
g59
NtRp1930
(dp1931
g62
(dp1932
sg71
g1926
sg64
(lp1933
g57
(g58
g59
NtRp1934
(dp1935
g62
(dp1936
g70
I3
ssg71
g1930
sg64
(lp1937
S'99'
p1938
asbasbasbag57
(g73
g59
NtRp1939
(dp1940
g62
(dp1941
sg71
g1910
sg64
(lp1942
g57
(g78
g59
NtRp1943
(dp1944
g62
(dp1945
sg71
g1939
sg64
(lp1946
g57
(g58
g59
NtRp1947
(dp1948
g62
(dp1949
g70
I3
ssg71
g1943
sg64
(lp1950
S'3'
asbasbasbag57
(g73
g59
NtRp1951
(dp1952
g62
(dp1953
sg71
g1910
sg64
(lp1954
g57
(g78
g59
NtRp1955
(dp1956
g62
(dp1957
sg71
g1951
sg64
(lp1958
g57
(g58
g59
NtRp1959
(dp1960
g62
(dp1961
g70
I3
ssg71
g1955
sg64
(lp1962
S'datetime.datetime(2011, 11, 1, 8, 28, 28)'
p1963
asbasbasbag57
(g73
g59
NtRp1964
(dp1965
g62
(dp1966
sg71
g1910
sg64
(lp1967
g57
(g78
g59
NtRp1968
(dp1969
g62
(dp1970
sg71
g1964
sg64
(lp1971
g57
(g58
g59
NtRp1972
(dp1973
g62
(dp1974
g70
I3
ssg71
g1968
sg64
(lp1975
g1385
asbasbasbasbasbasbasbasbasbasbasbag57
(g73
g59
NtRp1976
(dp1977
g62
(dp1978
sg71
g67
sg64
(lp1979
g57
(g78
g59
NtRp1980
(dp1981
g62
(dp1982
g82
g83
ssg71
g1976
sg64
(lp1983
S'is_https'
p1984
asbag57
(g78
g59
NtRp1985
(dp1986
g62
(dp1987
g89
g90
ssg71
g1976
sg64
(lp1988
S':'
asbag57
(g78
g59
NtRp1989
(dp1990
g62
(dp1991
sg71
g1976
sg64
(lp1992
g57
(g58
g59
NtRp1993
(dp1994
g62
(dp1995
g70
I5
ssg71
g1989
sg64
(lp1996
g100
asbasbasbag57
(g73
g59
NtRp1997
(dp1998
g62
(dp1999
sg71
g67
sg64
(lp2000
g57
(g78
g59
NtRp2001
(dp2002
g62
(dp2003
g82
g83
ssg71
g1997
sg64
(lp2004
S'is_local'
p2005
asbag57
(g78
g59
NtRp2006
(dp2007
g62
(dp2008
g89
g90
ssg71
g1997
sg64
(lp2009
S':'
asbag57
(g78
g59
NtRp2010
(dp2011
g62
(dp2012
sg71
g1997
sg64
(lp2013
g57
(g58
g59
NtRp2014
(dp2015
g62
(dp2016
g70
I5
ssg71
g2010
sg64
(lp2017
g1494
asbasbasbag57
(g73
g59
NtRp2018
(dp2019
g62
(dp2020
sg71
g67
sg64
(lp2021
g57
(g78
g59
NtRp2022
(dp2023
g62
(dp2024
g82
g83
ssg71
g2018
sg64
(lp2025
S'is_restful'
p2026
asbag57
(g78
g59
NtRp2027
(dp2028
g62
(dp2029
g89
g90
ssg71
g2018
sg64
(lp2030
S':'
asbag57
(g78
g59
NtRp2031
(dp2032
g62
(dp2033
sg71
g2018
sg64
(lp2034
g57
(g58
g59
NtRp2035
(dp2036
g62
(dp2037
g70
I5
ssg71
g2031
sg64
(lp2038
g100
asbasbasbag57
(g73
g59
NtRp2039
(dp2040
g62
(dp2041
sg71
g67
sg64
(lp2042
g57
(g78
g59
NtRp2043
(dp2044
g62
(dp2045
g82
g83
ssg71
g2039
sg64
(lp2046
S'now'
p2047
asbag57
(g78
g59
NtRp2048
(dp2049
g62
(dp2050
g89
g90
ssg71
g2039
sg64
(lp2051
S':'
asbag57
(g78
g59
NtRp2052
(dp2053
g62
(dp2054
sg71
g2039
sg64
(lp2055
g57
(g58
g59
NtRp2056
(dp2057
g62
(dp2058
g70
I5
ssg71
g2052
sg64
(lp2059
S'datetime.datetime(2011, 11, 19, 23, 0, 31, 309000)'
p2060
asbasbasbag57
(g73
g59
NtRp2061
(dp2062
g62
(dp2063
sg71
g67
sg64
(lp2064
g57
(g78
g59
NtRp2065
(dp2066
g62
(dp2067
g82
g83
ssg71
g2061
sg64
(lp2068
S'post_vars'
p2069
asbag57
(g78
g59
NtRp2070
(dp2071
g62
(dp2072
g89
g90
ssg71
g2061
sg64
(lp2073
S':'
asbag57
(g78
g59
NtRp2074
(dp2075
g62
(dp2076
sg71
g2061
sg64
(lp2077
g57
(g58
g59
NtRp2078
(dp2079
g62
(dp2080
g70
I5
ssg71
g2074
sg64
(lp2081
g57
(g66
g59
NtRp2082
(dp2083
g62
(dp2084
g70
I4
ssg71
Nsg64
(lp2085
sbasbasbasbag57
(g73
g59
NtRp2086
(dp2087
g62
(dp2088
sg71
g67
sg64
(lp2089
g57
(g78
g59
NtRp2090
(dp2091
g62
(dp2092
g82
g83
ssg71
g2086
sg64
(lp2093
S'raw_extension'
p2094
asbag57
(g78
g59
NtRp2095
(dp2096
g62
(dp2097
g89
g90
ssg71
g2086
sg64
(lp2098
S':'
asbag57
(g78
g59
NtRp2099
(dp2100
g62
(dp2101
sg71
g2086
sg64
(lp2102
g57
(g58
g59
NtRp2103
(dp2104
g62
(dp2105
g70
I5
ssg71
g2099
sg64
(lp2106
g1608
asbasbasbag57
(g73
g59
NtRp2107
(dp2108
g62
(dp2109
sg71
g67
sg64
(lp2110
g57
(g78
g59
NtRp2111
(dp2112
g62
(dp2113
g82
g83
ssg71
g2107
sg64
(lp2114
S'url'
p2115
asbag57
(g78
g59
NtRp2116
(dp2117
g62
(dp2118
g89
g90
ssg71
g2107
sg64
(lp2119
S':'
asbag57
(g78
g59
NtRp2120
(dp2121
g62
(dp2122
sg71
g2107
sg64
(lp2123
g57
(g58
g59
NtRp2124
(dp2125
g62
(dp2126
g70
I5
ssg71
g2120
sg64
(lp2127
S'/init/default/join.html'
p2128
asbasbasbag57
(g73
g59
NtRp2129
(dp2130
g62
(dp2131
sg71
g67
sg64
(lp2132
g57
(g78
g59
NtRp2133
(dp2134
g62
(dp2135
g82
g83
ssg71
g2129
sg64
(lp2136
S'utcnow'
p2137
asbag57
(g78
g59
NtRp2138
(dp2139
g62
(dp2140
g89
g90
ssg71
g2129
sg64
(lp2141
S':'
asbag57
(g78
g59
NtRp2142
(dp2143
g62
(dp2144
sg71
g2129
sg64
(lp2145
g57
(g58
g59
NtRp2146
(dp2147
g62
(dp2148
g70
I5
ssg71
g2142
sg64
(lp2149
S'datetime.datetime(2011, 11, 20, 4, 0, 31, 309000)'
p2150
asbasbasbag57
(g73
g59
NtRp2151
(dp2152
g62
(dp2153
sg71
g67
sg64
(lp2154
g57
(g78
g59
NtRp2155
(dp2156
g62
(dp2157
g82
g83
ssg71
g2151
sg64
(lp2158
S'uuid'
p2159
asbag57
(g78
g59
NtRp2160
(dp2161
g62
(dp2162
g89
g90
ssg71
g2151
sg64
(lp2163
S':'
asbag57
(g78
g59
NtRp2164
(dp2165
g62
(dp2166
sg71
g2151
sg64
(lp2167
g57
(g58
g59
NtRp2168
(dp2169
g62
(dp2170
g70
I5
ssg71
g2164
sg64
(lp2171
S'init/127.0.0.1.2011-11-19.23-00-31.c82fde28-73b4-4ec1-a7ff-159f17f6c7fe'
p2172
asbasbasbag57
(g73
g59
NtRp2173
(dp2174
g62
(dp2175
sg71
g67
sg64
(lp2176
g57
(g78
g59
NtRp2177
(dp2178
g62
(dp2179
g82
g83
ssg71
g2173
sg64
(lp2180
S'vars'
p2181
asbag57
(g78
g59
NtRp2182
(dp2183
g62
(dp2184
g89
g90
ssg71
g2173
sg64
(lp2185
S':'
asbag57
(g78
g59
NtRp2186
(dp2187
g62
(dp2188
sg71
g2173
sg64
(lp2189
g57
(g58
g59
NtRp2190
(dp2191
g62
(dp2192
g70
I5
ssg71
g2186
sg64
(lp2193
g57
(g66
g59
NtRp2194
(dp2195
g62
(dp2196
g70
I4
ssg71
Nsg64
(lp2197
sbasbasbasbag57
(g73
g59
NtRp2198
(dp2199
g62
(dp2200
sg71
g67
sg64
(lp2201
g57
(g78
g59
NtRp2202
(dp2203
g62
(dp2204
g82
g83
ssg71
g2198
sg64
(lp2205
S'wsgi'
p2206
asbag57
(g78
g59
NtRp2207
(dp2208
g62
(dp2209
g89
g90
ssg71
g2198
sg64
(lp2210
S':'
asbag57
(g78
g59
NtRp2211
(dp2212
g62
(dp2213
sg71
g2198
sg64
(lp2214
g57
(g58
g59
NtRp2215
(dp2216
g62
(dp2217
g70
I5
ssg71
g2211
sg64
(lp2218
g57
(g66
g59
NtRp2219
(dp2220
g62
(dp2221
g70
I4
ssg71
Nsg64
(lp2222
g57
(g73
g59
NtRp2223
(dp2224
g62
(dp2225
sg71
g2219
sg64
(lp2226
g57
(g78
g59
NtRp2227
(dp2228
g62
(dp2229
g82
g83
ssg71
g2223
sg64
(lp2230
S'environ'
p2231
asbag57
(g78
g59
NtRp2232
(dp2233
g62
(dp2234
g89
g90
ssg71
g2223
sg64
(lp2235
S':'
asbag57
(g78
g59
NtRp2236
(dp2237
g62
(dp2238
sg71
g2223
sg64
(lp2239
g57
(g58
g59
NtRp2240
(dp2241
g62
(dp2242
g70
I4
ssg71
g2236
sg64
(lp2243
g57
(g66
g59
NtRp2244
(dp2245
g62
(dp2246
g70
I3
ssg71
Nsg64
(lp2247
g57
(g73
g59
NtRp2248
(dp2249
g62
(dp2250
sg71
g2244
sg64
(lp2251
g57
(g78
g59
NtRp2252
(dp2253
g62
(dp2254
g82
g83
ssg71
g2248
sg64
(lp2255
S'HTTP_ACCEPT'
p2256
asbag57
(g78
g59
NtRp2257
(dp2258
g62
(dp2259
g89
g90
ssg71
g2248
sg64
(lp2260
S':'
asbag57
(g78
g59
NtRp2261
(dp2262
g62
(dp2263
sg71
g2248
sg64
(lp2264
g57
(g58
g59
NtRp2265
(dp2266
g62
(dp2267
g70
I3
ssg71
g2261
sg64
(lp2268
g818
asbasbasbag57
(g73
g59
NtRp2269
(dp2270
g62
(dp2271
sg71
g2244
sg64
(lp2272
g57
(g78
g59
NtRp2273
(dp2274
g62
(dp2275
g82
g83
ssg71
g2269
sg64
(lp2276
S'HTTP_ACCEPT_CHARSET'
p2277
asbag57
(g78
g59
NtRp2278
(dp2279
g62
(dp2280
g89
g90
ssg71
g2269
sg64
(lp2281
S':'
asbag57
(g78
g59
NtRp2282
(dp2283
g62
(dp2284
sg71
g2269
sg64
(lp2285
g57
(g58
g59
NtRp2286
(dp2287
g62
(dp2288
g70
I3
ssg71
g2282
sg64
(lp2289
g840
asbasbasbag57
(g73
g59
NtRp2290
(dp2291
g62
(dp2292
sg71
g2244
sg64
(lp2293
g57
(g78
g59
NtRp2294
(dp2295
g62
(dp2296
g82
g83
ssg71
g2290
sg64
(lp2297
S'HTTP_ACCEPT_ENCODING'
p2298
asbag57
(g78
g59
NtRp2299
(dp2300
g62
(dp2301
g89
g90
ssg71
g2290
sg64
(lp2302
S':'
asbag57
(g78
g59
NtRp2303
(dp2304
g62
(dp2305
sg71
g2290
sg64
(lp2306
g57
(g58
g59
NtRp2307
(dp2308
g62
(dp2309
g70
I3
ssg71
g2303
sg64
(lp2310
g862
asbasbasbag57
(g73
g59
NtRp2311
(dp2312
g62
(dp2313
sg71
g2244
sg64
(lp2314
g57
(g78
g59
NtRp2315
(dp2316
g62
(dp2317
g82
g83
ssg71
g2311
sg64
(lp2318
S'HTTP_ACCEPT_LANGUAGE'
p2319
asbag57
(g78
g59
NtRp2320
(dp2321
g62
(dp2322
g89
g90
ssg71
g2311
sg64
(lp2323
S':'
asbag57
(g78
g59
NtRp2324
(dp2325
g62
(dp2326
sg71
g2311
sg64
(lp2327
g57
(g58
g59
NtRp2328
(dp2329
g62
(dp2330
g70
I3
ssg71
g2324
sg64
(lp2331
g884
asbasbasbag57
(g73
g59
NtRp2332
(dp2333
g62
(dp2334
sg71
g2244
sg64
(lp2335
g57
(g78
g59
NtRp2336
(dp2337
g62
(dp2338
g82
g83
ssg71
g2332
sg64
(lp2339
S'HTTP_CONNECTION'
p2340
asbag57
(g78
g59
NtRp2341
(dp2342
g62
(dp2343
g89
g90
ssg71
g2332
sg64
(lp2344
S':'
asbag57
(g78
g59
NtRp2345
(dp2346
g62
(dp2347
sg71
g2332
sg64
(lp2348
g57
(g58
g59
NtRp2349
(dp2350
g62
(dp2351
g70
I3
ssg71
g2345
sg64
(lp2352
g906
asbasbasbag57
(g73
g59
NtRp2353
(dp2354
g62
(dp2355
sg71
g2244
sg64
(lp2356
g57
(g78
g59
NtRp2357
(dp2358
g62
(dp2359
g82
g83
ssg71
g2353
sg64
(lp2360
S'HTTP_COOKIE'
p2361
asbag57
(g78
g59
NtRp2362
(dp2363
g62
(dp2364
g89
g90
ssg71
g2353
sg64
(lp2365
S':'
asbag57
(g78
g59
NtRp2366
(dp2367
g62
(dp2368
sg71
g2353
sg64
(lp2369
g57
(g58
g59
NtRp2370
(dp2371
g62
(dp2372
g70
I3
ssg71
g2366
sg64
(lp2373
g928
asbasbasbag57
(g73
g59
NtRp2374
(dp2375
g62
(dp2376
sg71
g2244
sg64
(lp2377
g57
(g78
g59
NtRp2378
(dp2379
g62
(dp2380
g82
g83
ssg71
g2374
sg64
(lp2381
S'HTTP_HOST'
p2382
asbag57
(g78
g59
NtRp2383
(dp2384
g62
(dp2385
g89
g90
ssg71
g2374
sg64
(lp2386
S':'
asbag57
(g78
g59
NtRp2387
(dp2388
g62
(dp2389
sg71
g2374
sg64
(lp2390
g57
(g58
g59
NtRp2391
(dp2392
g62
(dp2393
g70
I3
ssg71
g2387
sg64
(lp2394
g950
asbasbasbag57
(g73
g59
NtRp2395
(dp2396
g62
(dp2397
sg71
g2244
sg64
(lp2398
g57
(g78
g59
NtRp2399
(dp2400
g62
(dp2401
g82
g83
ssg71
g2395
sg64
(lp2402
S'HTTP_KEEP_ALIVE'
p2403
asbag57
(g78
g59
NtRp2404
(dp2405
g62
(dp2406
g89
g90
ssg71
g2395
sg64
(lp2407
S':'
asbag57
(g78
g59
NtRp2408
(dp2409
g62
(dp2410
sg71
g2395
sg64
(lp2411
g57
(g58
g59
NtRp2412
(dp2413
g62
(dp2414
g70
I3
ssg71
g2408
sg64
(lp2415
g972
asbasbasbag57
(g73
g59
NtRp2416
(dp2417
g62
(dp2418
sg71
g2244
sg64
(lp2419
g57
(g78
g59
NtRp2420
(dp2421
g62
(dp2422
g82
g83
ssg71
g2416
sg64
(lp2423
S'HTTP_REFERER'
p2424
asbag57
(g78
g59
NtRp2425
(dp2426
g62
(dp2427
g89
g90
ssg71
g2416
sg64
(lp2428
S':'
asbag57
(g78
g59
NtRp2429
(dp2430
g62
(dp2431
sg71
g2416
sg64
(lp2432
g57
(g58
g59
NtRp2433
(dp2434
g62
(dp2435
g70
I3
ssg71
g2429
sg64
(lp2436
g994
asbasbasbag57
(g73
g59
NtRp2437
(dp2438
g62
(dp2439
sg71
g2244
sg64
(lp2440
g57
(g78
g59
NtRp2441
(dp2442
g62
(dp2443
g82
g83
ssg71
g2437
sg64
(lp2444
S'HTTP_USER_AGENT'
p2445
asbag57
(g78
g59
NtRp2446
(dp2447
g62
(dp2448
g89
g90
ssg71
g2437
sg64
(lp2449
S':'
asbag57
(g78
g59
NtRp2450
(dp2451
g62
(dp2452
sg71
g2437
sg64
(lp2453
g57
(g58
g59
NtRp2454
(dp2455
g62
(dp2456
g70
I3
ssg71
g2450
sg64
(lp2457
g1016
asbasbasbag57
(g73
g59
NtRp2458
(dp2459
g62
(dp2460
sg71
g2244
sg64
(lp2461
g57
(g78
g59
NtRp2462
(dp2463
g62
(dp2464
g82
g83
ssg71
g2458
sg64
(lp2465
S'PATH_INFO'
p2466
asbag57
(g78
g59
NtRp2467
(dp2468
g62
(dp2469
g89
g90
ssg71
g2458
sg64
(lp2470
S':'
asbag57
(g78
g59
NtRp2471
(dp2472
g62
(dp2473
sg71
g2458
sg64
(lp2474
g57
(g58
g59
NtRp2475
(dp2476
g62
(dp2477
g70
I3
ssg71
g2471
sg64
(lp2478
g1059
asbasbasbag57
(g73
g59
NtRp2479
(dp2480
g62
(dp2481
sg71
g2244
sg64
(lp2482
g57
(g78
g59
NtRp2483
(dp2484
g62
(dp2485
g82
g83
ssg71
g2479
sg64
(lp2486
S'QUERY_STRING'
p2487
asbag57
(g78
g59
NtRp2488
(dp2489
g62
(dp2490
g89
g90
ssg71
g2479
sg64
(lp2491
S':'
asbag57
(g78
g59
NtRp2492
(dp2493
g62
(dp2494
sg71
g2479
sg64
(lp2495
g57
(g58
g59
NtRp2496
(dp2497
g62
(dp2498
g70
I3
ssg71
g2492
sg64
(lp2499
S''
asbasbasbag57
(g73
g59
NtRp2500
(dp2501
g62
(dp2502
sg71
g2244
sg64
(lp2503
g57
(g78
g59
NtRp2504
(dp2505
g62
(dp2506
g82
g83
ssg71
g2500
sg64
(lp2507
S'REMOTE_ADDR'
p2508
asbag57
(g78
g59
NtRp2509
(dp2510
g62
(dp2511
g89
g90
ssg71
g2500
sg64
(lp2512
S':'
asbag57
(g78
g59
NtRp2513
(dp2514
g62
(dp2515
sg71
g2500
sg64
(lp2516
g57
(g58
g59
NtRp2517
(dp2518
g62
(dp2519
g70
I3
ssg71
g2513
sg64
(lp2520
g190
asbasbasbag57
(g73
g59
NtRp2521
(dp2522
g62
(dp2523
sg71
g2244
sg64
(lp2524
g57
(g78
g59
NtRp2525
(dp2526
g62
(dp2527
g82
g83
ssg71
g2521
sg64
(lp2528
S'REMOTE_PORT'
p2529
asbag57
(g78
g59
NtRp2530
(dp2531
g62
(dp2532
g89
g90
ssg71
g2521
sg64
(lp2533
S':'
asbag57
(g78
g59
NtRp2534
(dp2535
g62
(dp2536
sg71
g2521
sg64
(lp2537
g57
(g58
g59
NtRp2538
(dp2539
g62
(dp2540
g70
I3
ssg71
g2534
sg64
(lp2541
g1123
asbasbasbag57
(g73
g59
NtRp2542
(dp2543
g62
(dp2544
sg71
g2244
sg64
(lp2545
g57
(g78
g59
NtRp2546
(dp2547
g62
(dp2548
g82
g83
ssg71
g2542
sg64
(lp2549
S'REQUEST_METHOD'
p2550
asbag57
(g78
g59
NtRp2551
(dp2552
g62
(dp2553
g89
g90
ssg71
g2542
sg64
(lp2554
S':'
asbag57
(g78
g59
NtRp2555
(dp2556
g62
(dp2557
sg71
g2542
sg64
(lp2558
g57
(g58
g59
NtRp2559
(dp2560
g62
(dp2561
g70
I3
ssg71
g2555
sg64
(lp2562
g1145
asbasbasbag57
(g73
g59
NtRp2563
(dp2564
g62
(dp2565
sg71
g2244
sg64
(lp2566
g57
(g78
g59
NtRp2567
(dp2568
g62
(dp2569
g82
g83
ssg71
g2563
sg64
(lp2570
S'SCRIPT_NAME'
p2571
asbag57
(g78
g59
NtRp2572
(dp2573
g62
(dp2574
g89
g90
ssg71
g2563
sg64
(lp2575
S':'
asbag57
(g78
g59
NtRp2576
(dp2577
g62
(dp2578
sg71
g2563
sg64
(lp2579
g57
(g58
g59
NtRp2580
(dp2581
g62
(dp2582
g70
I3
ssg71
g2576
sg64
(lp2583
S''
asbasbasbag57
(g73
g59
NtRp2584
(dp2585
g62
(dp2586
sg71
g2244
sg64
(lp2587
g57
(g78
g59
NtRp2588
(dp2589
g62
(dp2590
g82
g83
ssg71
g2584
sg64
(lp2591
S'SERVER_NAME'
p2592
asbag57
(g78
g59
NtRp2593
(dp2594
g62
(dp2595
g89
g90
ssg71
g2584
sg64
(lp2596
S':'
asbag57
(g78
g59
NtRp2597
(dp2598
g62
(dp2599
sg71
g2584
sg64
(lp2600
g57
(g58
g59
NtRp2601
(dp2602
g62
(dp2603
g70
I3
ssg71
g2597
sg64
(lp2604
g1188
asbasbasbag57
(g73
g59
NtRp2605
(dp2606
g62
(dp2607
sg71
g2244
sg64
(lp2608
g57
(g78
g59
NtRp2609
(dp2610
g62
(dp2611
g82
g83
ssg71
g2605
sg64
(lp2612
S'SERVER_PORT'
p2613
asbag57
(g78
g59
NtRp2614
(dp2615
g62
(dp2616
g89
g90
ssg71
g2605
sg64
(lp2617
S':'
asbag57
(g78
g59
NtRp2618
(dp2619
g62
(dp2620
sg71
g2605
sg64
(lp2621
g57
(g58
g59
NtRp2622
(dp2623
g62
(dp2624
g70
I3
ssg71
g2618
sg64
(lp2625
g1210
asbasbasbag57
(g73
g59
NtRp2626
(dp2627
g62
(dp2628
sg71
g2244
sg64
(lp2629
g57
(g78
g59
NtRp2630
(dp2631
g62
(dp2632
g82
g83
ssg71
g2626
sg64
(lp2633
S'SERVER_PROTOCOL'
p2634
asbag57
(g78
g59
NtRp2635
(dp2636
g62
(dp2637
g89
g90
ssg71
g2626
sg64
(lp2638
S':'
asbag57
(g78
g59
NtRp2639
(dp2640
g62
(dp2641
sg71
g2626
sg64
(lp2642
g57
(g58
g59
NtRp2643
(dp2644
g62
(dp2645
g70
I3
ssg71
g2639
sg64
(lp2646
g1232
asbasbasbag57
(g73
g59
NtRp2647
(dp2648
g62
(dp2649
sg71
g2244
sg64
(lp2650
g57
(g78
g59
NtRp2651
(dp2652
g62
(dp2653
g82
g83
ssg71
g2647
sg64
(lp2654
S'SERVER_SOFTWARE'
p2655
asbag57
(g78
g59
NtRp2656
(dp2657
g62
(dp2658
g89
g90
ssg71
g2647
sg64
(lp2659
S':'
asbag57
(g78
g59
NtRp2660
(dp2661
g62
(dp2662
sg71
g2647
sg64
(lp2663
g57
(g58
g59
NtRp2664
(dp2665
g62
(dp2666
g70
I3
ssg71
g2660
sg64
(lp2667
g1254
asbasbasbag57
(g73
g59
NtRp2668
(dp2669
g62
(dp2670
sg71
g2244
sg64
(lp2671
g57
(g78
g59
NtRp2672
(dp2673
g62
(dp2674
g82
g83
ssg71
g2668
sg64
(lp2675
S'wsgi.errors'
p2676
asbag57
(g78
g59
NtRp2677
(dp2678
g62
(dp2679
g89
g90
ssg71
g2668
sg64
(lp2680
S':'
asbag57
(g78
g59
NtRp2681
(dp2682
g62
(dp2683
sg71
g2668
sg64
(lp2684
g57
(g58
g59
NtRp2685
(dp2686
g62
(dp2687
g70
I3
ssg71
g2681
sg64
(lp2688
S"<open file '<stderr>', mode 'w' at 0x004950D0>"
p2689
asbasbasbag57
(g73
g59
NtRp2690
(dp2691
g62
(dp2692
sg71
g2244
sg64
(lp2693
g57
(g78
g59
NtRp2694
(dp2695
g62
(dp2696
g82
g83
ssg71
g2690
sg64
(lp2697
S'wsgi.file_wrapper'
p2698
asbag57
(g78
g59
NtRp2699
(dp2700
g62
(dp2701
g89
g90
ssg71
g2690
sg64
(lp2702
S':'
asbag57
(g78
g59
NtRp2703
(dp2704
g62
(dp2705
sg71
g2690
sg64
(lp2706
g57
(g58
g59
NtRp2707
(dp2708
g62
(dp2709
g70
I3
ssg71
g2703
sg64
(lp2710
S'<class wsgiref.util.FileWrapper at 0x034A8B20>'
p2711
asbasbasbag57
(g73
g59
NtRp2712
(dp2713
g62
(dp2714
sg71
g2244
sg64
(lp2715
g57
(g78
g59
NtRp2716
(dp2717
g62
(dp2718
g82
g83
ssg71
g2712
sg64
(lp2719
S'wsgi.input'
p2720
asbag57
(g78
g59
NtRp2721
(dp2722
g62
(dp2723
g89
g90
ssg71
g2712
sg64
(lp2724
S':'
asbag57
(g78
g59
NtRp2725
(dp2726
g62
(dp2727
sg71
g2712
sg64
(lp2728
g57
(g58
g59
NtRp2729
(dp2730
g62
(dp2731
g70
I3
ssg71
g2725
sg64
(lp2732
S'<cStringIO.StringO object at 0x03929D80>'
p2733
asbasbasbag57
(g73
g59
NtRp2734
(dp2735
g62
(dp2736
sg71
g2244
sg64
(lp2737
g57
(g78
g59
NtRp2738
(dp2739
g62
(dp2740
g82
g83
ssg71
g2734
sg64
(lp2741
S'wsgi.multiprocess'
p2742
asbag57
(g78
g59
NtRp2743
(dp2744
g62
(dp2745
g89
g90
ssg71
g2734
sg64
(lp2746
S':'
asbag57
(g78
g59
NtRp2747
(dp2748
g62
(dp2749
sg71
g2734
sg64
(lp2750
g57
(g58
g59
NtRp2751
(dp2752
g62
(dp2753
g70
I3
ssg71
g2747
sg64
(lp2754
g100
asbasbasbag57
(g73
g59
NtRp2755
(dp2756
g62
(dp2757
sg71
g2244
sg64
(lp2758
g57
(g78
g59
NtRp2759
(dp2760
g62
(dp2761
g82
g83
ssg71
g2755
sg64
(lp2762
S'wsgi.multithread'
p2763
asbag57
(g78
g59
NtRp2764
(dp2765
g62
(dp2766
g89
g90
ssg71
g2755
sg64
(lp2767
S':'
asbag57
(g78
g59
NtRp2768
(dp2769
g62
(dp2770
sg71
g2755
sg64
(lp2771
g57
(g58
g59
NtRp2772
(dp2773
g62
(dp2774
g70
I3
ssg71
g2768
sg64
(lp2775
g1494
asbasbasbag57
(g73
g59
NtRp2776
(dp2777
g62
(dp2778
sg71
g2244
sg64
(lp2779
g57
(g78
g59
NtRp2780
(dp2781
g62
(dp2782
g82
g83
ssg71
g2776
sg64
(lp2783
S'wsgi.run_once'
p2784
asbag57
(g78
g59
NtRp2785
(dp2786
g62
(dp2787
g89
g90
ssg71
g2776
sg64
(lp2788
S':'
asbag57
(g78
g59
NtRp2789
(dp2790
g62
(dp2791
sg71
g2776
sg64
(lp2792
g57
(g58
g59
NtRp2793
(dp2794
g62
(dp2795
g70
I3
ssg71
g2789
sg64
(lp2796
g100
asbasbasbag57
(g73
g59
NtRp2797
(dp2798
g62
(dp2799
sg71
g2244
sg64
(lp2800
g57
(g78
g59
NtRp2801
(dp2802
g62
(dp2803
g82
g83
ssg71
g2797
sg64
(lp2804
S'wsgi.url_scheme'
p2805
asbag57
(g78
g59
NtRp2806
(dp2807
g62
(dp2808
g89
g90
ssg71
g2797
sg64
(lp2809
S':'
asbag57
(g78
g59
NtRp2810
(dp2811
g62
(dp2812
sg71
g2797
sg64
(lp2813
g57
(g58
g59
NtRp2814
(dp2815
g62
(dp2816
g70
I3
ssg71
g2810
sg64
(lp2817
g1537
asbasbasbag57
(g73
g59
NtRp2818
(dp2819
g62
(dp2820
sg71
g2244
sg64
(lp2821
g57
(g78
g59
NtRp2822
(dp2823
g62
(dp2824
g82
g83
ssg71
g2818
sg64
(lp2825
S'wsgi.version'
p2826
asbag57
(g78
g59
NtRp2827
(dp2828
g62
(dp2829
g89
g90
ssg71
g2818
sg64
(lp2830
S':'
asbag57
(g78
g59
NtRp2831
(dp2832
g62
(dp2833
sg71
g2818
sg64
(lp2834
g57
(g58
g59
NtRp2835
(dp2836
g62
(dp2837
g70
I3
ssg71
g2831
sg64
(lp2838
S'1'
asbasbasbasbasbasbasbasbasbasbasbasbasbsS'frames'
p2839
(lp2840
(dp2841
S'file'
p2842
S'P:\\School\\DePaul\\Projects\\CSC_438\\web2py\\gluon\\restricted.py'
p2843
sS'dump'
p2844
(dp2845
S'environment'
p2846
S"{'A': <class 'gluon.html.A'>, 'Auth': <class 'gluon.tools.Auth'>, 'B': <class 'gluon.html.B'>, 'BEAUTIFY': <class 'gluon.html.BEAUTIFY'>, 'BODY': <class 'gluon.html.BODY'>, 'BR': <class 'gluon.html.BR'>, 'BUTTON': <class 'gluon.html.BUTTON'>, 'CAT': <class 'gluon.html.CAT'>, 'CENTER': <class 'gluon.html.CENTER'>, 'CLEANUP': <class 'gluon.validators.CLEANUP'>, ...}"
p2847
sS'ccode'
p2848
S'<code object <module> at 03A15728, file "P:\\Scho...pplications\\init\\controllers/default.py", line 5>'
p2849
ssS'lnum'
p2850
I204
sS'lines'
p2851
(dp2852
I199
S'    try:'
p2853
sI200
S'        if type(code) == types.CodeType:'
p2854
sI201
S'            ccode = code'
p2855
sI202
S'        else:'
p2856
sI203
S'            ccode = compile2(code,layer)'
p2857
sI204
S'        exec ccode in environment'
p2858
sI205
S'    except HTTP:'
p2859
sI206
S'        raise'
p2860
sI207
S'    except RestrictedError:'
p2861
sI208
S'        # do not encapsulate (obfuscate) the original RestrictedError'
p2862
ssS'call'
p2863
S"(code='# -*- coding: utf-8 -*-\\n# this file is released ...m=crud())\\n\\nresponse._vars=response._caller(join)\\n', environment={'A': <class 'gluon.html.A'>, 'Auth': <class 'gluon.tools.Auth'>, 'B': <class 'gluon.html.B'>, 'BEAUTIFY': <class 'gluon.html.BEAUTIFY'>, 'BODY': <class 'gluon.html.BODY'>, 'BR': <class 'gluon.html.BR'>, 'BUTTON': <class 'gluon.html.BUTTON'>, 'CAT': <class 'gluon.html.CAT'>, 'CENTER': <class 'gluon.html.CENTER'>, 'CLEANUP': <class 'gluon.validators.CLEANUP'>, ...}, layer=r'P:\\School\\DePaul\\Projects\\CSC_438\\web2py\\applications\\init\\controllers/default.py')"
p2864
sS'func'
p2865
S'restricted'
p2866
sa(dp2867
g2842
S'P:\\School\\DePaul\\Projects\\CSC_438\\web2py\\applications\\init\\controllers\\default.py'
p2868
sg2844
(dp2869
sg2850
I169
sg2851
(dp2870
I160
S'    http://..../[app]/default/data/select/[table]'
p2871
sI161
S'    http://..../[app]/default/data/search/[table]'
p2872
sI162
S'    but URLs bust be signed, i.e. linked with'
p2873
sI163
S"      A('table',_href=URL('data/tables',user_signature=True))"
p2874
sI164
S'    or with the signed load operator'
p2875
sI165
S"      LOAD('default','data.load',args='tables',ajax=True,user_signature=True)"
p2876
sI166
S'    """'
p2877
sI167
S'    return dict(form=crud())'
p2878
sI158
S'    http://..../[app]/default/data/update/[table]/[id]'
p2879
sI159
S'    http://..../[app]/default/data/delete/[table]/[id]'
p2880
ssg2863
S'()'
p2881
sg2865
S'<module>'
p2882
sa(dp2883
g2842
S'P:\\School\\DePaul\\Projects\\CSC_438\\web2py\\gluon\\globals.py'
p2884
sg2844
(dp2885
S'self'
p2886
S'undefined'
p2887
sS'f'
S'<function join>'
p2888
ssg2850
I149
sg2851
(dp2889
I144
S'        self.meta = Storage()      # used by web2py_ajax.html'
p2890
sI145
S'        self.menu = []             # used by the default view layout'
p2891
sI146
S'        self.files = []            # used by web2py_ajax.html'
p2892
sI147
S'        self.generic_patterns = [] # patterns to allow generic views'
p2893
sI148
S'        self._vars = None'
p2894
sI149
S'        self._caller = lambda f: f()'
p2895
sI150
S'        self._view_environment = None'
p2896
sI151
S'        self._custom_commit = None'
p2897
sI152
S'        self._custom_rollback = None'
p2898
sI153
S''
ssg2863
S'(f=<function join>)'
p2899
sg2865
S'<lambda>'
p2900
sa(dp2901
g2842
S'P:\\School\\DePaul\\Projects\\CSC_438\\web2py\\applications\\init\\controllers\\default.py'
p2902
sg2844
(dp2903
S'event.update_record'
p2904
g2887
sS'auth.user.id'
p2905
S'8'
sS'auth.user'
p2906
S"<Storage {'first_name': 'Sarah', 'last_name': 'E...rrent_weight': '215', 'email': 'sarah@test.com'}>"
p2907
sS'global auth'
p2908
S'<gluon.tools.Auth object>'
p2909
sS'partcipants'
p2910
g2887
sS'event'
p2911
S'None'
p2912
ssg2850
I95
sg2851
(dp2913
I96
S''
sI97
S"    redirect(URL('home',  vars=dict(event=event)))"
p2914
sI98
S''
sI99
S'@auth.requires_login()'
p2915
sI90
S'def join():'
p2916
sI91
S''
sI92
S'    event_id=request.vars.event'
p2917
sI93
S'    event_update = db.events.id == event_id'
p2918
sI94
S'    event = db(event_update).select().first()'
p2919
sI95
S'    event.update_record(partcipants=auth.user.id)'
p2920
ssg2863
S'()'
p2921
sg2865
S'join'
p2922
sasS'pyver'
p2923
S'Python 2.7.2: P:\\Workbench\\DevEnv\\Python27\\python.exe'
p2924
sS'session'
p2925
g57
(g58
g59
NtRp2926
(dp2927
g62
(dp2928
sg64
(lp2929
g57
(g66
g59
NtRp2930
(dp2931
g62
(dp2932
g70
I5
ssg71
Nsg64
(lp2933
g57
(g73
g59
NtRp2934
(dp2935
g62
(dp2936
sg71
g2930
sg64
(lp2937
g57
(g78
g59
NtRp2938
(dp2939
g62
(dp2940
g82
g83
ssg71
g2934
sg64
(lp2941
S'auth'
p2942
asbag57
(g78
g59
NtRp2943
(dp2944
g62
(dp2945
g89
g90
ssg71
g2934
sg64
(lp2946
S':'
asbag57
(g78
g59
NtRp2947
(dp2948
g62
(dp2949
sg71
g2934
sg64
(lp2950
g57
(g58
g59
NtRp2951
(dp2952
g62
(dp2953
g70
I5
ssg71
g2947
sg64
(lp2954
g57
(g66
g59
NtRp2955
(dp2956
g62
(dp2957
g70
I4
ssg71
Nsg64
(lp2958
g57
(g73
g59
NtRp2959
(dp2960
g62
(dp2961
sg71
g2955
sg64
(lp2962
g57
(g78
g59
NtRp2963
(dp2964
g62
(dp2965
g82
g83
ssg71
g2959
sg64
(lp2966
S'expiration'
p2967
asbag57
(g78
g59
NtRp2968
(dp2969
g62
(dp2970
g89
g90
ssg71
g2959
sg64
(lp2971
S':'
asbag57
(g78
g59
NtRp2972
(dp2973
g62
(dp2974
sg71
g2959
sg64
(lp2975
g57
(g58
g59
NtRp2976
(dp2977
g62
(dp2978
g70
I4
ssg71
g2972
sg64
(lp2979
S'2592000'
p2980
asbasbasbag57
(g73
g59
NtRp2981
(dp2982
g62
(dp2983
sg71
g2955
sg64
(lp2984
g57
(g78
g59
NtRp2985
(dp2986
g62
(dp2987
g82
g83
ssg71
g2981
sg64
(lp2988
S'hmac_key'
p2989
asbag57
(g78
g59
NtRp2990
(dp2991
g62
(dp2992
g89
g90
ssg71
g2981
sg64
(lp2993
S':'
asbag57
(g78
g59
NtRp2994
(dp2995
g62
(dp2996
sg71
g2981
sg64
(lp2997
g57
(g58
g59
NtRp2998
(dp2999
g62
(dp3000
g70
I4
ssg71
g2994
sg64
(lp3001
S'e57ff336-111e-4dd7-8d3d-816f18794f5b'
p3002
asbasbasbag57
(g73
g59
NtRp3003
(dp3004
g62
(dp3005
sg71
g2955
sg64
(lp3006
g57
(g78
g59
NtRp3007
(dp3008
g62
(dp3009
g82
g83
ssg71
g3003
sg64
(lp3010
S'last_visit'
p3011
asbag57
(g78
g59
NtRp3012
(dp3013
g62
(dp3014
g89
g90
ssg71
g3003
sg64
(lp3015
S':'
asbag57
(g78
g59
NtRp3016
(dp3017
g62
(dp3018
sg71
g3003
sg64
(lp3019
g57
(g58
g59
NtRp3020
(dp3021
g62
(dp3022
g70
I4
ssg71
g3016
sg64
(lp3023
S'datetime.datetime(2011, 11, 19, 22, 4, 3, 871000)'
p3024
asbasbasbag57
(g73
g59
NtRp3025
(dp3026
g62
(dp3027
sg71
g2955
sg64
(lp3028
g57
(g78
g59
NtRp3029
(dp3030
g62
(dp3031
g82
g83
ssg71
g3025
sg64
(lp3032
S'remember'
p3033
asbag57
(g78
g59
NtRp3034
(dp3035
g62
(dp3036
g89
g90
ssg71
g3025
sg64
(lp3037
S':'
asbag57
(g78
g59
NtRp3038
(dp3039
g62
(dp3040
sg71
g3025
sg64
(lp3041
g57
(g58
g59
NtRp3042
(dp3043
g62
(dp3044
g70
I4
ssg71
g3038
sg64
(lp3045
g100
asbasbasbag57
(g73
g59
NtRp3046
(dp3047
g62
(dp3048
sg71
g2955
sg64
(lp3049
g57
(g78
g59
NtRp3050
(dp3051
g62
(dp3052
g82
g83
ssg71
g3046
sg64
(lp3053
S'user'
p3054
asbag57
(g78
g59
NtRp3055
(dp3056
g62
(dp3057
g89
g90
ssg71
g3046
sg64
(lp3058
S':'
asbag57
(g78
g59
NtRp3059
(dp3060
g62
(dp3061
sg71
g3046
sg64
(lp3062
g57
(g58
g59
NtRp3063
(dp3064
g62
(dp3065
g70
I4
ssg71
g3059
sg64
(lp3066
g57
(g66
g59
NtRp3067
(dp3068
g62
(dp3069
g70
I3
ssg71
Nsg64
(lp3070
g57
(g73
g59
NtRp3071
(dp3072
g62
(dp3073
sg71
g3067
sg64
(lp3074
g57
(g78
g59
NtRp3075
(dp3076
g62
(dp3077
g82
g83
ssg71
g3071
sg64
(lp3078
S'birthday'
p3079
asbag57
(g78
g59
NtRp3080
(dp3081
g62
(dp3082
g89
g90
ssg71
g3071
sg64
(lp3083
S':'
asbag57
(g78
g59
NtRp3084
(dp3085
g62
(dp3086
sg71
g3071
sg64
(lp3087
g57
(g58
g59
NtRp3088
(dp3089
g62
(dp3090
g70
I3
ssg71
g3084
sg64
(lp3091
S'datetime.date(2011, 11, 27)'
p3092
asbasbasbag57
(g73
g59
NtRp3093
(dp3094
g62
(dp3095
sg71
g3067
sg64
(lp3096
g57
(g78
g59
NtRp3097
(dp3098
g62
(dp3099
g82
g83
ssg71
g3093
sg64
(lp3100
S'challenges'
p3101
asbag57
(g78
g59
NtRp3102
(dp3103
g62
(dp3104
g89
g90
ssg71
g3093
sg64
(lp3105
S':'
asbag57
(g78
g59
NtRp3106
(dp3107
g62
(dp3108
sg71
g3093
sg64
(lp3109
g57
(g58
g59
NtRp3110
(dp3111
g62
(dp3112
g70
I3
ssg71
g3106
sg64
(lp3113
g57
(g66
g59
NtRp3114
(dp3115
g62
(dp3116
g70
I2
ssg71
Nsg64
(lp3117
sbasbasbasbag57
(g73
g59
NtRp3118
(dp3119
g62
(dp3120
sg71
g3067
sg64
(lp3121
g57
(g78
g59
NtRp3122
(dp3123
g62
(dp3124
g82
g83
ssg71
g3118
sg64
(lp3125
S'current_weight'
p3126
asbag57
(g78
g59
NtRp3127
(dp3128
g62
(dp3129
g89
g90
ssg71
g3118
sg64
(lp3130
S':'
asbag57
(g78
g59
NtRp3131
(dp3132
g62
(dp3133
sg71
g3118
sg64
(lp3134
g57
(g58
g59
NtRp3135
(dp3136
g62
(dp3137
g70
I3
ssg71
g3131
sg64
(lp3138
S'215'
p3139
asbasbasbag57
(g73
g59
NtRp3140
(dp3141
g62
(dp3142
sg71
g3067
sg64
(lp3143
g57
(g78
g59
NtRp3144
(dp3145
g62
(dp3146
g82
g83
ssg71
g3140
sg64
(lp3147
S'email'
p3148
asbag57
(g78
g59
NtRp3149
(dp3150
g62
(dp3151
g89
g90
ssg71
g3140
sg64
(lp3152
S':'
asbag57
(g78
g59
NtRp3153
(dp3154
g62
(dp3155
sg71
g3140
sg64
(lp3156
g57
(g58
g59
NtRp3157
(dp3158
g62
(dp3159
g70
I3
ssg71
g3153
sg64
(lp3160
S'sarah@test.com'
p3161
asbasbasbag57
(g73
g59
NtRp3162
(dp3163
g62
(dp3164
sg71
g3067
sg64
(lp3165
g57
(g78
g59
NtRp3166
(dp3167
g62
(dp3168
g82
g83
ssg71
g3162
sg64
(lp3169
S'first_name'
p3170
asbag57
(g78
g59
NtRp3171
(dp3172
g62
(dp3173
g89
g90
ssg71
g3162
sg64
(lp3174
S':'
asbag57
(g78
g59
NtRp3175
(dp3176
g62
(dp3177
sg71
g3162
sg64
(lp3178
g57
(g58
g59
NtRp3179
(dp3180
g62
(dp3181
g70
I3
ssg71
g3175
sg64
(lp3182
S'Sarah'
p3183
asbasbasbag57
(g73
g59
NtRp3184
(dp3185
g62
(dp3186
sg71
g3067
sg64
(lp3187
g57
(g78
g59
NtRp3188
(dp3189
g62
(dp3190
g82
g83
ssg71
g3184
sg64
(lp3191
S'gender'
p3192
asbag57
(g78
g59
NtRp3193
(dp3194
g62
(dp3195
g89
g90
ssg71
g3184
sg64
(lp3196
S':'
asbag57
(g78
g59
NtRp3197
(dp3198
g62
(dp3199
sg71
g3184
sg64
(lp3200
g57
(g58
g59
NtRp3201
(dp3202
g62
(dp3203
g70
I3
ssg71
g3197
sg64
(lp3204
S'Female'
p3205
asbasbasbag57
(g73
g59
NtRp3206
(dp3207
g62
(dp3208
sg71
g3067
sg64
(lp3209
g57
(g78
g59
NtRp3210
(dp3211
g62
(dp3212
g82
g83
ssg71
g3206
sg64
(lp3213
S'height'
p3214
asbag57
(g78
g59
NtRp3215
(dp3216
g62
(dp3217
g89
g90
ssg71
g3206
sg64
(lp3218
S':'
asbag57
(g78
g59
NtRp3219
(dp3220
g62
(dp3221
sg71
g3206
sg64
(lp3222
g57
(g58
g59
NtRp3223
(dp3224
g62
(dp3225
g70
I3
ssg71
g3219
sg64
(lp3226
S'72'
p3227
asbasbasbag57
(g73
g59
NtRp3228
(dp3229
g62
(dp3230
sg71
g3067
sg64
(lp3231
g57
(g78
g59
NtRp3232
(dp3233
g62
(dp3234
g82
g83
ssg71
g3228
sg64
(lp3235
S'id'
p3236
asbag57
(g78
g59
NtRp3237
(dp3238
g62
(dp3239
g89
g90
ssg71
g3228
sg64
(lp3240
S':'
asbag57
(g78
g59
NtRp3241
(dp3242
g62
(dp3243
sg71
g3228
sg64
(lp3244
g57
(g58
g59
NtRp3245
(dp3246
g62
(dp3247
g70
I3
ssg71
g3241
sg64
(lp3248
S'8'
asbasbasbag57
(g73
g59
NtRp3249
(dp3250
g62
(dp3251
sg71
g3067
sg64
(lp3252
g57
(g78
g59
NtRp3253
(dp3254
g62
(dp3255
g82
g83
ssg71
g3249
sg64
(lp3256
S'image'
p3257
asbag57
(g78
g59
NtRp3258
(dp3259
g62
(dp3260
g89
g90
ssg71
g3249
sg64
(lp3261
S':'
asbag57
(g78
g59
NtRp3262
(dp3263
g62
(dp3264
sg71
g3249
sg64
(lp3265
g57
(g58
g59
NtRp3266
(dp3267
g62
(dp3268
g70
I3
ssg71
g3262
sg64
(lp3269
S''
asbasbasbag57
(g73
g59
NtRp3270
(dp3271
g62
(dp3272
sg71
g3067
sg64
(lp3273
g57
(g78
g59
NtRp3274
(dp3275
g62
(dp3276
g82
g83
ssg71
g3270
sg64
(lp3277
S'last_name'
p3278
asbag57
(g78
g59
NtRp3279
(dp3280
g62
(dp3281
g89
g90
ssg71
g3270
sg64
(lp3282
S':'
asbag57
(g78
g59
NtRp3283
(dp3284
g62
(dp3285
sg71
g3270
sg64
(lp3286
g57
(g58
g59
NtRp3287
(dp3288
g62
(dp3289
g70
I3
ssg71
g3283
sg64
(lp3290
S'Edwards'
p3291
asbasbasbag57
(g73
g59
NtRp3292
(dp3293
g62
(dp3294
sg71
g3067
sg64
(lp3295
g57
(g78
g59
NtRp3296
(dp3297
g62
(dp3298
g82
g83
ssg71
g3292
sg64
(lp3299
S'password'
p3300
asbag57
(g78
g59
NtRp3301
(dp3302
g62
(dp3303
g89
g90
ssg71
g3292
sg64
(lp3304
S':'
asbag57
(g78
g59
NtRp3305
(dp3306
g62
(dp3307
sg71
g3292
sg64
(lp3308
g57
(g58
g59
NtRp3309
(dp3310
g62
(dp3311
g70
I3
ssg71
g3305
sg64
(lp3312
S'12923092f4d9e86e56018b9cdd790947'
p3313
asbasbasbag57
(g73
g59
NtRp3314
(dp3315
g62
(dp3316
sg71
g3067
sg64
(lp3317
g57
(g78
g59
NtRp3318
(dp3319
g62
(dp3320
g82
g83
ssg71
g3314
sg64
(lp3321
S'registration_id'
p3322
asbag57
(g78
g59
NtRp3323
(dp3324
g62
(dp3325
g89
g90
ssg71
g3314
sg64
(lp3326
S':'
asbag57
(g78
g59
NtRp3327
(dp3328
g62
(dp3329
sg71
g3314
sg64
(lp3330
g57
(g58
g59
NtRp3331
(dp3332
g62
(dp3333
g70
I3
ssg71
g3327
sg64
(lp3334
S''
asbasbasbag57
(g73
g59
NtRp3335
(dp3336
g62
(dp3337
sg71
g3067
sg64
(lp3338
g57
(g78
g59
NtRp3339
(dp3340
g62
(dp3341
g82
g83
ssg71
g3335
sg64
(lp3342
S'registration_key'
p3343
asbag57
(g78
g59
NtRp3344
(dp3345
g62
(dp3346
g89
g90
ssg71
g3335
sg64
(lp3347
S':'
asbag57
(g78
g59
NtRp3348
(dp3349
g62
(dp3350
sg71
g3335
sg64
(lp3351
g57
(g58
g59
NtRp3352
(dp3353
g62
(dp3354
g70
I3
ssg71
g3348
sg64
(lp3355
S''
asbasbasbag57
(g73
g59
NtRp3356
(dp3357
g62
(dp3358
sg71
g3067
sg64
(lp3359
g57
(g78
g59
NtRp3360
(dp3361
g62
(dp3362
g82
g83
ssg71
g3356
sg64
(lp3363
S'reset_password_key'
p3364
asbag57
(g78
g59
NtRp3365
(dp3366
g62
(dp3367
g89
g90
ssg71
g3356
sg64
(lp3368
S':'
asbag57
(g78
g59
NtRp3369
(dp3370
g62
(dp3371
sg71
g3356
sg64
(lp3372
g57
(g58
g59
NtRp3373
(dp3374
g62
(dp3375
g70
I3
ssg71
g3369
sg64
(lp3376
S''
asbasbasbasbasbasbasbasbasbasbasbag57
(g73
g59
NtRp3377
(dp3378
g62
(dp3379
sg71
g2930
sg64
(lp3380
g57
(g78
g59
NtRp3381
(dp3382
g62
(dp3383
g82
g83
ssg71
g3377
sg64
(lp3384
S'last_query'
p3385
asbag57
(g78
g59
NtRp3386
(dp3387
g62
(dp3388
g89
g90
ssg71
g3377
sg64
(lp3389
S':'
asbag57
(g78
g59
NtRp3390
(dp3391
g62
(dp3392
sg71
g3377
sg64
(lp3393
g57
(g58
g59
NtRp3394
(dp3395
g62
(dp3396
g70
I5
ssg71
g3390
sg64
(lp3397
S'db.events.id>0'
p3398
asbasbasbasbasbsS'etype'
p3399
S"<type 'exceptions.AttributeError'>"
p3400
sS'date'
p3401
S'Sat Nov 19 23:01:02 2011'
p3402
sS'response'
p3403
g57
(g58
g59
NtRp3404
(dp3405
g62
(dp3406
sg64
(lp3407
g57
(g66
g59
NtRp3408
(dp3409
g62
(dp3410
g70
I5
ssg71
Nsg64
(lp3411
g57
(g73
g59
NtRp3412
(dp3413
g62
(dp3414
sg71
g3408
sg64
(lp3415
g57
(g78
g59
NtRp3416
(dp3417
g62
(dp3418
g82
g83
ssg71
g3412
sg64
(lp3419
g155
asbag57
(g78
g59
NtRp3420
(dp3421
g62
(dp3422
g89
g90
ssg71
g3412
sg64
(lp3423
S':'
asbag57
(g78
g59
NtRp3424
(dp3425
g62
(dp3426
sg71
g3412
sg64
(lp3427
g57
(g58
g59
NtRp3428
(dp3429
g62
(dp3430
g70
I5
ssg71
g3424
sg64
(lp3431
S'<cStringIO.StringO object at 0x039F9320>'
p3432
asbasbasbag57
(g73
g59
NtRp3433
(dp3434
g62
(dp3435
sg71
g3408
sg64
(lp3436
g57
(g78
g59
NtRp3437
(dp3438
g62
(dp3439
g82
g83
ssg71
g3433
sg64
(lp3440
g221
asbag57
(g78
g59
NtRp3441
(dp3442
g62
(dp3443
g89
g90
ssg71
g3433
sg64
(lp3444
S':'
asbag57
(g78
g59
NtRp3445
(dp3446
g62
(dp3447
sg71
g3433
sg64
(lp3448
g57
(g58
g59
NtRp3449
(dp3450
g62
(dp3451
g70
I5
ssg71
g3445
sg64
(lp3452
g57
(g66
g59
NtRp3453
(dp3454
g62
(dp3455
g70
I4
ssg71
Nsg64
(lp3456
g57
(g73
g59
NtRp3457
(dp3458
g62
(dp3459
sg71
g3453
sg64
(lp3460
g57
(g78
g59
NtRp3461
(dp3462
g62
(dp3463
g82
g83
ssg71
g3457
sg64
(lp3464
S'session_id_init'
p3465
asbag57
(g78
g59
NtRp3466
(dp3467
g62
(dp3468
g89
g90
ssg71
g3457
sg64
(lp3469
S':'
asbag57
(g78
g59
NtRp3470
(dp3471
g62
(dp3472
sg71
g3457
sg64
(lp3473
g57
(g58
g59
NtRp3474
(dp3475
g62
(dp3476
g70
I4
ssg71
g3470
sg64
(lp3477
g57
(g66
g59
NtRp3478
(dp3479
g62
(dp3480
g70
I3
ssg71
Nsg64
(lp3481
g57
(g73
g59
NtRp3482
(dp3483
g62
(dp3484
sg71
g3478
sg64
(lp3485
g57
(g78
g59
NtRp3486
(dp3487
g62
(dp3488
g82
g83
ssg71
g3482
sg64
(lp3489
g271
asbag57
(g78
g59
NtRp3490
(dp3491
g62
(dp3492
g89
g90
ssg71
g3482
sg64
(lp3493
S':'
asbag57
(g78
g59
NtRp3494
(dp3495
g62
(dp3496
sg71
g3482
sg64
(lp3497
g57
(g58
g59
NtRp3498
(dp3499
g62
(dp3500
g70
I3
ssg71
g3494
sg64
(lp3501
S''
asbasbasbag57
(g73
g59
NtRp3502
(dp3503
g62
(dp3504
sg71
g3478
sg64
(lp3505
g57
(g78
g59
NtRp3506
(dp3507
g62
(dp3508
g82
g83
ssg71
g3502
sg64
(lp3509
g292
asbag57
(g78
g59
NtRp3510
(dp3511
g62
(dp3512
g89
g90
ssg71
g3502
sg64
(lp3513
S':'
asbag57
(g78
g59
NtRp3514
(dp3515
g62
(dp3516
sg71
g3502
sg64
(lp3517
g57
(g58
g59
NtRp3518
(dp3519
g62
(dp3520
g70
I3
ssg71
g3514
sg64
(lp3521
S''
asbasbasbag57
(g73
g59
NtRp3522
(dp3523
g62
(dp3524
sg71
g3478
sg64
(lp3525
g57
(g78
g59
NtRp3526
(dp3527
g62
(dp3528
g82
g83
ssg71
g3522
sg64
(lp3529
g313
asbag57
(g78
g59
NtRp3530
(dp3531
g62
(dp3532
g89
g90
ssg71
g3522
sg64
(lp3533
S':'
asbag57
(g78
g59
NtRp3534
(dp3535
g62
(dp3536
sg71
g3522
sg64
(lp3537
g57
(g58
g59
NtRp3538
(dp3539
g62
(dp3540
g70
I3
ssg71
g3534
sg64
(lp3541
S''
asbasbasbag57
(g73
g59
NtRp3542
(dp3543
g62
(dp3544
sg71
g3478
sg64
(lp3545
g57
(g78
g59
NtRp3546
(dp3547
g62
(dp3548
g82
g83
ssg71
g3542
sg64
(lp3549
g334
asbag57
(g78
g59
NtRp3550
(dp3551
g62
(dp3552
g89
g90
ssg71
g3542
sg64
(lp3553
S':'
asbag57
(g78
g59
NtRp3554
(dp3555
g62
(dp3556
sg71
g3542
sg64
(lp3557
g57
(g58
g59
NtRp3558
(dp3559
g62
(dp3560
g70
I3
ssg71
g3554
sg64
(lp3561
S''
asbasbasbag57
(g73
g59
NtRp3562
(dp3563
g62
(dp3564
sg71
g3478
sg64
(lp3565
g57
(g78
g59
NtRp3566
(dp3567
g62
(dp3568
g82
g83
ssg71
g3562
sg64
(lp3569
g355
asbag57
(g78
g59
NtRp3570
(dp3571
g62
(dp3572
g89
g90
ssg71
g3562
sg64
(lp3573
S':'
asbag57
(g78
g59
NtRp3574
(dp3575
g62
(dp3576
sg71
g3562
sg64
(lp3577
g57
(g58
g59
NtRp3578
(dp3579
g62
(dp3580
g70
I3
ssg71
g3574
sg64
(lp3581
S''
asbasbasbag57
(g73
g59
NtRp3582
(dp3583
g62
(dp3584
sg71
g3478
sg64
(lp3585
g57
(g78
g59
NtRp3586
(dp3587
g62
(dp3588
g82
g83
ssg71
g3582
sg64
(lp3589
g376
asbag57
(g78
g59
NtRp3590
(dp3591
g62
(dp3592
g89
g90
ssg71
g3582
sg64
(lp3593
S':'
asbag57
(g78
g59
NtRp3594
(dp3595
g62
(dp3596
sg71
g3582
sg64
(lp3597
g57
(g58
g59
NtRp3598
(dp3599
g62
(dp3600
g70
I3
ssg71
g3594
sg64
(lp3601
S'/'
asbasbasbag57
(g73
g59
NtRp3602
(dp3603
g62
(dp3604
sg71
g3478
sg64
(lp3605
g57
(g78
g59
NtRp3606
(dp3607
g62
(dp3608
g82
g83
ssg71
g3602
sg64
(lp3609
g397
asbag57
(g78
g59
NtRp3610
(dp3611
g62
(dp3612
g89
g90
ssg71
g3602
sg64
(lp3613
S':'
asbag57
(g78
g59
NtRp3614
(dp3615
g62
(dp3616
sg71
g3602
sg64
(lp3617
g57
(g58
g59
NtRp3618
(dp3619
g62
(dp3620
g70
I3
ssg71
g3614
sg64
(lp3621
S''
asbasbasbag57
(g73
g59
NtRp3622
(dp3623
g62
(dp3624
sg71
g3478
sg64
(lp3625
g57
(g78
g59
NtRp3626
(dp3627
g62
(dp3628
g82
g83
ssg71
g3622
sg64
(lp3629
g418
asbag57
(g78
g59
NtRp3630
(dp3631
g62
(dp3632
g89
g90
ssg71
g3622
sg64
(lp3633
S':'
asbag57
(g78
g59
NtRp3634
(dp3635
g62
(dp3636
sg71
g3622
sg64
(lp3637
g57
(g58
g59
NtRp3638
(dp3639
g62
(dp3640
g70
I3
ssg71
g3634
sg64
(lp3641
S''
asbasbasbasbasbasbasbasbasbasbasbag57
(g73
g59
NtRp3642
(dp3643
g62
(dp3644
sg71
g3408
sg64
(lp3645
g57
(g78
g59
NtRp3646
(dp3647
g62
(dp3648
g82
g83
ssg71
g3642
sg64
(lp3649
S'files'
p3650
asbag57
(g78
g59
NtRp3651
(dp3652
g62
(dp3653
g89
g90
ssg71
g3642
sg64
(lp3654
S':'
asbag57
(g78
g59
NtRp3655
(dp3656
g62
(dp3657
sg71
g3642
sg64
(lp3658
g57
(g58
g59
NtRp3659
(dp3660
g62
(dp3661
g70
I5
ssg71
g3655
sg64
(lp3662
g57
(g66
g59
NtRp3663
(dp3664
g62
(dp3665
g70
I4
ssg71
Nsg64
(lp3666
sbasbasbasbag57
(g73
g59
NtRp3667
(dp3668
g62
(dp3669
sg71
g3408
sg64
(lp3670
g57
(g78
g59
NtRp3671
(dp3672
g62
(dp3673
g82
g83
ssg71
g3667
sg64
(lp3674
S'flash'
p3675
asbag57
(g78
g59
NtRp3676
(dp3677
g62
(dp3678
g89
g90
ssg71
g3667
sg64
(lp3679
S':'
asbag57
(g78
g59
NtRp3680
(dp3681
g62
(dp3682
sg71
g3667
sg64
(lp3683
g57
(g58
g59
NtRp3684
(dp3685
g62
(dp3686
g70
I5
ssg71
g3680
sg64
(lp3687
S''
asbasbasbag57
(g73
g59
NtRp3688
(dp3689
g62
(dp3690
sg71
g3408
sg64
(lp3691
g57
(g78
g59
NtRp3692
(dp3693
g62
(dp3694
g82
g83
ssg71
g3688
sg64
(lp3695
S'generic_patterns'
p3696
asbag57
(g78
g59
NtRp3697
(dp3698
g62
(dp3699
g89
g90
ssg71
g3688
sg64
(lp3700
S':'
asbag57
(g78
g59
NtRp3701
(dp3702
g62
(dp3703
sg71
g3688
sg64
(lp3704
g57
(g58
g59
NtRp3705
(dp3706
g62
(dp3707
g70
I5
ssg71
g3701
sg64
(lp3708
g57
(g66
g59
NtRp3709
(dp3710
g62
(dp3711
g70
I4
ssg71
Nsg64
(lp3712
g57
(g73
g59
NtRp3713
(dp3714
g62
(dp3715
sg71
g3709
sg64
(lp3716
g57
(g78
g59
NtRp3717
(dp3718
g62
(dp3719
sg71
g3713
sg64
(lp3720
g57
(g58
g59
NtRp3721
(dp3722
g62
(dp3723
g70
I4
ssg71
g3717
sg64
(lp3724
S'*'
asbasbasbasbasbasbasbag57
(g73
g59
NtRp3725
(dp3726
g62
(dp3727
sg71
g3408
sg64
(lp3728
g57
(g78
g59
NtRp3729
(dp3730
g62
(dp3731
g82
g83
ssg71
g3725
sg64
(lp3732
S'headers'
p3733
asbag57
(g78
g59
NtRp3734
(dp3735
g62
(dp3736
g89
g90
ssg71
g3725
sg64
(lp3737
S':'
asbag57
(g78
g59
NtRp3738
(dp3739
g62
(dp3740
sg71
g3725
sg64
(lp3741
g57
(g58
g59
NtRp3742
(dp3743
g62
(dp3744
g70
I5
ssg71
g3738
sg64
(lp3745
g57
(g66
g59
NtRp3746
(dp3747
g62
(dp3748
g70
I4
ssg71
Nsg64
(lp3749
g57
(g73
g59
NtRp3750
(dp3751
g62
(dp3752
sg71
g3746
sg64
(lp3753
g57
(g78
g59
NtRp3754
(dp3755
g62
(dp3756
g82
g83
ssg71
g3750
sg64
(lp3757
S'Cache-Control'
p3758
asbag57
(g78
g59
NtRp3759
(dp3760
g62
(dp3761
g89
g90
ssg71
g3750
sg64
(lp3762
S':'
asbag57
(g78
g59
NtRp3763
(dp3764
g62
(dp3765
sg71
g3750
sg64
(lp3766
g57
(g58
g59
NtRp3767
(dp3768
g62
(dp3769
g70
I4
ssg71
g3763
sg64
(lp3770
S'no-store, no-cache, must-revalidate, post-check=0, pre-check=0'
p3771
asbasbasbag57
(g73
g59
NtRp3772
(dp3773
g62
(dp3774
sg71
g3746
sg64
(lp3775
g57
(g78
g59
NtRp3776
(dp3777
g62
(dp3778
g82
g83
ssg71
g3772
sg64
(lp3779
S'Content-Type'
p3780
asbag57
(g78
g59
NtRp3781
(dp3782
g62
(dp3783
g89
g90
ssg71
g3772
sg64
(lp3784
S':'
asbag57
(g78
g59
NtRp3785
(dp3786
g62
(dp3787
sg71
g3772
sg64
(lp3788
g57
(g58
g59
NtRp3789
(dp3790
g62
(dp3791
g70
I4
ssg71
g3785
sg64
(lp3792
S'text/html; charset=utf-8'
p3793
asbasbasbag57
(g73
g59
NtRp3794
(dp3795
g62
(dp3796
sg71
g3746
sg64
(lp3797
g57
(g78
g59
NtRp3798
(dp3799
g62
(dp3800
g82
g83
ssg71
g3794
sg64
(lp3801
S'Expires'
p3802
asbag57
(g78
g59
NtRp3803
(dp3804
g62
(dp3805
g89
g90
ssg71
g3794
sg64
(lp3806
S':'
asbag57
(g78
g59
NtRp3807
(dp3808
g62
(dp3809
sg71
g3794
sg64
(lp3810
g57
(g58
g59
NtRp3811
(dp3812
g62
(dp3813
g70
I4
ssg71
g3807
sg64
(lp3814
S'Sun, 20 Nov 2011 04:00:31 GMT'
p3815
asbasbasbag57
(g73
g59
NtRp3816
(dp3817
g62
(dp3818
sg71
g3746
sg64
(lp3819
g57
(g78
g59
NtRp3820
(dp3821
g62
(dp3822
g82
g83
ssg71
g3816
sg64
(lp3823
S'Pragma'
p3824
asbag57
(g78
g59
NtRp3825
(dp3826
g62
(dp3827
g89
g90
ssg71
g3816
sg64
(lp3828
S':'
asbag57
(g78
g59
NtRp3829
(dp3830
g62
(dp3831
sg71
g3816
sg64
(lp3832
g57
(g58
g59
NtRp3833
(dp3834
g62
(dp3835
g70
I4
ssg71
g3829
sg64
(lp3836
S'no-cache'
p3837
asbasbasbag57
(g73
g59
NtRp3838
(dp3839
g62
(dp3840
sg71
g3746
sg64
(lp3841
g57
(g78
g59
NtRp3842
(dp3843
g62
(dp3844
g82
g83
ssg71
g3838
sg64
(lp3845
S'X-Powered-By'
p3846
asbag57
(g78
g59
NtRp3847
(dp3848
g62
(dp3849
g89
g90
ssg71
g3838
sg64
(lp3850
S':'
asbag57
(g78
g59
NtRp3851
(dp3852
g62
(dp3853
sg71
g3838
sg64
(lp3854
g57
(g58
g59
NtRp3855
(dp3856
g62
(dp3857
g70
I4
ssg71
g3851
sg64
(lp3858
S'web2py'
p3859
asbasbasbasbasbasbasbag57
(g73
g59
NtRp3860
(dp3861
g62
(dp3862
sg71
g3408
sg64
(lp3863
g57
(g78
g59
NtRp3864
(dp3865
g62
(dp3866
g82
g83
ssg71
g3860
sg64
(lp3867
S'menu'
p3868
asbag57
(g78
g59
NtRp3869
(dp3870
g62
(dp3871
g89
g90
ssg71
g3860
sg64
(lp3872
S':'
asbag57
(g78
g59
NtRp3873
(dp3874
g62
(dp3875
sg71
g3860
sg64
(lp3876
g57
(g58
g59
NtRp3877
(dp3878
g62
(dp3879
g70
I5
ssg71
g3873
sg64
(lp3880
g57
(g66
g59
NtRp3881
(dp3882
g62
(dp3883
g70
I4
ssg71
Nsg64
(lp3884
g57
(g73
g59
NtRp3885
(dp3886
g62
(dp3887
sg71
g3881
sg64
(lp3888
g57
(g78
g59
NtRp3889
(dp3890
g62
(dp3891
sg71
g3885
sg64
(lp3892
g57
(g58
g59
NtRp3893
(dp3894
g62
(dp3895
g70
I4
ssg71
g3889
sg64
(lp3896
g57
(g66
g59
NtRp3897
(dp3898
g62
(dp3899
g70
I3
ssg71
Nsg64
(lp3900
g57
(g73
g59
NtRp3901
(dp3902
g62
(dp3903
sg71
g3897
sg64
(lp3904
g57
(g78
g59
NtRp3905
(dp3906
g62
(dp3907
sg71
g3901
sg64
(lp3908
g57
(g58
g59
NtRp3909
(dp3910
g62
(dp3911
g70
I3
ssg71
g3905
sg64
(lp3912
cgluon.languages
lazyT_unpickle
p3913
(S't\x04\x00\x00\x00Home'
tRp3914
asbasbasbag57
(g73
g59
NtRp3915
(dp3916
g62
(dp3917
sg71
g3897
sg64
(lp3918
g57
(g78
g59
NtRp3919
(dp3920
g62
(dp3921
sg71
g3915
sg64
(lp3922
g57
(g58
g59
NtRp3923
(dp3924
g62
(dp3925
g70
I3
ssg71
g3919
sg64
(lp3926
g100
asbasbasbag57
(g73
g59
NtRp3927
(dp3928
g62
(dp3929
sg71
g3897
sg64
(lp3930
g57
(g78
g59
NtRp3931
(dp3932
g62
(dp3933
sg71
g3927
sg64
(lp3934
g57
(g58
g59
NtRp3935
(dp3936
g62
(dp3937
g70
I3
ssg71
g3931
sg64
(lp3938
S'/init/default/index'
p3939
asbasbasbag57
(g73
g59
NtRp3940
(dp3941
g62
(dp3942
sg71
g3897
sg64
(lp3943
g57
(g78
g59
NtRp3944
(dp3945
g62
(dp3946
sg71
g3940
sg64
(lp3947
g57
(g58
g59
NtRp3948
(dp3949
g62
(dp3950
g70
I3
ssg71
g3944
sg64
(lp3951
g57
(g66
g59
NtRp3952
(dp3953
g62
(dp3954
g70
I2
ssg71
Nsg64
(lp3955
sbasbasbasbasbasbasbasbag57
(g73
g59
NtRp3956
(dp3957
g62
(dp3958
sg71
g3881
sg64
(lp3959
g57
(g78
g59
NtRp3960
(dp3961
g62
(dp3962
sg71
g3956
sg64
(lp3963
g57
(g58
g59
NtRp3964
(dp3965
g62
(dp3966
g70
I4
ssg71
g3960
sg64
(lp3967
g57
(g66
g59
NtRp3968
(dp3969
g62
(dp3970
g70
I3
ssg71
Nsg64
(lp3971
g57
(g73
g59
NtRp3972
(dp3973
g62
(dp3974
sg71
g3968
sg64
(lp3975
g57
(g78
g59
NtRp3976
(dp3977
g62
(dp3978
sg71
g3972
sg64
(lp3979
g57
(g58
g59
NtRp3980
(dp3981
g62
(dp3982
g70
I3
ssg71
g3976
sg64
(lp3983
g3913
(S's\x08\x00\x00\x00This App'
tRp3984
asbasbasbag57
(g73
g59
NtRp3985
(dp3986
g62
(dp3987
sg71
g3968
sg64
(lp3988
g57
(g78
g59
NtRp3989
(dp3990
g62
(dp3991
sg71
g3985
sg64
(lp3992
g57
(g58
g59
NtRp3993
(dp3994
g62
(dp3995
g70
I3
ssg71
g3989
sg64
(lp3996
g100
asbasbasbag57
(g73
g59
NtRp3997
(dp3998
g62
(dp3999
sg71
g3968
sg64
(lp4000
g57
(g78
g59
NtRp4001
(dp4002
g62
(dp4003
sg71
g3997
sg64
(lp4004
g57
(g58
g59
NtRp4005
(dp4006
g62
(dp4007
g70
I3
ssg71
g4001
sg64
(lp4008
S'/admin/default/design/init'
p4009
asbasbasbag57
(g73
g59
NtRp4010
(dp4011
g62
(dp4012
sg71
g3968
sg64
(lp4013
g57
(g78
g59
NtRp4014
(dp4015
g62
(dp4016
sg71
g4010
sg64
(lp4017
g57
(g58
g59
NtRp4018
(dp4019
g62
(dp4020
g70
I3
ssg71
g4014
sg64
(lp4021
g57
(g66
g59
NtRp4022
(dp4023
g62
(dp4024
g70
I2
ssg71
Nsg64
(lp4025
g57
(g73
g59
NtRp4026
(dp4027
g62
(dp4028
sg71
g4022
sg64
(lp4029
g57
(g78
g59
NtRp4030
(dp4031
g62
(dp4032
sg71
g4026
sg64
(lp4033
g57
(g58
g59
NtRp4034
(dp4035
g62
(dp4036
g70
I2
ssg71
g4030
sg64
(lp4037
g57
(g66
g59
NtRp4038
(dp4039
g62
(dp4040
g70
I1
ssg71
Nsg64
(lp4041
g57
(g73
g59
NtRp4042
(dp4043
g62
(dp4044
sg71
g4038
sg64
(lp4045
g57
(g78
g59
NtRp4046
(dp4047
g62
(dp4048
sg71
g4042
sg64
(lp4049
g57
(g58
g59
NtRp4050
(dp4051
g62
(dp4052
g70
I1
ssg71
g4046
sg64
(lp4053
g3913
(S't\n\x00\x00\x00Controller'
tRp4054
asbasbasbag57
(g73
g59
NtRp4055
(dp4056
g62
(dp4057
sg71
g4038
sg64
(lp4058
g57
(g78
g59
NtRp4059
(dp4060
g62
(dp4061
sg71
g4055
sg64
(lp4062
g57
(g58
g59
NtRp4063
(dp4064
g62
(dp4065
g70
I1
ssg71
g4059
sg64
(lp4066
I00
asbasbasbag57
(g73
g59
NtRp4067
(dp4068
g62
(dp4069
sg71
g4038
sg64
(lp4070
g57
(g78
g59
NtRp4071
(dp4072
g62
(dp4073
sg71
g4067
sg64
(lp4074
g57
(g58
g59
NtRp4075
(dp4076
g62
(dp4077
g70
I1
ssg71
g4071
sg64
(lp4078
S'/admin/default/edit/init/controllers/default.py'
p4079
asbasbasbasbasbasbasbag57
(g73
g59
NtRp4080
(dp4081
g62
(dp4082
sg71
g4022
sg64
(lp4083
g57
(g78
g59
NtRp4084
(dp4085
g62
(dp4086
sg71
g4080
sg64
(lp4087
g57
(g58
g59
NtRp4088
(dp4089
g62
(dp4090
g70
I2
ssg71
g4084
sg64
(lp4091
g57
(g66
g59
NtRp4092
(dp4093
g62
(dp4094
g70
I1
ssg71
Nsg64
(lp4095
g57
(g73
g59
NtRp4096
(dp4097
g62
(dp4098
sg71
g4092
sg64
(lp4099
g57
(g78
g59
NtRp4100
(dp4101
g62
(dp4102
sg71
g4096
sg64
(lp4103
g57
(g58
g59
NtRp4104
(dp4105
g62
(dp4106
g70
I1
ssg71
g4100
sg64
(lp4107
g3913
(S't\x04\x00\x00\x00View'
tRp4108
asbasbasbag57
(g73
g59
NtRp4109
(dp4110
g62
(dp4111
sg71
g4092
sg64
(lp4112
g57
(g78
g59
NtRp4113
(dp4114
g62
(dp4115
sg71
g4109
sg64
(lp4116
g57
(g58
g59
NtRp4117
(dp4118
g62
(dp4119
g70
I1
ssg71
g4113
sg64
(lp4120
I00
asbasbasbag57
(g73
g59
NtRp4121
(dp4122
g62
(dp4123
sg71
g4092
sg64
(lp4124
g57
(g78
g59
NtRp4125
(dp4126
g62
(dp4127
sg71
g4121
sg64
(lp4128
g57
(g58
g59
NtRp4129
(dp4130
g62
(dp4131
g70
I1
ssg71
g4125
sg64
(lp4132
S'/admin/default/edit/init/views/default/join.html'
p4133
asbasbasbasbasbasbasbag57
(g73
g59
NtRp4134
(dp4135
g62
(dp4136
sg71
g4022
sg64
(lp4137
g57
(g78
g59
NtRp4138
(dp4139
g62
(dp4140
sg71
g4134
sg64
(lp4141
g57
(g58
g59
NtRp4142
(dp4143
g62
(dp4144
g70
I2
ssg71
g4138
sg64
(lp4145
g57
(g66
g59
NtRp4146
(dp4147
g62
(dp4148
g70
I1
ssg71
Nsg64
(lp4149
g57
(g73
g59
NtRp4150
(dp4151
g62
(dp4152
sg71
g4146
sg64
(lp4153
g57
(g78
g59
NtRp4154
(dp4155
g62
(dp4156
sg71
g4150
sg64
(lp4157
g57
(g58
g59
NtRp4158
(dp4159
g62
(dp4160
g70
I1
ssg71
g4154
sg64
(lp4161
g3913
(S't\x06\x00\x00\x00Layout'
tRp4162
asbasbasbag57
(g73
g59
NtRp4163
(dp4164
g62
(dp4165
sg71
g4146
sg64
(lp4166
g57
(g78
g59
NtRp4167
(dp4168
g62
(dp4169
sg71
g4163
sg64
(lp4170
g57
(g58
g59
NtRp4171
(dp4172
g62
(dp4173
g70
I1
ssg71
g4167
sg64
(lp4174
I00
asbasbasbag57
(g73
g59
NtRp4175
(dp4176
g62
(dp4177
sg71
g4146
sg64
(lp4178
g57
(g78
g59
NtRp4179
(dp4180
g62
(dp4181
sg71
g4175
sg64
(lp4182
g57
(g58
g59
NtRp4183
(dp4184
g62
(dp4185
g70
I1
ssg71
g4179
sg64
(lp4186
S'/admin/default/edit/init/views/layout.html'
p4187
asbasbasbasbasbasbasbag57
(g73
g59
NtRp4188
(dp4189
g62
(dp4190
sg71
g4022
sg64
(lp4191
g57
(g78
g59
NtRp4192
(dp4193
g62
(dp4194
sg71
g4188
sg64
(lp4195
g57
(g58
g59
NtRp4196
(dp4197
g62
(dp4198
g70
I2
ssg71
g4192
sg64
(lp4199
g57
(g66
g59
NtRp4200
(dp4201
g62
(dp4202
g70
I1
ssg71
Nsg64
(lp4203
g57
(g73
g59
NtRp4204
(dp4205
g62
(dp4206
sg71
g4200
sg64
(lp4207
g57
(g78
g59
NtRp4208
(dp4209
g62
(dp4210
sg71
g4204
sg64
(lp4211
g57
(g58
g59
NtRp4212
(dp4213
g62
(dp4214
g70
I1
ssg71
g4208
sg64
(lp4215
g3913
(S't\n\x00\x00\x00Stylesheet'
tRp4216
asbasbasbag57
(g73
g59
NtRp4217
(dp4218
g62
(dp4219
sg71
g4200
sg64
(lp4220
g57
(g78
g59
NtRp4221
(dp4222
g62
(dp4223
sg71
g4217
sg64
(lp4224
g57
(g58
g59
NtRp4225
(dp4226
g62
(dp4227
g70
I1
ssg71
g4221
sg64
(lp4228
I00
asbasbasbag57
(g73
g59
NtRp4229
(dp4230
g62
(dp4231
sg71
g4200
sg64
(lp4232
g57
(g78
g59
NtRp4233
(dp4234
g62
(dp4235
sg71
g4229
sg64
(lp4236
g57
(g58
g59
NtRp4237
(dp4238
g62
(dp4239
g70
I1
ssg71
g4233
sg64
(lp4240
S'/admin/default/edit/init/static/base.css'
p4241
asbasbasbasbasbasbasbag57
(g73
g59
NtRp4242
(dp4243
g62
(dp4244
sg71
g4022
sg64
(lp4245
g57
(g78
g59
NtRp4246
(dp4247
g62
(dp4248
sg71
g4242
sg64
(lp4249
g57
(g58
g59
NtRp4250
(dp4251
g62
(dp4252
g70
I2
ssg71
g4246
sg64
(lp4253
g57
(g66
g59
NtRp4254
(dp4255
g62
(dp4256
g70
I1
ssg71
Nsg64
(lp4257
g57
(g73
g59
NtRp4258
(dp4259
g62
(dp4260
sg71
g4254
sg64
(lp4261
g57
(g78
g59
NtRp4262
(dp4263
g62
(dp4264
sg71
g4258
sg64
(lp4265
g57
(g58
g59
NtRp4266
(dp4267
g62
(dp4268
g70
I1
ssg71
g4262
sg64
(lp4269
g3913
(S's\x08\x00\x00\x00DB Model'
tRp4270
asbasbasbag57
(g73
g59
NtRp4271
(dp4272
g62
(dp4273
sg71
g4254
sg64
(lp4274
g57
(g78
g59
NtRp4275
(dp4276
g62
(dp4277
sg71
g4271
sg64
(lp4278
g57
(g58
g59
NtRp4279
(dp4280
g62
(dp4281
g70
I1
ssg71
g4275
sg64
(lp4282
I00
asbasbasbag57
(g73
g59
NtRp4283
(dp4284
g62
(dp4285
sg71
g4254
sg64
(lp4286
g57
(g78
g59
NtRp4287
(dp4288
g62
(dp4289
sg71
g4283
sg64
(lp4290
g57
(g58
g59
NtRp4291
(dp4292
g62
(dp4293
g70
I1
ssg71
g4287
sg64
(lp4294
S'/admin/default/edit/init/models/db.py'
p4295
asbasbasbasbasbasbasbag57
(g73
g59
NtRp4296
(dp4297
g62
(dp4298
sg71
g4022
sg64
(lp4299
g57
(g78
g59
NtRp4300
(dp4301
g62
(dp4302
sg71
g4296
sg64
(lp4303
g57
(g58
g59
NtRp4304
(dp4305
g62
(dp4306
g70
I2
ssg71
g4300
sg64
(lp4307
g57
(g66
g59
NtRp4308
(dp4309
g62
(dp4310
g70
I1
ssg71
Nsg64
(lp4311
g57
(g73
g59
NtRp4312
(dp4313
g62
(dp4314
sg71
g4308
sg64
(lp4315
g57
(g78
g59
NtRp4316
(dp4317
g62
(dp4318
sg71
g4312
sg64
(lp4319
g57
(g58
g59
NtRp4320
(dp4321
g62
(dp4322
g70
I1
ssg71
g4316
sg64
(lp4323
g3913
(S's\n\x00\x00\x00Menu Model'
tRp4324
asbasbasbag57
(g73
g59
NtRp4325
(dp4326
g62
(dp4327
sg71
g4308
sg64
(lp4328
g57
(g78
g59
NtRp4329
(dp4330
g62
(dp4331
sg71
g4325
sg64
(lp4332
g57
(g58
g59
NtRp4333
(dp4334
g62
(dp4335
g70
I1
ssg71
g4329
sg64
(lp4336
I00
asbasbasbag57
(g73
g59
NtRp4337
(dp4338
g62
(dp4339
sg71
g4308
sg64
(lp4340
g57
(g78
g59
NtRp4341
(dp4342
g62
(dp4343
sg71
g4337
sg64
(lp4344
g57
(g58
g59
NtRp4345
(dp4346
g62
(dp4347
g70
I1
ssg71
g4341
sg64
(lp4348
S'/admin/default/edit/init/models/menu.py'
p4349
asbasbasbasbasbasbasbag57
(g73
g59
NtRp4350
(dp4351
g62
(dp4352
sg71
g4022
sg64
(lp4353
g57
(g78
g59
NtRp4354
(dp4355
g62
(dp4356
sg71
g4350
sg64
(lp4357
g57
(g58
g59
NtRp4358
(dp4359
g62
(dp4360
g70
I2
ssg71
g4354
sg64
(lp4361
g57
(g66
g59
NtRp4362
(dp4363
g62
(dp4364
g70
I1
ssg71
Nsg64
(lp4365
g57
(g73
g59
NtRp4366
(dp4367
g62
(dp4368
sg71
g4362
sg64
(lp4369
g57
(g78
g59
NtRp4370
(dp4371
g62
(dp4372
sg71
g4366
sg64
(lp4373
g57
(g58
g59
NtRp4374
(dp4375
g62
(dp4376
g70
I1
ssg71
g4370
sg64
(lp4377
g3913
(S't\x08\x00\x00\x00Database'
tRp4378
asbasbasbag57
(g73
g59
NtRp4379
(dp4380
g62
(dp4381
sg71
g4362
sg64
(lp4382
g57
(g78
g59
NtRp4383
(dp4384
g62
(dp4385
sg71
g4379
sg64
(lp4386
g57
(g58
g59
NtRp4387
(dp4388
g62
(dp4389
g70
I1
ssg71
g4383
sg64
(lp4390
I00
asbasbasbag57
(g73
g59
NtRp4391
(dp4392
g62
(dp4393
sg71
g4362
sg64
(lp4394
g57
(g78
g59
NtRp4395
(dp4396
g62
(dp4397
sg71
g4391
sg64
(lp4398
g57
(g58
g59
NtRp4399
(dp4400
g62
(dp4401
g70
I1
ssg71
g4395
sg64
(lp4402
S'/init/appadmin/index'
p4403
asbasbasbasbasbasbasbag57
(g73
g59
NtRp4404
(dp4405
g62
(dp4406
sg71
g4022
sg64
(lp4407
g57
(g78
g59
NtRp4408
(dp4409
g62
(dp4410
sg71
g4404
sg64
(lp4411
g57
(g58
g59
NtRp4412
(dp4413
g62
(dp4414
g70
I2
ssg71
g4408
sg64
(lp4415
g57
(g66
g59
NtRp4416
(dp4417
g62
(dp4418
g70
I1
ssg71
Nsg64
(lp4419
g57
(g73
g59
NtRp4420
(dp4421
g62
(dp4422
sg71
g4416
sg64
(lp4423
g57
(g78
g59
NtRp4424
(dp4425
g62
(dp4426
sg71
g4420
sg64
(lp4427
g57
(g58
g59
NtRp4428
(dp4429
g62
(dp4430
g70
I1
ssg71
g4424
sg64
(lp4431
g3913
(S't\x06\x00\x00\x00Errors'
tRp4432
asbasbasbag57
(g73
g59
NtRp4433
(dp4434
g62
(dp4435
sg71
g4416
sg64
(lp4436
g57
(g78
g59
NtRp4437
(dp4438
g62
(dp4439
sg71
g4433
sg64
(lp4440
g57
(g58
g59
NtRp4441
(dp4442
g62
(dp4443
g70
I1
ssg71
g4437
sg64
(lp4444
I00
asbasbasbag57
(g73
g59
NtRp4445
(dp4446
g62
(dp4447
sg71
g4416
sg64
(lp4448
g57
(g78
g59
NtRp4449
(dp4450
g62
(dp4451
sg71
g4445
sg64
(lp4452
g57
(g58
g59
NtRp4453
(dp4454
g62
(dp4455
g70
I1
ssg71
g4449
sg64
(lp4456
S'/admin/default/errors/init'
p4457
asbasbasbasbasbasbasbag57
(g73
g59
NtRp4458
(dp4459
g62
(dp4460
sg71
g4022
sg64
(lp4461
g57
(g78
g59
NtRp4462
(dp4463
g62
(dp4464
sg71
g4458
sg64
(lp4465
g57
(g58
g59
NtRp4466
(dp4467
g62
(dp4468
g70
I2
ssg71
g4462
sg64
(lp4469
g57
(g66
g59
NtRp4470
(dp4471
g62
(dp4472
g70
I1
ssg71
Nsg64
(lp4473
g57
(g73
g59
NtRp4474
(dp4475
g62
(dp4476
sg71
g4470
sg64
(lp4477
g57
(g78
g59
NtRp4478
(dp4479
g62
(dp4480
sg71
g4474
sg64
(lp4481
g57
(g58
g59
NtRp4482
(dp4483
g62
(dp4484
g70
I1
ssg71
g4478
sg64
(lp4485
g3913
(S't\x05\x00\x00\x00About'
tRp4486
asbasbasbag57
(g73
g59
NtRp4487
(dp4488
g62
(dp4489
sg71
g4470
sg64
(lp4490
g57
(g78
g59
NtRp4491
(dp4492
g62
(dp4493
sg71
g4487
sg64
(lp4494
g57
(g58
g59
NtRp4495
(dp4496
g62
(dp4497
g70
I1
ssg71
g4491
sg64
(lp4498
I00
asbasbasbag57
(g73
g59
NtRp4499
(dp4500
g62
(dp4501
sg71
g4470
sg64
(lp4502
g57
(g78
g59
NtRp4503
(dp4504
g62
(dp4505
sg71
g4499
sg64
(lp4506
g57
(g58
g59
NtRp4507
(dp4508
g62
(dp4509
g70
I1
ssg71
g4503
sg64
(lp4510
S'/admin/default/about/init'
p4511
asbasbasbasbasbasbasbasbasbasbasbasbasbasbasbag57
(g73
g59
NtRp4512
(dp4513
g62
(dp4514
sg71
g3881
sg64
(lp4515
g57
(g78
g59
NtRp4516
(dp4517
g62
(dp4518
sg71
g4512
sg64
(lp4519
g57
(g58
g59
NtRp4520
(dp4521
g62
(dp4522
g70
I4
ssg71
g4516
sg64
(lp4523
g57
(g66
g59
NtRp4524
(dp4525
g62
(dp4526
g70
I3
ssg71
Nsg64
(lp4527
g57
(g73
g59
NtRp4528
(dp4529
g62
(dp4530
sg71
g4524
sg64
(lp4531
g57
(g78
g59
NtRp4532
(dp4533
g62
(dp4534
sg71
g4528
sg64
(lp4535
g57
(g58
g59
NtRp4536
(dp4537
g62
(dp4538
g70
I3
ssg71
g4532
sg64
(lp4539
g3913
(S't\t\x00\x00\x00Resources'
tRp4540
asbasbasbag57
(g73
g59
NtRp4541
(dp4542
g62
(dp4543
sg71
g4524
sg64
(lp4544
g57
(g78
g59
NtRp4545
(dp4546
g62
(dp4547
sg71
g4541
sg64
(lp4548
g57
(g58
g59
NtRp4549
(dp4550
g62
(dp4551
g70
I3
ssg71
g4545
sg64
(lp4552
g100
asbasbasbag57
(g73
g59
NtRp4553
(dp4554
g62
(dp4555
sg71
g4524
sg64
(lp4556
g57
(g78
g59
NtRp4557
(dp4558
g62
(dp4559
sg71
g4553
sg64
(lp4560
g57
(g58
g59
NtRp4561
(dp4562
g62
(dp4563
g70
I3
ssg71
g4557
sg64
(lp4564
S'None'
p4565
asbasbasbag57
(g73
g59
NtRp4566
(dp4567
g62
(dp4568
sg71
g4524
sg64
(lp4569
g57
(g78
g59
NtRp4570
(dp4571
g62
(dp4572
sg71
g4566
sg64
(lp4573
g57
(g58
g59
NtRp4574
(dp4575
g62
(dp4576
g70
I3
ssg71
g4570
sg64
(lp4577
g57
(g66
g59
NtRp4578
(dp4579
g62
(dp4580
g70
I2
ssg71
Nsg64
(lp4581
g57
(g73
g59
NtRp4582
(dp4583
g62
(dp4584
sg71
g4578
sg64
(lp4585
g57
(g78
g59
NtRp4586
(dp4587
g62
(dp4588
sg71
g4582
sg64
(lp4589
g57
(g58
g59
NtRp4590
(dp4591
g62
(dp4592
g70
I2
ssg71
g4586
sg64
(lp4593
g57
(g66
g59
NtRp4594
(dp4595
g62
(dp4596
g70
I1
ssg71
Nsg64
(lp4597
g57
(g73
g59
NtRp4598
(dp4599
g62
(dp4600
sg71
g4594
sg64
(lp4601
g57
(g78
g59
NtRp4602
(dp4603
g62
(dp4604
sg71
g4598
sg64
(lp4605
g57
(g58
g59
NtRp4606
(dp4607
g62
(dp4608
g70
I1
ssg71
g4602
sg64
(lp4609
g3913
(S't\r\x00\x00\x00Documentation'
tRp4610
asbasbasbag57
(g73
g59
NtRp4611
(dp4612
g62
(dp4613
sg71
g4594
sg64
(lp4614
g57
(g78
g59
NtRp4615
(dp4616
g62
(dp4617
sg71
g4611
sg64
(lp4618
g57
(g58
g59
NtRp4619
(dp4620
g62
(dp4621
g70
I1
ssg71
g4615
sg64
(lp4622
I00
asbasbasbag57
(g73
g59
NtRp4623
(dp4624
g62
(dp4625
sg71
g4594
sg64
(lp4626
g57
(g78
g59
NtRp4627
(dp4628
g62
(dp4629
sg71
g4623
sg64
(lp4630
g57
(g58
g59
NtRp4631
(dp4632
g62
(dp4633
g70
I1
ssg71
g4627
sg64
(lp4634
S'http://www.web2py.com/book'
p4635
asbasbasbag57
(g73
g59
NtRp4636
(dp4637
g62
(dp4638
sg71
g4594
sg64
(lp4639
g57
(g78
g59
NtRp4640
(dp4641
g62
(dp4642
sg71
g4636
sg64
(lp4643
g57
(g58
g59
NtRp4644
(dp4645
g62
(dp4646
g70
I1
ssg71
g4640
sg64
(lp4647
(lp4648
(g3913
(S't\x07\x00\x00\x00Preface'
tRp4649
I00
S'http://www.web2py.com/book/default/chapter/00'
p4650
tp4651
a(g3913
(S't\x0c\x00\x00\x00Introduction'
tRp4652
I00
S'http://www.web2py.com/book/default/chapter/01'
p4653
tp4654
a(g3913
(S't\x06\x00\x00\x00Python'
tRp4655
I00
S'http://www.web2py.com/book/default/chapter/02'
p4656
tp4657
a(g3913
(S't\x08\x00\x00\x00Overview'
tRp4658
I00
S'http://www.web2py.com/book/default/chapter/03'
p4659
tp4660
a(g3913
(S's\x08\x00\x00\x00The Core'
tRp4661
I00
S'http://www.web2py.com/book/default/chapter/04'
p4662
tp4663
a(g3913
(S's\t\x00\x00\x00The Views'
tRp4664
I00
S'http://www.web2py.com/book/default/chapter/05'
p4665
tp4666
a(g3913
(S't\x08\x00\x00\x00Database'
tRp4667
I00
S'http://www.web2py.com/book/default/chapter/06'
p4668
tp4669
a(g3913
(S's\x14\x00\x00\x00Forms and Validators'
tRp4670
I00
S'http://www.web2py.com/book/default/chapter/07'
p4671
tp4672
a(g3913
(S's\x0e\x00\x00\x00Access Control'
tRp4673
I00
S'http://www.web2py.com/book/default/chapter/08'
p4674
tp4675
a(g3913
(S't\x08\x00\x00\x00Services'
tRp4676
I00
S'http://www.web2py.com/book/default/chapter/09'
p4677
tp4678
a(g3913
(S's\x0c\x00\x00\x00Ajax Recipes'
tRp4679
I00
S'http://www.web2py.com/book/default/chapter/10'
p4680
tp4681
a(g3913
(S's\x12\x00\x00\x00Deployment Recipes'
tRp4682
I00
S'http://www.web2py.com/book/default/chapter/11'
p4683
tp4684
a(g3913
(S's\r\x00\x00\x00Other Recipes'
tRp4685
I00
S'http://www.web2py.com/book/default/chapter/12'
p4686
tp4687
a(g3913
(S's\r\x00\x00\x00Buy this book'
tRp4688
I00
S'http://stores.lulu.com/web2py'
p4689
tp4690
aasbasbasbasbasbasbasbag57
(g73
g59
NtRp4691
(dp4692
g62
(dp4693
sg71
g4578
sg64
(lp4694
g57
(g78
g59
NtRp4695
(dp4696
g62
(dp4697
sg71
g4691
sg64
(lp4698
g57
(g58
g59
NtRp4699
(dp4700
g62
(dp4701
g70
I2
ssg71
g4695
sg64
(lp4702
g57
(g66
g59
NtRp4703
(dp4704
g62
(dp4705
g70
I1
ssg71
Nsg64
(lp4706
g57
(g73
g59
NtRp4707
(dp4708
g62
(dp4709
sg71
g4703
sg64
(lp4710
g57
(g78
g59
NtRp4711
(dp4712
g62
(dp4713
sg71
g4707
sg64
(lp4714
g57
(g58
g59
NtRp4715
(dp4716
g62
(dp4717
g70
I1
ssg71
g4711
sg64
(lp4718
g3913
(S't\t\x00\x00\x00Community'
tRp4719
asbasbasbag57
(g73
g59
NtRp4720
(dp4721
g62
(dp4722
sg71
g4703
sg64
(lp4723
g57
(g78
g59
NtRp4724
(dp4725
g62
(dp4726
sg71
g4720
sg64
(lp4727
g57
(g58
g59
NtRp4728
(dp4729
g62
(dp4730
g70
I1
ssg71
g4724
sg64
(lp4731
I00
asbasbasbag57
(g73
g59
NtRp4732
(dp4733
g62
(dp4734
sg71
g4703
sg64
(lp4735
g57
(g78
g59
NtRp4736
(dp4737
g62
(dp4738
sg71
g4732
sg64
(lp4739
g57
(g58
g59
NtRp4740
(dp4741
g62
(dp4742
g70
I1
ssg71
g4736
sg64
(lp4743
Nasbasbasbag57
(g73
g59
NtRp4744
(dp4745
g62
(dp4746
sg71
g4703
sg64
(lp4747
g57
(g78
g59
NtRp4748
(dp4749
g62
(dp4750
sg71
g4744
sg64
(lp4751
g57
(g58
g59
NtRp4752
(dp4753
g62
(dp4754
g70
I1
ssg71
g4748
sg64
(lp4755
(lp4756
(g3913
(S't\x06\x00\x00\x00Groups'
tRp4757
I00
S'http://www.web2py.com/examples/default/usergroups'
p4758
tp4759
a(g3913
(S't\x07\x00\x00\x00Twitter'
tRp4760
I00
S'http://twitter.com/web2py'
p4761
tp4762
a(g3913
(S's\t\x00\x00\x00Live chat'
tRp4763
I00
S'http://mibbit.com/?channel=%23web2py&server=irc.mibbit.net'
p4764
tp4765
a(g3913
(S's\n\x00\x00\x00User Voice'
tRp4766
I00
S'http://web2py.uservoice.com/'
p4767
tp4768
aasbasbasbasbasbasbasbag57
(g73
g59
NtRp4769
(dp4770
g62
(dp4771
sg71
g4578
sg64
(lp4772
g57
(g78
g59
NtRp4773
(dp4774
g62
(dp4775
sg71
g4769
sg64
(lp4776
g57
(g58
g59
NtRp4777
(dp4778
g62
(dp4779
g70
I2
ssg71
g4773
sg64
(lp4780
g57
(g66
g59
NtRp4781
(dp4782
g62
(dp4783
g70
I1
ssg71
Nsg64
(lp4784
g57
(g73
g59
NtRp4785
(dp4786
g62
(dp4787
sg71
g4781
sg64
(lp4788
g57
(g78
g59
NtRp4789
(dp4790
g62
(dp4791
sg71
g4785
sg64
(lp4792
g57
(g58
g59
NtRp4793
(dp4794
g62
(dp4795
g70
I1
ssg71
g4789
sg64
(lp4796
g3913
(S't\x06\x00\x00\x00Web2py'
tRp4797
asbasbasbag57
(g73
g59
NtRp4798
(dp4799
g62
(dp4800
sg71
g4781
sg64
(lp4801
g57
(g78
g59
NtRp4802
(dp4803
g62
(dp4804
sg71
g4798
sg64
(lp4805
g57
(g58
g59
NtRp4806
(dp4807
g62
(dp4808
g70
I1
ssg71
g4802
sg64
(lp4809
I00
asbasbasbag57
(g73
g59
NtRp4810
(dp4811
g62
(dp4812
sg71
g4781
sg64
(lp4813
g57
(g78
g59
NtRp4814
(dp4815
g62
(dp4816
sg71
g4810
sg64
(lp4817
g57
(g58
g59
NtRp4818
(dp4819
g62
(dp4820
g70
I1
ssg71
g4814
sg64
(lp4821
S'http://www.web2py.com'
p4822
asbasbasbag57
(g73
g59
NtRp4823
(dp4824
g62
(dp4825
sg71
g4781
sg64
(lp4826
g57
(g78
g59
NtRp4827
(dp4828
g62
(dp4829
sg71
g4823
sg64
(lp4830
g57
(g58
g59
NtRp4831
(dp4832
g62
(dp4833
g70
I1
ssg71
g4827
sg64
(lp4834
(lp4835
(g3913
(S't\x08\x00\x00\x00Download'
tRp4836
I00
S'http://www.web2py.com/examples/default/download'
p4837
tp4838
a(g3913
(S't\x07\x00\x00\x00Support'
tRp4839
I00
S'http://www.web2py.com/examples/default/support'
p4840
tp4841
a(g3913
(S's\x0e\x00\x00\x00Quick Examples'
tRp4842
I00
S'http://web2py.com/examples/default/examples'
p4843
tp4844
a(g3913
(S't\x03\x00\x00\x00FAQ'
tRp4845
I00
S'http://web2py.com/AlterEgo'
p4846
tp4847
a(g3913
(S's\x11\x00\x00\x00Free Applications'
tRp4848
I00
S'http://web2py.com/appliances'
p4849
tp4850
a(g3913
(S't\x07\x00\x00\x00Plugins'
tRp4851
I00
S'http://web2py.com/plugins'
p4852
tp4853
a(g3913
(S't\x07\x00\x00\x00Recipes'
tRp4854
I00
S'http://web2pyslices.com/'
p4855
tp4856
a(g3913
(S't\x04\x00\x00\x00Demo'
tRp4857
I00
S'http://web2py.com/demo_admin'
p4858
tp4859
a(g3913
(S't\x08\x00\x00\x00Semantic'
tRp4860
I00
S'http://web2py.com/semantic'
p4861
tp4862
a(g3913
(S't\x07\x00\x00\x00Layouts'
tRp4863
I00
S'http://web2py.com/layouts'
p4864
tp4865
a(g3913
(S't\x06\x00\x00\x00Videos'
tRp4866
I00
S'http://www.web2py.com/examples/default/videos/'
p4867
tp4868
aasbasbasbasbasbasbasbasbasbasbasbasbasbasbasbasbasbasbasbag57
(g73
g59
NtRp4869
(dp4870
g62
(dp4871
sg71
g3408
sg64
(lp4872
g57
(g78
g59
NtRp4873
(dp4874
g62
(dp4875
g82
g83
ssg71
g4869
sg64
(lp4876
S'meta'
p4877
asbag57
(g78
g59
NtRp4878
(dp4879
g62
(dp4880
g89
g90
ssg71
g4869
sg64
(lp4881
S':'
asbag57
(g78
g59
NtRp4882
(dp4883
g62
(dp4884
sg71
g4869
sg64
(lp4885
g57
(g58
g59
NtRp4886
(dp4887
g62
(dp4888
g70
I5
ssg71
g4882
sg64
(lp4889
g57
(g66
g59
NtRp4890
(dp4891
g62
(dp4892
g70
I4
ssg71
Nsg64
(lp4893
g57
(g73
g59
NtRp4894
(dp4895
g62
(dp4896
sg71
g4890
sg64
(lp4897
g57
(g78
g59
NtRp4898
(dp4899
g62
(dp4900
g82
g83
ssg71
g4894
sg64
(lp4901
S'author'
p4902
asbag57
(g78
g59
NtRp4903
(dp4904
g62
(dp4905
g89
g90
ssg71
g4894
sg64
(lp4906
S':'
asbag57
(g78
g59
NtRp4907
(dp4908
g62
(dp4909
sg71
g4894
sg64
(lp4910
g57
(g58
g59
NtRp4911
(dp4912
g62
(dp4913
g70
I4
ssg71
g4907
sg64
(lp4914
S'Adrian Edwards'
p4915
asbasbasbag57
(g73
g59
NtRp4916
(dp4917
g62
(dp4918
sg71
g4890
sg64
(lp4919
g57
(g78
g59
NtRp4920
(dp4921
g62
(dp4922
g82
g83
ssg71
g4916
sg64
(lp4923
S'copyright'
p4924
asbag57
(g78
g59
NtRp4925
(dp4926
g62
(dp4927
g89
g90
ssg71
g4916
sg64
(lp4928
S':'
asbag57
(g78
g59
NtRp4929
(dp4930
g62
(dp4931
sg71
g4916
sg64
(lp4932
g57
(g58
g59
NtRp4933
(dp4934
g62
(dp4935
g70
I4
ssg71
g4929
sg64
(lp4936
S'Copyright 2011'
p4937
asbasbasbag57
(g73
g59
NtRp4938
(dp4939
g62
(dp4940
sg71
g4890
sg64
(lp4941
g57
(g78
g59
NtRp4942
(dp4943
g62
(dp4944
g82
g83
ssg71
g4938
sg64
(lp4945
S'description'
p4946
asbag57
(g78
g59
NtRp4947
(dp4948
g62
(dp4949
g89
g90
ssg71
g4938
sg64
(lp4950
S':'
asbag57
(g78
g59
NtRp4951
(dp4952
g62
(dp4953
sg71
g4938
sg64
(lp4954
g57
(g58
g59
NtRp4955
(dp4956
g62
(dp4957
g70
I4
ssg71
g4951
sg64
(lp4958
S'Fitness Challenge'
p4959
asbasbasbag57
(g73
g59
NtRp4960
(dp4961
g62
(dp4962
sg71
g4890
sg64
(lp4963
g57
(g78
g59
NtRp4964
(dp4965
g62
(dp4966
g82
g83
ssg71
g4960
sg64
(lp4967
S'generator'
p4968
asbag57
(g78
g59
NtRp4969
(dp4970
g62
(dp4971
g89
g90
ssg71
g4960
sg64
(lp4972
S':'
asbag57
(g78
g59
NtRp4973
(dp4974
g62
(dp4975
sg71
g4960
sg64
(lp4976
g57
(g58
g59
NtRp4977
(dp4978
g62
(dp4979
g70
I4
ssg71
g4973
sg64
(lp4980
S'Web2py Web Framework'
p4981
asbasbasbag57
(g73
g59
NtRp4982
(dp4983
g62
(dp4984
sg71
g4890
sg64
(lp4985
g57
(g78
g59
NtRp4986
(dp4987
g62
(dp4988
g82
g83
ssg71
g4982
sg64
(lp4989
S'keywords'
p4990
asbag57
(g78
g59
NtRp4991
(dp4992
g62
(dp4993
g89
g90
ssg71
g4982
sg64
(lp4994
S':'
asbag57
(g78
g59
NtRp4995
(dp4996
g62
(dp4997
sg71
g4982
sg64
(lp4998
g57
(g58
g59
NtRp4999
(dp5000
g62
(dp5001
g70
I4
ssg71
g4995
sg64
(lp5002
S'web2py, python, framework'
p5003
asbasbasbasbasbasbasbag57
(g73
g59
NtRp5004
(dp5005
g62
(dp5006
sg71
g3408
sg64
(lp5007
g57
(g78
g59
NtRp5008
(dp5009
g62
(dp5010
g82
g83
ssg71
g5004
sg64
(lp5011
S'postprocessing'
p5012
asbag57
(g78
g59
NtRp5013
(dp5014
g62
(dp5015
g89
g90
ssg71
g5004
sg64
(lp5016
S':'
asbag57
(g78
g59
NtRp5017
(dp5018
g62
(dp5019
sg71
g5004
sg64
(lp5020
g57
(g58
g59
NtRp5021
(dp5022
g62
(dp5023
g70
I5
ssg71
g5017
sg64
(lp5024
g57
(g66
g59
NtRp5025
(dp5026
g62
(dp5027
g70
I4
ssg71
Nsg64
(lp5028
sbasbasbasbag57
(g73
g59
NtRp5029
(dp5030
g62
(dp5031
sg71
g3408
sg64
(lp5032
g57
(g78
g59
NtRp5033
(dp5034
g62
(dp5035
g82
g83
ssg71
g5029
sg64
(lp5036
S'session_file'
p5037
asbag57
(g78
g59
NtRp5038
(dp5039
g62
(dp5040
g89
g90
ssg71
g5029
sg64
(lp5041
S':'
asbag57
(g78
g59
NtRp5042
(dp5043
g62
(dp5044
sg71
g5029
sg64
(lp5045
g57
(g58
g59
NtRp5046
(dp5047
g62
(dp5048
g70
I5
ssg71
g5042
sg64
(lp5049
S"<open file 'P:\\School\\DePaul\\Projects\\CSC_438\\web2py\\applications\\init\\sessions\\127.0.0.1-9cf14084-4033-491f-99b2-106d13fb9973', mode 'rb+' at 0x03591C80>"
p5050
asbasbasbag57
(g73
g59
NtRp5051
(dp5052
g62
(dp5053
sg71
g3408
sg64
(lp5054
g57
(g78
g59
NtRp5055
(dp5056
g62
(dp5057
g82
g83
ssg71
g5051
sg64
(lp5058
S'session_filename'
p5059
asbag57
(g78
g59
NtRp5060
(dp5061
g62
(dp5062
g89
g90
ssg71
g5051
sg64
(lp5063
S':'
asbag57
(g78
g59
NtRp5064
(dp5065
g62
(dp5066
sg71
g5051
sg64
(lp5067
g57
(g58
g59
NtRp5068
(dp5069
g62
(dp5070
g70
I5
ssg71
g5064
sg64
(lp5071
S'P:\\School\\DePaul\\Projects\\CSC_438\\web2py\\applications\\init\\sessions\\127.0.0.1-9cf14084-4033-491f-99b2-106d13fb9973'
p5072
asbasbasbag57
(g73
g59
NtRp5073
(dp5074
g62
(dp5075
sg71
g3408
sg64
(lp5076
g57
(g78
g59
NtRp5077
(dp5078
g62
(dp5079
g82
g83
ssg71
g5073
sg64
(lp5080
S'session_id'
p5081
asbag57
(g78
g59
NtRp5082
(dp5083
g62
(dp5084
g89
g90
ssg71
g5073
sg64
(lp5085
S':'
asbag57
(g78
g59
NtRp5086
(dp5087
g62
(dp5088
sg71
g5073
sg64
(lp5089
g57
(g58
g59
NtRp5090
(dp5091
g62
(dp5092
g70
I5
ssg71
g5086
sg64
(lp5093
S'127.0.0.1-9cf14084-4033-491f-99b2-106d13fb9973'
p5094
asbasbasbag57
(g73
g59
NtRp5095
(dp5096
g62
(dp5097
sg71
g3408
sg64
(lp5098
g57
(g78
g59
NtRp5099
(dp5100
g62
(dp5101
g82
g83
ssg71
g5095
sg64
(lp5102
S'session_id_name'
p5103
asbag57
(g78
g59
NtRp5104
(dp5105
g62
(dp5106
g89
g90
ssg71
g5095
sg64
(lp5107
S':'
asbag57
(g78
g59
NtRp5108
(dp5109
g62
(dp5110
sg71
g5095
sg64
(lp5111
g57
(g58
g59
NtRp5112
(dp5113
g62
(dp5114
g70
I5
ssg71
g5108
sg64
(lp5115
g3465
asbasbasbag57
(g73
g59
NtRp5116
(dp5117
g62
(dp5118
sg71
g3408
sg64
(lp5119
g57
(g78
g59
NtRp5120
(dp5121
g62
(dp5122
g82
g83
ssg71
g5116
sg64
(lp5123
S'session_locked'
p5124
asbag57
(g78
g59
NtRp5125
(dp5126
g62
(dp5127
g89
g90
ssg71
g5116
sg64
(lp5128
S':'
asbag57
(g78
g59
NtRp5129
(dp5130
g62
(dp5131
sg71
g5116
sg64
(lp5132
g57
(g58
g59
NtRp5133
(dp5134
g62
(dp5135
g70
I5
ssg71
g5129
sg64
(lp5136
g1494
asbasbasbag57
(g73
g59
NtRp5137
(dp5138
g62
(dp5139
sg71
g3408
sg64
(lp5140
g57
(g78
g59
NtRp5141
(dp5142
g62
(dp5143
g82
g83
ssg71
g5137
sg64
(lp5144
S'session_new'
p5145
asbag57
(g78
g59
NtRp5146
(dp5147
g62
(dp5148
g89
g90
ssg71
g5137
sg64
(lp5149
S':'
asbag57
(g78
g59
NtRp5150
(dp5151
g62
(dp5152
sg71
g5137
sg64
(lp5153
g57
(g58
g59
NtRp5154
(dp5155
g62
(dp5156
g70
I5
ssg71
g5150
sg64
(lp5157
g100
asbasbasbag57
(g73
g59
NtRp5158
(dp5159
g62
(dp5160
sg71
g3408
sg64
(lp5161
g57
(g78
g59
NtRp5162
(dp5163
g62
(dp5164
g82
g83
ssg71
g5158
sg64
(lp5165
S'status'
p5166
asbag57
(g78
g59
NtRp5167
(dp5168
g62
(dp5169
g89
g90
ssg71
g5158
sg64
(lp5170
S':'
asbag57
(g78
g59
NtRp5171
(dp5172
g62
(dp5173
sg71
g5158
sg64
(lp5174
g57
(g58
g59
NtRp5175
(dp5176
g62
(dp5177
g70
I5
ssg71
g5171
sg64
(lp5178
S'200'
p5179
asbasbasbag57
(g73
g59
NtRp5180
(dp5181
g62
(dp5182
sg71
g3408
sg64
(lp5183
g57
(g78
g59
NtRp5184
(dp5185
g62
(dp5186
g82
g83
ssg71
g5180
sg64
(lp5187
S'subtitle'
p5188
asbag57
(g78
g59
NtRp5189
(dp5190
g62
(dp5191
g89
g90
ssg71
g5180
sg64
(lp5192
S':'
asbag57
(g78
g59
NtRp5193
(dp5194
g62
(dp5195
sg71
g5180
sg64
(lp5196
g57
(g58
g59
NtRp5197
(dp5198
g62
(dp5199
g70
I5
ssg71
g5193
sg64
(lp5200
g3913
(S's\r\x00\x00\x00customize me!'
tRp5201
asbasbasbag57
(g73
g59
NtRp5202
(dp5203
g62
(dp5204
sg71
g3408
sg64
(lp5205
g57
(g78
g59
NtRp5206
(dp5207
g62
(dp5208
g82
g83
ssg71
g5202
sg64
(lp5209
S'title'
p5210
asbag57
(g78
g59
NtRp5211
(dp5212
g62
(dp5213
g89
g90
ssg71
g5202
sg64
(lp5214
S':'
asbag57
(g78
g59
NtRp5215
(dp5216
g62
(dp5217
sg71
g5202
sg64
(lp5218
g57
(g58
g59
NtRp5219
(dp5220
g62
(dp5221
g70
I5
ssg71
g5215
sg64
(lp5222
g122
asbasbasbag57
(g73
g59
NtRp5223
(dp5224
g62
(dp5225
sg71
g3408
sg64
(lp5226
g57
(g78
g59
NtRp5227
(dp5228
g62
(dp5229
g82
g83
ssg71
g5223
sg64
(lp5230
g2159
asbag57
(g78
g59
NtRp5231
(dp5232
g62
(dp5233
g89
g90
ssg71
g5223
sg64
(lp5234
S':'
asbag57
(g78
g59
NtRp5235
(dp5236
g62
(dp5237
sg71
g5223
sg64
(lp5238
g57
(g58
g59
NtRp5239
(dp5240
g62
(dp5241
g70
I5
ssg71
g5235
sg64
(lp5242
g2172
asbasbasbag57
(g73
g59
NtRp5243
(dp5244
g62
(dp5245
sg71
g3408
sg64
(lp5246
g57
(g78
g59
NtRp5247
(dp5248
g62
(dp5249
g82
g83
ssg71
g5243
sg64
(lp5250
S'view'
p5251
asbag57
(g78
g59
NtRp5252
(dp5253
g62
(dp5254
g89
g90
ssg71
g5243
sg64
(lp5255
S':'
asbag57
(g78
g59
NtRp5256
(dp5257
g62
(dp5258
sg71
g5243
sg64
(lp5259
g57
(g58
g59
NtRp5260
(dp5261
g62
(dp5262
g70
I5
ssg71
g5256
sg64
(lp5263
S'default/join.html'
p5264
asbasbasbasbasbsS'locals'
p5265
(dp5266
S'event_id'
p5267
S'None'
p5268
sS'event_update'
p5269
S'<gluon.dal.Query object>'
p5270
sS'event'
p5271
S'None'
p5272
sssS'traceback'
p5273
S'Traceback (most recent call last):\n  File "P:\\School\\DePaul\\Projects\\CSC_438\\web2py\\gluon\\restricted.py", line 204, in restricted\n    exec ccode in environment\n  File "P:\\School\\DePaul\\Projects\\CSC_438\\web2py\\applications\\init\\controllers/default.py", line 169, in <module>\n  File "P:\\School\\DePaul\\Projects\\CSC_438\\web2py\\gluon\\globals.py", line 149, in <lambda>\n    self._caller = lambda f: f()\n  File "P:\\School\\DePaul\\Projects\\CSC_438\\web2py\\applications\\init\\controllers/default.py", line 95, in join\n    event.update_record(partcipants=auth.user.id)\nAttributeError: \'NoneType\' object has no attribute \'update_record\'\n'
p5274
s.