(dp1
S'output'
p2
S''
sS'layer'
p3
S'P:\\Workbench\\DevEnv\\web2py\\applications\\init\\views\\default/index.html'
p4
sS'code'
p5
S'response.write(\'<!DOCTYPE html PUBLIC "-//W3C//DTD XHTML 1.0 Transitional//EN" "http://www.w3.org/TR/xhtml1/DTD/xhtml1-transitional.dtd">\\r\\n\\r\\n<html xmlns="http://www.w3.org/1999/xhtml" xml:lang="en" lang="en">\\r\\n<head>\\r\\n    <meta http-equiv="Content-Type" content="text/html; charset=utf-8" />\\r\\n\\r\\n    <title></title>\\r\\n\\r\\n    <link rel="stylesheet" type="text/css" media="screen" href="\', escape=False)\nresponse.write(URL(\'static\',\'css/style.css\')}" />\n</head>\n<body>\n<div id="header">\n<div id="headMenu">\n<ul>\n<li><a class="headMenuHomeSelected" href="#"><span class="verticalAlign">home</span></a></li>\n<li><a class="headMenuArticles" href="#"><span class="verticalAlign">articles</span></a></li>\n<li><a class="headMenuContact" href="#"><span class="verticalAlign">contact</span></a></li>\n</ul>\n</div>\n<div id="mainTitle">\n<h1>Light Sky</h1>\n<h3>free template :: html :: css</h3>\n</div>\n</div>\n<div id="content-wrapper">\n<div id="menu">\n<h2>Articles</h2>\n<ul>\n<li><a href="#">contact form</a></li>\n<li><a href="#">link template</a></li>\n<li><a href="#">link template</a></li>\n<li><a href="#">link template</a></li>\n</ul>\n<br class="menuSpacer" />\n<h2>Archives</h2>\n<ul>\n<li><a href="#">march 2010</a></li>\n<li><a href="#">february 2010</a></li>\n<li><a href="#">january 2010</a></li>\n<li><a href="#">more...</a></li>\n</ul>\n<br class="menuSpacer" />\n<h2>Search</h2>\n<div id="searchbar">\n<form action="#" method="post">\n<input class="searchInputText" type="text" name="search" /><br />\n<input class="button" type="submit" value="Search" />\n</form>\n</div>\n<div id="menuFooter"></div>\n</div>\n<div id="content">\n<h1 class="titlePage">Home</h1>\n<div class="post">\n<div class="datePost"><span class="datePostMonth">Mar</span><span class="datePostDay">18</span></div>\n<h1>yet another post</h1>\n<div class="infoPost">\n<img src="images/news-calendar.png" alt="" /> posted on 03/18/2010 <img src="images/news-comments.png" alt="" /> <a href="#">24 comments</a>\n</div>\n<div class="postContent">\n<p>Lorem ipsum dolor sit amet, consectetur adipiscing elit. Donec nec nulla neque, quis cursus sem. Nullam et quam leo, non pharetra massa. Vestibulum vel leo sit amet lacus congue pulvinar. Quisque eros nisl, ultricies non vulputate non, placerat eget massa. Pellentesque purus massa, porta ullamcorper accumsan ut, adipiscing et orci.</p>\n<h3>Subtitle example</h3>\n<p>Vivamus et sem quis quam aliquam convallis auctor at orci. Nunc pharetra sem vel tortor accumsan at aliquam lacus feugiat. </p>\n<table>\n<tr>\n<th>Header #1</th>\n<th>Header #2</th>\n<th>Header #3</th>\n<th>Header #4</th>\n</tr>\n<tr>\n<td>Lorem ipsum</td>\n<td>Lorem ipsum</td>\n<td>Lorem ipsum</td>\n<td>Lorem ipsum</td>\n</tr>\n<tr>\n<td>Lorem ipsum</td>\n<td>Lorem ipsum</td>\n<td>Lorem ipsum</td>\n<td>Lorem ipsum</td>\n</tr>\n<tr>\n<td>Lorem ipsum</td>\n<td>Lorem ipsum</td>\n<td>Lorem ipsum</td>\n<td>Lorem ipsum</td>\n</tr>\n</table>\n</div>\n<div class="postReadMore">\n<p><a href="#">read more</a></p>\n</div>\n</div>\n<div class="post">\n<div class="datePost"><span class="datePostMonth">Mar</span><span class="datePostDay">16</span></div>\n<h1>welcome on light sky</h1>\n<div class="infoPost">\n<img src="images/news-calendar.png" alt="" /> posted on 03/16/2010 <img src="{{=URL(\'static\', \'images/news-comments.png\'))\nresponse.write(\'" alt="" /> <a href="#">10 comments</a>\\r\\n            </div>\\r\\n            <div class="postContent">\\r\\n                <p>Nullam arcu lorem, laoreet at gravida a, vestibulum id justo. Nam ultrices, leo id pharetra egestas, lectus enim fermentum dui, sit amet sagittis nunc tortor ut ante. Sed in nibh ac ante posuere placerat sed ut dolor. Proin eget mi tortor. In vitae nunc mauris, ac feugiat sem. Nam a suscipit libero. Phasellus laoreet justo sed lectus elementum eu rhoncus sem ullamcorper. Donec in sem sed justo lobortis semper. Fusce commodo nibh non massa mollis fringilla.</p>\\r\\n                <ul>\\r\\n                    <li>Praesent quis metus tempor nisi placerat vestibulum.</li>\\r\\n                    <li>Nam in arcu leo, at porttitor tellus.</li>\\r\\n                    <li>Cras sollicitudin lacinia libero, nec dictum urna dignissim vehicula.</li>\\r\\n                    <li>Integer ut metus erat, sit amet tristique lorem.</li>\\r\\n                    <li>Donec consequat ipsum ut magna auctor sodales.</li>\\r\\n                </ul>\\r\\n            </div>\\r\\n            <div class="postReadMore">\\r\\n                <p><a href="#">read more</a></p>\\r\\n            </div>\\r\\n        </div>\\r\\n    </div>\\r\\n    <div class="clear"></div>\\r\\n</div>\\r\\n\\r\\n<div id="footer">\\r\\n    <ul>\\r\\n        <li><a href="#">home</a> |</li>\\r\\n        <li><a href="#">about us</a> |</li>\\r\\n        <li><a href="#">sitemap</a> |</li>\\r\\n        <li><a href="#">contact</a></li>\\r\\n    </ul>\\r\\n    <p class="copyright"><a href="http://www.florian-hacquebart.eu">florian-hacquebart.eu</a> - free css template</p>\\r\\n    <p class="w3cvalidator">\\r\\n        <a href="http://validator.w3.org/check?uri=referer">\\r\\n            <img src="\', escape=False)\nresponse.write(URL(\'static\',\'images/xhtml.png\'))\nresponse.write(\'" alt="Valid XHTML 1.0 Transitional" />\\r\\n        </a>&nbsp;\\r\\n        <a href="http://jigsaw.w3.org/css-validator/check/referer">\\r\\n            <img src="\', escape=False)\nresponse.write(URL(\'static\',\'images/css.png\'))\nresponse.write(\'" alt="Valid CSS!" />\\r\\n        </a>\\r\\n    </p>\\r\\n</div>\\r\\n\\r\\n</body>\\r\\n</html>\\r\\n\', escape=False)'
p6
sS'snapshot'
p7
(dp8
S'exception'
p9
(dp10
S'__getslice__'
p11
S"<method-wrapper '__getslice__' of exceptions.SyntaxError object>"
p12
sS'text'
p13
S'\'response.write(URL(\\\'static\\\',\\\'css/style.css\\\')}" />\\n\''
p14
sS'__str__'
p15
S"<method-wrapper '__str__' of exceptions.SyntaxError object>"
p16
sS'__reduce__'
p17
S'<built-in method __reduce__ of exceptions.SyntaxError object>'
p18
sS'__dict__'
p19
S'{}'
p20
sS'__sizeof__'
p21
S'<built-in method __sizeof__ of exceptions.SyntaxError object>'
p22
sS'__init__'
p23
S"<method-wrapper '__init__' of exceptions.SyntaxError object>"
p24
sS'__setattr__'
p25
S"<method-wrapper '__setattr__' of exceptions.SyntaxError object>"
p26
sS'__reduce_ex__'
p27
S'<built-in method __reduce_ex__ of exceptions.SyntaxError object>'
p28
sS'__new__'
p29
S'<built-in method __new__ of type object>'
p30
sS'__format__'
p31
S'<built-in method __format__ of exceptions.SyntaxError object>'
p32
sS'__class__'
p33
S"<type 'exceptions.SyntaxError'>"
p34
sS'filename'
p35
S"r'P:\\Workbench\\DevEnv\\web2py\\applications\\init\\views\\default/index.html'"
p36
sS'lineno'
p37
S'2'
sS'msg'
p38
S"'invalid syntax'"
p39
sS'__doc__'
p40
S"'Invalid syntax.'"
p41
sS'__getitem__'
p42
S"<method-wrapper '__getitem__' of exceptions.SyntaxError object>"
p43
sS'__setstate__'
p44
S'<built-in method __setstate__ of exceptions.SyntaxError object>'
p45
sS'__getattribute__'
p46
S"<method-wrapper '__getattribute__' of exceptions.SyntaxError object>"
p47
sS'print_file_and_line'
p48
S'None'
p49
sS'args'
p50
S'(\'invalid syntax\', (r\'P:\\Workbench\\DevEnv\\web2py\\applications\\init\\views\\default/index.html\', 2, 45, \'response.write(URL(\\\'static\\\',\\\'css/style.css\\\')}" />\\n\'))'
p51
sS'__subclasshook__'
p52
S'<built-in method __subclasshook__ of type object>'
p53
sS'offset'
p54
S'45'
p55
sS'__unicode__'
p56
S'<built-in method __unicode__ of exceptions.SyntaxError object>'
p57
sS'__delattr__'
p58
S"<method-wrapper '__delattr__' of exceptions.SyntaxError object>"
p59
sS'__repr__'
p60
S"<method-wrapper '__repr__' of exceptions.SyntaxError object>"
p61
sS'__hash__'
p62
S"<method-wrapper '__hash__' of exceptions.SyntaxError object>"
p63
ssS'evalue'
p64
S'invalid syntax (default/index.html, line 2)'
p65
sS'request'
p66
ccopy_reg
_reconstructor
p67
(cgluon.html
BEAUTIFY
p68
c__builtin__
object
p69
NtRp70
(dp71
S'attributes'
p72
(dp73
sS'components'
p74
(lp75
g67
(cgluon.html
TABLE
p76
g69
NtRp77
(dp78
g72
(dp79
S'level'
p80
I5
ssS'parent'
p81
Nsg74
(lp82
g67
(cgluon.html
TR
p83
g69
NtRp84
(dp85
g72
(dp86
sg81
g77
sg74
(lp87
g67
(cgluon.html
TD
p88
g69
NtRp89
(dp90
g72
(dp91
S'_style'
p92
S'font-weight:bold;vertical-align:top'
p93
ssg81
g84
sg74
(lp94
S'ajax'
p95
asbag67
(g88
g69
NtRp96
(dp97
g72
(dp98
S'_valign'
p99
S'top'
p100
ssg81
g84
sg74
(lp101
S':'
asbag67
(g88
g69
NtRp102
(dp103
g72
(dp104
sg81
g84
sg74
(lp105
g67
(g68
g69
NtRp106
(dp107
g72
(dp108
g80
I5
ssg81
g102
sg74
(lp109
S'False'
p110
asbasbasbag67
(g83
g69
NtRp111
(dp112
g72
(dp113
sg81
g77
sg74
(lp114
g67
(g88
g69
NtRp115
(dp116
g72
(dp117
g92
g93
ssg81
g111
sg74
(lp118
S'application'
p119
asbag67
(g88
g69
NtRp120
(dp121
g72
(dp122
g99
g100
ssg81
g111
sg74
(lp123
S':'
asbag67
(g88
g69
NtRp124
(dp125
g72
(dp126
sg81
g111
sg74
(lp127
g67
(g68
g69
NtRp128
(dp129
g72
(dp130
g80
I5
ssg81
g124
sg74
(lp131
S'init'
p132
asbasbasbag67
(g83
g69
NtRp133
(dp134
g72
(dp135
sg81
g77
sg74
(lp136
g67
(g88
g69
NtRp137
(dp138
g72
(dp139
g92
g93
ssg81
g133
sg74
(lp140
g50
asbag67
(g88
g69
NtRp141
(dp142
g72
(dp143
g99
g100
ssg81
g133
sg74
(lp144
S':'
asbag67
(g88
g69
NtRp145
(dp146
g72
(dp147
sg81
g133
sg74
(lp148
g67
(g68
g69
NtRp149
(dp150
g72
(dp151
g80
I5
ssg81
g145
sg74
(lp152
g67
(g76
g69
NtRp153
(dp154
g72
(dp155
g80
I4
ssg81
Nsg74
(lp156
sbasbasbasbag67
(g83
g69
NtRp157
(dp158
g72
(dp159
sg81
g77
sg74
(lp160
g67
(g88
g69
NtRp161
(dp162
g72
(dp163
g92
g93
ssg81
g157
sg74
(lp164
S'body'
p165
asbag67
(g88
g69
NtRp166
(dp167
g72
(dp168
g99
g100
ssg81
g157
sg74
(lp169
S':'
asbag67
(g88
g69
NtRp170
(dp171
g72
(dp172
sg81
g157
sg74
(lp173
g67
(g68
g69
NtRp174
(dp175
g72
(dp176
g80
I5
ssg81
g170
sg74
(lp177
S'<cStringIO.StringO object at 0x090EF520>'
p178
asbasbasbag67
(g83
g69
NtRp179
(dp180
g72
(dp181
sg81
g77
sg74
(lp182
g67
(g88
g69
NtRp183
(dp184
g72
(dp185
g92
g93
ssg81
g179
sg74
(lp186
S'client'
p187
asbag67
(g88
g69
NtRp188
(dp189
g72
(dp190
g99
g100
ssg81
g179
sg74
(lp191
S':'
asbag67
(g88
g69
NtRp192
(dp193
g72
(dp194
sg81
g179
sg74
(lp195
g67
(g68
g69
NtRp196
(dp197
g72
(dp198
g80
I5
ssg81
g192
sg74
(lp199
S'127.0.0.1'
p200
asbasbasbag67
(g83
g69
NtRp201
(dp202
g72
(dp203
sg81
g77
sg74
(lp204
g67
(g88
g69
NtRp205
(dp206
g72
(dp207
g92
g93
ssg81
g201
sg74
(lp208
S'controller'
p209
asbag67
(g88
g69
NtRp210
(dp211
g72
(dp212
g99
g100
ssg81
g201
sg74
(lp213
S':'
asbag67
(g88
g69
NtRp214
(dp215
g72
(dp216
sg81
g201
sg74
(lp217
g67
(g68
g69
NtRp218
(dp219
g72
(dp220
g80
I5
ssg81
g214
sg74
(lp221
S'default'
p222
asbasbasbag67
(g83
g69
NtRp223
(dp224
g72
(dp225
sg81
g77
sg74
(lp226
g67
(g88
g69
NtRp227
(dp228
g72
(dp229
g92
g93
ssg81
g223
sg74
(lp230
S'cookies'
p231
asbag67
(g88
g69
NtRp232
(dp233
g72
(dp234
g99
g100
ssg81
g223
sg74
(lp235
S':'
asbag67
(g88
g69
NtRp236
(dp237
g72
(dp238
sg81
g223
sg74
(lp239
g67
(g68
g69
NtRp240
(dp241
g72
(dp242
g80
I5
ssg81
g236
sg74
(lp243
g67
(g76
g69
NtRp244
(dp245
g72
(dp246
g80
I4
ssg81
Nsg74
(lp247
g67
(g83
g69
NtRp248
(dp249
g72
(dp250
sg81
g244
sg74
(lp251
g67
(g88
g69
NtRp252
(dp253
g72
(dp254
g92
g93
ssg81
g248
sg74
(lp255
S'session_id_admin'
p256
asbag67
(g88
g69
NtRp257
(dp258
g72
(dp259
g99
g100
ssg81
g248
sg74
(lp260
S':'
asbag67
(g88
g69
NtRp261
(dp262
g72
(dp263
sg81
g248
sg74
(lp264
g67
(g68
g69
NtRp265
(dp266
g72
(dp267
g80
I4
ssg81
g261
sg74
(lp268
g67
(g76
g69
NtRp269
(dp270
g72
(dp271
g80
I3
ssg81
Nsg74
(lp272
g67
(g83
g69
NtRp273
(dp274
g72
(dp275
sg81
g269
sg74
(lp276
g67
(g88
g69
NtRp277
(dp278
g72
(dp279
g92
g93
ssg81
g273
sg74
(lp280
S'comment'
p281
asbag67
(g88
g69
NtRp282
(dp283
g72
(dp284
g99
g100
ssg81
g273
sg74
(lp285
S':'
asbag67
(g88
g69
NtRp286
(dp287
g72
(dp288
sg81
g273
sg74
(lp289
g67
(g68
g69
NtRp290
(dp291
g72
(dp292
g80
I3
ssg81
g286
sg74
(lp293
S''
asbasbasbag67
(g83
g69
NtRp294
(dp295
g72
(dp296
sg81
g269
sg74
(lp297
g67
(g88
g69
NtRp298
(dp299
g72
(dp300
g92
g93
ssg81
g294
sg74
(lp301
S'domain'
p302
asbag67
(g88
g69
NtRp303
(dp304
g72
(dp305
g99
g100
ssg81
g294
sg74
(lp306
S':'
asbag67
(g88
g69
NtRp307
(dp308
g72
(dp309
sg81
g294
sg74
(lp310
g67
(g68
g69
NtRp311
(dp312
g72
(dp313
g80
I3
ssg81
g307
sg74
(lp314
S''
asbasbasbag67
(g83
g69
NtRp315
(dp316
g72
(dp317
sg81
g269
sg74
(lp318
g67
(g88
g69
NtRp319
(dp320
g72
(dp321
g92
g93
ssg81
g315
sg74
(lp322
S'expires'
p323
asbag67
(g88
g69
NtRp324
(dp325
g72
(dp326
g99
g100
ssg81
g315
sg74
(lp327
S':'
asbag67
(g88
g69
NtRp328
(dp329
g72
(dp330
sg81
g315
sg74
(lp331
g67
(g68
g69
NtRp332
(dp333
g72
(dp334
g80
I3
ssg81
g328
sg74
(lp335
S''
asbasbasbag67
(g83
g69
NtRp336
(dp337
g72
(dp338
sg81
g269
sg74
(lp339
g67
(g88
g69
NtRp340
(dp341
g72
(dp342
g92
g93
ssg81
g336
sg74
(lp343
S'httponly'
p344
asbag67
(g88
g69
NtRp345
(dp346
g72
(dp347
g99
g100
ssg81
g336
sg74
(lp348
S':'
asbag67
(g88
g69
NtRp349
(dp350
g72
(dp351
sg81
g336
sg74
(lp352
g67
(g68
g69
NtRp353
(dp354
g72
(dp355
g80
I3
ssg81
g349
sg74
(lp356
S''
asbasbasbag67
(g83
g69
NtRp357
(dp358
g72
(dp359
sg81
g269
sg74
(lp360
g67
(g88
g69
NtRp361
(dp362
g72
(dp363
g92
g93
ssg81
g357
sg74
(lp364
S'max-age'
p365
asbag67
(g88
g69
NtRp366
(dp367
g72
(dp368
g99
g100
ssg81
g357
sg74
(lp369
S':'
asbag67
(g88
g69
NtRp370
(dp371
g72
(dp372
sg81
g357
sg74
(lp373
g67
(g68
g69
NtRp374
(dp375
g72
(dp376
g80
I3
ssg81
g370
sg74
(lp377
S''
asbasbasbag67
(g83
g69
NtRp378
(dp379
g72
(dp380
sg81
g269
sg74
(lp381
g67
(g88
g69
NtRp382
(dp383
g72
(dp384
g92
g93
ssg81
g378
sg74
(lp385
S'path'
p386
asbag67
(g88
g69
NtRp387
(dp388
g72
(dp389
g99
g100
ssg81
g378
sg74
(lp390
S':'
asbag67
(g88
g69
NtRp391
(dp392
g72
(dp393
sg81
g378
sg74
(lp394
g67
(g68
g69
NtRp395
(dp396
g72
(dp397
g80
I3
ssg81
g391
sg74
(lp398
S''
asbasbasbag67
(g83
g69
NtRp399
(dp400
g72
(dp401
sg81
g269
sg74
(lp402
g67
(g88
g69
NtRp403
(dp404
g72
(dp405
g92
g93
ssg81
g399
sg74
(lp406
S'secure'
p407
asbag67
(g88
g69
NtRp408
(dp409
g72
(dp410
g99
g100
ssg81
g399
sg74
(lp411
S':'
asbag67
(g88
g69
NtRp412
(dp413
g72
(dp414
sg81
g399
sg74
(lp415
g67
(g68
g69
NtRp416
(dp417
g72
(dp418
g80
I3
ssg81
g412
sg74
(lp419
S''
asbasbasbag67
(g83
g69
NtRp420
(dp421
g72
(dp422
sg81
g269
sg74
(lp423
g67
(g88
g69
NtRp424
(dp425
g72
(dp426
g92
g93
ssg81
g420
sg74
(lp427
S'version'
p428
asbag67
(g88
g69
NtRp429
(dp430
g72
(dp431
g99
g100
ssg81
g420
sg74
(lp432
S':'
asbag67
(g88
g69
NtRp433
(dp434
g72
(dp435
sg81
g420
sg74
(lp436
g67
(g68
g69
NtRp437
(dp438
g72
(dp439
g80
I3
ssg81
g433
sg74
(lp440
S''
asbasbasbasbasbasbasbag67
(g83
g69
NtRp441
(dp442
g72
(dp443
sg81
g244
sg74
(lp444
g67
(g88
g69
NtRp445
(dp446
g72
(dp447
g92
g93
ssg81
g441
sg74
(lp448
S'session_id_init'
p449
asbag67
(g88
g69
NtRp450
(dp451
g72
(dp452
g99
g100
ssg81
g441
sg74
(lp453
S':'
asbag67
(g88
g69
NtRp454
(dp455
g72
(dp456
sg81
g441
sg74
(lp457
g67
(g68
g69
NtRp458
(dp459
g72
(dp460
g80
I4
ssg81
g454
sg74
(lp461
g67
(g76
g69
NtRp462
(dp463
g72
(dp464
g80
I3
ssg81
Nsg74
(lp465
g67
(g83
g69
NtRp466
(dp467
g72
(dp468
sg81
g462
sg74
(lp469
g67
(g88
g69
NtRp470
(dp471
g72
(dp472
g92
g93
ssg81
g466
sg74
(lp473
g281
asbag67
(g88
g69
NtRp474
(dp475
g72
(dp476
g99
g100
ssg81
g466
sg74
(lp477
S':'
asbag67
(g88
g69
NtRp478
(dp479
g72
(dp480
sg81
g466
sg74
(lp481
g67
(g68
g69
NtRp482
(dp483
g72
(dp484
g80
I3
ssg81
g478
sg74
(lp485
S''
asbasbasbag67
(g83
g69
NtRp486
(dp487
g72
(dp488
sg81
g462
sg74
(lp489
g67
(g88
g69
NtRp490
(dp491
g72
(dp492
g92
g93
ssg81
g486
sg74
(lp493
g302
asbag67
(g88
g69
NtRp494
(dp495
g72
(dp496
g99
g100
ssg81
g486
sg74
(lp497
S':'
asbag67
(g88
g69
NtRp498
(dp499
g72
(dp500
sg81
g486
sg74
(lp501
g67
(g68
g69
NtRp502
(dp503
g72
(dp504
g80
I3
ssg81
g498
sg74
(lp505
S''
asbasbasbag67
(g83
g69
NtRp506
(dp507
g72
(dp508
sg81
g462
sg74
(lp509
g67
(g88
g69
NtRp510
(dp511
g72
(dp512
g92
g93
ssg81
g506
sg74
(lp513
g323
asbag67
(g88
g69
NtRp514
(dp515
g72
(dp516
g99
g100
ssg81
g506
sg74
(lp517
S':'
asbag67
(g88
g69
NtRp518
(dp519
g72
(dp520
sg81
g506
sg74
(lp521
g67
(g68
g69
NtRp522
(dp523
g72
(dp524
g80
I3
ssg81
g518
sg74
(lp525
S''
asbasbasbag67
(g83
g69
NtRp526
(dp527
g72
(dp528
sg81
g462
sg74
(lp529
g67
(g88
g69
NtRp530
(dp531
g72
(dp532
g92
g93
ssg81
g526
sg74
(lp533
g344
asbag67
(g88
g69
NtRp534
(dp535
g72
(dp536
g99
g100
ssg81
g526
sg74
(lp537
S':'
asbag67
(g88
g69
NtRp538
(dp539
g72
(dp540
sg81
g526
sg74
(lp541
g67
(g68
g69
NtRp542
(dp543
g72
(dp544
g80
I3
ssg81
g538
sg74
(lp545
S''
asbasbasbag67
(g83
g69
NtRp546
(dp547
g72
(dp548
sg81
g462
sg74
(lp549
g67
(g88
g69
NtRp550
(dp551
g72
(dp552
g92
g93
ssg81
g546
sg74
(lp553
g365
asbag67
(g88
g69
NtRp554
(dp555
g72
(dp556
g99
g100
ssg81
g546
sg74
(lp557
S':'
asbag67
(g88
g69
NtRp558
(dp559
g72
(dp560
sg81
g546
sg74
(lp561
g67
(g68
g69
NtRp562
(dp563
g72
(dp564
g80
I3
ssg81
g558
sg74
(lp565
S''
asbasbasbag67
(g83
g69
NtRp566
(dp567
g72
(dp568
sg81
g462
sg74
(lp569
g67
(g88
g69
NtRp570
(dp571
g72
(dp572
g92
g93
ssg81
g566
sg74
(lp573
g386
asbag67
(g88
g69
NtRp574
(dp575
g72
(dp576
g99
g100
ssg81
g566
sg74
(lp577
S':'
asbag67
(g88
g69
NtRp578
(dp579
g72
(dp580
sg81
g566
sg74
(lp581
g67
(g68
g69
NtRp582
(dp583
g72
(dp584
g80
I3
ssg81
g578
sg74
(lp585
S''
asbasbasbag67
(g83
g69
NtRp586
(dp587
g72
(dp588
sg81
g462
sg74
(lp589
g67
(g88
g69
NtRp590
(dp591
g72
(dp592
g92
g93
ssg81
g586
sg74
(lp593
g407
asbag67
(g88
g69
NtRp594
(dp595
g72
(dp596
g99
g100
ssg81
g586
sg74
(lp597
S':'
asbag67
(g88
g69
NtRp598
(dp599
g72
(dp600
sg81
g586
sg74
(lp601
g67
(g68
g69
NtRp602
(dp603
g72
(dp604
g80
I3
ssg81
g598
sg74
(lp605
S''
asbasbasbag67
(g83
g69
NtRp606
(dp607
g72
(dp608
sg81
g462
sg74
(lp609
g67
(g88
g69
NtRp610
(dp611
g72
(dp612
g92
g93
ssg81
g606
sg74
(lp613
g428
asbag67
(g88
g69
NtRp614
(dp615
g72
(dp616
g99
g100
ssg81
g606
sg74
(lp617
S':'
asbag67
(g88
g69
NtRp618
(dp619
g72
(dp620
sg81
g606
sg74
(lp621
g67
(g68
g69
NtRp622
(dp623
g72
(dp624
g80
I3
ssg81
g618
sg74
(lp625
S''
asbasbasbasbasbasbasbasbasbasbasbag67
(g83
g69
NtRp626
(dp627
g72
(dp628
sg81
g77
sg74
(lp629
g67
(g88
g69
NtRp630
(dp631
g72
(dp632
g92
g93
ssg81
g626
sg74
(lp633
S'env'
p634
asbag67
(g88
g69
NtRp635
(dp636
g72
(dp637
g99
g100
ssg81
g626
sg74
(lp638
S':'
asbag67
(g88
g69
NtRp639
(dp640
g72
(dp641
sg81
g626
sg74
(lp642
g67
(g68
g69
NtRp643
(dp644
g72
(dp645
g80
I5
ssg81
g639
sg74
(lp646
g67
(g76
g69
NtRp647
(dp648
g72
(dp649
g80
I4
ssg81
Nsg74
(lp650
g67
(g83
g69
NtRp651
(dp652
g72
(dp653
sg81
g647
sg74
(lp654
g67
(g88
g69
NtRp655
(dp656
g72
(dp657
g92
g93
ssg81
g651
sg74
(lp658
S'app_folders'
p659
asbag67
(g88
g69
NtRp660
(dp661
g72
(dp662
g99
g100
ssg81
g651
sg74
(lp663
S':'
asbag67
(g88
g69
NtRp664
(dp665
g72
(dp666
sg81
g651
sg74
(lp667
g67
(g68
g69
NtRp668
(dp669
g72
(dp670
g80
I4
ssg81
g664
sg74
(lp671
S"set(['P:\\\\Workbench\\\\DevEnv\\\\web2py\\\\applications\\\\init\\\\', 'P:\\\\Workbench\\\\DevEnv\\\\web2py\\\\applications\\\\admin\\\\'])"
p672
asbasbasbag67
(g83
g69
NtRp673
(dp674
g72
(dp675
sg81
g647
sg74
(lp676
g67
(g88
g69
NtRp677
(dp678
g72
(dp679
g92
g93
ssg81
g673
sg74
(lp680
S'applications_parent'
p681
asbag67
(g88
g69
NtRp682
(dp683
g72
(dp684
g99
g100
ssg81
g673
sg74
(lp685
S':'
asbag67
(g88
g69
NtRp686
(dp687
g72
(dp688
sg81
g673
sg74
(lp689
g67
(g68
g69
NtRp690
(dp691
g72
(dp692
g80
I4
ssg81
g686
sg74
(lp693
S'P:\\Workbench\\DevEnv\\web2py'
p694
asbasbasbag67
(g83
g69
NtRp695
(dp696
g72
(dp697
sg81
g647
sg74
(lp698
g67
(g88
g69
NtRp699
(dp700
g72
(dp701
g92
g93
ssg81
g695
sg74
(lp702
S'cmd_args'
p703
asbag67
(g88
g69
NtRp704
(dp705
g72
(dp706
g99
g100
ssg81
g695
sg74
(lp707
S':'
asbag67
(g88
g69
NtRp708
(dp709
g72
(dp710
sg81
g695
sg74
(lp711
g67
(g68
g69
NtRp712
(dp713
g72
(dp714
g80
I4
ssg81
g708
sg74
(lp715
g67
(g76
g69
NtRp716
(dp717
g72
(dp718
g80
I3
ssg81
Nsg74
(lp719
sbasbasbasbag67
(g83
g69
NtRp720
(dp721
g72
(dp722
sg81
g647
sg74
(lp723
g67
(g88
g69
NtRp724
(dp725
g72
(dp726
g92
g93
ssg81
g720
sg74
(lp727
S'cmd_options'
p728
asbag67
(g88
g69
NtRp729
(dp730
g72
(dp731
g99
g100
ssg81
g720
sg74
(lp732
S':'
asbag67
(g88
g69
NtRp733
(dp734
g72
(dp735
sg81
g720
sg74
(lp736
g67
(g68
g69
NtRp737
(dp738
g72
(dp739
g80
I4
ssg81
g733
sg74
(lp740
S"<Values at 0x2fbd418: {'verbose': False, 'ip': '127.0.0.1', 'shutdown_timeout': 5, 'taskbar': False, 'nocron': False, 'pid_filename': 'httpserver.pid', 'maxthreads': None, 'softcron': False, 'server_name': 'Bishop-PC', 'bpython': False, 'nogui': False, 'port': 8000, 'extcron': False, 'debuglevel': 30, 'test': None, 'folder': 'P:\\\\Workbench\\\\DevEnv\\\\web2py', 'config': '', 'import_models': False, 'winservice': '', 'shell': None, 'run': '', 'log_filename': 'httpserver.log', 'args': [''], 'ssl_ca_certificate': None, 'scheduler': None, 'profiler_filename': None, 'ssl_private_key': '', 'password': '<ask>', 'request_queue_size': 5, 'ssl_certificate': '', 'cronjob': False, 'plain': False, 'quiet': False, 'interfaces': None, 'minthreads': None, 'timeout': 10, 'numthreads': None, 'nobanner': False}>"
p741
asbasbasbag67
(g83
g69
NtRp742
(dp743
g72
(dp744
sg81
g647
sg74
(lp745
g67
(g88
g69
NtRp746
(dp747
g72
(dp748
g92
g93
ssg81
g742
sg74
(lp749
S'db_sessions'
p750
asbag67
(g88
g69
NtRp751
(dp752
g72
(dp753
g99
g100
ssg81
g742
sg74
(lp754
S':'
asbag67
(g88
g69
NtRp755
(dp756
g72
(dp757
sg81
g742
sg74
(lp758
g67
(g68
g69
NtRp759
(dp760
g72
(dp761
g80
I4
ssg81
g755
sg74
(lp762
S'set([])'
p763
asbasbasbag67
(g83
g69
NtRp764
(dp765
g72
(dp766
sg81
g647
sg74
(lp767
g67
(g88
g69
NtRp768
(dp769
g72
(dp770
g92
g93
ssg81
g764
sg74
(lp771
S'debugging'
p772
asbag67
(g88
g69
NtRp773
(dp774
g72
(dp775
g99
g100
ssg81
g764
sg74
(lp776
S':'
asbag67
(g88
g69
NtRp777
(dp778
g72
(dp779
sg81
g764
sg74
(lp780
g67
(g68
g69
NtRp781
(dp782
g72
(dp783
g80
I4
ssg81
g777
sg74
(lp784
g110
asbasbasbag67
(g83
g69
NtRp785
(dp786
g72
(dp787
sg81
g647
sg74
(lp788
g67
(g88
g69
NtRp789
(dp790
g72
(dp791
g92
g93
ssg81
g785
sg74
(lp792
S'gluon_parent'
p793
asbag67
(g88
g69
NtRp794
(dp795
g72
(dp796
g99
g100
ssg81
g785
sg74
(lp797
S':'
asbag67
(g88
g69
NtRp798
(dp799
g72
(dp800
sg81
g785
sg74
(lp801
g67
(g68
g69
NtRp802
(dp803
g72
(dp804
g80
I4
ssg81
g798
sg74
(lp805
S'P:\\Workbench\\DevEnv\\web2py'
p806
asbasbasbag67
(g83
g69
NtRp807
(dp808
g72
(dp809
sg81
g647
sg74
(lp810
g67
(g88
g69
NtRp811
(dp812
g72
(dp813
g92
g93
ssg81
g807
sg74
(lp814
S'http_accept'
p815
asbag67
(g88
g69
NtRp816
(dp817
g72
(dp818
g99
g100
ssg81
g807
sg74
(lp819
S':'
asbag67
(g88
g69
NtRp820
(dp821
g72
(dp822
sg81
g807
sg74
(lp823
g67
(g68
g69
NtRp824
(dp825
g72
(dp826
g80
I4
ssg81
g820
sg74
(lp827
S'text/html,application/xhtml+xml,application/xml;q=0.9,*/*;q=0.8'
p828
asbasbasbag67
(g83
g69
NtRp829
(dp830
g72
(dp831
sg81
g647
sg74
(lp832
g67
(g88
g69
NtRp833
(dp834
g72
(dp835
g92
g93
ssg81
g829
sg74
(lp836
S'http_accept_charset'
p837
asbag67
(g88
g69
NtRp838
(dp839
g72
(dp840
g99
g100
ssg81
g829
sg74
(lp841
S':'
asbag67
(g88
g69
NtRp842
(dp843
g72
(dp844
sg81
g829
sg74
(lp845
g67
(g68
g69
NtRp846
(dp847
g72
(dp848
g80
I4
ssg81
g842
sg74
(lp849
S'ISO-8859-1,utf-8;q=0.7,*;q=0.7'
p850
asbasbasbag67
(g83
g69
NtRp851
(dp852
g72
(dp853
sg81
g647
sg74
(lp854
g67
(g88
g69
NtRp855
(dp856
g72
(dp857
g92
g93
ssg81
g851
sg74
(lp858
S'http_accept_encoding'
p859
asbag67
(g88
g69
NtRp860
(dp861
g72
(dp862
g99
g100
ssg81
g851
sg74
(lp863
S':'
asbag67
(g88
g69
NtRp864
(dp865
g72
(dp866
sg81
g851
sg74
(lp867
g67
(g68
g69
NtRp868
(dp869
g72
(dp870
g80
I4
ssg81
g864
sg74
(lp871
S'gzip,deflate'
p872
asbasbasbag67
(g83
g69
NtRp873
(dp874
g72
(dp875
sg81
g647
sg74
(lp876
g67
(g88
g69
NtRp877
(dp878
g72
(dp879
g92
g93
ssg81
g873
sg74
(lp880
S'http_accept_language'
p881
asbag67
(g88
g69
NtRp882
(dp883
g72
(dp884
g99
g100
ssg81
g873
sg74
(lp885
S':'
asbag67
(g88
g69
NtRp886
(dp887
g72
(dp888
sg81
g873
sg74
(lp889
g67
(g68
g69
NtRp890
(dp891
g72
(dp892
g80
I4
ssg81
g886
sg74
(lp893
S'en-us,en;q=0.5'
p894
asbasbasbag67
(g83
g69
NtRp895
(dp896
g72
(dp897
sg81
g647
sg74
(lp898
g67
(g88
g69
NtRp899
(dp900
g72
(dp901
g92
g93
ssg81
g895
sg74
(lp902
S'http_connection'
p903
asbag67
(g88
g69
NtRp904
(dp905
g72
(dp906
g99
g100
ssg81
g895
sg74
(lp907
S':'
asbag67
(g88
g69
NtRp908
(dp909
g72
(dp910
sg81
g895
sg74
(lp911
g67
(g68
g69
NtRp912
(dp913
g72
(dp914
g80
I4
ssg81
g908
sg74
(lp915
S'keep-alive'
p916
asbasbasbag67
(g83
g69
NtRp917
(dp918
g72
(dp919
sg81
g647
sg74
(lp920
g67
(g88
g69
NtRp921
(dp922
g72
(dp923
g92
g93
ssg81
g917
sg74
(lp924
S'http_cookie'
p925
asbag67
(g88
g69
NtRp926
(dp927
g72
(dp928
g99
g100
ssg81
g917
sg74
(lp929
S':'
asbag67
(g88
g69
NtRp930
(dp931
g72
(dp932
sg81
g917
sg74
(lp933
g67
(g68
g69
NtRp934
(dp935
g72
(dp936
g80
I4
ssg81
g930
sg74
(lp937
S'__utma_a2a=4518867300.1350888199.1319331273.1319375111.1319375111.5; session_id_init=127.0.0.1-2ee686ba-d1d2-46bc-bb75-bfad4d4c0c4c; session_id_admin=127.0.0.1-4acedcf7-4701-4781-9fc5-dd6d7a0a4bf5'
p938
asbasbasbag67
(g83
g69
NtRp939
(dp940
g72
(dp941
sg81
g647
sg74
(lp942
g67
(g88
g69
NtRp943
(dp944
g72
(dp945
g92
g93
ssg81
g939
sg74
(lp946
S'http_host'
p947
asbag67
(g88
g69
NtRp948
(dp949
g72
(dp950
g99
g100
ssg81
g939
sg74
(lp951
S':'
asbag67
(g88
g69
NtRp952
(dp953
g72
(dp954
sg81
g939
sg74
(lp955
g67
(g68
g69
NtRp956
(dp957
g72
(dp958
g80
I4
ssg81
g952
sg74
(lp959
S'127.0.0.1:8000'
p960
asbasbasbag67
(g83
g69
NtRp961
(dp962
g72
(dp963
sg81
g647
sg74
(lp964
g67
(g88
g69
NtRp965
(dp966
g72
(dp967
g92
g93
ssg81
g961
sg74
(lp968
S'http_keep_alive'
p969
asbag67
(g88
g69
NtRp970
(dp971
g72
(dp972
g99
g100
ssg81
g961
sg74
(lp973
S':'
asbag67
(g88
g69
NtRp974
(dp975
g72
(dp976
sg81
g961
sg74
(lp977
g67
(g68
g69
NtRp978
(dp979
g72
(dp980
g80
I4
ssg81
g974
sg74
(lp981
S'115'
p982
asbasbasbag67
(g83
g69
NtRp983
(dp984
g72
(dp985
sg81
g647
sg74
(lp986
g67
(g88
g69
NtRp987
(dp988
g72
(dp989
g92
g93
ssg81
g983
sg74
(lp990
S'http_referer'
p991
asbag67
(g88
g69
NtRp992
(dp993
g72
(dp994
g99
g100
ssg81
g983
sg74
(lp995
S':'
asbag67
(g88
g69
NtRp996
(dp997
g72
(dp998
sg81
g983
sg74
(lp999
g67
(g68
g69
NtRp1000
(dp1001
g72
(dp1002
g80
I4
ssg81
g996
sg74
(lp1003
S'http://127.0.0.1:8000/admin/default/edit/init/views/default/index.html'
p1004
asbasbasbag67
(g83
g69
NtRp1005
(dp1006
g72
(dp1007
sg81
g647
sg74
(lp1008
g67
(g88
g69
NtRp1009
(dp1010
g72
(dp1011
g92
g93
ssg81
g1005
sg74
(lp1012
S'http_user_agent'
p1013
asbag67
(g88
g69
NtRp1014
(dp1015
g72
(dp1016
g99
g100
ssg81
g1005
sg74
(lp1017
S':'
asbag67
(g88
g69
NtRp1018
(dp1019
g72
(dp1020
sg81
g1005
sg74
(lp1021
g67
(g68
g69
NtRp1022
(dp1023
g72
(dp1024
g80
I4
ssg81
g1018
sg74
(lp1025
S'Mozilla/5.0 (Windows; U; Windows NT 6.1; en-US; rv:1.9.2.23) Gecko/20110920 Firefox/3.6.23'
p1026
asbasbasbag67
(g83
g69
NtRp1027
(dp1028
g72
(dp1029
sg81
g647
sg74
(lp1030
g67
(g88
g69
NtRp1031
(dp1032
g72
(dp1033
g92
g93
ssg81
g1027
sg74
(lp1034
S'is_jython'
p1035
asbag67
(g88
g69
NtRp1036
(dp1037
g72
(dp1038
g99
g100
ssg81
g1027
sg74
(lp1039
S':'
asbag67
(g88
g69
NtRp1040
(dp1041
g72
(dp1042
sg81
g1027
sg74
(lp1043
g67
(g68
g69
NtRp1044
(dp1045
g72
(dp1046
g80
I4
ssg81
g1040
sg74
(lp1047
g110
asbasbasbag67
(g83
g69
NtRp1048
(dp1049
g72
(dp1050
sg81
g647
sg74
(lp1051
g67
(g88
g69
NtRp1052
(dp1053
g72
(dp1054
g92
g93
ssg81
g1048
sg74
(lp1055
S'path_info'
p1056
asbag67
(g88
g69
NtRp1057
(dp1058
g72
(dp1059
g99
g100
ssg81
g1048
sg74
(lp1060
S':'
asbag67
(g88
g69
NtRp1061
(dp1062
g72
(dp1063
sg81
g1048
sg74
(lp1064
g67
(g68
g69
NtRp1065
(dp1066
g72
(dp1067
g80
I4
ssg81
g1061
sg74
(lp1068
S'/init/default/index'
p1069
asbasbasbag67
(g83
g69
NtRp1070
(dp1071
g72
(dp1072
sg81
g647
sg74
(lp1073
g67
(g88
g69
NtRp1074
(dp1075
g72
(dp1076
g92
g93
ssg81
g1070
sg74
(lp1077
S'query_string'
p1078
asbag67
(g88
g69
NtRp1079
(dp1080
g72
(dp1081
g99
g100
ssg81
g1070
sg74
(lp1082
S':'
asbag67
(g88
g69
NtRp1083
(dp1084
g72
(dp1085
sg81
g1070
sg74
(lp1086
g67
(g68
g69
NtRp1087
(dp1088
g72
(dp1089
g80
I4
ssg81
g1083
sg74
(lp1090
S''
asbasbasbag67
(g83
g69
NtRp1091
(dp1092
g72
(dp1093
sg81
g647
sg74
(lp1094
g67
(g88
g69
NtRp1095
(dp1096
g72
(dp1097
g92
g93
ssg81
g1091
sg74
(lp1098
S'remote_addr'
p1099
asbag67
(g88
g69
NtRp1100
(dp1101
g72
(dp1102
g99
g100
ssg81
g1091
sg74
(lp1103
S':'
asbag67
(g88
g69
NtRp1104
(dp1105
g72
(dp1106
sg81
g1091
sg74
(lp1107
g67
(g68
g69
NtRp1108
(dp1109
g72
(dp1110
g80
I4
ssg81
g1104
sg74
(lp1111
g200
asbasbasbag67
(g83
g69
NtRp1112
(dp1113
g72
(dp1114
sg81
g647
sg74
(lp1115
g67
(g88
g69
NtRp1116
(dp1117
g72
(dp1118
g92
g93
ssg81
g1112
sg74
(lp1119
S'remote_port'
p1120
asbag67
(g88
g69
NtRp1121
(dp1122
g72
(dp1123
g99
g100
ssg81
g1112
sg74
(lp1124
S':'
asbag67
(g88
g69
NtRp1125
(dp1126
g72
(dp1127
sg81
g1112
sg74
(lp1128
g67
(g68
g69
NtRp1129
(dp1130
g72
(dp1131
g80
I4
ssg81
g1125
sg74
(lp1132
S'50968'
p1133
asbasbasbag67
(g83
g69
NtRp1134
(dp1135
g72
(dp1136
sg81
g647
sg74
(lp1137
g67
(g88
g69
NtRp1138
(dp1139
g72
(dp1140
g92
g93
ssg81
g1134
sg74
(lp1141
S'request_method'
p1142
asbag67
(g88
g69
NtRp1143
(dp1144
g72
(dp1145
g99
g100
ssg81
g1134
sg74
(lp1146
S':'
asbag67
(g88
g69
NtRp1147
(dp1148
g72
(dp1149
sg81
g1134
sg74
(lp1150
g67
(g68
g69
NtRp1151
(dp1152
g72
(dp1153
g80
I4
ssg81
g1147
sg74
(lp1154
S'GET'
p1155
asbasbasbag67
(g83
g69
NtRp1156
(dp1157
g72
(dp1158
sg81
g647
sg74
(lp1159
g67
(g88
g69
NtRp1160
(dp1161
g72
(dp1162
g92
g93
ssg81
g1156
sg74
(lp1163
S'script_name'
p1164
asbag67
(g88
g69
NtRp1165
(dp1166
g72
(dp1167
g99
g100
ssg81
g1156
sg74
(lp1168
S':'
asbag67
(g88
g69
NtRp1169
(dp1170
g72
(dp1171
sg81
g1156
sg74
(lp1172
g67
(g68
g69
NtRp1173
(dp1174
g72
(dp1175
g80
I4
ssg81
g1169
sg74
(lp1176
S''
asbasbasbag67
(g83
g69
NtRp1177
(dp1178
g72
(dp1179
sg81
g647
sg74
(lp1180
g67
(g88
g69
NtRp1181
(dp1182
g72
(dp1183
g92
g93
ssg81
g1177
sg74
(lp1184
S'server_name'
p1185
asbag67
(g88
g69
NtRp1186
(dp1187
g72
(dp1188
g99
g100
ssg81
g1177
sg74
(lp1189
S':'
asbag67
(g88
g69
NtRp1190
(dp1191
g72
(dp1192
sg81
g1177
sg74
(lp1193
g67
(g68
g69
NtRp1194
(dp1195
g72
(dp1196
g80
I4
ssg81
g1190
sg74
(lp1197
S'Bishop-PC'
p1198
asbasbasbag67
(g83
g69
NtRp1199
(dp1200
g72
(dp1201
sg81
g647
sg74
(lp1202
g67
(g88
g69
NtRp1203
(dp1204
g72
(dp1205
g92
g93
ssg81
g1199
sg74
(lp1206
S'server_port'
p1207
asbag67
(g88
g69
NtRp1208
(dp1209
g72
(dp1210
g99
g100
ssg81
g1199
sg74
(lp1211
S':'
asbag67
(g88
g69
NtRp1212
(dp1213
g72
(dp1214
sg81
g1199
sg74
(lp1215
g67
(g68
g69
NtRp1216
(dp1217
g72
(dp1218
g80
I4
ssg81
g1212
sg74
(lp1219
S'8000'
p1220
asbasbasbag67
(g83
g69
NtRp1221
(dp1222
g72
(dp1223
sg81
g647
sg74
(lp1224
g67
(g88
g69
NtRp1225
(dp1226
g72
(dp1227
g92
g93
ssg81
g1221
sg74
(lp1228
S'server_protocol'
p1229
asbag67
(g88
g69
NtRp1230
(dp1231
g72
(dp1232
g99
g100
ssg81
g1221
sg74
(lp1233
S':'
asbag67
(g88
g69
NtRp1234
(dp1235
g72
(dp1236
sg81
g1221
sg74
(lp1237
g67
(g68
g69
NtRp1238
(dp1239
g72
(dp1240
g80
I4
ssg81
g1234
sg74
(lp1241
S'HTTP/1.1'
p1242
asbasbasbag67
(g83
g69
NtRp1243
(dp1244
g72
(dp1245
sg81
g647
sg74
(lp1246
g67
(g88
g69
NtRp1247
(dp1248
g72
(dp1249
g92
g93
ssg81
g1243
sg74
(lp1250
S'server_software'
p1251
asbag67
(g88
g69
NtRp1252
(dp1253
g72
(dp1254
g99
g100
ssg81
g1243
sg74
(lp1255
S':'
asbag67
(g88
g69
NtRp1256
(dp1257
g72
(dp1258
sg81
g1243
sg74
(lp1259
g67
(g68
g69
NtRp1260
(dp1261
g72
(dp1262
g80
I4
ssg81
g1256
sg74
(lp1263
S'Rocket 1.2.4'
p1264
asbasbasbag67
(g83
g69
NtRp1265
(dp1266
g72
(dp1267
sg81
g647
sg74
(lp1268
g67
(g88
g69
NtRp1269
(dp1270
g72
(dp1271
g92
g93
ssg81
g1265
sg74
(lp1272
S'web2py_crontype'
p1273
asbag67
(g88
g69
NtRp1274
(dp1275
g72
(dp1276
g99
g100
ssg81
g1265
sg74
(lp1277
S':'
asbag67
(g88
g69
NtRp1278
(dp1279
g72
(dp1280
sg81
g1265
sg74
(lp1281
g67
(g68
g69
NtRp1282
(dp1283
g72
(dp1284
g80
I4
ssg81
g1278
sg74
(lp1285
S'hard'
p1286
asbasbasbag67
(g83
g69
NtRp1287
(dp1288
g72
(dp1289
sg81
g647
sg74
(lp1290
g67
(g88
g69
NtRp1291
(dp1292
g72
(dp1293
g92
g93
ssg81
g1287
sg74
(lp1294
S'web2py_path'
p1295
asbag67
(g88
g69
NtRp1296
(dp1297
g72
(dp1298
g99
g100
ssg81
g1287
sg74
(lp1299
S':'
asbag67
(g88
g69
NtRp1300
(dp1301
g72
(dp1302
sg81
g1287
sg74
(lp1303
g67
(g68
g69
NtRp1304
(dp1305
g72
(dp1306
g80
I4
ssg81
g1300
sg74
(lp1307
g694
asbasbasbag67
(g83
g69
NtRp1308
(dp1309
g72
(dp1310
sg81
g647
sg74
(lp1311
g67
(g88
g69
NtRp1312
(dp1313
g72
(dp1314
g92
g93
ssg81
g1308
sg74
(lp1315
S'web2py_version'
p1316
asbag67
(g88
g69
NtRp1317
(dp1318
g72
(dp1319
g99
g100
ssg81
g1308
sg74
(lp1320
S':'
asbag67
(g88
g69
NtRp1321
(dp1322
g72
(dp1323
sg81
g1308
sg74
(lp1324
g67
(g68
g69
NtRp1325
(dp1326
g72
(dp1327
g80
I4
ssg81
g1321
sg74
(lp1328
g67
(g76
g69
NtRp1329
(dp1330
g72
(dp1331
g80
I3
ssg81
Nsg74
(lp1332
g67
(g83
g69
NtRp1333
(dp1334
g72
(dp1335
sg81
g1329
sg74
(lp1336
g67
(g88
g69
NtRp1337
(dp1338
g72
(dp1339
sg81
g1333
sg74
(lp1340
g67
(g68
g69
NtRp1341
(dp1342
g72
(dp1343
g80
I3
ssg81
g1337
sg74
(lp1344
S'1'
asbasbasbag67
(g83
g69
NtRp1345
(dp1346
g72
(dp1347
sg81
g1329
sg74
(lp1348
g67
(g88
g69
NtRp1349
(dp1350
g72
(dp1351
sg81
g1345
sg74
(lp1352
g67
(g68
g69
NtRp1353
(dp1354
g72
(dp1355
g80
I3
ssg81
g1349
sg74
(lp1356
S'99'
p1357
asbasbasbag67
(g83
g69
NtRp1358
(dp1359
g72
(dp1360
sg81
g1329
sg74
(lp1361
g67
(g88
g69
NtRp1362
(dp1363
g72
(dp1364
sg81
g1358
sg74
(lp1365
g67
(g68
g69
NtRp1366
(dp1367
g72
(dp1368
g80
I3
ssg81
g1362
sg74
(lp1369
S'3'
asbasbasbag67
(g83
g69
NtRp1370
(dp1371
g72
(dp1372
sg81
g1329
sg74
(lp1373
g67
(g88
g69
NtRp1374
(dp1375
g72
(dp1376
sg81
g1370
sg74
(lp1377
g67
(g68
g69
NtRp1378
(dp1379
g72
(dp1380
g80
I3
ssg81
g1374
sg74
(lp1381
S'datetime.datetime(2011, 10, 24, 21, 42, 42)'
p1382
asbasbasbag67
(g83
g69
NtRp1383
(dp1384
g72
(dp1385
sg81
g1329
sg74
(lp1386
g67
(g88
g69
NtRp1387
(dp1388
g72
(dp1389
sg81
g1383
sg74
(lp1390
g67
(g68
g69
NtRp1391
(dp1392
g72
(dp1393
g80
I3
ssg81
g1387
sg74
(lp1394
S'dev'
p1395
asbasbasbasbasbasbasbag67
(g83
g69
NtRp1396
(dp1397
g72
(dp1398
sg81
g647
sg74
(lp1399
g67
(g88
g69
NtRp1400
(dp1401
g72
(dp1402
g92
g93
ssg81
g1396
sg74
(lp1403
S'wsgi_errors'
p1404
asbag67
(g88
g69
NtRp1405
(dp1406
g72
(dp1407
g99
g100
ssg81
g1396
sg74
(lp1408
S':'
asbag67
(g88
g69
NtRp1409
(dp1410
g72
(dp1411
sg81
g1396
sg74
(lp1412
g67
(g68
g69
NtRp1413
(dp1414
g72
(dp1415
g80
I4
ssg81
g1409
sg74
(lp1416
S"<open file '<stderr>', mode 'w' at 0x01DC50D0>"
p1417
asbasbasbag67
(g83
g69
NtRp1418
(dp1419
g72
(dp1420
sg81
g647
sg74
(lp1421
g67
(g88
g69
NtRp1422
(dp1423
g72
(dp1424
g92
g93
ssg81
g1418
sg74
(lp1425
S'wsgi_file_wrapper'
p1426
asbag67
(g88
g69
NtRp1427
(dp1428
g72
(dp1429
g99
g100
ssg81
g1418
sg74
(lp1430
S':'
asbag67
(g88
g69
NtRp1431
(dp1432
g72
(dp1433
sg81
g1418
sg74
(lp1434
g67
(g68
g69
NtRp1435
(dp1436
g72
(dp1437
g80
I4
ssg81
g1431
sg74
(lp1438
S'<class wsgiref.util.FileWrapper at 0x02D07AB0>'
p1439
asbasbasbag67
(g83
g69
NtRp1440
(dp1441
g72
(dp1442
sg81
g647
sg74
(lp1443
g67
(g88
g69
NtRp1444
(dp1445
g72
(dp1446
g92
g93
ssg81
g1440
sg74
(lp1447
S'wsgi_input'
p1448
asbag67
(g88
g69
NtRp1449
(dp1450
g72
(dp1451
g99
g100
ssg81
g1440
sg74
(lp1452
S':'
asbag67
(g88
g69
NtRp1453
(dp1454
g72
(dp1455
sg81
g1440
sg74
(lp1456
g67
(g68
g69
NtRp1457
(dp1458
g72
(dp1459
g80
I4
ssg81
g1453
sg74
(lp1460
S'<socket._fileobject object at 0x090A76B0>'
p1461
asbasbasbag67
(g83
g69
NtRp1462
(dp1463
g72
(dp1464
sg81
g647
sg74
(lp1465
g67
(g88
g69
NtRp1466
(dp1467
g72
(dp1468
g92
g93
ssg81
g1462
sg74
(lp1469
S'wsgi_multiprocess'
p1470
asbag67
(g88
g69
NtRp1471
(dp1472
g72
(dp1473
g99
g100
ssg81
g1462
sg74
(lp1474
S':'
asbag67
(g88
g69
NtRp1475
(dp1476
g72
(dp1477
sg81
g1462
sg74
(lp1478
g67
(g68
g69
NtRp1479
(dp1480
g72
(dp1481
g80
I4
ssg81
g1475
sg74
(lp1482
g110
asbasbasbag67
(g83
g69
NtRp1483
(dp1484
g72
(dp1485
sg81
g647
sg74
(lp1486
g67
(g88
g69
NtRp1487
(dp1488
g72
(dp1489
g92
g93
ssg81
g1483
sg74
(lp1490
S'wsgi_multithread'
p1491
asbag67
(g88
g69
NtRp1492
(dp1493
g72
(dp1494
g99
g100
ssg81
g1483
sg74
(lp1495
S':'
asbag67
(g88
g69
NtRp1496
(dp1497
g72
(dp1498
sg81
g1483
sg74
(lp1499
g67
(g68
g69
NtRp1500
(dp1501
g72
(dp1502
g80
I4
ssg81
g1496
sg74
(lp1503
S'True'
p1504
asbasbasbag67
(g83
g69
NtRp1505
(dp1506
g72
(dp1507
sg81
g647
sg74
(lp1508
g67
(g88
g69
NtRp1509
(dp1510
g72
(dp1511
g92
g93
ssg81
g1505
sg74
(lp1512
S'wsgi_run_once'
p1513
asbag67
(g88
g69
NtRp1514
(dp1515
g72
(dp1516
g99
g100
ssg81
g1505
sg74
(lp1517
S':'
asbag67
(g88
g69
NtRp1518
(dp1519
g72
(dp1520
sg81
g1505
sg74
(lp1521
g67
(g68
g69
NtRp1522
(dp1523
g72
(dp1524
g80
I4
ssg81
g1518
sg74
(lp1525
g110
asbasbasbag67
(g83
g69
NtRp1526
(dp1527
g72
(dp1528
sg81
g647
sg74
(lp1529
g67
(g88
g69
NtRp1530
(dp1531
g72
(dp1532
g92
g93
ssg81
g1526
sg74
(lp1533
S'wsgi_url_scheme'
p1534
asbag67
(g88
g69
NtRp1535
(dp1536
g72
(dp1537
g99
g100
ssg81
g1526
sg74
(lp1538
S':'
asbag67
(g88
g69
NtRp1539
(dp1540
g72
(dp1541
sg81
g1526
sg74
(lp1542
g67
(g68
g69
NtRp1543
(dp1544
g72
(dp1545
g80
I4
ssg81
g1539
sg74
(lp1546
S'http'
p1547
asbasbasbag67
(g83
g69
NtRp1548
(dp1549
g72
(dp1550
sg81
g647
sg74
(lp1551
g67
(g88
g69
NtRp1552
(dp1553
g72
(dp1554
g92
g93
ssg81
g1548
sg74
(lp1555
S'wsgi_version'
p1556
asbag67
(g88
g69
NtRp1557
(dp1558
g72
(dp1559
g99
g100
ssg81
g1548
sg74
(lp1560
S':'
asbag67
(g88
g69
NtRp1561
(dp1562
g72
(dp1563
sg81
g1548
sg74
(lp1564
g67
(g68
g69
NtRp1565
(dp1566
g72
(dp1567
g80
I4
ssg81
g1561
sg74
(lp1568
g67
(g76
g69
NtRp1569
(dp1570
g72
(dp1571
g80
I3
ssg81
Nsg74
(lp1572
g67
(g83
g69
NtRp1573
(dp1574
g72
(dp1575
sg81
g1569
sg74
(lp1576
g67
(g88
g69
NtRp1577
(dp1578
g72
(dp1579
sg81
g1573
sg74
(lp1580
g67
(g68
g69
NtRp1581
(dp1582
g72
(dp1583
g80
I3
ssg81
g1577
sg74
(lp1584
S'1'
asbasbasbag67
(g83
g69
NtRp1585
(dp1586
g72
(dp1587
sg81
g1569
sg74
(lp1588
g67
(g88
g69
NtRp1589
(dp1590
g72
(dp1591
sg81
g1585
sg74
(lp1592
g67
(g68
g69
NtRp1593
(dp1594
g72
(dp1595
g80
I3
ssg81
g1589
sg74
(lp1596
S'0'
asbasbasbasbasbasbasbasbasbasbasbag67
(g83
g69
NtRp1597
(dp1598
g72
(dp1599
sg81
g77
sg74
(lp1600
g67
(g88
g69
NtRp1601
(dp1602
g72
(dp1603
g92
g93
ssg81
g1597
sg74
(lp1604
S'extension'
p1605
asbag67
(g88
g69
NtRp1606
(dp1607
g72
(dp1608
g99
g100
ssg81
g1597
sg74
(lp1609
S':'
asbag67
(g88
g69
NtRp1610
(dp1611
g72
(dp1612
sg81
g1597
sg74
(lp1613
g67
(g68
g69
NtRp1614
(dp1615
g72
(dp1616
g80
I5
ssg81
g1610
sg74
(lp1617
S'html'
p1618
asbasbasbag67
(g83
g69
NtRp1619
(dp1620
g72
(dp1621
sg81
g77
sg74
(lp1622
g67
(g88
g69
NtRp1623
(dp1624
g72
(dp1625
g92
g93
ssg81
g1619
sg74
(lp1626
S'folder'
p1627
asbag67
(g88
g69
NtRp1628
(dp1629
g72
(dp1630
g99
g100
ssg81
g1619
sg74
(lp1631
S':'
asbag67
(g88
g69
NtRp1632
(dp1633
g72
(dp1634
sg81
g1619
sg74
(lp1635
g67
(g68
g69
NtRp1636
(dp1637
g72
(dp1638
g80
I5
ssg81
g1632
sg74
(lp1639
S'P:\\Workbench\\DevEnv\\web2py\\applications\\init\\'
p1640
asbasbasbag67
(g83
g69
NtRp1641
(dp1642
g72
(dp1643
sg81
g77
sg74
(lp1644
g67
(g88
g69
NtRp1645
(dp1646
g72
(dp1647
g92
g93
ssg81
g1641
sg74
(lp1648
S'function'
p1649
asbag67
(g88
g69
NtRp1650
(dp1651
g72
(dp1652
g99
g100
ssg81
g1641
sg74
(lp1653
S':'
asbag67
(g88
g69
NtRp1654
(dp1655
g72
(dp1656
sg81
g1641
sg74
(lp1657
g67
(g68
g69
NtRp1658
(dp1659
g72
(dp1660
g80
I5
ssg81
g1654
sg74
(lp1661
S'index'
p1662
asbasbasbag67
(g83
g69
NtRp1663
(dp1664
g72
(dp1665
sg81
g77
sg74
(lp1666
g67
(g88
g69
NtRp1667
(dp1668
g72
(dp1669
g92
g93
ssg81
g1663
sg74
(lp1670
S'get_vars'
p1671
asbag67
(g88
g69
NtRp1672
(dp1673
g72
(dp1674
g99
g100
ssg81
g1663
sg74
(lp1675
S':'
asbag67
(g88
g69
NtRp1676
(dp1677
g72
(dp1678
sg81
g1663
sg74
(lp1679
g67
(g68
g69
NtRp1680
(dp1681
g72
(dp1682
g80
I5
ssg81
g1676
sg74
(lp1683
g67
(g76
g69
NtRp1684
(dp1685
g72
(dp1686
g80
I4
ssg81
Nsg74
(lp1687
sbasbasbasbag67
(g83
g69
NtRp1688
(dp1689
g72
(dp1690
sg81
g77
sg74
(lp1691
g67
(g88
g69
NtRp1692
(dp1693
g72
(dp1694
g92
g93
ssg81
g1688
sg74
(lp1695
S'global_settings'
p1696
asbag67
(g88
g69
NtRp1697
(dp1698
g72
(dp1699
g99
g100
ssg81
g1688
sg74
(lp1700
S':'
asbag67
(g88
g69
NtRp1701
(dp1702
g72
(dp1703
sg81
g1688
sg74
(lp1704
g67
(g68
g69
NtRp1705
(dp1706
g72
(dp1707
g80
I5
ssg81
g1701
sg74
(lp1708
g67
(g76
g69
NtRp1709
(dp1710
g72
(dp1711
g80
I4
ssg81
Nsg74
(lp1712
g67
(g83
g69
NtRp1713
(dp1714
g72
(dp1715
sg81
g1709
sg74
(lp1716
g67
(g88
g69
NtRp1717
(dp1718
g72
(dp1719
g92
g93
ssg81
g1713
sg74
(lp1720
g659
asbag67
(g88
g69
NtRp1721
(dp1722
g72
(dp1723
g99
g100
ssg81
g1713
sg74
(lp1724
S':'
asbag67
(g88
g69
NtRp1725
(dp1726
g72
(dp1727
sg81
g1713
sg74
(lp1728
g67
(g68
g69
NtRp1729
(dp1730
g72
(dp1731
g80
I4
ssg81
g1725
sg74
(lp1732
S"set(['P:\\\\Workbench\\\\DevEnv\\\\web2py\\\\applications\\\\init\\\\', 'P:\\\\Workbench\\\\DevEnv\\\\web2py\\\\applications\\\\admin\\\\'])"
p1733
asbasbasbag67
(g83
g69
NtRp1734
(dp1735
g72
(dp1736
sg81
g1709
sg74
(lp1737
g67
(g88
g69
NtRp1738
(dp1739
g72
(dp1740
g92
g93
ssg81
g1734
sg74
(lp1741
g681
asbag67
(g88
g69
NtRp1742
(dp1743
g72
(dp1744
g99
g100
ssg81
g1734
sg74
(lp1745
S':'
asbag67
(g88
g69
NtRp1746
(dp1747
g72
(dp1748
sg81
g1734
sg74
(lp1749
g67
(g68
g69
NtRp1750
(dp1751
g72
(dp1752
g80
I4
ssg81
g1746
sg74
(lp1753
g694
asbasbasbag67
(g83
g69
NtRp1754
(dp1755
g72
(dp1756
sg81
g1709
sg74
(lp1757
g67
(g88
g69
NtRp1758
(dp1759
g72
(dp1760
g92
g93
ssg81
g1754
sg74
(lp1761
g703
asbag67
(g88
g69
NtRp1762
(dp1763
g72
(dp1764
g99
g100
ssg81
g1754
sg74
(lp1765
S':'
asbag67
(g88
g69
NtRp1766
(dp1767
g72
(dp1768
sg81
g1754
sg74
(lp1769
g67
(g68
g69
NtRp1770
(dp1771
g72
(dp1772
g80
I4
ssg81
g1766
sg74
(lp1773
g67
(g76
g69
NtRp1774
(dp1775
g72
(dp1776
g80
I3
ssg81
Nsg74
(lp1777
sbasbasbasbag67
(g83
g69
NtRp1778
(dp1779
g72
(dp1780
sg81
g1709
sg74
(lp1781
g67
(g88
g69
NtRp1782
(dp1783
g72
(dp1784
g92
g93
ssg81
g1778
sg74
(lp1785
g728
asbag67
(g88
g69
NtRp1786
(dp1787
g72
(dp1788
g99
g100
ssg81
g1778
sg74
(lp1789
S':'
asbag67
(g88
g69
NtRp1790
(dp1791
g72
(dp1792
sg81
g1778
sg74
(lp1793
g67
(g68
g69
NtRp1794
(dp1795
g72
(dp1796
g80
I4
ssg81
g1790
sg74
(lp1797
S"<Values at 0x2fbd418: {'verbose': False, 'ip': '127.0.0.1', 'shutdown_timeout': 5, 'taskbar': False, 'nocron': False, 'pid_filename': 'httpserver.pid', 'maxthreads': None, 'softcron': False, 'server_name': 'Bishop-PC', 'bpython': False, 'nogui': False, 'port': 8000, 'extcron': False, 'debuglevel': 30, 'test': None, 'folder': 'P:\\\\Workbench\\\\DevEnv\\\\web2py', 'config': '', 'import_models': False, 'winservice': '', 'shell': None, 'run': '', 'log_filename': 'httpserver.log', 'args': [''], 'ssl_ca_certificate': None, 'scheduler': None, 'profiler_filename': None, 'ssl_private_key': '', 'password': '<ask>', 'request_queue_size': 5, 'ssl_certificate': '', 'cronjob': False, 'plain': False, 'quiet': False, 'interfaces': None, 'minthreads': None, 'timeout': 10, 'numthreads': None, 'nobanner': False}>"
p1798
asbasbasbag67
(g83
g69
NtRp1799
(dp1800
g72
(dp1801
sg81
g1709
sg74
(lp1802
g67
(g88
g69
NtRp1803
(dp1804
g72
(dp1805
g92
g93
ssg81
g1799
sg74
(lp1806
g750
asbag67
(g88
g69
NtRp1807
(dp1808
g72
(dp1809
g99
g100
ssg81
g1799
sg74
(lp1810
S':'
asbag67
(g88
g69
NtRp1811
(dp1812
g72
(dp1813
sg81
g1799
sg74
(lp1814
g67
(g68
g69
NtRp1815
(dp1816
g72
(dp1817
g80
I4
ssg81
g1811
sg74
(lp1818
S'set([])'
p1819
asbasbasbag67
(g83
g69
NtRp1820
(dp1821
g72
(dp1822
sg81
g1709
sg74
(lp1823
g67
(g88
g69
NtRp1824
(dp1825
g72
(dp1826
g92
g93
ssg81
g1820
sg74
(lp1827
g772
asbag67
(g88
g69
NtRp1828
(dp1829
g72
(dp1830
g99
g100
ssg81
g1820
sg74
(lp1831
S':'
asbag67
(g88
g69
NtRp1832
(dp1833
g72
(dp1834
sg81
g1820
sg74
(lp1835
g67
(g68
g69
NtRp1836
(dp1837
g72
(dp1838
g80
I4
ssg81
g1832
sg74
(lp1839
g110
asbasbasbag67
(g83
g69
NtRp1840
(dp1841
g72
(dp1842
sg81
g1709
sg74
(lp1843
g67
(g88
g69
NtRp1844
(dp1845
g72
(dp1846
g92
g93
ssg81
g1840
sg74
(lp1847
g793
asbag67
(g88
g69
NtRp1848
(dp1849
g72
(dp1850
g99
g100
ssg81
g1840
sg74
(lp1851
S':'
asbag67
(g88
g69
NtRp1852
(dp1853
g72
(dp1854
sg81
g1840
sg74
(lp1855
g67
(g68
g69
NtRp1856
(dp1857
g72
(dp1858
g80
I4
ssg81
g1852
sg74
(lp1859
g806
asbasbasbag67
(g83
g69
NtRp1860
(dp1861
g72
(dp1862
sg81
g1709
sg74
(lp1863
g67
(g88
g69
NtRp1864
(dp1865
g72
(dp1866
g92
g93
ssg81
g1860
sg74
(lp1867
g1035
asbag67
(g88
g69
NtRp1868
(dp1869
g72
(dp1870
g99
g100
ssg81
g1860
sg74
(lp1871
S':'
asbag67
(g88
g69
NtRp1872
(dp1873
g72
(dp1874
sg81
g1860
sg74
(lp1875
g67
(g68
g69
NtRp1876
(dp1877
g72
(dp1878
g80
I4
ssg81
g1872
sg74
(lp1879
g110
asbasbasbag67
(g83
g69
NtRp1880
(dp1881
g72
(dp1882
sg81
g1709
sg74
(lp1883
g67
(g88
g69
NtRp1884
(dp1885
g72
(dp1886
g92
g93
ssg81
g1880
sg74
(lp1887
g1273
asbag67
(g88
g69
NtRp1888
(dp1889
g72
(dp1890
g99
g100
ssg81
g1880
sg74
(lp1891
S':'
asbag67
(g88
g69
NtRp1892
(dp1893
g72
(dp1894
sg81
g1880
sg74
(lp1895
g67
(g68
g69
NtRp1896
(dp1897
g72
(dp1898
g80
I4
ssg81
g1892
sg74
(lp1899
g1286
asbasbasbag67
(g83
g69
NtRp1900
(dp1901
g72
(dp1902
sg81
g1709
sg74
(lp1903
g67
(g88
g69
NtRp1904
(dp1905
g72
(dp1906
g92
g93
ssg81
g1900
sg74
(lp1907
g1316
asbag67
(g88
g69
NtRp1908
(dp1909
g72
(dp1910
g99
g100
ssg81
g1900
sg74
(lp1911
S':'
asbag67
(g88
g69
NtRp1912
(dp1913
g72
(dp1914
sg81
g1900
sg74
(lp1915
g67
(g68
g69
NtRp1916
(dp1917
g72
(dp1918
g80
I4
ssg81
g1912
sg74
(lp1919
g67
(g76
g69
NtRp1920
(dp1921
g72
(dp1922
g80
I3
ssg81
Nsg74
(lp1923
g67
(g83
g69
NtRp1924
(dp1925
g72
(dp1926
sg81
g1920
sg74
(lp1927
g67
(g88
g69
NtRp1928
(dp1929
g72
(dp1930
sg81
g1924
sg74
(lp1931
g67
(g68
g69
NtRp1932
(dp1933
g72
(dp1934
g80
I3
ssg81
g1928
sg74
(lp1935
S'1'
asbasbasbag67
(g83
g69
NtRp1936
(dp1937
g72
(dp1938
sg81
g1920
sg74
(lp1939
g67
(g88
g69
NtRp1940
(dp1941
g72
(dp1942
sg81
g1936
sg74
(lp1943
g67
(g68
g69
NtRp1944
(dp1945
g72
(dp1946
g80
I3
ssg81
g1940
sg74
(lp1947
S'99'
p1948
asbasbasbag67
(g83
g69
NtRp1949
(dp1950
g72
(dp1951
sg81
g1920
sg74
(lp1952
g67
(g88
g69
NtRp1953
(dp1954
g72
(dp1955
sg81
g1949
sg74
(lp1956
g67
(g68
g69
NtRp1957
(dp1958
g72
(dp1959
g80
I3
ssg81
g1953
sg74
(lp1960
S'3'
asbasbasbag67
(g83
g69
NtRp1961
(dp1962
g72
(dp1963
sg81
g1920
sg74
(lp1964
g67
(g88
g69
NtRp1965
(dp1966
g72
(dp1967
sg81
g1961
sg74
(lp1968
g67
(g68
g69
NtRp1969
(dp1970
g72
(dp1971
g80
I3
ssg81
g1965
sg74
(lp1972
S'datetime.datetime(2011, 10, 24, 21, 42, 42)'
p1973
asbasbasbag67
(g83
g69
NtRp1974
(dp1975
g72
(dp1976
sg81
g1920
sg74
(lp1977
g67
(g88
g69
NtRp1978
(dp1979
g72
(dp1980
sg81
g1974
sg74
(lp1981
g67
(g68
g69
NtRp1982
(dp1983
g72
(dp1984
g80
I3
ssg81
g1978
sg74
(lp1985
g1395
asbasbasbasbasbasbasbasbasbasbasbag67
(g83
g69
NtRp1986
(dp1987
g72
(dp1988
sg81
g77
sg74
(lp1989
g67
(g88
g69
NtRp1990
(dp1991
g72
(dp1992
g92
g93
ssg81
g1986
sg74
(lp1993
S'is_https'
p1994
asbag67
(g88
g69
NtRp1995
(dp1996
g72
(dp1997
g99
g100
ssg81
g1986
sg74
(lp1998
S':'
asbag67
(g88
g69
NtRp1999
(dp2000
g72
(dp2001
sg81
g1986
sg74
(lp2002
g67
(g68
g69
NtRp2003
(dp2004
g72
(dp2005
g80
I5
ssg81
g1999
sg74
(lp2006
g110
asbasbasbag67
(g83
g69
NtRp2007
(dp2008
g72
(dp2009
sg81
g77
sg74
(lp2010
g67
(g88
g69
NtRp2011
(dp2012
g72
(dp2013
g92
g93
ssg81
g2007
sg74
(lp2014
S'is_local'
p2015
asbag67
(g88
g69
NtRp2016
(dp2017
g72
(dp2018
g99
g100
ssg81
g2007
sg74
(lp2019
S':'
asbag67
(g88
g69
NtRp2020
(dp2021
g72
(dp2022
sg81
g2007
sg74
(lp2023
g67
(g68
g69
NtRp2024
(dp2025
g72
(dp2026
g80
I5
ssg81
g2020
sg74
(lp2027
g1504
asbasbasbag67
(g83
g69
NtRp2028
(dp2029
g72
(dp2030
sg81
g77
sg74
(lp2031
g67
(g88
g69
NtRp2032
(dp2033
g72
(dp2034
g92
g93
ssg81
g2028
sg74
(lp2035
S'is_restful'
p2036
asbag67
(g88
g69
NtRp2037
(dp2038
g72
(dp2039
g99
g100
ssg81
g2028
sg74
(lp2040
S':'
asbag67
(g88
g69
NtRp2041
(dp2042
g72
(dp2043
sg81
g2028
sg74
(lp2044
g67
(g68
g69
NtRp2045
(dp2046
g72
(dp2047
g80
I5
ssg81
g2041
sg74
(lp2048
g110
asbasbasbag67
(g83
g69
NtRp2049
(dp2050
g72
(dp2051
sg81
g77
sg74
(lp2052
g67
(g88
g69
NtRp2053
(dp2054
g72
(dp2055
g92
g93
ssg81
g2049
sg74
(lp2056
S'now'
p2057
asbag67
(g88
g69
NtRp2058
(dp2059
g72
(dp2060
g99
g100
ssg81
g2049
sg74
(lp2061
S':'
asbag67
(g88
g69
NtRp2062
(dp2063
g72
(dp2064
sg81
g2049
sg74
(lp2065
g67
(g68
g69
NtRp2066
(dp2067
g72
(dp2068
g80
I5
ssg81
g2062
sg74
(lp2069
S'datetime.datetime(2011, 11, 3, 21, 55, 32, 535000)'
p2070
asbasbasbag67
(g83
g69
NtRp2071
(dp2072
g72
(dp2073
sg81
g77
sg74
(lp2074
g67
(g88
g69
NtRp2075
(dp2076
g72
(dp2077
g92
g93
ssg81
g2071
sg74
(lp2078
S'post_vars'
p2079
asbag67
(g88
g69
NtRp2080
(dp2081
g72
(dp2082
g99
g100
ssg81
g2071
sg74
(lp2083
S':'
asbag67
(g88
g69
NtRp2084
(dp2085
g72
(dp2086
sg81
g2071
sg74
(lp2087
g67
(g68
g69
NtRp2088
(dp2089
g72
(dp2090
g80
I5
ssg81
g2084
sg74
(lp2091
g67
(g76
g69
NtRp2092
(dp2093
g72
(dp2094
g80
I4
ssg81
Nsg74
(lp2095
sbasbasbasbag67
(g83
g69
NtRp2096
(dp2097
g72
(dp2098
sg81
g77
sg74
(lp2099
g67
(g88
g69
NtRp2100
(dp2101
g72
(dp2102
g92
g93
ssg81
g2096
sg74
(lp2103
S'url'
p2104
asbag67
(g88
g69
NtRp2105
(dp2106
g72
(dp2107
g99
g100
ssg81
g2096
sg74
(lp2108
S':'
asbag67
(g88
g69
NtRp2109
(dp2110
g72
(dp2111
sg81
g2096
sg74
(lp2112
g67
(g68
g69
NtRp2113
(dp2114
g72
(dp2115
g80
I5
ssg81
g2109
sg74
(lp2116
S'/init/default/index'
p2117
asbasbasbag67
(g83
g69
NtRp2118
(dp2119
g72
(dp2120
sg81
g77
sg74
(lp2121
g67
(g88
g69
NtRp2122
(dp2123
g72
(dp2124
g92
g93
ssg81
g2118
sg74
(lp2125
S'utcnow'
p2126
asbag67
(g88
g69
NtRp2127
(dp2128
g72
(dp2129
g99
g100
ssg81
g2118
sg74
(lp2130
S':'
asbag67
(g88
g69
NtRp2131
(dp2132
g72
(dp2133
sg81
g2118
sg74
(lp2134
g67
(g68
g69
NtRp2135
(dp2136
g72
(dp2137
g80
I5
ssg81
g2131
sg74
(lp2138
S'datetime.datetime(2011, 11, 4, 1, 55, 32, 535000)'
p2139
asbasbasbag67
(g83
g69
NtRp2140
(dp2141
g72
(dp2142
sg81
g77
sg74
(lp2143
g67
(g88
g69
NtRp2144
(dp2145
g72
(dp2146
g92
g93
ssg81
g2140
sg74
(lp2147
S'uuid'
p2148
asbag67
(g88
g69
NtRp2149
(dp2150
g72
(dp2151
g99
g100
ssg81
g2140
sg74
(lp2152
S':'
asbag67
(g88
g69
NtRp2153
(dp2154
g72
(dp2155
sg81
g2140
sg74
(lp2156
g67
(g68
g69
NtRp2157
(dp2158
g72
(dp2159
g80
I5
ssg81
g2153
sg74
(lp2160
S'init/127.0.0.1.2011-11-03.21-55-32.051bbcda-e95d-48a6-b99b-f40c8cb8f45b'
p2161
asbasbasbag67
(g83
g69
NtRp2162
(dp2163
g72
(dp2164
sg81
g77
sg74
(lp2165
g67
(g88
g69
NtRp2166
(dp2167
g72
(dp2168
g92
g93
ssg81
g2162
sg74
(lp2169
S'vars'
p2170
asbag67
(g88
g69
NtRp2171
(dp2172
g72
(dp2173
g99
g100
ssg81
g2162
sg74
(lp2174
S':'
asbag67
(g88
g69
NtRp2175
(dp2176
g72
(dp2177
sg81
g2162
sg74
(lp2178
g67
(g68
g69
NtRp2179
(dp2180
g72
(dp2181
g80
I5
ssg81
g2175
sg74
(lp2182
g67
(g76
g69
NtRp2183
(dp2184
g72
(dp2185
g80
I4
ssg81
Nsg74
(lp2186
sbasbasbasbag67
(g83
g69
NtRp2187
(dp2188
g72
(dp2189
sg81
g77
sg74
(lp2190
g67
(g88
g69
NtRp2191
(dp2192
g72
(dp2193
g92
g93
ssg81
g2187
sg74
(lp2194
S'wsgi'
p2195
asbag67
(g88
g69
NtRp2196
(dp2197
g72
(dp2198
g99
g100
ssg81
g2187
sg74
(lp2199
S':'
asbag67
(g88
g69
NtRp2200
(dp2201
g72
(dp2202
sg81
g2187
sg74
(lp2203
g67
(g68
g69
NtRp2204
(dp2205
g72
(dp2206
g80
I5
ssg81
g2200
sg74
(lp2207
g67
(g76
g69
NtRp2208
(dp2209
g72
(dp2210
g80
I4
ssg81
Nsg74
(lp2211
g67
(g83
g69
NtRp2212
(dp2213
g72
(dp2214
sg81
g2208
sg74
(lp2215
g67
(g88
g69
NtRp2216
(dp2217
g72
(dp2218
g92
g93
ssg81
g2212
sg74
(lp2219
S'environ'
p2220
asbag67
(g88
g69
NtRp2221
(dp2222
g72
(dp2223
g99
g100
ssg81
g2212
sg74
(lp2224
S':'
asbag67
(g88
g69
NtRp2225
(dp2226
g72
(dp2227
sg81
g2212
sg74
(lp2228
g67
(g68
g69
NtRp2229
(dp2230
g72
(dp2231
g80
I4
ssg81
g2225
sg74
(lp2232
g67
(g76
g69
NtRp2233
(dp2234
g72
(dp2235
g80
I3
ssg81
Nsg74
(lp2236
g67
(g83
g69
NtRp2237
(dp2238
g72
(dp2239
sg81
g2233
sg74
(lp2240
g67
(g88
g69
NtRp2241
(dp2242
g72
(dp2243
g92
g93
ssg81
g2237
sg74
(lp2244
S'HTTP_ACCEPT'
p2245
asbag67
(g88
g69
NtRp2246
(dp2247
g72
(dp2248
g99
g100
ssg81
g2237
sg74
(lp2249
S':'
asbag67
(g88
g69
NtRp2250
(dp2251
g72
(dp2252
sg81
g2237
sg74
(lp2253
g67
(g68
g69
NtRp2254
(dp2255
g72
(dp2256
g80
I3
ssg81
g2250
sg74
(lp2257
g828
asbasbasbag67
(g83
g69
NtRp2258
(dp2259
g72
(dp2260
sg81
g2233
sg74
(lp2261
g67
(g88
g69
NtRp2262
(dp2263
g72
(dp2264
g92
g93
ssg81
g2258
sg74
(lp2265
S'HTTP_ACCEPT_CHARSET'
p2266
asbag67
(g88
g69
NtRp2267
(dp2268
g72
(dp2269
g99
g100
ssg81
g2258
sg74
(lp2270
S':'
asbag67
(g88
g69
NtRp2271
(dp2272
g72
(dp2273
sg81
g2258
sg74
(lp2274
g67
(g68
g69
NtRp2275
(dp2276
g72
(dp2277
g80
I3
ssg81
g2271
sg74
(lp2278
g850
asbasbasbag67
(g83
g69
NtRp2279
(dp2280
g72
(dp2281
sg81
g2233
sg74
(lp2282
g67
(g88
g69
NtRp2283
(dp2284
g72
(dp2285
g92
g93
ssg81
g2279
sg74
(lp2286
S'HTTP_ACCEPT_ENCODING'
p2287
asbag67
(g88
g69
NtRp2288
(dp2289
g72
(dp2290
g99
g100
ssg81
g2279
sg74
(lp2291
S':'
asbag67
(g88
g69
NtRp2292
(dp2293
g72
(dp2294
sg81
g2279
sg74
(lp2295
g67
(g68
g69
NtRp2296
(dp2297
g72
(dp2298
g80
I3
ssg81
g2292
sg74
(lp2299
g872
asbasbasbag67
(g83
g69
NtRp2300
(dp2301
g72
(dp2302
sg81
g2233
sg74
(lp2303
g67
(g88
g69
NtRp2304
(dp2305
g72
(dp2306
g92
g93
ssg81
g2300
sg74
(lp2307
S'HTTP_ACCEPT_LANGUAGE'
p2308
asbag67
(g88
g69
NtRp2309
(dp2310
g72
(dp2311
g99
g100
ssg81
g2300
sg74
(lp2312
S':'
asbag67
(g88
g69
NtRp2313
(dp2314
g72
(dp2315
sg81
g2300
sg74
(lp2316
g67
(g68
g69
NtRp2317
(dp2318
g72
(dp2319
g80
I3
ssg81
g2313
sg74
(lp2320
g894
asbasbasbag67
(g83
g69
NtRp2321
(dp2322
g72
(dp2323
sg81
g2233
sg74
(lp2324
g67
(g88
g69
NtRp2325
(dp2326
g72
(dp2327
g92
g93
ssg81
g2321
sg74
(lp2328
S'HTTP_CONNECTION'
p2329
asbag67
(g88
g69
NtRp2330
(dp2331
g72
(dp2332
g99
g100
ssg81
g2321
sg74
(lp2333
S':'
asbag67
(g88
g69
NtRp2334
(dp2335
g72
(dp2336
sg81
g2321
sg74
(lp2337
g67
(g68
g69
NtRp2338
(dp2339
g72
(dp2340
g80
I3
ssg81
g2334
sg74
(lp2341
g916
asbasbasbag67
(g83
g69
NtRp2342
(dp2343
g72
(dp2344
sg81
g2233
sg74
(lp2345
g67
(g88
g69
NtRp2346
(dp2347
g72
(dp2348
g92
g93
ssg81
g2342
sg74
(lp2349
S'HTTP_COOKIE'
p2350
asbag67
(g88
g69
NtRp2351
(dp2352
g72
(dp2353
g99
g100
ssg81
g2342
sg74
(lp2354
S':'
asbag67
(g88
g69
NtRp2355
(dp2356
g72
(dp2357
sg81
g2342
sg74
(lp2358
g67
(g68
g69
NtRp2359
(dp2360
g72
(dp2361
g80
I3
ssg81
g2355
sg74
(lp2362
g938
asbasbasbag67
(g83
g69
NtRp2363
(dp2364
g72
(dp2365
sg81
g2233
sg74
(lp2366
g67
(g88
g69
NtRp2367
(dp2368
g72
(dp2369
g92
g93
ssg81
g2363
sg74
(lp2370
S'HTTP_HOST'
p2371
asbag67
(g88
g69
NtRp2372
(dp2373
g72
(dp2374
g99
g100
ssg81
g2363
sg74
(lp2375
S':'
asbag67
(g88
g69
NtRp2376
(dp2377
g72
(dp2378
sg81
g2363
sg74
(lp2379
g67
(g68
g69
NtRp2380
(dp2381
g72
(dp2382
g80
I3
ssg81
g2376
sg74
(lp2383
g960
asbasbasbag67
(g83
g69
NtRp2384
(dp2385
g72
(dp2386
sg81
g2233
sg74
(lp2387
g67
(g88
g69
NtRp2388
(dp2389
g72
(dp2390
g92
g93
ssg81
g2384
sg74
(lp2391
S'HTTP_KEEP_ALIVE'
p2392
asbag67
(g88
g69
NtRp2393
(dp2394
g72
(dp2395
g99
g100
ssg81
g2384
sg74
(lp2396
S':'
asbag67
(g88
g69
NtRp2397
(dp2398
g72
(dp2399
sg81
g2384
sg74
(lp2400
g67
(g68
g69
NtRp2401
(dp2402
g72
(dp2403
g80
I3
ssg81
g2397
sg74
(lp2404
g982
asbasbasbag67
(g83
g69
NtRp2405
(dp2406
g72
(dp2407
sg81
g2233
sg74
(lp2408
g67
(g88
g69
NtRp2409
(dp2410
g72
(dp2411
g92
g93
ssg81
g2405
sg74
(lp2412
S'HTTP_REFERER'
p2413
asbag67
(g88
g69
NtRp2414
(dp2415
g72
(dp2416
g99
g100
ssg81
g2405
sg74
(lp2417
S':'
asbag67
(g88
g69
NtRp2418
(dp2419
g72
(dp2420
sg81
g2405
sg74
(lp2421
g67
(g68
g69
NtRp2422
(dp2423
g72
(dp2424
g80
I3
ssg81
g2418
sg74
(lp2425
g1004
asbasbasbag67
(g83
g69
NtRp2426
(dp2427
g72
(dp2428
sg81
g2233
sg74
(lp2429
g67
(g88
g69
NtRp2430
(dp2431
g72
(dp2432
g92
g93
ssg81
g2426
sg74
(lp2433
S'HTTP_USER_AGENT'
p2434
asbag67
(g88
g69
NtRp2435
(dp2436
g72
(dp2437
g99
g100
ssg81
g2426
sg74
(lp2438
S':'
asbag67
(g88
g69
NtRp2439
(dp2440
g72
(dp2441
sg81
g2426
sg74
(lp2442
g67
(g68
g69
NtRp2443
(dp2444
g72
(dp2445
g80
I3
ssg81
g2439
sg74
(lp2446
g1026
asbasbasbag67
(g83
g69
NtRp2447
(dp2448
g72
(dp2449
sg81
g2233
sg74
(lp2450
g67
(g88
g69
NtRp2451
(dp2452
g72
(dp2453
g92
g93
ssg81
g2447
sg74
(lp2454
S'PATH_INFO'
p2455
asbag67
(g88
g69
NtRp2456
(dp2457
g72
(dp2458
g99
g100
ssg81
g2447
sg74
(lp2459
S':'
asbag67
(g88
g69
NtRp2460
(dp2461
g72
(dp2462
sg81
g2447
sg74
(lp2463
g67
(g68
g69
NtRp2464
(dp2465
g72
(dp2466
g80
I3
ssg81
g2460
sg74
(lp2467
g1069
asbasbasbag67
(g83
g69
NtRp2468
(dp2469
g72
(dp2470
sg81
g2233
sg74
(lp2471
g67
(g88
g69
NtRp2472
(dp2473
g72
(dp2474
g92
g93
ssg81
g2468
sg74
(lp2475
S'QUERY_STRING'
p2476
asbag67
(g88
g69
NtRp2477
(dp2478
g72
(dp2479
g99
g100
ssg81
g2468
sg74
(lp2480
S':'
asbag67
(g88
g69
NtRp2481
(dp2482
g72
(dp2483
sg81
g2468
sg74
(lp2484
g67
(g68
g69
NtRp2485
(dp2486
g72
(dp2487
g80
I3
ssg81
g2481
sg74
(lp2488
S''
asbasbasbag67
(g83
g69
NtRp2489
(dp2490
g72
(dp2491
sg81
g2233
sg74
(lp2492
g67
(g88
g69
NtRp2493
(dp2494
g72
(dp2495
g92
g93
ssg81
g2489
sg74
(lp2496
S'REMOTE_ADDR'
p2497
asbag67
(g88
g69
NtRp2498
(dp2499
g72
(dp2500
g99
g100
ssg81
g2489
sg74
(lp2501
S':'
asbag67
(g88
g69
NtRp2502
(dp2503
g72
(dp2504
sg81
g2489
sg74
(lp2505
g67
(g68
g69
NtRp2506
(dp2507
g72
(dp2508
g80
I3
ssg81
g2502
sg74
(lp2509
g200
asbasbasbag67
(g83
g69
NtRp2510
(dp2511
g72
(dp2512
sg81
g2233
sg74
(lp2513
g67
(g88
g69
NtRp2514
(dp2515
g72
(dp2516
g92
g93
ssg81
g2510
sg74
(lp2517
S'REMOTE_PORT'
p2518
asbag67
(g88
g69
NtRp2519
(dp2520
g72
(dp2521
g99
g100
ssg81
g2510
sg74
(lp2522
S':'
asbag67
(g88
g69
NtRp2523
(dp2524
g72
(dp2525
sg81
g2510
sg74
(lp2526
g67
(g68
g69
NtRp2527
(dp2528
g72
(dp2529
g80
I3
ssg81
g2523
sg74
(lp2530
g1133
asbasbasbag67
(g83
g69
NtRp2531
(dp2532
g72
(dp2533
sg81
g2233
sg74
(lp2534
g67
(g88
g69
NtRp2535
(dp2536
g72
(dp2537
g92
g93
ssg81
g2531
sg74
(lp2538
S'REQUEST_METHOD'
p2539
asbag67
(g88
g69
NtRp2540
(dp2541
g72
(dp2542
g99
g100
ssg81
g2531
sg74
(lp2543
S':'
asbag67
(g88
g69
NtRp2544
(dp2545
g72
(dp2546
sg81
g2531
sg74
(lp2547
g67
(g68
g69
NtRp2548
(dp2549
g72
(dp2550
g80
I3
ssg81
g2544
sg74
(lp2551
g1155
asbasbasbag67
(g83
g69
NtRp2552
(dp2553
g72
(dp2554
sg81
g2233
sg74
(lp2555
g67
(g88
g69
NtRp2556
(dp2557
g72
(dp2558
g92
g93
ssg81
g2552
sg74
(lp2559
S'SCRIPT_NAME'
p2560
asbag67
(g88
g69
NtRp2561
(dp2562
g72
(dp2563
g99
g100
ssg81
g2552
sg74
(lp2564
S':'
asbag67
(g88
g69
NtRp2565
(dp2566
g72
(dp2567
sg81
g2552
sg74
(lp2568
g67
(g68
g69
NtRp2569
(dp2570
g72
(dp2571
g80
I3
ssg81
g2565
sg74
(lp2572
S''
asbasbasbag67
(g83
g69
NtRp2573
(dp2574
g72
(dp2575
sg81
g2233
sg74
(lp2576
g67
(g88
g69
NtRp2577
(dp2578
g72
(dp2579
g92
g93
ssg81
g2573
sg74
(lp2580
S'SERVER_NAME'
p2581
asbag67
(g88
g69
NtRp2582
(dp2583
g72
(dp2584
g99
g100
ssg81
g2573
sg74
(lp2585
S':'
asbag67
(g88
g69
NtRp2586
(dp2587
g72
(dp2588
sg81
g2573
sg74
(lp2589
g67
(g68
g69
NtRp2590
(dp2591
g72
(dp2592
g80
I3
ssg81
g2586
sg74
(lp2593
g1198
asbasbasbag67
(g83
g69
NtRp2594
(dp2595
g72
(dp2596
sg81
g2233
sg74
(lp2597
g67
(g88
g69
NtRp2598
(dp2599
g72
(dp2600
g92
g93
ssg81
g2594
sg74
(lp2601
S'SERVER_PORT'
p2602
asbag67
(g88
g69
NtRp2603
(dp2604
g72
(dp2605
g99
g100
ssg81
g2594
sg74
(lp2606
S':'
asbag67
(g88
g69
NtRp2607
(dp2608
g72
(dp2609
sg81
g2594
sg74
(lp2610
g67
(g68
g69
NtRp2611
(dp2612
g72
(dp2613
g80
I3
ssg81
g2607
sg74
(lp2614
g1220
asbasbasbag67
(g83
g69
NtRp2615
(dp2616
g72
(dp2617
sg81
g2233
sg74
(lp2618
g67
(g88
g69
NtRp2619
(dp2620
g72
(dp2621
g92
g93
ssg81
g2615
sg74
(lp2622
S'SERVER_PROTOCOL'
p2623
asbag67
(g88
g69
NtRp2624
(dp2625
g72
(dp2626
g99
g100
ssg81
g2615
sg74
(lp2627
S':'
asbag67
(g88
g69
NtRp2628
(dp2629
g72
(dp2630
sg81
g2615
sg74
(lp2631
g67
(g68
g69
NtRp2632
(dp2633
g72
(dp2634
g80
I3
ssg81
g2628
sg74
(lp2635
g1242
asbasbasbag67
(g83
g69
NtRp2636
(dp2637
g72
(dp2638
sg81
g2233
sg74
(lp2639
g67
(g88
g69
NtRp2640
(dp2641
g72
(dp2642
g92
g93
ssg81
g2636
sg74
(lp2643
S'SERVER_SOFTWARE'
p2644
asbag67
(g88
g69
NtRp2645
(dp2646
g72
(dp2647
g99
g100
ssg81
g2636
sg74
(lp2648
S':'
asbag67
(g88
g69
NtRp2649
(dp2650
g72
(dp2651
sg81
g2636
sg74
(lp2652
g67
(g68
g69
NtRp2653
(dp2654
g72
(dp2655
g80
I3
ssg81
g2649
sg74
(lp2656
g1264
asbasbasbag67
(g83
g69
NtRp2657
(dp2658
g72
(dp2659
sg81
g2233
sg74
(lp2660
g67
(g88
g69
NtRp2661
(dp2662
g72
(dp2663
g92
g93
ssg81
g2657
sg74
(lp2664
S'wsgi.errors'
p2665
asbag67
(g88
g69
NtRp2666
(dp2667
g72
(dp2668
g99
g100
ssg81
g2657
sg74
(lp2669
S':'
asbag67
(g88
g69
NtRp2670
(dp2671
g72
(dp2672
sg81
g2657
sg74
(lp2673
g67
(g68
g69
NtRp2674
(dp2675
g72
(dp2676
g80
I3
ssg81
g2670
sg74
(lp2677
S"<open file '<stderr>', mode 'w' at 0x01DC50D0>"
p2678
asbasbasbag67
(g83
g69
NtRp2679
(dp2680
g72
(dp2681
sg81
g2233
sg74
(lp2682
g67
(g88
g69
NtRp2683
(dp2684
g72
(dp2685
g92
g93
ssg81
g2679
sg74
(lp2686
S'wsgi.file_wrapper'
p2687
asbag67
(g88
g69
NtRp2688
(dp2689
g72
(dp2690
g99
g100
ssg81
g2679
sg74
(lp2691
S':'
asbag67
(g88
g69
NtRp2692
(dp2693
g72
(dp2694
sg81
g2679
sg74
(lp2695
g67
(g68
g69
NtRp2696
(dp2697
g72
(dp2698
g80
I3
ssg81
g2692
sg74
(lp2699
S'<class wsgiref.util.FileWrapper at 0x02D07AB0>'
p2700
asbasbasbag67
(g83
g69
NtRp2701
(dp2702
g72
(dp2703
sg81
g2233
sg74
(lp2704
g67
(g88
g69
NtRp2705
(dp2706
g72
(dp2707
g92
g93
ssg81
g2701
sg74
(lp2708
S'wsgi.input'
p2709
asbag67
(g88
g69
NtRp2710
(dp2711
g72
(dp2712
g99
g100
ssg81
g2701
sg74
(lp2713
S':'
asbag67
(g88
g69
NtRp2714
(dp2715
g72
(dp2716
sg81
g2701
sg74
(lp2717
g67
(g68
g69
NtRp2718
(dp2719
g72
(dp2720
g80
I3
ssg81
g2714
sg74
(lp2721
S'<cStringIO.StringO object at 0x090EF520>'
p2722
asbasbasbag67
(g83
g69
NtRp2723
(dp2724
g72
(dp2725
sg81
g2233
sg74
(lp2726
g67
(g88
g69
NtRp2727
(dp2728
g72
(dp2729
g92
g93
ssg81
g2723
sg74
(lp2730
S'wsgi.multiprocess'
p2731
asbag67
(g88
g69
NtRp2732
(dp2733
g72
(dp2734
g99
g100
ssg81
g2723
sg74
(lp2735
S':'
asbag67
(g88
g69
NtRp2736
(dp2737
g72
(dp2738
sg81
g2723
sg74
(lp2739
g67
(g68
g69
NtRp2740
(dp2741
g72
(dp2742
g80
I3
ssg81
g2736
sg74
(lp2743
g110
asbasbasbag67
(g83
g69
NtRp2744
(dp2745
g72
(dp2746
sg81
g2233
sg74
(lp2747
g67
(g88
g69
NtRp2748
(dp2749
g72
(dp2750
g92
g93
ssg81
g2744
sg74
(lp2751
S'wsgi.multithread'
p2752
asbag67
(g88
g69
NtRp2753
(dp2754
g72
(dp2755
g99
g100
ssg81
g2744
sg74
(lp2756
S':'
asbag67
(g88
g69
NtRp2757
(dp2758
g72
(dp2759
sg81
g2744
sg74
(lp2760
g67
(g68
g69
NtRp2761
(dp2762
g72
(dp2763
g80
I3
ssg81
g2757
sg74
(lp2764
g1504
asbasbasbag67
(g83
g69
NtRp2765
(dp2766
g72
(dp2767
sg81
g2233
sg74
(lp2768
g67
(g88
g69
NtRp2769
(dp2770
g72
(dp2771
g92
g93
ssg81
g2765
sg74
(lp2772
S'wsgi.run_once'
p2773
asbag67
(g88
g69
NtRp2774
(dp2775
g72
(dp2776
g99
g100
ssg81
g2765
sg74
(lp2777
S':'
asbag67
(g88
g69
NtRp2778
(dp2779
g72
(dp2780
sg81
g2765
sg74
(lp2781
g67
(g68
g69
NtRp2782
(dp2783
g72
(dp2784
g80
I3
ssg81
g2778
sg74
(lp2785
g110
asbasbasbag67
(g83
g69
NtRp2786
(dp2787
g72
(dp2788
sg81
g2233
sg74
(lp2789
g67
(g88
g69
NtRp2790
(dp2791
g72
(dp2792
g92
g93
ssg81
g2786
sg74
(lp2793
S'wsgi.url_scheme'
p2794
asbag67
(g88
g69
NtRp2795
(dp2796
g72
(dp2797
g99
g100
ssg81
g2786
sg74
(lp2798
S':'
asbag67
(g88
g69
NtRp2799
(dp2800
g72
(dp2801
sg81
g2786
sg74
(lp2802
g67
(g68
g69
NtRp2803
(dp2804
g72
(dp2805
g80
I3
ssg81
g2799
sg74
(lp2806
g1547
asbasbasbag67
(g83
g69
NtRp2807
(dp2808
g72
(dp2809
sg81
g2233
sg74
(lp2810
g67
(g88
g69
NtRp2811
(dp2812
g72
(dp2813
g92
g93
ssg81
g2807
sg74
(lp2814
S'wsgi.version'
p2815
asbag67
(g88
g69
NtRp2816
(dp2817
g72
(dp2818
g99
g100
ssg81
g2807
sg74
(lp2819
S':'
asbag67
(g88
g69
NtRp2820
(dp2821
g72
(dp2822
sg81
g2807
sg74
(lp2823
g67
(g68
g69
NtRp2824
(dp2825
g72
(dp2826
g80
I3
ssg81
g2820
sg74
(lp2827
S'1'
asbasbasbasbasbasbasbasbasbasbasbasbasbsS'frames'
p2828
(lp2829
(dp2830
S'file'
p2831
S'P:\\Workbench\\DevEnv\\web2py\\gluon\\restricted.py'
p2832
sS'dump'
p2833
(dp2834
S'code'
p2835
S'\'response.write(\\\'<!DOCTYPE html PUBLIC "-//W3C//D...iv>\\\\r\\\\n\\\\r\\\\n</body>\\\\r\\\\n</html>\\\\r\\\\n\\\', escape=False)\''
p2836
sS'layer'
p2837
S"r'P:\\Workbench\\DevEnv\\web2py\\applications\\init\\views\\default/index.html'"
p2838
sS'global compile2'
p2839
S'<function compile2>'
p2840
sS'ccode'
p2841
S'undefined'
p2842
ssS'lnum'
p2843
I191
sS'lines'
p2844
(dp2845
I192
S'        exec ccode in environment'
p2846
sI193
S'    except HTTP:'
p2847
sI194
S'        raise'
p2848
sI195
S'    except Exception:'
p2849
sI186
S"    environment['__file__'] = layer"
p2850
sI187
S'    try:'
p2851
sI188
S'        if type(code) == types.CodeType:'
p2852
sI189
S'            ccode = code'
p2853
sI190
S'        else:'
p2854
sI191
S'            ccode = compile2(code,layer)'
p2855
ssS'call'
p2856
S'(code=\'response.write(\\\'<!DOCTYPE html PUBLIC "-//W3C//D...iv>\\\\r\\\\n\\\\r\\\\n</body>\\\\r\\\\n</html>\\\\r\\\\n\\\', escape=False)\', environment={\'A\': <class \'gluon.html.A\'>, \'Auth\': <class \'gluon.tools.Auth\'>, \'B\': <class \'gluon.html.B\'>, \'BEAUTIFY\': <class \'gluon.html.BEAUTIFY\'>, \'BODY\': <class \'gluon.html.BODY\'>, \'BR\': <class \'gluon.html.BR\'>, \'BUTTON\': <class \'gluon.html.BUTTON\'>, \'CAT\': <class \'gluon.html.CAT\'>, \'CENTER\': <class \'gluon.html.CENTER\'>, \'CLEANUP\': <class \'gluon.validators.CLEANUP\'>, ...}, layer=r\'P:\\Workbench\\DevEnv\\web2py\\applications\\init\\views\\default/index.html\')'
p2857
sS'func'
p2858
S'restricted'
p2859
sa(dp2860
g2831
S'P:\\Workbench\\DevEnv\\web2py\\gluon\\restricted.py'
p2861
sg2833
(dp2862
S'builtincompile'
p2863
S'<built-in function compile>'
p2864
sS'code'
p2865
S'\'response.write(\\\'<!DOCTYPE html PUBLIC "-//W3C//D...iv>\\\\r\\\\n\\\\r\\\\n</body>\\\\r\\\\n</html>\\\\r\\\\n\\\', escape=False)\''
p2866
sS'code.rstrip'
p2867
S'<built-in method rstrip of str object>'
p2868
sS').replace'
p2869
g2842
sS'layer'
p2870
S"r'P:\\Workbench\\DevEnv\\web2py\\applications\\init\\views\\default/index.html'"
p2871
ssg2843
I177
sg2844
(dp2872
I172
S''
sI173
S'def compile2(code,layer):'
p2873
sI174
S'    """'
p2874
sI175
S"    The +'\\n' is necessary else compile fails when code ends in a comment."
p2875
sI176
S'    """'
p2876
sI177
S"    return compile(code.rstrip().replace('\\r\\n','\\n')+'\\n', layer, 'exec')"
p2877
sI178
S''
sI179
S"def restricted(code, environment=None, layer='Unknown'):"
p2878
sI180
S'    """'
p2879
sI181
S'    runs code in environment and returns the output. if an exception occurs'
p2880
ssg2856
S'(code=\'response.write(\\\'<!DOCTYPE html PUBLIC "-//W3C//D...iv>\\\\r\\\\n\\\\r\\\\n</body>\\\\r\\\\n</html>\\\\r\\\\n\\\', escape=False)\', layer=r\'P:\\Workbench\\DevEnv\\web2py\\applications\\init\\views\\default/index.html\')'
p2881
sg2858
S'compile2'
p2882
sasS'pyver'
p2883
S'Python 2.7.2: P:\\Workbench\\DevEnv\\Python27\\python.exe'
p2884
sS'session'
p2885
g67
(g68
g69
NtRp2886
(dp2887
g72
(dp2888
sg74
(lp2889
g67
(g76
g69
NtRp2890
(dp2891
g72
(dp2892
g80
I5
ssg81
Nsg74
(lp2893
sbasbsS'etype'
p2894
S"<type 'exceptions.SyntaxError'>"
p2895
sS'date'
p2896
S'Thu Nov 03 21:55:32 2011'
p2897
sS'response'
p2898
g67
(g68
g69
NtRp2899
(dp2900
g72
(dp2901
sg74
(lp2902
g67
(g76
g69
NtRp2903
(dp2904
g72
(dp2905
g80
I5
ssg81
Nsg74
(lp2906
g67
(g83
g69
NtRp2907
(dp2908
g72
(dp2909
sg81
g2903
sg74
(lp2910
g67
(g88
g69
NtRp2911
(dp2912
g72
(dp2913
g92
g93
ssg81
g2907
sg74
(lp2914
g165
asbag67
(g88
g69
NtRp2915
(dp2916
g72
(dp2917
g99
g100
ssg81
g2907
sg74
(lp2918
S':'
asbag67
(g88
g69
NtRp2919
(dp2920
g72
(dp2921
sg81
g2907
sg74
(lp2922
g67
(g68
g69
NtRp2923
(dp2924
g72
(dp2925
g80
I5
ssg81
g2919
sg74
(lp2926
S'<cStringIO.StringO object at 0x0347F520>'
p2927
asbasbasbag67
(g83
g69
NtRp2928
(dp2929
g72
(dp2930
sg81
g2903
sg74
(lp2931
g67
(g88
g69
NtRp2932
(dp2933
g72
(dp2934
g92
g93
ssg81
g2928
sg74
(lp2935
g231
asbag67
(g88
g69
NtRp2936
(dp2937
g72
(dp2938
g99
g100
ssg81
g2928
sg74
(lp2939
S':'
asbag67
(g88
g69
NtRp2940
(dp2941
g72
(dp2942
sg81
g2928
sg74
(lp2943
g67
(g68
g69
NtRp2944
(dp2945
g72
(dp2946
g80
I5
ssg81
g2940
sg74
(lp2947
g67
(g76
g69
NtRp2948
(dp2949
g72
(dp2950
g80
I4
ssg81
Nsg74
(lp2951
g67
(g83
g69
NtRp2952
(dp2953
g72
(dp2954
sg81
g2948
sg74
(lp2955
g67
(g88
g69
NtRp2956
(dp2957
g72
(dp2958
g92
g93
ssg81
g2952
sg74
(lp2959
S'session_id_init'
p2960
asbag67
(g88
g69
NtRp2961
(dp2962
g72
(dp2963
g99
g100
ssg81
g2952
sg74
(lp2964
S':'
asbag67
(g88
g69
NtRp2965
(dp2966
g72
(dp2967
sg81
g2952
sg74
(lp2968
g67
(g68
g69
NtRp2969
(dp2970
g72
(dp2971
g80
I4
ssg81
g2965
sg74
(lp2972
g67
(g76
g69
NtRp2973
(dp2974
g72
(dp2975
g80
I3
ssg81
Nsg74
(lp2976
g67
(g83
g69
NtRp2977
(dp2978
g72
(dp2979
sg81
g2973
sg74
(lp2980
g67
(g88
g69
NtRp2981
(dp2982
g72
(dp2983
g92
g93
ssg81
g2977
sg74
(lp2984
g281
asbag67
(g88
g69
NtRp2985
(dp2986
g72
(dp2987
g99
g100
ssg81
g2977
sg74
(lp2988
S':'
asbag67
(g88
g69
NtRp2989
(dp2990
g72
(dp2991
sg81
g2977
sg74
(lp2992
g67
(g68
g69
NtRp2993
(dp2994
g72
(dp2995
g80
I3
ssg81
g2989
sg74
(lp2996
S''
asbasbasbag67
(g83
g69
NtRp2997
(dp2998
g72
(dp2999
sg81
g2973
sg74
(lp3000
g67
(g88
g69
NtRp3001
(dp3002
g72
(dp3003
g92
g93
ssg81
g2997
sg74
(lp3004
g302
asbag67
(g88
g69
NtRp3005
(dp3006
g72
(dp3007
g99
g100
ssg81
g2997
sg74
(lp3008
S':'
asbag67
(g88
g69
NtRp3009
(dp3010
g72
(dp3011
sg81
g2997
sg74
(lp3012
g67
(g68
g69
NtRp3013
(dp3014
g72
(dp3015
g80
I3
ssg81
g3009
sg74
(lp3016
S''
asbasbasbag67
(g83
g69
NtRp3017
(dp3018
g72
(dp3019
sg81
g2973
sg74
(lp3020
g67
(g88
g69
NtRp3021
(dp3022
g72
(dp3023
g92
g93
ssg81
g3017
sg74
(lp3024
g323
asbag67
(g88
g69
NtRp3025
(dp3026
g72
(dp3027
g99
g100
ssg81
g3017
sg74
(lp3028
S':'
asbag67
(g88
g69
NtRp3029
(dp3030
g72
(dp3031
sg81
g3017
sg74
(lp3032
g67
(g68
g69
NtRp3033
(dp3034
g72
(dp3035
g80
I3
ssg81
g3029
sg74
(lp3036
S''
asbasbasbag67
(g83
g69
NtRp3037
(dp3038
g72
(dp3039
sg81
g2973
sg74
(lp3040
g67
(g88
g69
NtRp3041
(dp3042
g72
(dp3043
g92
g93
ssg81
g3037
sg74
(lp3044
g344
asbag67
(g88
g69
NtRp3045
(dp3046
g72
(dp3047
g99
g100
ssg81
g3037
sg74
(lp3048
S':'
asbag67
(g88
g69
NtRp3049
(dp3050
g72
(dp3051
sg81
g3037
sg74
(lp3052
g67
(g68
g69
NtRp3053
(dp3054
g72
(dp3055
g80
I3
ssg81
g3049
sg74
(lp3056
S''
asbasbasbag67
(g83
g69
NtRp3057
(dp3058
g72
(dp3059
sg81
g2973
sg74
(lp3060
g67
(g88
g69
NtRp3061
(dp3062
g72
(dp3063
g92
g93
ssg81
g3057
sg74
(lp3064
g365
asbag67
(g88
g69
NtRp3065
(dp3066
g72
(dp3067
g99
g100
ssg81
g3057
sg74
(lp3068
S':'
asbag67
(g88
g69
NtRp3069
(dp3070
g72
(dp3071
sg81
g3057
sg74
(lp3072
g67
(g68
g69
NtRp3073
(dp3074
g72
(dp3075
g80
I3
ssg81
g3069
sg74
(lp3076
S''
asbasbasbag67
(g83
g69
NtRp3077
(dp3078
g72
(dp3079
sg81
g2973
sg74
(lp3080
g67
(g88
g69
NtRp3081
(dp3082
g72
(dp3083
g92
g93
ssg81
g3077
sg74
(lp3084
g386
asbag67
(g88
g69
NtRp3085
(dp3086
g72
(dp3087
g99
g100
ssg81
g3077
sg74
(lp3088
S':'
asbag67
(g88
g69
NtRp3089
(dp3090
g72
(dp3091
sg81
g3077
sg74
(lp3092
g67
(g68
g69
NtRp3093
(dp3094
g72
(dp3095
g80
I3
ssg81
g3089
sg74
(lp3096
S'/'
asbasbasbag67
(g83
g69
NtRp3097
(dp3098
g72
(dp3099
sg81
g2973
sg74
(lp3100
g67
(g88
g69
NtRp3101
(dp3102
g72
(dp3103
g92
g93
ssg81
g3097
sg74
(lp3104
g407
asbag67
(g88
g69
NtRp3105
(dp3106
g72
(dp3107
g99
g100
ssg81
g3097
sg74
(lp3108
S':'
asbag67
(g88
g69
NtRp3109
(dp3110
g72
(dp3111
sg81
g3097
sg74
(lp3112
g67
(g68
g69
NtRp3113
(dp3114
g72
(dp3115
g80
I3
ssg81
g3109
sg74
(lp3116
S''
asbasbasbag67
(g83
g69
NtRp3117
(dp3118
g72
(dp3119
sg81
g2973
sg74
(lp3120
g67
(g88
g69
NtRp3121
(dp3122
g72
(dp3123
g92
g93
ssg81
g3117
sg74
(lp3124
g428
asbag67
(g88
g69
NtRp3125
(dp3126
g72
(dp3127
g99
g100
ssg81
g3117
sg74
(lp3128
S':'
asbag67
(g88
g69
NtRp3129
(dp3130
g72
(dp3131
sg81
g3117
sg74
(lp3132
g67
(g68
g69
NtRp3133
(dp3134
g72
(dp3135
g80
I3
ssg81
g3129
sg74
(lp3136
S''
asbasbasbasbasbasbasbasbasbasbasbag67
(g83
g69
NtRp3137
(dp3138
g72
(dp3139
sg81
g2903
sg74
(lp3140
g67
(g88
g69
NtRp3141
(dp3142
g72
(dp3143
g92
g93
ssg81
g3137
sg74
(lp3144
S'files'
p3145
asbag67
(g88
g69
NtRp3146
(dp3147
g72
(dp3148
g99
g100
ssg81
g3137
sg74
(lp3149
S':'
asbag67
(g88
g69
NtRp3150
(dp3151
g72
(dp3152
sg81
g3137
sg74
(lp3153
g67
(g68
g69
NtRp3154
(dp3155
g72
(dp3156
g80
I5
ssg81
g3150
sg74
(lp3157
g67
(g76
g69
NtRp3158
(dp3159
g72
(dp3160
g80
I4
ssg81
Nsg74
(lp3161
sbasbasbasbag67
(g83
g69
NtRp3162
(dp3163
g72
(dp3164
sg81
g2903
sg74
(lp3165
g67
(g88
g69
NtRp3166
(dp3167
g72
(dp3168
g92
g93
ssg81
g3162
sg74
(lp3169
S'flash'
p3170
asbag67
(g88
g69
NtRp3171
(dp3172
g72
(dp3173
g99
g100
ssg81
g3162
sg74
(lp3174
S':'
asbag67
(g88
g69
NtRp3175
(dp3176
g72
(dp3177
sg81
g3162
sg74
(lp3178
g67
(g68
g69
NtRp3179
(dp3180
g72
(dp3181
g80
I5
ssg81
g3175
sg74
(lp3182
S''
asbasbasbag67
(g83
g69
NtRp3183
(dp3184
g72
(dp3185
sg81
g2903
sg74
(lp3186
g67
(g88
g69
NtRp3187
(dp3188
g72
(dp3189
g92
g93
ssg81
g3183
sg74
(lp3190
S'generic_patterns'
p3191
asbag67
(g88
g69
NtRp3192
(dp3193
g72
(dp3194
g99
g100
ssg81
g3183
sg74
(lp3195
S':'
asbag67
(g88
g69
NtRp3196
(dp3197
g72
(dp3198
sg81
g3183
sg74
(lp3199
g67
(g68
g69
NtRp3200
(dp3201
g72
(dp3202
g80
I5
ssg81
g3196
sg74
(lp3203
g67
(g76
g69
NtRp3204
(dp3205
g72
(dp3206
g80
I4
ssg81
Nsg74
(lp3207
g67
(g83
g69
NtRp3208
(dp3209
g72
(dp3210
sg81
g3204
sg74
(lp3211
g67
(g88
g69
NtRp3212
(dp3213
g72
(dp3214
sg81
g3208
sg74
(lp3215
g67
(g68
g69
NtRp3216
(dp3217
g72
(dp3218
g80
I4
ssg81
g3212
sg74
(lp3219
S'*'
asbasbasbasbasbasbasbag67
(g83
g69
NtRp3220
(dp3221
g72
(dp3222
sg81
g2903
sg74
(lp3223
g67
(g88
g69
NtRp3224
(dp3225
g72
(dp3226
g92
g93
ssg81
g3220
sg74
(lp3227
S'headers'
p3228
asbag67
(g88
g69
NtRp3229
(dp3230
g72
(dp3231
g99
g100
ssg81
g3220
sg74
(lp3232
S':'
asbag67
(g88
g69
NtRp3233
(dp3234
g72
(dp3235
sg81
g3220
sg74
(lp3236
g67
(g68
g69
NtRp3237
(dp3238
g72
(dp3239
g80
I5
ssg81
g3233
sg74
(lp3240
g67
(g76
g69
NtRp3241
(dp3242
g72
(dp3243
g80
I4
ssg81
Nsg74
(lp3244
g67
(g83
g69
NtRp3245
(dp3246
g72
(dp3247
sg81
g3241
sg74
(lp3248
g67
(g88
g69
NtRp3249
(dp3250
g72
(dp3251
g92
g93
ssg81
g3245
sg74
(lp3252
S'Cache-Control'
p3253
asbag67
(g88
g69
NtRp3254
(dp3255
g72
(dp3256
g99
g100
ssg81
g3245
sg74
(lp3257
S':'
asbag67
(g88
g69
NtRp3258
(dp3259
g72
(dp3260
sg81
g3245
sg74
(lp3261
g67
(g68
g69
NtRp3262
(dp3263
g72
(dp3264
g80
I4
ssg81
g3258
sg74
(lp3265
S'no-store, no-cache, must-revalidate, post-check=0, pre-check=0'
p3266
asbasbasbag67
(g83
g69
NtRp3267
(dp3268
g72
(dp3269
sg81
g3241
sg74
(lp3270
g67
(g88
g69
NtRp3271
(dp3272
g72
(dp3273
g92
g93
ssg81
g3267
sg74
(lp3274
S'Content-Type'
p3275
asbag67
(g88
g69
NtRp3276
(dp3277
g72
(dp3278
g99
g100
ssg81
g3267
sg74
(lp3279
S':'
asbag67
(g88
g69
NtRp3280
(dp3281
g72
(dp3282
sg81
g3267
sg74
(lp3283
g67
(g68
g69
NtRp3284
(dp3285
g72
(dp3286
g80
I4
ssg81
g3280
sg74
(lp3287
S'text/html; charset=utf-8'
p3288
asbasbasbag67
(g83
g69
NtRp3289
(dp3290
g72
(dp3291
sg81
g3241
sg74
(lp3292
g67
(g88
g69
NtRp3293
(dp3294
g72
(dp3295
g92
g93
ssg81
g3289
sg74
(lp3296
S'Expires'
p3297
asbag67
(g88
g69
NtRp3298
(dp3299
g72
(dp3300
g99
g100
ssg81
g3289
sg74
(lp3301
S':'
asbag67
(g88
g69
NtRp3302
(dp3303
g72
(dp3304
sg81
g3289
sg74
(lp3305
g67
(g68
g69
NtRp3306
(dp3307
g72
(dp3308
g80
I4
ssg81
g3302
sg74
(lp3309
S'Fri, 04 Nov 2011 01:55:32 GMT'
p3310
asbasbasbag67
(g83
g69
NtRp3311
(dp3312
g72
(dp3313
sg81
g3241
sg74
(lp3314
g67
(g88
g69
NtRp3315
(dp3316
g72
(dp3317
g92
g93
ssg81
g3311
sg74
(lp3318
S'Pragma'
p3319
asbag67
(g88
g69
NtRp3320
(dp3321
g72
(dp3322
g99
g100
ssg81
g3311
sg74
(lp3323
S':'
asbag67
(g88
g69
NtRp3324
(dp3325
g72
(dp3326
sg81
g3311
sg74
(lp3327
g67
(g68
g69
NtRp3328
(dp3329
g72
(dp3330
g80
I4
ssg81
g3324
sg74
(lp3331
S'no-cache'
p3332
asbasbasbag67
(g83
g69
NtRp3333
(dp3334
g72
(dp3335
sg81
g3241
sg74
(lp3336
g67
(g88
g69
NtRp3337
(dp3338
g72
(dp3339
g92
g93
ssg81
g3333
sg74
(lp3340
S'X-Powered-By'
p3341
asbag67
(g88
g69
NtRp3342
(dp3343
g72
(dp3344
g99
g100
ssg81
g3333
sg74
(lp3345
S':'
asbag67
(g88
g69
NtRp3346
(dp3347
g72
(dp3348
sg81
g3333
sg74
(lp3349
g67
(g68
g69
NtRp3350
(dp3351
g72
(dp3352
g80
I4
ssg81
g3346
sg74
(lp3353
S'web2py'
p3354
asbasbasbasbasbasbasbag67
(g83
g69
NtRp3355
(dp3356
g72
(dp3357
sg81
g2903
sg74
(lp3358
g67
(g88
g69
NtRp3359
(dp3360
g72
(dp3361
g92
g93
ssg81
g3355
sg74
(lp3362
S'menu'
p3363
asbag67
(g88
g69
NtRp3364
(dp3365
g72
(dp3366
g99
g100
ssg81
g3355
sg74
(lp3367
S':'
asbag67
(g88
g69
NtRp3368
(dp3369
g72
(dp3370
sg81
g3355
sg74
(lp3371
g67
(g68
g69
NtRp3372
(dp3373
g72
(dp3374
g80
I5
ssg81
g3368
sg74
(lp3375
g67
(g76
g69
NtRp3376
(dp3377
g72
(dp3378
g80
I4
ssg81
Nsg74
(lp3379
g67
(g83
g69
NtRp3380
(dp3381
g72
(dp3382
sg81
g3376
sg74
(lp3383
g67
(g88
g69
NtRp3384
(dp3385
g72
(dp3386
sg81
g3380
sg74
(lp3387
g67
(g68
g69
NtRp3388
(dp3389
g72
(dp3390
g80
I4
ssg81
g3384
sg74
(lp3391
g67
(g76
g69
NtRp3392
(dp3393
g72
(dp3394
g80
I3
ssg81
Nsg74
(lp3395
g67
(g83
g69
NtRp3396
(dp3397
g72
(dp3398
sg81
g3392
sg74
(lp3399
g67
(g88
g69
NtRp3400
(dp3401
g72
(dp3402
sg81
g3396
sg74
(lp3403
g67
(g68
g69
NtRp3404
(dp3405
g72
(dp3406
g80
I3
ssg81
g3400
sg74
(lp3407
cgluon.languages
lazyT_unpickle
p3408
(S't\x04\x00\x00\x00Home'
tRp3409
asbasbasbag67
(g83
g69
NtRp3410
(dp3411
g72
(dp3412
sg81
g3392
sg74
(lp3413
g67
(g88
g69
NtRp3414
(dp3415
g72
(dp3416
sg81
g3410
sg74
(lp3417
g67
(g68
g69
NtRp3418
(dp3419
g72
(dp3420
g80
I3
ssg81
g3414
sg74
(lp3421
g110
asbasbasbag67
(g83
g69
NtRp3422
(dp3423
g72
(dp3424
sg81
g3392
sg74
(lp3425
g67
(g88
g69
NtRp3426
(dp3427
g72
(dp3428
sg81
g3422
sg74
(lp3429
g67
(g68
g69
NtRp3430
(dp3431
g72
(dp3432
g80
I3
ssg81
g3426
sg74
(lp3433
S'/init/default/index'
p3434
asbasbasbag67
(g83
g69
NtRp3435
(dp3436
g72
(dp3437
sg81
g3392
sg74
(lp3438
g67
(g88
g69
NtRp3439
(dp3440
g72
(dp3441
sg81
g3435
sg74
(lp3442
g67
(g68
g69
NtRp3443
(dp3444
g72
(dp3445
g80
I3
ssg81
g3439
sg74
(lp3446
g67
(g76
g69
NtRp3447
(dp3448
g72
(dp3449
g80
I2
ssg81
Nsg74
(lp3450
sbasbasbasbasbasbasbasbag67
(g83
g69
NtRp3451
(dp3452
g72
(dp3453
sg81
g3376
sg74
(lp3454
g67
(g88
g69
NtRp3455
(dp3456
g72
(dp3457
sg81
g3451
sg74
(lp3458
g67
(g68
g69
NtRp3459
(dp3460
g72
(dp3461
g80
I4
ssg81
g3455
sg74
(lp3462
g67
(g76
g69
NtRp3463
(dp3464
g72
(dp3465
g80
I3
ssg81
Nsg74
(lp3466
g67
(g83
g69
NtRp3467
(dp3468
g72
(dp3469
sg81
g3463
sg74
(lp3470
g67
(g88
g69
NtRp3471
(dp3472
g72
(dp3473
sg81
g3467
sg74
(lp3474
g67
(g68
g69
NtRp3475
(dp3476
g72
(dp3477
g80
I3
ssg81
g3471
sg74
(lp3478
g3408
(S's\x08\x00\x00\x00This App'
tRp3479
asbasbasbag67
(g83
g69
NtRp3480
(dp3481
g72
(dp3482
sg81
g3463
sg74
(lp3483
g67
(g88
g69
NtRp3484
(dp3485
g72
(dp3486
sg81
g3480
sg74
(lp3487
g67
(g68
g69
NtRp3488
(dp3489
g72
(dp3490
g80
I3
ssg81
g3484
sg74
(lp3491
g110
asbasbasbag67
(g83
g69
NtRp3492
(dp3493
g72
(dp3494
sg81
g3463
sg74
(lp3495
g67
(g88
g69
NtRp3496
(dp3497
g72
(dp3498
sg81
g3492
sg74
(lp3499
g67
(g68
g69
NtRp3500
(dp3501
g72
(dp3502
g80
I3
ssg81
g3496
sg74
(lp3503
S'/admin/default/design/init'
p3504
asbasbasbag67
(g83
g69
NtRp3505
(dp3506
g72
(dp3507
sg81
g3463
sg74
(lp3508
g67
(g88
g69
NtRp3509
(dp3510
g72
(dp3511
sg81
g3505
sg74
(lp3512
g67
(g68
g69
NtRp3513
(dp3514
g72
(dp3515
g80
I3
ssg81
g3509
sg74
(lp3516
g67
(g76
g69
NtRp3517
(dp3518
g72
(dp3519
g80
I2
ssg81
Nsg74
(lp3520
g67
(g83
g69
NtRp3521
(dp3522
g72
(dp3523
sg81
g3517
sg74
(lp3524
g67
(g88
g69
NtRp3525
(dp3526
g72
(dp3527
sg81
g3521
sg74
(lp3528
g67
(g68
g69
NtRp3529
(dp3530
g72
(dp3531
g80
I2
ssg81
g3525
sg74
(lp3532
g67
(g76
g69
NtRp3533
(dp3534
g72
(dp3535
g80
I1
ssg81
Nsg74
(lp3536
g67
(g83
g69
NtRp3537
(dp3538
g72
(dp3539
sg81
g3533
sg74
(lp3540
g67
(g88
g69
NtRp3541
(dp3542
g72
(dp3543
sg81
g3537
sg74
(lp3544
g67
(g68
g69
NtRp3545
(dp3546
g72
(dp3547
g80
I1
ssg81
g3541
sg74
(lp3548
g3408
(S't\n\x00\x00\x00Controller'
tRp3549
asbasbasbag67
(g83
g69
NtRp3550
(dp3551
g72
(dp3552
sg81
g3533
sg74
(lp3553
g67
(g88
g69
NtRp3554
(dp3555
g72
(dp3556
sg81
g3550
sg74
(lp3557
g67
(g68
g69
NtRp3558
(dp3559
g72
(dp3560
g80
I1
ssg81
g3554
sg74
(lp3561
I00
asbasbasbag67
(g83
g69
NtRp3562
(dp3563
g72
(dp3564
sg81
g3533
sg74
(lp3565
g67
(g88
g69
NtRp3566
(dp3567
g72
(dp3568
sg81
g3562
sg74
(lp3569
g67
(g68
g69
NtRp3570
(dp3571
g72
(dp3572
g80
I1
ssg81
g3566
sg74
(lp3573
S'/admin/default/edit/init/controllers/default.py'
p3574
asbasbasbasbasbasbasbag67
(g83
g69
NtRp3575
(dp3576
g72
(dp3577
sg81
g3517
sg74
(lp3578
g67
(g88
g69
NtRp3579
(dp3580
g72
(dp3581
sg81
g3575
sg74
(lp3582
g67
(g68
g69
NtRp3583
(dp3584
g72
(dp3585
g80
I2
ssg81
g3579
sg74
(lp3586
g67
(g76
g69
NtRp3587
(dp3588
g72
(dp3589
g80
I1
ssg81
Nsg74
(lp3590
g67
(g83
g69
NtRp3591
(dp3592
g72
(dp3593
sg81
g3587
sg74
(lp3594
g67
(g88
g69
NtRp3595
(dp3596
g72
(dp3597
sg81
g3591
sg74
(lp3598
g67
(g68
g69
NtRp3599
(dp3600
g72
(dp3601
g80
I1
ssg81
g3595
sg74
(lp3602
g3408
(S't\x04\x00\x00\x00View'
tRp3603
asbasbasbag67
(g83
g69
NtRp3604
(dp3605
g72
(dp3606
sg81
g3587
sg74
(lp3607
g67
(g88
g69
NtRp3608
(dp3609
g72
(dp3610
sg81
g3604
sg74
(lp3611
g67
(g68
g69
NtRp3612
(dp3613
g72
(dp3614
g80
I1
ssg81
g3608
sg74
(lp3615
I00
asbasbasbag67
(g83
g69
NtRp3616
(dp3617
g72
(dp3618
sg81
g3587
sg74
(lp3619
g67
(g88
g69
NtRp3620
(dp3621
g72
(dp3622
sg81
g3616
sg74
(lp3623
g67
(g68
g69
NtRp3624
(dp3625
g72
(dp3626
g80
I1
ssg81
g3620
sg74
(lp3627
S'/admin/default/edit/init/views/default/index.html'
p3628
asbasbasbasbasbasbasbag67
(g83
g69
NtRp3629
(dp3630
g72
(dp3631
sg81
g3517
sg74
(lp3632
g67
(g88
g69
NtRp3633
(dp3634
g72
(dp3635
sg81
g3629
sg74
(lp3636
g67
(g68
g69
NtRp3637
(dp3638
g72
(dp3639
g80
I2
ssg81
g3633
sg74
(lp3640
g67
(g76
g69
NtRp3641
(dp3642
g72
(dp3643
g80
I1
ssg81
Nsg74
(lp3644
g67
(g83
g69
NtRp3645
(dp3646
g72
(dp3647
sg81
g3641
sg74
(lp3648
g67
(g88
g69
NtRp3649
(dp3650
g72
(dp3651
sg81
g3645
sg74
(lp3652
g67
(g68
g69
NtRp3653
(dp3654
g72
(dp3655
g80
I1
ssg81
g3649
sg74
(lp3656
g3408
(S't\x06\x00\x00\x00Layout'
tRp3657
asbasbasbag67
(g83
g69
NtRp3658
(dp3659
g72
(dp3660
sg81
g3641
sg74
(lp3661
g67
(g88
g69
NtRp3662
(dp3663
g72
(dp3664
sg81
g3658
sg74
(lp3665
g67
(g68
g69
NtRp3666
(dp3667
g72
(dp3668
g80
I1
ssg81
g3662
sg74
(lp3669
I00
asbasbasbag67
(g83
g69
NtRp3670
(dp3671
g72
(dp3672
sg81
g3641
sg74
(lp3673
g67
(g88
g69
NtRp3674
(dp3675
g72
(dp3676
sg81
g3670
sg74
(lp3677
g67
(g68
g69
NtRp3678
(dp3679
g72
(dp3680
g80
I1
ssg81
g3674
sg74
(lp3681
S'/admin/default/edit/init/views/layout.html'
p3682
asbasbasbasbasbasbasbag67
(g83
g69
NtRp3683
(dp3684
g72
(dp3685
sg81
g3517
sg74
(lp3686
g67
(g88
g69
NtRp3687
(dp3688
g72
(dp3689
sg81
g3683
sg74
(lp3690
g67
(g68
g69
NtRp3691
(dp3692
g72
(dp3693
g80
I2
ssg81
g3687
sg74
(lp3694
g67
(g76
g69
NtRp3695
(dp3696
g72
(dp3697
g80
I1
ssg81
Nsg74
(lp3698
g67
(g83
g69
NtRp3699
(dp3700
g72
(dp3701
sg81
g3695
sg74
(lp3702
g67
(g88
g69
NtRp3703
(dp3704
g72
(dp3705
sg81
g3699
sg74
(lp3706
g67
(g68
g69
NtRp3707
(dp3708
g72
(dp3709
g80
I1
ssg81
g3703
sg74
(lp3710
g3408
(S't\n\x00\x00\x00Stylesheet'
tRp3711
asbasbasbag67
(g83
g69
NtRp3712
(dp3713
g72
(dp3714
sg81
g3695
sg74
(lp3715
g67
(g88
g69
NtRp3716
(dp3717
g72
(dp3718
sg81
g3712
sg74
(lp3719
g67
(g68
g69
NtRp3720
(dp3721
g72
(dp3722
g80
I1
ssg81
g3716
sg74
(lp3723
I00
asbasbasbag67
(g83
g69
NtRp3724
(dp3725
g72
(dp3726
sg81
g3695
sg74
(lp3727
g67
(g88
g69
NtRp3728
(dp3729
g72
(dp3730
sg81
g3724
sg74
(lp3731
g67
(g68
g69
NtRp3732
(dp3733
g72
(dp3734
g80
I1
ssg81
g3728
sg74
(lp3735
S'/admin/default/edit/init/static/base.css'
p3736
asbasbasbasbasbasbasbag67
(g83
g69
NtRp3737
(dp3738
g72
(dp3739
sg81
g3517
sg74
(lp3740
g67
(g88
g69
NtRp3741
(dp3742
g72
(dp3743
sg81
g3737
sg74
(lp3744
g67
(g68
g69
NtRp3745
(dp3746
g72
(dp3747
g80
I2
ssg81
g3741
sg74
(lp3748
g67
(g76
g69
NtRp3749
(dp3750
g72
(dp3751
g80
I1
ssg81
Nsg74
(lp3752
g67
(g83
g69
NtRp3753
(dp3754
g72
(dp3755
sg81
g3749
sg74
(lp3756
g67
(g88
g69
NtRp3757
(dp3758
g72
(dp3759
sg81
g3753
sg74
(lp3760
g67
(g68
g69
NtRp3761
(dp3762
g72
(dp3763
g80
I1
ssg81
g3757
sg74
(lp3764
g3408
(S's\x08\x00\x00\x00DB Model'
tRp3765
asbasbasbag67
(g83
g69
NtRp3766
(dp3767
g72
(dp3768
sg81
g3749
sg74
(lp3769
g67
(g88
g69
NtRp3770
(dp3771
g72
(dp3772
sg81
g3766
sg74
(lp3773
g67
(g68
g69
NtRp3774
(dp3775
g72
(dp3776
g80
I1
ssg81
g3770
sg74
(lp3777
I00
asbasbasbag67
(g83
g69
NtRp3778
(dp3779
g72
(dp3780
sg81
g3749
sg74
(lp3781
g67
(g88
g69
NtRp3782
(dp3783
g72
(dp3784
sg81
g3778
sg74
(lp3785
g67
(g68
g69
NtRp3786
(dp3787
g72
(dp3788
g80
I1
ssg81
g3782
sg74
(lp3789
S'/admin/default/edit/init/models/db.py'
p3790
asbasbasbasbasbasbasbag67
(g83
g69
NtRp3791
(dp3792
g72
(dp3793
sg81
g3517
sg74
(lp3794
g67
(g88
g69
NtRp3795
(dp3796
g72
(dp3797
sg81
g3791
sg74
(lp3798
g67
(g68
g69
NtRp3799
(dp3800
g72
(dp3801
g80
I2
ssg81
g3795
sg74
(lp3802
g67
(g76
g69
NtRp3803
(dp3804
g72
(dp3805
g80
I1
ssg81
Nsg74
(lp3806
g67
(g83
g69
NtRp3807
(dp3808
g72
(dp3809
sg81
g3803
sg74
(lp3810
g67
(g88
g69
NtRp3811
(dp3812
g72
(dp3813
sg81
g3807
sg74
(lp3814
g67
(g68
g69
NtRp3815
(dp3816
g72
(dp3817
g80
I1
ssg81
g3811
sg74
(lp3818
g3408
(S's\n\x00\x00\x00Menu Model'
tRp3819
asbasbasbag67
(g83
g69
NtRp3820
(dp3821
g72
(dp3822
sg81
g3803
sg74
(lp3823
g67
(g88
g69
NtRp3824
(dp3825
g72
(dp3826
sg81
g3820
sg74
(lp3827
g67
(g68
g69
NtRp3828
(dp3829
g72
(dp3830
g80
I1
ssg81
g3824
sg74
(lp3831
I00
asbasbasbag67
(g83
g69
NtRp3832
(dp3833
g72
(dp3834
sg81
g3803
sg74
(lp3835
g67
(g88
g69
NtRp3836
(dp3837
g72
(dp3838
sg81
g3832
sg74
(lp3839
g67
(g68
g69
NtRp3840
(dp3841
g72
(dp3842
g80
I1
ssg81
g3836
sg74
(lp3843
S'/admin/default/edit/init/models/menu.py'
p3844
asbasbasbasbasbasbasbag67
(g83
g69
NtRp3845
(dp3846
g72
(dp3847
sg81
g3517
sg74
(lp3848
g67
(g88
g69
NtRp3849
(dp3850
g72
(dp3851
sg81
g3845
sg74
(lp3852
g67
(g68
g69
NtRp3853
(dp3854
g72
(dp3855
g80
I2
ssg81
g3849
sg74
(lp3856
g67
(g76
g69
NtRp3857
(dp3858
g72
(dp3859
g80
I1
ssg81
Nsg74
(lp3860
g67
(g83
g69
NtRp3861
(dp3862
g72
(dp3863
sg81
g3857
sg74
(lp3864
g67
(g88
g69
NtRp3865
(dp3866
g72
(dp3867
sg81
g3861
sg74
(lp3868
g67
(g68
g69
NtRp3869
(dp3870
g72
(dp3871
g80
I1
ssg81
g3865
sg74
(lp3872
g3408
(S't\x08\x00\x00\x00Database'
tRp3873
asbasbasbag67
(g83
g69
NtRp3874
(dp3875
g72
(dp3876
sg81
g3857
sg74
(lp3877
g67
(g88
g69
NtRp3878
(dp3879
g72
(dp3880
sg81
g3874
sg74
(lp3881
g67
(g68
g69
NtRp3882
(dp3883
g72
(dp3884
g80
I1
ssg81
g3878
sg74
(lp3885
I00
asbasbasbag67
(g83
g69
NtRp3886
(dp3887
g72
(dp3888
sg81
g3857
sg74
(lp3889
g67
(g88
g69
NtRp3890
(dp3891
g72
(dp3892
sg81
g3886
sg74
(lp3893
g67
(g68
g69
NtRp3894
(dp3895
g72
(dp3896
g80
I1
ssg81
g3890
sg74
(lp3897
S'/init/appadmin/index'
p3898
asbasbasbasbasbasbasbag67
(g83
g69
NtRp3899
(dp3900
g72
(dp3901
sg81
g3517
sg74
(lp3902
g67
(g88
g69
NtRp3903
(dp3904
g72
(dp3905
sg81
g3899
sg74
(lp3906
g67
(g68
g69
NtRp3907
(dp3908
g72
(dp3909
g80
I2
ssg81
g3903
sg74
(lp3910
g67
(g76
g69
NtRp3911
(dp3912
g72
(dp3913
g80
I1
ssg81
Nsg74
(lp3914
g67
(g83
g69
NtRp3915
(dp3916
g72
(dp3917
sg81
g3911
sg74
(lp3918
g67
(g88
g69
NtRp3919
(dp3920
g72
(dp3921
sg81
g3915
sg74
(lp3922
g67
(g68
g69
NtRp3923
(dp3924
g72
(dp3925
g80
I1
ssg81
g3919
sg74
(lp3926
g3408
(S't\x06\x00\x00\x00Errors'
tRp3927
asbasbasbag67
(g83
g69
NtRp3928
(dp3929
g72
(dp3930
sg81
g3911
sg74
(lp3931
g67
(g88
g69
NtRp3932
(dp3933
g72
(dp3934
sg81
g3928
sg74
(lp3935
g67
(g68
g69
NtRp3936
(dp3937
g72
(dp3938
g80
I1
ssg81
g3932
sg74
(lp3939
I00
asbasbasbag67
(g83
g69
NtRp3940
(dp3941
g72
(dp3942
sg81
g3911
sg74
(lp3943
g67
(g88
g69
NtRp3944
(dp3945
g72
(dp3946
sg81
g3940
sg74
(lp3947
g67
(g68
g69
NtRp3948
(dp3949
g72
(dp3950
g80
I1
ssg81
g3944
sg74
(lp3951
S'/admin/default/errors/init'
p3952
asbasbasbasbasbasbasbag67
(g83
g69
NtRp3953
(dp3954
g72
(dp3955
sg81
g3517
sg74
(lp3956
g67
(g88
g69
NtRp3957
(dp3958
g72
(dp3959
sg81
g3953
sg74
(lp3960
g67
(g68
g69
NtRp3961
(dp3962
g72
(dp3963
g80
I2
ssg81
g3957
sg74
(lp3964
g67
(g76
g69
NtRp3965
(dp3966
g72
(dp3967
g80
I1
ssg81
Nsg74
(lp3968
g67
(g83
g69
NtRp3969
(dp3970
g72
(dp3971
sg81
g3965
sg74
(lp3972
g67
(g88
g69
NtRp3973
(dp3974
g72
(dp3975
sg81
g3969
sg74
(lp3976
g67
(g68
g69
NtRp3977
(dp3978
g72
(dp3979
g80
I1
ssg81
g3973
sg74
(lp3980
g3408
(S't\x05\x00\x00\x00About'
tRp3981
asbasbasbag67
(g83
g69
NtRp3982
(dp3983
g72
(dp3984
sg81
g3965
sg74
(lp3985
g67
(g88
g69
NtRp3986
(dp3987
g72
(dp3988
sg81
g3982
sg74
(lp3989
g67
(g68
g69
NtRp3990
(dp3991
g72
(dp3992
g80
I1
ssg81
g3986
sg74
(lp3993
I00
asbasbasbag67
(g83
g69
NtRp3994
(dp3995
g72
(dp3996
sg81
g3965
sg74
(lp3997
g67
(g88
g69
NtRp3998
(dp3999
g72
(dp4000
sg81
g3994
sg74
(lp4001
g67
(g68
g69
NtRp4002
(dp4003
g72
(dp4004
g80
I1
ssg81
g3998
sg74
(lp4005
S'/admin/default/about/init'
p4006
asbasbasbasbasbasbasbasbasbasbasbasbasbasbasbag67
(g83
g69
NtRp4007
(dp4008
g72
(dp4009
sg81
g3376
sg74
(lp4010
g67
(g88
g69
NtRp4011
(dp4012
g72
(dp4013
sg81
g4007
sg74
(lp4014
g67
(g68
g69
NtRp4015
(dp4016
g72
(dp4017
g80
I4
ssg81
g4011
sg74
(lp4018
g67
(g76
g69
NtRp4019
(dp4020
g72
(dp4021
g80
I3
ssg81
Nsg74
(lp4022
g67
(g83
g69
NtRp4023
(dp4024
g72
(dp4025
sg81
g4019
sg74
(lp4026
g67
(g88
g69
NtRp4027
(dp4028
g72
(dp4029
sg81
g4023
sg74
(lp4030
g67
(g68
g69
NtRp4031
(dp4032
g72
(dp4033
g80
I3
ssg81
g4027
sg74
(lp4034
g3408
(S't\t\x00\x00\x00Resources'
tRp4035
asbasbasbag67
(g83
g69
NtRp4036
(dp4037
g72
(dp4038
sg81
g4019
sg74
(lp4039
g67
(g88
g69
NtRp4040
(dp4041
g72
(dp4042
sg81
g4036
sg74
(lp4043
g67
(g68
g69
NtRp4044
(dp4045
g72
(dp4046
g80
I3
ssg81
g4040
sg74
(lp4047
g110
asbasbasbag67
(g83
g69
NtRp4048
(dp4049
g72
(dp4050
sg81
g4019
sg74
(lp4051
g67
(g88
g69
NtRp4052
(dp4053
g72
(dp4054
sg81
g4048
sg74
(lp4055
g67
(g68
g69
NtRp4056
(dp4057
g72
(dp4058
g80
I3
ssg81
g4052
sg74
(lp4059
S'None'
p4060
asbasbasbag67
(g83
g69
NtRp4061
(dp4062
g72
(dp4063
sg81
g4019
sg74
(lp4064
g67
(g88
g69
NtRp4065
(dp4066
g72
(dp4067
sg81
g4061
sg74
(lp4068
g67
(g68
g69
NtRp4069
(dp4070
g72
(dp4071
g80
I3
ssg81
g4065
sg74
(lp4072
g67
(g76
g69
NtRp4073
(dp4074
g72
(dp4075
g80
I2
ssg81
Nsg74
(lp4076
g67
(g83
g69
NtRp4077
(dp4078
g72
(dp4079
sg81
g4073
sg74
(lp4080
g67
(g88
g69
NtRp4081
(dp4082
g72
(dp4083
sg81
g4077
sg74
(lp4084
g67
(g68
g69
NtRp4085
(dp4086
g72
(dp4087
g80
I2
ssg81
g4081
sg74
(lp4088
g67
(g76
g69
NtRp4089
(dp4090
g72
(dp4091
g80
I1
ssg81
Nsg74
(lp4092
g67
(g83
g69
NtRp4093
(dp4094
g72
(dp4095
sg81
g4089
sg74
(lp4096
g67
(g88
g69
NtRp4097
(dp4098
g72
(dp4099
sg81
g4093
sg74
(lp4100
g67
(g68
g69
NtRp4101
(dp4102
g72
(dp4103
g80
I1
ssg81
g4097
sg74
(lp4104
g3408
(S't\r\x00\x00\x00Documentation'
tRp4105
asbasbasbag67
(g83
g69
NtRp4106
(dp4107
g72
(dp4108
sg81
g4089
sg74
(lp4109
g67
(g88
g69
NtRp4110
(dp4111
g72
(dp4112
sg81
g4106
sg74
(lp4113
g67
(g68
g69
NtRp4114
(dp4115
g72
(dp4116
g80
I1
ssg81
g4110
sg74
(lp4117
I00
asbasbasbag67
(g83
g69
NtRp4118
(dp4119
g72
(dp4120
sg81
g4089
sg74
(lp4121
g67
(g88
g69
NtRp4122
(dp4123
g72
(dp4124
sg81
g4118
sg74
(lp4125
g67
(g68
g69
NtRp4126
(dp4127
g72
(dp4128
g80
I1
ssg81
g4122
sg74
(lp4129
S'http://www.web2py.com/book'
p4130
asbasbasbag67
(g83
g69
NtRp4131
(dp4132
g72
(dp4133
sg81
g4089
sg74
(lp4134
g67
(g88
g69
NtRp4135
(dp4136
g72
(dp4137
sg81
g4131
sg74
(lp4138
g67
(g68
g69
NtRp4139
(dp4140
g72
(dp4141
g80
I1
ssg81
g4135
sg74
(lp4142
(lp4143
(g3408
(S't\x07\x00\x00\x00Preface'
tRp4144
I00
S'http://www.web2py.com/book/default/chapter/00'
p4145
tp4146
a(g3408
(S't\x0c\x00\x00\x00Introduction'
tRp4147
I00
S'http://www.web2py.com/book/default/chapter/01'
p4148
tp4149
a(g3408
(S't\x06\x00\x00\x00Python'
tRp4150
I00
S'http://www.web2py.com/book/default/chapter/02'
p4151
tp4152
a(g3408
(S't\x08\x00\x00\x00Overview'
tRp4153
I00
S'http://www.web2py.com/book/default/chapter/03'
p4154
tp4155
a(g3408
(S's\x08\x00\x00\x00The Core'
tRp4156
I00
S'http://www.web2py.com/book/default/chapter/04'
p4157
tp4158
a(g3408
(S's\t\x00\x00\x00The Views'
tRp4159
I00
S'http://www.web2py.com/book/default/chapter/05'
p4160
tp4161
a(g3408
(S't\x08\x00\x00\x00Database'
tRp4162
I00
S'http://www.web2py.com/book/default/chapter/06'
p4163
tp4164
a(g3408
(S's\x14\x00\x00\x00Forms and Validators'
tRp4165
I00
S'http://www.web2py.com/book/default/chapter/07'
p4166
tp4167
a(g3408
(S's\x0e\x00\x00\x00Access Control'
tRp4168
I00
S'http://www.web2py.com/book/default/chapter/08'
p4169
tp4170
a(g3408
(S't\x08\x00\x00\x00Services'
tRp4171
I00
S'http://www.web2py.com/book/default/chapter/09'
p4172
tp4173
a(g3408
(S's\x0c\x00\x00\x00Ajax Recipes'
tRp4174
I00
S'http://www.web2py.com/book/default/chapter/10'
p4175
tp4176
a(g3408
(S's\x12\x00\x00\x00Deployment Recipes'
tRp4177
I00
S'http://www.web2py.com/book/default/chapter/11'
p4178
tp4179
a(g3408
(S's\r\x00\x00\x00Other Recipes'
tRp4180
I00
S'http://www.web2py.com/book/default/chapter/12'
p4181
tp4182
a(g3408
(S's\r\x00\x00\x00Buy this book'
tRp4183
I00
S'http://stores.lulu.com/web2py'
p4184
tp4185
aasbasbasbasbasbasbasbag67
(g83
g69
NtRp4186
(dp4187
g72
(dp4188
sg81
g4073
sg74
(lp4189
g67
(g88
g69
NtRp4190
(dp4191
g72
(dp4192
sg81
g4186
sg74
(lp4193
g67
(g68
g69
NtRp4194
(dp4195
g72
(dp4196
g80
I2
ssg81
g4190
sg74
(lp4197
g67
(g76
g69
NtRp4198
(dp4199
g72
(dp4200
g80
I1
ssg81
Nsg74
(lp4201
g67
(g83
g69
NtRp4202
(dp4203
g72
(dp4204
sg81
g4198
sg74
(lp4205
g67
(g88
g69
NtRp4206
(dp4207
g72
(dp4208
sg81
g4202
sg74
(lp4209
g67
(g68
g69
NtRp4210
(dp4211
g72
(dp4212
g80
I1
ssg81
g4206
sg74
(lp4213
g3408
(S't\t\x00\x00\x00Community'
tRp4214
asbasbasbag67
(g83
g69
NtRp4215
(dp4216
g72
(dp4217
sg81
g4198
sg74
(lp4218
g67
(g88
g69
NtRp4219
(dp4220
g72
(dp4221
sg81
g4215
sg74
(lp4222
g67
(g68
g69
NtRp4223
(dp4224
g72
(dp4225
g80
I1
ssg81
g4219
sg74
(lp4226
I00
asbasbasbag67
(g83
g69
NtRp4227
(dp4228
g72
(dp4229
sg81
g4198
sg74
(lp4230
g67
(g88
g69
NtRp4231
(dp4232
g72
(dp4233
sg81
g4227
sg74
(lp4234
g67
(g68
g69
NtRp4235
(dp4236
g72
(dp4237
g80
I1
ssg81
g4231
sg74
(lp4238
Nasbasbasbag67
(g83
g69
NtRp4239
(dp4240
g72
(dp4241
sg81
g4198
sg74
(lp4242
g67
(g88
g69
NtRp4243
(dp4244
g72
(dp4245
sg81
g4239
sg74
(lp4246
g67
(g68
g69
NtRp4247
(dp4248
g72
(dp4249
g80
I1
ssg81
g4243
sg74
(lp4250
(lp4251
(g3408
(S't\x06\x00\x00\x00Groups'
tRp4252
I00
S'http://www.web2py.com/examples/default/usergroups'
p4253
tp4254
a(g3408
(S't\x07\x00\x00\x00Twitter'
tRp4255
I00
S'http://twitter.com/web2py'
p4256
tp4257
a(g3408
(S's\t\x00\x00\x00Live chat'
tRp4258
I00
S'http://mibbit.com/?channel=%23web2py&server=irc.mibbit.net'
p4259
tp4260
a(g3408
(S's\n\x00\x00\x00User Voice'
tRp4261
I00
S'http://web2py.uservoice.com/'
p4262
tp4263
aasbasbasbasbasbasbasbag67
(g83
g69
NtRp4264
(dp4265
g72
(dp4266
sg81
g4073
sg74
(lp4267
g67
(g88
g69
NtRp4268
(dp4269
g72
(dp4270
sg81
g4264
sg74
(lp4271
g67
(g68
g69
NtRp4272
(dp4273
g72
(dp4274
g80
I2
ssg81
g4268
sg74
(lp4275
g67
(g76
g69
NtRp4276
(dp4277
g72
(dp4278
g80
I1
ssg81
Nsg74
(lp4279
g67
(g83
g69
NtRp4280
(dp4281
g72
(dp4282
sg81
g4276
sg74
(lp4283
g67
(g88
g69
NtRp4284
(dp4285
g72
(dp4286
sg81
g4280
sg74
(lp4287
g67
(g68
g69
NtRp4288
(dp4289
g72
(dp4290
g80
I1
ssg81
g4284
sg74
(lp4291
g3408
(S't\x06\x00\x00\x00Web2py'
tRp4292
asbasbasbag67
(g83
g69
NtRp4293
(dp4294
g72
(dp4295
sg81
g4276
sg74
(lp4296
g67
(g88
g69
NtRp4297
(dp4298
g72
(dp4299
sg81
g4293
sg74
(lp4300
g67
(g68
g69
NtRp4301
(dp4302
g72
(dp4303
g80
I1
ssg81
g4297
sg74
(lp4304
I00
asbasbasbag67
(g83
g69
NtRp4305
(dp4306
g72
(dp4307
sg81
g4276
sg74
(lp4308
g67
(g88
g69
NtRp4309
(dp4310
g72
(dp4311
sg81
g4305
sg74
(lp4312
g67
(g68
g69
NtRp4313
(dp4314
g72
(dp4315
g80
I1
ssg81
g4309
sg74
(lp4316
S'http://www.web2py.com'
p4317
asbasbasbag67
(g83
g69
NtRp4318
(dp4319
g72
(dp4320
sg81
g4276
sg74
(lp4321
g67
(g88
g69
NtRp4322
(dp4323
g72
(dp4324
sg81
g4318
sg74
(lp4325
g67
(g68
g69
NtRp4326
(dp4327
g72
(dp4328
g80
I1
ssg81
g4322
sg74
(lp4329
(lp4330
(g3408
(S't\x08\x00\x00\x00Download'
tRp4331
I00
S'http://www.web2py.com/examples/default/download'
p4332
tp4333
a(g3408
(S't\x07\x00\x00\x00Support'
tRp4334
I00
S'http://www.web2py.com/examples/default/support'
p4335
tp4336
a(g3408
(S's\x0e\x00\x00\x00Quick Examples'
tRp4337
I00
S'http://web2py.com/examples/default/examples'
p4338
tp4339
a(g3408
(S't\x03\x00\x00\x00FAQ'
tRp4340
I00
S'http://web2py.com/AlterEgo'
p4341
tp4342
a(g3408
(S's\x11\x00\x00\x00Free Applications'
tRp4343
I00
S'http://web2py.com/appliances'
p4344
tp4345
a(g3408
(S't\x07\x00\x00\x00Plugins'
tRp4346
I00
S'http://web2py.com/plugins'
p4347
tp4348
a(g3408
(S't\x07\x00\x00\x00Recipes'
tRp4349
I00
S'http://web2pyslices.com/'
p4350
tp4351
a(g3408
(S't\x04\x00\x00\x00Demo'
tRp4352
I00
S'http://web2py.com/demo_admin'
p4353
tp4354
a(g3408
(S't\x08\x00\x00\x00Semantic'
tRp4355
I00
S'http://web2py.com/semantic'
p4356
tp4357
a(g3408
(S't\x07\x00\x00\x00Layouts'
tRp4358
I00
S'http://web2py.com/layouts'
p4359
tp4360
a(g3408
(S't\x06\x00\x00\x00Videos'
tRp4361
I00
S'http://www.web2py.com/examples/default/videos/'
p4362
tp4363
aasbasbasbasbasbasbasbasbasbasbasbasbasbasbasbasbasbasbasbag67
(g83
g69
NtRp4364
(dp4365
g72
(dp4366
sg81
g2903
sg74
(lp4367
g67
(g88
g69
NtRp4368
(dp4369
g72
(dp4370
g92
g93
ssg81
g4364
sg74
(lp4371
S'meta'
p4372
asbag67
(g88
g69
NtRp4373
(dp4374
g72
(dp4375
g99
g100
ssg81
g4364
sg74
(lp4376
S':'
asbag67
(g88
g69
NtRp4377
(dp4378
g72
(dp4379
sg81
g4364
sg74
(lp4380
g67
(g68
g69
NtRp4381
(dp4382
g72
(dp4383
g80
I5
ssg81
g4377
sg74
(lp4384
g67
(g76
g69
NtRp4385
(dp4386
g72
(dp4387
g80
I4
ssg81
Nsg74
(lp4388
g67
(g83
g69
NtRp4389
(dp4390
g72
(dp4391
sg81
g4385
sg74
(lp4392
g67
(g88
g69
NtRp4393
(dp4394
g72
(dp4395
g92
g93
ssg81
g4389
sg74
(lp4396
S'author'
p4397
asbag67
(g88
g69
NtRp4398
(dp4399
g72
(dp4400
g99
g100
ssg81
g4389
sg74
(lp4401
S':'
asbag67
(g88
g69
NtRp4402
(dp4403
g72
(dp4404
sg81
g4389
sg74
(lp4405
g67
(g68
g69
NtRp4406
(dp4407
g72
(dp4408
g80
I4
ssg81
g4402
sg74
(lp4409
S'Your Name <you@example.com>'
p4410
asbasbasbag67
(g83
g69
NtRp4411
(dp4412
g72
(dp4413
sg81
g4385
sg74
(lp4414
g67
(g88
g69
NtRp4415
(dp4416
g72
(dp4417
g92
g93
ssg81
g4411
sg74
(lp4418
S'copyright'
p4419
asbag67
(g88
g69
NtRp4420
(dp4421
g72
(dp4422
g99
g100
ssg81
g4411
sg74
(lp4423
S':'
asbag67
(g88
g69
NtRp4424
(dp4425
g72
(dp4426
sg81
g4411
sg74
(lp4427
g67
(g68
g69
NtRp4428
(dp4429
g72
(dp4430
g80
I4
ssg81
g4424
sg74
(lp4431
S'Copyright 2011'
p4432
asbasbasbag67
(g83
g69
NtRp4433
(dp4434
g72
(dp4435
sg81
g4385
sg74
(lp4436
g67
(g88
g69
NtRp4437
(dp4438
g72
(dp4439
g92
g93
ssg81
g4433
sg74
(lp4440
S'description'
p4441
asbag67
(g88
g69
NtRp4442
(dp4443
g72
(dp4444
g99
g100
ssg81
g4433
sg74
(lp4445
S':'
asbag67
(g88
g69
NtRp4446
(dp4447
g72
(dp4448
sg81
g4433
sg74
(lp4449
g67
(g68
g69
NtRp4450
(dp4451
g72
(dp4452
g80
I4
ssg81
g4446
sg74
(lp4453
S'a cool new app'
p4454
asbasbasbag67
(g83
g69
NtRp4455
(dp4456
g72
(dp4457
sg81
g4385
sg74
(lp4458
g67
(g88
g69
NtRp4459
(dp4460
g72
(dp4461
g92
g93
ssg81
g4455
sg74
(lp4462
S'generator'
p4463
asbag67
(g88
g69
NtRp4464
(dp4465
g72
(dp4466
g99
g100
ssg81
g4455
sg74
(lp4467
S':'
asbag67
(g88
g69
NtRp4468
(dp4469
g72
(dp4470
sg81
g4455
sg74
(lp4471
g67
(g68
g69
NtRp4472
(dp4473
g72
(dp4474
g80
I4
ssg81
g4468
sg74
(lp4475
S'Web2py Web Framework'
p4476
asbasbasbag67
(g83
g69
NtRp4477
(dp4478
g72
(dp4479
sg81
g4385
sg74
(lp4480
g67
(g88
g69
NtRp4481
(dp4482
g72
(dp4483
g92
g93
ssg81
g4477
sg74
(lp4484
S'keywords'
p4485
asbag67
(g88
g69
NtRp4486
(dp4487
g72
(dp4488
g99
g100
ssg81
g4477
sg74
(lp4489
S':'
asbag67
(g88
g69
NtRp4490
(dp4491
g72
(dp4492
sg81
g4477
sg74
(lp4493
g67
(g68
g69
NtRp4494
(dp4495
g72
(dp4496
g80
I4
ssg81
g4490
sg74
(lp4497
S'web2py, python, framework'
p4498
asbasbasbasbasbasbasbag67
(g83
g69
NtRp4499
(dp4500
g72
(dp4501
sg81
g2903
sg74
(lp4502
g67
(g88
g69
NtRp4503
(dp4504
g72
(dp4505
g92
g93
ssg81
g4499
sg74
(lp4506
S'postprocessing'
p4507
asbag67
(g88
g69
NtRp4508
(dp4509
g72
(dp4510
g99
g100
ssg81
g4499
sg74
(lp4511
S':'
asbag67
(g88
g69
NtRp4512
(dp4513
g72
(dp4514
sg81
g4499
sg74
(lp4515
g67
(g68
g69
NtRp4516
(dp4517
g72
(dp4518
g80
I5
ssg81
g4512
sg74
(lp4519
g67
(g76
g69
NtRp4520
(dp4521
g72
(dp4522
g80
I4
ssg81
Nsg74
(lp4523
sbasbasbasbag67
(g83
g69
NtRp4524
(dp4525
g72
(dp4526
sg81
g2903
sg74
(lp4527
g67
(g88
g69
NtRp4528
(dp4529
g72
(dp4530
g92
g93
ssg81
g4524
sg74
(lp4531
S'session_file'
p4532
asbag67
(g88
g69
NtRp4533
(dp4534
g72
(dp4535
g99
g100
ssg81
g4524
sg74
(lp4536
S':'
asbag67
(g88
g69
NtRp4537
(dp4538
g72
(dp4539
sg81
g4524
sg74
(lp4540
g67
(g68
g69
NtRp4541
(dp4542
g72
(dp4543
g80
I5
ssg81
g4537
sg74
(lp4544
S"<open file 'P:\\Workbench\\DevEnv\\web2py\\applications\\init\\sessions\\127.0.0.1-2ee686ba-d1d2-46bc-bb75-bfad4d4c0c4c', mode 'rb+' at 0x090A85A0>"
p4545
asbasbasbag67
(g83
g69
NtRp4546
(dp4547
g72
(dp4548
sg81
g2903
sg74
(lp4549
g67
(g88
g69
NtRp4550
(dp4551
g72
(dp4552
g92
g93
ssg81
g4546
sg74
(lp4553
S'session_filename'
p4554
asbag67
(g88
g69
NtRp4555
(dp4556
g72
(dp4557
g99
g100
ssg81
g4546
sg74
(lp4558
S':'
asbag67
(g88
g69
NtRp4559
(dp4560
g72
(dp4561
sg81
g4546
sg74
(lp4562
g67
(g68
g69
NtRp4563
(dp4564
g72
(dp4565
g80
I5
ssg81
g4559
sg74
(lp4566
S'P:\\Workbench\\DevEnv\\web2py\\applications\\init\\sessions\\127.0.0.1-2ee686ba-d1d2-46bc-bb75-bfad4d4c0c4c'
p4567
asbasbasbag67
(g83
g69
NtRp4568
(dp4569
g72
(dp4570
sg81
g2903
sg74
(lp4571
g67
(g88
g69
NtRp4572
(dp4573
g72
(dp4574
g92
g93
ssg81
g4568
sg74
(lp4575
S'session_id'
p4576
asbag67
(g88
g69
NtRp4577
(dp4578
g72
(dp4579
g99
g100
ssg81
g4568
sg74
(lp4580
S':'
asbag67
(g88
g69
NtRp4581
(dp4582
g72
(dp4583
sg81
g4568
sg74
(lp4584
g67
(g68
g69
NtRp4585
(dp4586
g72
(dp4587
g80
I5
ssg81
g4581
sg74
(lp4588
S'127.0.0.1-2ee686ba-d1d2-46bc-bb75-bfad4d4c0c4c'
p4589
asbasbasbag67
(g83
g69
NtRp4590
(dp4591
g72
(dp4592
sg81
g2903
sg74
(lp4593
g67
(g88
g69
NtRp4594
(dp4595
g72
(dp4596
g92
g93
ssg81
g4590
sg74
(lp4597
S'session_id_name'
p4598
asbag67
(g88
g69
NtRp4599
(dp4600
g72
(dp4601
g99
g100
ssg81
g4590
sg74
(lp4602
S':'
asbag67
(g88
g69
NtRp4603
(dp4604
g72
(dp4605
sg81
g4590
sg74
(lp4606
g67
(g68
g69
NtRp4607
(dp4608
g72
(dp4609
g80
I5
ssg81
g4603
sg74
(lp4610
g2960
asbasbasbag67
(g83
g69
NtRp4611
(dp4612
g72
(dp4613
sg81
g2903
sg74
(lp4614
g67
(g88
g69
NtRp4615
(dp4616
g72
(dp4617
g92
g93
ssg81
g4611
sg74
(lp4618
S'session_locked'
p4619
asbag67
(g88
g69
NtRp4620
(dp4621
g72
(dp4622
g99
g100
ssg81
g4611
sg74
(lp4623
S':'
asbag67
(g88
g69
NtRp4624
(dp4625
g72
(dp4626
sg81
g4611
sg74
(lp4627
g67
(g68
g69
NtRp4628
(dp4629
g72
(dp4630
g80
I5
ssg81
g4624
sg74
(lp4631
g1504
asbasbasbag67
(g83
g69
NtRp4632
(dp4633
g72
(dp4634
sg81
g2903
sg74
(lp4635
g67
(g88
g69
NtRp4636
(dp4637
g72
(dp4638
g92
g93
ssg81
g4632
sg74
(lp4639
S'session_new'
p4640
asbag67
(g88
g69
NtRp4641
(dp4642
g72
(dp4643
g99
g100
ssg81
g4632
sg74
(lp4644
S':'
asbag67
(g88
g69
NtRp4645
(dp4646
g72
(dp4647
sg81
g4632
sg74
(lp4648
g67
(g68
g69
NtRp4649
(dp4650
g72
(dp4651
g80
I5
ssg81
g4645
sg74
(lp4652
g110
asbasbasbag67
(g83
g69
NtRp4653
(dp4654
g72
(dp4655
sg81
g2903
sg74
(lp4656
g67
(g88
g69
NtRp4657
(dp4658
g72
(dp4659
g92
g93
ssg81
g4653
sg74
(lp4660
S'status'
p4661
asbag67
(g88
g69
NtRp4662
(dp4663
g72
(dp4664
g99
g100
ssg81
g4653
sg74
(lp4665
S':'
asbag67
(g88
g69
NtRp4666
(dp4667
g72
(dp4668
sg81
g4653
sg74
(lp4669
g67
(g68
g69
NtRp4670
(dp4671
g72
(dp4672
g80
I5
ssg81
g4666
sg74
(lp4673
S'200'
p4674
asbasbasbag67
(g83
g69
NtRp4675
(dp4676
g72
(dp4677
sg81
g2903
sg74
(lp4678
g67
(g88
g69
NtRp4679
(dp4680
g72
(dp4681
g92
g93
ssg81
g4675
sg74
(lp4682
S'subtitle'
p4683
asbag67
(g88
g69
NtRp4684
(dp4685
g72
(dp4686
g99
g100
ssg81
g4675
sg74
(lp4687
S':'
asbag67
(g88
g69
NtRp4688
(dp4689
g72
(dp4690
sg81
g4675
sg74
(lp4691
g67
(g68
g69
NtRp4692
(dp4693
g72
(dp4694
g80
I5
ssg81
g4688
sg74
(lp4695
g3408
(S's\r\x00\x00\x00customize me!'
tRp4696
asbasbasbag67
(g83
g69
NtRp4697
(dp4698
g72
(dp4699
sg81
g2903
sg74
(lp4700
g67
(g88
g69
NtRp4701
(dp4702
g72
(dp4703
g92
g93
ssg81
g4697
sg74
(lp4704
S'title'
p4705
asbag67
(g88
g69
NtRp4706
(dp4707
g72
(dp4708
g99
g100
ssg81
g4697
sg74
(lp4709
S':'
asbag67
(g88
g69
NtRp4710
(dp4711
g72
(dp4712
sg81
g4697
sg74
(lp4713
g67
(g68
g69
NtRp4714
(dp4715
g72
(dp4716
g80
I5
ssg81
g4710
sg74
(lp4717
g132
asbasbasbag67
(g83
g69
NtRp4718
(dp4719
g72
(dp4720
sg81
g2903
sg74
(lp4721
g67
(g88
g69
NtRp4722
(dp4723
g72
(dp4724
g92
g93
ssg81
g4718
sg74
(lp4725
g2148
asbag67
(g88
g69
NtRp4726
(dp4727
g72
(dp4728
g99
g100
ssg81
g4718
sg74
(lp4729
S':'
asbag67
(g88
g69
NtRp4730
(dp4731
g72
(dp4732
sg81
g4718
sg74
(lp4733
g67
(g68
g69
NtRp4734
(dp4735
g72
(dp4736
g80
I5
ssg81
g4730
sg74
(lp4737
g2161
asbasbasbag67
(g83
g69
NtRp4738
(dp4739
g72
(dp4740
sg81
g2903
sg74
(lp4741
g67
(g88
g69
NtRp4742
(dp4743
g72
(dp4744
g92
g93
ssg81
g4738
sg74
(lp4745
S'view'
p4746
asbag67
(g88
g69
NtRp4747
(dp4748
g72
(dp4749
g99
g100
ssg81
g4738
sg74
(lp4750
S':'
asbag67
(g88
g69
NtRp4751
(dp4752
g72
(dp4753
sg81
g4738
sg74
(lp4754
g67
(g68
g69
NtRp4755
(dp4756
g72
(dp4757
g80
I5
ssg81
g4751
sg74
(lp4758
S'default/index.html'
p4759
asbasbasbasbasbsS'locals'
p4760
(dp4761
g3
S"r'P:\\Workbench\\DevEnv\\web2py\\applications\\init\\views\\default/index.html'"
p4762
sg5
S'\'response.write(\\\'<!DOCTYPE html PUBLIC "-//W3C//D...iv>\\\\r\\\\n\\\\r\\\\n</body>\\\\r\\\\n</html>\\\\r\\\\n\\\', escape=False)\''
p4763
sssS'traceback'
p4764
S'Traceback (most recent call last):\n  File "P:\\Workbench\\DevEnv\\web2py\\gluon\\restricted.py", line 191, in restricted\n    ccode = compile2(code,layer)\n  File "P:\\Workbench\\DevEnv\\web2py\\gluon\\restricted.py", line 177, in compile2\n    return compile(code.rstrip().replace(\'\\r\\n\',\'\\n\')+\'\\n\', layer, \'exec\')\n  File "P:\\Workbench\\DevEnv\\web2py\\applications\\init\\views\\default/index.html", line 2\n    response.write(URL(\'static\',\'css/style.css\')}" />\n                                                ^\nSyntaxError: invalid syntax\n'
p4765
s.