(dp1
S'output'
p2
S''
sS'layer'
p3
S'P:\\Workbench\\DevEnv\\web2py\\applications\\init\\models\\db.py'
p4
sS'code'
p5
S"# -*- coding: utf-8 -*-\n\n#########################################################################\n## This scaffolding model makes your app work on Google App Engine too\n## File is released under public domain and you can use without limitations\n#########################################################################\n\nif not request.env.web2py_runtime_gae:     \n    ## if NOT running on Google App Engine use SQLite or other DB\n    db = DAL('sqlite://storage.sqlite') \nelse:\n    ## connect to Google BigTable (optional 'google:datastore://namespace')\n    db = DAL('google:datastore') \n    ## store sessions and tickets there\n    session.connect(request, response, db = db) \n    ## or store session in Memcache, Redis, etc.\n    ## from gluon.contrib.memdb import MEMDB\n    ## from google.appengine.api.memcache import Client\n    ## session.connect(request, response, db = MEMDB(Client()))\n\n## by default give a view/generic.extension to all actions from localhost\n## none otherwise. a pattern can be 'controller/function.extension'\nresponse.generic_patterns = ['*'] if request.is_local else []\n\n#########################################################################\n## Here is sample code if you need for\n## - email capabilities\n## - authentication (registration, login, logout, ... )\n## - authorization (role based authorization)\n## - services (xml, csv, json, xmlrpc, jsonrpc, amf, rss)\n## - old style crud actions\n## (more options discussed in gluon/tools.py)\n#########################################################################\n\nfrom gluon.tools import Auth, Crud, Service, PluginManager, prettydate\nauth = Auth(db, hmac_key=Auth.get_or_create_key()) \ncrud, service, plugins = Crud(db), Service(), PluginManager()\n\n## add additional fields for user profile\nauth.settings.extra_fields['auth_user']= [\n    Field('gender'),\n    Field('age'),\n    Field('height'),\n    Field('current_weight')]\n    \nauth.auth_user.gender.requires = IS_IN_SET(['male', 'female'])\n\n## create all tables needed by auth if not custom tables\nauth.define_tables() \n\n## configure email\nmail=auth.settings.mailer\nmail.settings.server = 'logging' or 'smtp.gmail.com:587'\nmail.settings.sender = 'you@gmail.com'\nmail.settings.login = 'username:password'\n\n## configure auth policy\nauth.settings.registration_requires_verification = False\nauth.settings.registration_requires_approval = False\nauth.settings.reset_password_requires_verification = True\n\n## if you need to use OpenID, Facebook, MySpace, Twitter, Linkedin, etc.\n## register with janrain.com, write your domain:api_key in private/janrain.key\nfrom gluon.contrib.login_methods.rpx_account import use_janrain\nuse_janrain(auth,filename='private/janrain.key')\n\n#########################################################################\n## Define your tables below (or better in another model file) for example\n##\n## >>> db.define_table('mytable',Field('myfield','string'))\n##\n## Fields can be 'string','text','password','integer','double','boolean'\n##       'date','time','datetime','blob','upload', 'reference TABLENAME'\n## There is an implicit 'id integer autoincrement' field\n## Consult manual for more options, validators, etc.\n##\n## More API examples for controllers:\n##\n## >>> db.mytable.insert(myfield='value')\n## >>> rows=db(db.mytable.myfield=='value').select(db.mytable.ALL)\n## >>> for row in rows: print row.id, row.myfield\n#########################################################################\n"
p6
sS'snapshot'
p7
(dp8
S'exception'
p9
(dp10
S'__hash__'
p11
S"<method-wrapper '__hash__' of exceptions.AttributeError object at 0x03B68C10>"
p12
sS'__setattr__'
p13
S"<method-wrapper '__setattr__' of exceptions.AttributeError object at 0x03B68C10>"
p14
sS'__reduce_ex__'
p15
S'<built-in method __reduce_ex__ of exceptions.AttributeError object at 0x03B68C10>'
p16
sS'__getslice__'
p17
S"<method-wrapper '__getslice__' of exceptions.AttributeError object at 0x03B68C10>"
p18
sS'__getitem__'
p19
S"<method-wrapper '__getitem__' of exceptions.AttributeError object at 0x03B68C10>"
p20
sS'__setstate__'
p21
S'<built-in method __setstate__ of exceptions.AttributeError object at 0x03B68C10>'
p22
sS'__reduce__'
p23
S'<built-in method __reduce__ of exceptions.AttributeError object at 0x03B68C10>'
p24
sS'__str__'
p25
S"<method-wrapper '__str__' of exceptions.AttributeError object at 0x03B68C10>"
p26
sS'args'
p27
S'("\'Auth\' object has no attribute \'auth_user\'",)'
p28
sS'__getattribute__'
p29
S"<method-wrapper '__getattribute__' of exceptions.AttributeError object at 0x03B68C10>"
p30
sS'__class__'
p31
S"<type 'exceptions.AttributeError'>"
p32
sS'__delattr__'
p33
S"<method-wrapper '__delattr__' of exceptions.AttributeError object at 0x03B68C10>"
p34
sS'__repr__'
p35
S"<method-wrapper '__repr__' of exceptions.AttributeError object at 0x03B68C10>"
p36
sS'__dict__'
p37
S'{}'
p38
sS'__doc__'
p39
S"'Attribute not found.'"
p40
sS'__init__'
p41
S"<method-wrapper '__init__' of exceptions.AttributeError object at 0x03B68C10>"
p42
sS'__new__'
p43
S'<built-in method __new__ of type object at 0x1E1CDA68>'
p44
ssS'evalue'
p45
S"'Auth' object has no attribute 'auth_user'"
p46
sS'request'
p47
ccopy_reg
_reconstructor
p48
(cgluon.html
BEAUTIFY
p49
c__builtin__
object
p50
NtRp51
(dp52
S'attributes'
p53
(dp54
sS'components'
p55
(lp56
g48
(cgluon.html
TABLE
p57
g50
NtRp58
(dp59
g53
(dp60
S'level'
p61
I5
ssS'parent'
p62
Nsg55
(lp63
g48
(cgluon.html
TR
p64
g50
NtRp65
(dp66
g53
(dp67
sg62
g58
sg55
(lp68
g48
(cgluon.html
TD
p69
g50
NtRp70
(dp71
g53
(dp72
S'_style'
p73
S'font-weight:bold;'
p74
ssg62
g65
sg55
(lp75
S'ajax'
p76
asbag48
(g69
g50
NtRp77
(dp78
g53
(dp79
S'_valign'
p80
S'top'
p81
ssg62
g65
sg55
(lp82
S':'
asbag48
(g69
g50
NtRp83
(dp84
g53
(dp85
sg62
g65
sg55
(lp86
g48
(g49
g50
NtRp87
(dp88
g53
(dp89
g61
I5
ssg62
g83
sg55
(lp90
S'False'
p91
asbasbasbag48
(g64
g50
NtRp92
(dp93
g53
(dp94
sg62
g58
sg55
(lp95
g48
(g69
g50
NtRp96
(dp97
g53
(dp98
g73
g74
ssg62
g92
sg55
(lp99
S'application'
p100
asbag48
(g69
g50
NtRp101
(dp102
g53
(dp103
g80
g81
ssg62
g92
sg55
(lp104
S':'
asbag48
(g69
g50
NtRp105
(dp106
g53
(dp107
sg62
g92
sg55
(lp108
g48
(g49
g50
NtRp109
(dp110
g53
(dp111
g61
I5
ssg62
g105
sg55
(lp112
S'init'
p113
asbasbasbag48
(g64
g50
NtRp114
(dp115
g53
(dp116
sg62
g58
sg55
(lp117
g48
(g69
g50
NtRp118
(dp119
g53
(dp120
g73
g74
ssg62
g114
sg55
(lp121
g27
asbag48
(g69
g50
NtRp122
(dp123
g53
(dp124
g80
g81
ssg62
g114
sg55
(lp125
S':'
asbag48
(g69
g50
NtRp126
(dp127
g53
(dp128
sg62
g114
sg55
(lp129
g48
(g49
g50
NtRp130
(dp131
g53
(dp132
g61
I5
ssg62
g126
sg55
(lp133
g48
(g57
g50
NtRp134
(dp135
g53
(dp136
g61
I4
ssg62
Nsg55
(lp137
sbasbasbasbag48
(g64
g50
NtRp138
(dp139
g53
(dp140
sg62
g58
sg55
(lp141
g48
(g69
g50
NtRp142
(dp143
g53
(dp144
g73
g74
ssg62
g138
sg55
(lp145
S'body'
p146
asbag48
(g69
g50
NtRp147
(dp148
g53
(dp149
g80
g81
ssg62
g138
sg55
(lp150
S':'
asbag48
(g69
g50
NtRp151
(dp152
g53
(dp153
sg62
g138
sg55
(lp154
g48
(g49
g50
NtRp155
(dp156
g53
(dp157
g61
I5
ssg62
g151
sg55
(lp158
S'<cStringIO.StringO object at 0x0439A880>'
p159
asbasbasbag48
(g64
g50
NtRp160
(dp161
g53
(dp162
sg62
g58
sg55
(lp163
g48
(g69
g50
NtRp164
(dp165
g53
(dp166
g73
g74
ssg62
g160
sg55
(lp167
S'client'
p168
asbag48
(g69
g50
NtRp169
(dp170
g53
(dp171
g80
g81
ssg62
g160
sg55
(lp172
S':'
asbag48
(g69
g50
NtRp173
(dp174
g53
(dp175
sg62
g160
sg55
(lp176
g48
(g49
g50
NtRp177
(dp178
g53
(dp179
g61
I5
ssg62
g173
sg55
(lp180
S'127.0.0.1'
p181
asbasbasbag48
(g64
g50
NtRp182
(dp183
g53
(dp184
sg62
g58
sg55
(lp185
g48
(g69
g50
NtRp186
(dp187
g53
(dp188
g73
g74
ssg62
g182
sg55
(lp189
S'controller'
p190
asbag48
(g69
g50
NtRp191
(dp192
g53
(dp193
g80
g81
ssg62
g182
sg55
(lp194
S':'
asbag48
(g69
g50
NtRp195
(dp196
g53
(dp197
sg62
g182
sg55
(lp198
g48
(g49
g50
NtRp199
(dp200
g53
(dp201
g61
I5
ssg62
g195
sg55
(lp202
S'default'
p203
asbasbasbag48
(g64
g50
NtRp204
(dp205
g53
(dp206
sg62
g58
sg55
(lp207
g48
(g69
g50
NtRp208
(dp209
g53
(dp210
g73
g74
ssg62
g204
sg55
(lp211
S'cookies'
p212
asbag48
(g69
g50
NtRp213
(dp214
g53
(dp215
g80
g81
ssg62
g204
sg55
(lp216
S':'
asbag48
(g69
g50
NtRp217
(dp218
g53
(dp219
sg62
g204
sg55
(lp220
g48
(g49
g50
NtRp221
(dp222
g53
(dp223
g61
I5
ssg62
g217
sg55
(lp224
g48
(g57
g50
NtRp225
(dp226
g53
(dp227
g61
I4
ssg62
Nsg55
(lp228
g48
(g64
g50
NtRp229
(dp230
g53
(dp231
sg62
g225
sg55
(lp232
g48
(g69
g50
NtRp233
(dp234
g53
(dp235
g73
g74
ssg62
g229
sg55
(lp236
S'session_id_admin'
p237
asbag48
(g69
g50
NtRp238
(dp239
g53
(dp240
g80
g81
ssg62
g229
sg55
(lp241
S':'
asbag48
(g69
g50
NtRp242
(dp243
g53
(dp244
sg62
g229
sg55
(lp245
g48
(g49
g50
NtRp246
(dp247
g53
(dp248
g61
I4
ssg62
g242
sg55
(lp249
g48
(g57
g50
NtRp250
(dp251
g53
(dp252
g61
I3
ssg62
Nsg55
(lp253
g48
(g64
g50
NtRp254
(dp255
g53
(dp256
sg62
g250
sg55
(lp257
g48
(g69
g50
NtRp258
(dp259
g53
(dp260
g73
g74
ssg62
g254
sg55
(lp261
S'comment'
p262
asbag48
(g69
g50
NtRp263
(dp264
g53
(dp265
g80
g81
ssg62
g254
sg55
(lp266
S':'
asbag48
(g69
g50
NtRp267
(dp268
g53
(dp269
sg62
g254
sg55
(lp270
g48
(g49
g50
NtRp271
(dp272
g53
(dp273
g61
I3
ssg62
g267
sg55
(lp274
S''
asbasbasbag48
(g64
g50
NtRp275
(dp276
g53
(dp277
sg62
g250
sg55
(lp278
g48
(g69
g50
NtRp279
(dp280
g53
(dp281
g73
g74
ssg62
g275
sg55
(lp282
S'domain'
p283
asbag48
(g69
g50
NtRp284
(dp285
g53
(dp286
g80
g81
ssg62
g275
sg55
(lp287
S':'
asbag48
(g69
g50
NtRp288
(dp289
g53
(dp290
sg62
g275
sg55
(lp291
g48
(g49
g50
NtRp292
(dp293
g53
(dp294
g61
I3
ssg62
g288
sg55
(lp295
S''
asbasbasbag48
(g64
g50
NtRp296
(dp297
g53
(dp298
sg62
g250
sg55
(lp299
g48
(g69
g50
NtRp300
(dp301
g53
(dp302
g73
g74
ssg62
g296
sg55
(lp303
S'expires'
p304
asbag48
(g69
g50
NtRp305
(dp306
g53
(dp307
g80
g81
ssg62
g296
sg55
(lp308
S':'
asbag48
(g69
g50
NtRp309
(dp310
g53
(dp311
sg62
g296
sg55
(lp312
g48
(g49
g50
NtRp313
(dp314
g53
(dp315
g61
I3
ssg62
g309
sg55
(lp316
S''
asbasbasbag48
(g64
g50
NtRp317
(dp318
g53
(dp319
sg62
g250
sg55
(lp320
g48
(g69
g50
NtRp321
(dp322
g53
(dp323
g73
g74
ssg62
g317
sg55
(lp324
S'max-age'
p325
asbag48
(g69
g50
NtRp326
(dp327
g53
(dp328
g80
g81
ssg62
g317
sg55
(lp329
S':'
asbag48
(g69
g50
NtRp330
(dp331
g53
(dp332
sg62
g317
sg55
(lp333
g48
(g49
g50
NtRp334
(dp335
g53
(dp336
g61
I3
ssg62
g330
sg55
(lp337
S''
asbasbasbag48
(g64
g50
NtRp338
(dp339
g53
(dp340
sg62
g250
sg55
(lp341
g48
(g69
g50
NtRp342
(dp343
g53
(dp344
g73
g74
ssg62
g338
sg55
(lp345
S'path'
p346
asbag48
(g69
g50
NtRp347
(dp348
g53
(dp349
g80
g81
ssg62
g338
sg55
(lp350
S':'
asbag48
(g69
g50
NtRp351
(dp352
g53
(dp353
sg62
g338
sg55
(lp354
g48
(g49
g50
NtRp355
(dp356
g53
(dp357
g61
I3
ssg62
g351
sg55
(lp358
S''
asbasbasbag48
(g64
g50
NtRp359
(dp360
g53
(dp361
sg62
g250
sg55
(lp362
g48
(g69
g50
NtRp363
(dp364
g53
(dp365
g73
g74
ssg62
g359
sg55
(lp366
S'secure'
p367
asbag48
(g69
g50
NtRp368
(dp369
g53
(dp370
g80
g81
ssg62
g359
sg55
(lp371
S':'
asbag48
(g69
g50
NtRp372
(dp373
g53
(dp374
sg62
g359
sg55
(lp375
g48
(g49
g50
NtRp376
(dp377
g53
(dp378
g61
I3
ssg62
g372
sg55
(lp379
S''
asbasbasbag48
(g64
g50
NtRp380
(dp381
g53
(dp382
sg62
g250
sg55
(lp383
g48
(g69
g50
NtRp384
(dp385
g53
(dp386
g73
g74
ssg62
g380
sg55
(lp387
S'version'
p388
asbag48
(g69
g50
NtRp389
(dp390
g53
(dp391
g80
g81
ssg62
g380
sg55
(lp392
S':'
asbag48
(g69
g50
NtRp393
(dp394
g53
(dp395
sg62
g380
sg55
(lp396
g48
(g49
g50
NtRp397
(dp398
g53
(dp399
g61
I3
ssg62
g393
sg55
(lp400
S''
asbasbasbasbasbasbasbag48
(g64
g50
NtRp401
(dp402
g53
(dp403
sg62
g225
sg55
(lp404
g48
(g69
g50
NtRp405
(dp406
g53
(dp407
g73
g74
ssg62
g401
sg55
(lp408
S'session_id_examples'
p409
asbag48
(g69
g50
NtRp410
(dp411
g53
(dp412
g80
g81
ssg62
g401
sg55
(lp413
S':'
asbag48
(g69
g50
NtRp414
(dp415
g53
(dp416
sg62
g401
sg55
(lp417
g48
(g49
g50
NtRp418
(dp419
g53
(dp420
g61
I4
ssg62
g414
sg55
(lp421
g48
(g57
g50
NtRp422
(dp423
g53
(dp424
g61
I3
ssg62
Nsg55
(lp425
g48
(g64
g50
NtRp426
(dp427
g53
(dp428
sg62
g422
sg55
(lp429
g48
(g69
g50
NtRp430
(dp431
g53
(dp432
g73
g74
ssg62
g426
sg55
(lp433
g262
asbag48
(g69
g50
NtRp434
(dp435
g53
(dp436
g80
g81
ssg62
g426
sg55
(lp437
S':'
asbag48
(g69
g50
NtRp438
(dp439
g53
(dp440
sg62
g426
sg55
(lp441
g48
(g49
g50
NtRp442
(dp443
g53
(dp444
g61
I3
ssg62
g438
sg55
(lp445
S''
asbasbasbag48
(g64
g50
NtRp446
(dp447
g53
(dp448
sg62
g422
sg55
(lp449
g48
(g69
g50
NtRp450
(dp451
g53
(dp452
g73
g74
ssg62
g446
sg55
(lp453
g283
asbag48
(g69
g50
NtRp454
(dp455
g53
(dp456
g80
g81
ssg62
g446
sg55
(lp457
S':'
asbag48
(g69
g50
NtRp458
(dp459
g53
(dp460
sg62
g446
sg55
(lp461
g48
(g49
g50
NtRp462
(dp463
g53
(dp464
g61
I3
ssg62
g458
sg55
(lp465
S''
asbasbasbag48
(g64
g50
NtRp466
(dp467
g53
(dp468
sg62
g422
sg55
(lp469
g48
(g69
g50
NtRp470
(dp471
g53
(dp472
g73
g74
ssg62
g466
sg55
(lp473
g304
asbag48
(g69
g50
NtRp474
(dp475
g53
(dp476
g80
g81
ssg62
g466
sg55
(lp477
S':'
asbag48
(g69
g50
NtRp478
(dp479
g53
(dp480
sg62
g466
sg55
(lp481
g48
(g49
g50
NtRp482
(dp483
g53
(dp484
g61
I3
ssg62
g478
sg55
(lp485
S''
asbasbasbag48
(g64
g50
NtRp486
(dp487
g53
(dp488
sg62
g422
sg55
(lp489
g48
(g69
g50
NtRp490
(dp491
g53
(dp492
g73
g74
ssg62
g486
sg55
(lp493
g325
asbag48
(g69
g50
NtRp494
(dp495
g53
(dp496
g80
g81
ssg62
g486
sg55
(lp497
S':'
asbag48
(g69
g50
NtRp498
(dp499
g53
(dp500
sg62
g486
sg55
(lp501
g48
(g49
g50
NtRp502
(dp503
g53
(dp504
g61
I3
ssg62
g498
sg55
(lp505
S''
asbasbasbag48
(g64
g50
NtRp506
(dp507
g53
(dp508
sg62
g422
sg55
(lp509
g48
(g69
g50
NtRp510
(dp511
g53
(dp512
g73
g74
ssg62
g506
sg55
(lp513
g346
asbag48
(g69
g50
NtRp514
(dp515
g53
(dp516
g80
g81
ssg62
g506
sg55
(lp517
S':'
asbag48
(g69
g50
NtRp518
(dp519
g53
(dp520
sg62
g506
sg55
(lp521
g48
(g49
g50
NtRp522
(dp523
g53
(dp524
g61
I3
ssg62
g518
sg55
(lp525
S''
asbasbasbag48
(g64
g50
NtRp526
(dp527
g53
(dp528
sg62
g422
sg55
(lp529
g48
(g69
g50
NtRp530
(dp531
g53
(dp532
g73
g74
ssg62
g526
sg55
(lp533
g367
asbag48
(g69
g50
NtRp534
(dp535
g53
(dp536
g80
g81
ssg62
g526
sg55
(lp537
S':'
asbag48
(g69
g50
NtRp538
(dp539
g53
(dp540
sg62
g526
sg55
(lp541
g48
(g49
g50
NtRp542
(dp543
g53
(dp544
g61
I3
ssg62
g538
sg55
(lp545
S''
asbasbasbag48
(g64
g50
NtRp546
(dp547
g53
(dp548
sg62
g422
sg55
(lp549
g48
(g69
g50
NtRp550
(dp551
g53
(dp552
g73
g74
ssg62
g546
sg55
(lp553
g388
asbag48
(g69
g50
NtRp554
(dp555
g53
(dp556
g80
g81
ssg62
g546
sg55
(lp557
S':'
asbag48
(g69
g50
NtRp558
(dp559
g53
(dp560
sg62
g546
sg55
(lp561
g48
(g49
g50
NtRp562
(dp563
g53
(dp564
g61
I3
ssg62
g558
sg55
(lp565
S''
asbasbasbasbasbasbasbag48
(g64
g50
NtRp566
(dp567
g53
(dp568
sg62
g225
sg55
(lp569
g48
(g69
g50
NtRp570
(dp571
g53
(dp572
g73
g74
ssg62
g566
sg55
(lp573
S'session_id_fitnessfriends'
p574
asbag48
(g69
g50
NtRp575
(dp576
g53
(dp577
g80
g81
ssg62
g566
sg55
(lp578
S':'
asbag48
(g69
g50
NtRp579
(dp580
g53
(dp581
sg62
g566
sg55
(lp582
g48
(g49
g50
NtRp583
(dp584
g53
(dp585
g61
I4
ssg62
g579
sg55
(lp586
g48
(g57
g50
NtRp587
(dp588
g53
(dp589
g61
I3
ssg62
Nsg55
(lp590
g48
(g64
g50
NtRp591
(dp592
g53
(dp593
sg62
g587
sg55
(lp594
g48
(g69
g50
NtRp595
(dp596
g53
(dp597
g73
g74
ssg62
g591
sg55
(lp598
g262
asbag48
(g69
g50
NtRp599
(dp600
g53
(dp601
g80
g81
ssg62
g591
sg55
(lp602
S':'
asbag48
(g69
g50
NtRp603
(dp604
g53
(dp605
sg62
g591
sg55
(lp606
g48
(g49
g50
NtRp607
(dp608
g53
(dp609
g61
I3
ssg62
g603
sg55
(lp610
S''
asbasbasbag48
(g64
g50
NtRp611
(dp612
g53
(dp613
sg62
g587
sg55
(lp614
g48
(g69
g50
NtRp615
(dp616
g53
(dp617
g73
g74
ssg62
g611
sg55
(lp618
g283
asbag48
(g69
g50
NtRp619
(dp620
g53
(dp621
g80
g81
ssg62
g611
sg55
(lp622
S':'
asbag48
(g69
g50
NtRp623
(dp624
g53
(dp625
sg62
g611
sg55
(lp626
g48
(g49
g50
NtRp627
(dp628
g53
(dp629
g61
I3
ssg62
g623
sg55
(lp630
S''
asbasbasbag48
(g64
g50
NtRp631
(dp632
g53
(dp633
sg62
g587
sg55
(lp634
g48
(g69
g50
NtRp635
(dp636
g53
(dp637
g73
g74
ssg62
g631
sg55
(lp638
g304
asbag48
(g69
g50
NtRp639
(dp640
g53
(dp641
g80
g81
ssg62
g631
sg55
(lp642
S':'
asbag48
(g69
g50
NtRp643
(dp644
g53
(dp645
sg62
g631
sg55
(lp646
g48
(g49
g50
NtRp647
(dp648
g53
(dp649
g61
I3
ssg62
g643
sg55
(lp650
S''
asbasbasbag48
(g64
g50
NtRp651
(dp652
g53
(dp653
sg62
g587
sg55
(lp654
g48
(g69
g50
NtRp655
(dp656
g53
(dp657
g73
g74
ssg62
g651
sg55
(lp658
g325
asbag48
(g69
g50
NtRp659
(dp660
g53
(dp661
g80
g81
ssg62
g651
sg55
(lp662
S':'
asbag48
(g69
g50
NtRp663
(dp664
g53
(dp665
sg62
g651
sg55
(lp666
g48
(g49
g50
NtRp667
(dp668
g53
(dp669
g61
I3
ssg62
g663
sg55
(lp670
S''
asbasbasbag48
(g64
g50
NtRp671
(dp672
g53
(dp673
sg62
g587
sg55
(lp674
g48
(g69
g50
NtRp675
(dp676
g53
(dp677
g73
g74
ssg62
g671
sg55
(lp678
g346
asbag48
(g69
g50
NtRp679
(dp680
g53
(dp681
g80
g81
ssg62
g671
sg55
(lp682
S':'
asbag48
(g69
g50
NtRp683
(dp684
g53
(dp685
sg62
g671
sg55
(lp686
g48
(g49
g50
NtRp687
(dp688
g53
(dp689
g61
I3
ssg62
g683
sg55
(lp690
S''
asbasbasbag48
(g64
g50
NtRp691
(dp692
g53
(dp693
sg62
g587
sg55
(lp694
g48
(g69
g50
NtRp695
(dp696
g53
(dp697
g73
g74
ssg62
g691
sg55
(lp698
g367
asbag48
(g69
g50
NtRp699
(dp700
g53
(dp701
g80
g81
ssg62
g691
sg55
(lp702
S':'
asbag48
(g69
g50
NtRp703
(dp704
g53
(dp705
sg62
g691
sg55
(lp706
g48
(g49
g50
NtRp707
(dp708
g53
(dp709
g61
I3
ssg62
g703
sg55
(lp710
S''
asbasbasbag48
(g64
g50
NtRp711
(dp712
g53
(dp713
sg62
g587
sg55
(lp714
g48
(g69
g50
NtRp715
(dp716
g53
(dp717
g73
g74
ssg62
g711
sg55
(lp718
g388
asbag48
(g69
g50
NtRp719
(dp720
g53
(dp721
g80
g81
ssg62
g711
sg55
(lp722
S':'
asbag48
(g69
g50
NtRp723
(dp724
g53
(dp725
sg62
g711
sg55
(lp726
g48
(g49
g50
NtRp727
(dp728
g53
(dp729
g61
I3
ssg62
g723
sg55
(lp730
S''
asbasbasbasbasbasbasbag48
(g64
g50
NtRp731
(dp732
g53
(dp733
sg62
g225
sg55
(lp734
g48
(g69
g50
NtRp735
(dp736
g53
(dp737
g73
g74
ssg62
g731
sg55
(lp738
S'session_id_init'
p739
asbag48
(g69
g50
NtRp740
(dp741
g53
(dp742
g80
g81
ssg62
g731
sg55
(lp743
S':'
asbag48
(g69
g50
NtRp744
(dp745
g53
(dp746
sg62
g731
sg55
(lp747
g48
(g49
g50
NtRp748
(dp749
g53
(dp750
g61
I4
ssg62
g744
sg55
(lp751
g48
(g57
g50
NtRp752
(dp753
g53
(dp754
g61
I3
ssg62
Nsg55
(lp755
g48
(g64
g50
NtRp756
(dp757
g53
(dp758
sg62
g752
sg55
(lp759
g48
(g69
g50
NtRp760
(dp761
g53
(dp762
g73
g74
ssg62
g756
sg55
(lp763
g262
asbag48
(g69
g50
NtRp764
(dp765
g53
(dp766
g80
g81
ssg62
g756
sg55
(lp767
S':'
asbag48
(g69
g50
NtRp768
(dp769
g53
(dp770
sg62
g756
sg55
(lp771
g48
(g49
g50
NtRp772
(dp773
g53
(dp774
g61
I3
ssg62
g768
sg55
(lp775
S''
asbasbasbag48
(g64
g50
NtRp776
(dp777
g53
(dp778
sg62
g752
sg55
(lp779
g48
(g69
g50
NtRp780
(dp781
g53
(dp782
g73
g74
ssg62
g776
sg55
(lp783
g283
asbag48
(g69
g50
NtRp784
(dp785
g53
(dp786
g80
g81
ssg62
g776
sg55
(lp787
S':'
asbag48
(g69
g50
NtRp788
(dp789
g53
(dp790
sg62
g776
sg55
(lp791
g48
(g49
g50
NtRp792
(dp793
g53
(dp794
g61
I3
ssg62
g788
sg55
(lp795
S''
asbasbasbag48
(g64
g50
NtRp796
(dp797
g53
(dp798
sg62
g752
sg55
(lp799
g48
(g69
g50
NtRp800
(dp801
g53
(dp802
g73
g74
ssg62
g796
sg55
(lp803
g304
asbag48
(g69
g50
NtRp804
(dp805
g53
(dp806
g80
g81
ssg62
g796
sg55
(lp807
S':'
asbag48
(g69
g50
NtRp808
(dp809
g53
(dp810
sg62
g796
sg55
(lp811
g48
(g49
g50
NtRp812
(dp813
g53
(dp814
g61
I3
ssg62
g808
sg55
(lp815
S''
asbasbasbag48
(g64
g50
NtRp816
(dp817
g53
(dp818
sg62
g752
sg55
(lp819
g48
(g69
g50
NtRp820
(dp821
g53
(dp822
g73
g74
ssg62
g816
sg55
(lp823
g325
asbag48
(g69
g50
NtRp824
(dp825
g53
(dp826
g80
g81
ssg62
g816
sg55
(lp827
S':'
asbag48
(g69
g50
NtRp828
(dp829
g53
(dp830
sg62
g816
sg55
(lp831
g48
(g49
g50
NtRp832
(dp833
g53
(dp834
g61
I3
ssg62
g828
sg55
(lp835
S''
asbasbasbag48
(g64
g50
NtRp836
(dp837
g53
(dp838
sg62
g752
sg55
(lp839
g48
(g69
g50
NtRp840
(dp841
g53
(dp842
g73
g74
ssg62
g836
sg55
(lp843
g346
asbag48
(g69
g50
NtRp844
(dp845
g53
(dp846
g80
g81
ssg62
g836
sg55
(lp847
S':'
asbag48
(g69
g50
NtRp848
(dp849
g53
(dp850
sg62
g836
sg55
(lp851
g48
(g49
g50
NtRp852
(dp853
g53
(dp854
g61
I3
ssg62
g848
sg55
(lp855
S''
asbasbasbag48
(g64
g50
NtRp856
(dp857
g53
(dp858
sg62
g752
sg55
(lp859
g48
(g69
g50
NtRp860
(dp861
g53
(dp862
g73
g74
ssg62
g856
sg55
(lp863
g367
asbag48
(g69
g50
NtRp864
(dp865
g53
(dp866
g80
g81
ssg62
g856
sg55
(lp867
S':'
asbag48
(g69
g50
NtRp868
(dp869
g53
(dp870
sg62
g856
sg55
(lp871
g48
(g49
g50
NtRp872
(dp873
g53
(dp874
g61
I3
ssg62
g868
sg55
(lp875
S''
asbasbasbag48
(g64
g50
NtRp876
(dp877
g53
(dp878
sg62
g752
sg55
(lp879
g48
(g69
g50
NtRp880
(dp881
g53
(dp882
g73
g74
ssg62
g876
sg55
(lp883
g388
asbag48
(g69
g50
NtRp884
(dp885
g53
(dp886
g80
g81
ssg62
g876
sg55
(lp887
S':'
asbag48
(g69
g50
NtRp888
(dp889
g53
(dp890
sg62
g876
sg55
(lp891
g48
(g49
g50
NtRp892
(dp893
g53
(dp894
g61
I3
ssg62
g888
sg55
(lp895
S''
asbasbasbasbasbasbasbag48
(g64
g50
NtRp896
(dp897
g53
(dp898
sg62
g225
sg55
(lp899
g48
(g69
g50
NtRp900
(dp901
g53
(dp902
g73
g74
ssg62
g896
sg55
(lp903
S'session_id_recipeapp'
p904
asbag48
(g69
g50
NtRp905
(dp906
g53
(dp907
g80
g81
ssg62
g896
sg55
(lp908
S':'
asbag48
(g69
g50
NtRp909
(dp910
g53
(dp911
sg62
g896
sg55
(lp912
g48
(g49
g50
NtRp913
(dp914
g53
(dp915
g61
I4
ssg62
g909
sg55
(lp916
g48
(g57
g50
NtRp917
(dp918
g53
(dp919
g61
I3
ssg62
Nsg55
(lp920
g48
(g64
g50
NtRp921
(dp922
g53
(dp923
sg62
g917
sg55
(lp924
g48
(g69
g50
NtRp925
(dp926
g53
(dp927
g73
g74
ssg62
g921
sg55
(lp928
g262
asbag48
(g69
g50
NtRp929
(dp930
g53
(dp931
g80
g81
ssg62
g921
sg55
(lp932
S':'
asbag48
(g69
g50
NtRp933
(dp934
g53
(dp935
sg62
g921
sg55
(lp936
g48
(g49
g50
NtRp937
(dp938
g53
(dp939
g61
I3
ssg62
g933
sg55
(lp940
S''
asbasbasbag48
(g64
g50
NtRp941
(dp942
g53
(dp943
sg62
g917
sg55
(lp944
g48
(g69
g50
NtRp945
(dp946
g53
(dp947
g73
g74
ssg62
g941
sg55
(lp948
g283
asbag48
(g69
g50
NtRp949
(dp950
g53
(dp951
g80
g81
ssg62
g941
sg55
(lp952
S':'
asbag48
(g69
g50
NtRp953
(dp954
g53
(dp955
sg62
g941
sg55
(lp956
g48
(g49
g50
NtRp957
(dp958
g53
(dp959
g61
I3
ssg62
g953
sg55
(lp960
S''
asbasbasbag48
(g64
g50
NtRp961
(dp962
g53
(dp963
sg62
g917
sg55
(lp964
g48
(g69
g50
NtRp965
(dp966
g53
(dp967
g73
g74
ssg62
g961
sg55
(lp968
g304
asbag48
(g69
g50
NtRp969
(dp970
g53
(dp971
g80
g81
ssg62
g961
sg55
(lp972
S':'
asbag48
(g69
g50
NtRp973
(dp974
g53
(dp975
sg62
g961
sg55
(lp976
g48
(g49
g50
NtRp977
(dp978
g53
(dp979
g61
I3
ssg62
g973
sg55
(lp980
S''
asbasbasbag48
(g64
g50
NtRp981
(dp982
g53
(dp983
sg62
g917
sg55
(lp984
g48
(g69
g50
NtRp985
(dp986
g53
(dp987
g73
g74
ssg62
g981
sg55
(lp988
g325
asbag48
(g69
g50
NtRp989
(dp990
g53
(dp991
g80
g81
ssg62
g981
sg55
(lp992
S':'
asbag48
(g69
g50
NtRp993
(dp994
g53
(dp995
sg62
g981
sg55
(lp996
g48
(g49
g50
NtRp997
(dp998
g53
(dp999
g61
I3
ssg62
g993
sg55
(lp1000
S''
asbasbasbag48
(g64
g50
NtRp1001
(dp1002
g53
(dp1003
sg62
g917
sg55
(lp1004
g48
(g69
g50
NtRp1005
(dp1006
g53
(dp1007
g73
g74
ssg62
g1001
sg55
(lp1008
g346
asbag48
(g69
g50
NtRp1009
(dp1010
g53
(dp1011
g80
g81
ssg62
g1001
sg55
(lp1012
S':'
asbag48
(g69
g50
NtRp1013
(dp1014
g53
(dp1015
sg62
g1001
sg55
(lp1016
g48
(g49
g50
NtRp1017
(dp1018
g53
(dp1019
g61
I3
ssg62
g1013
sg55
(lp1020
S''
asbasbasbag48
(g64
g50
NtRp1021
(dp1022
g53
(dp1023
sg62
g917
sg55
(lp1024
g48
(g69
g50
NtRp1025
(dp1026
g53
(dp1027
g73
g74
ssg62
g1021
sg55
(lp1028
g367
asbag48
(g69
g50
NtRp1029
(dp1030
g53
(dp1031
g80
g81
ssg62
g1021
sg55
(lp1032
S':'
asbag48
(g69
g50
NtRp1033
(dp1034
g53
(dp1035
sg62
g1021
sg55
(lp1036
g48
(g49
g50
NtRp1037
(dp1038
g53
(dp1039
g61
I3
ssg62
g1033
sg55
(lp1040
S''
asbasbasbag48
(g64
g50
NtRp1041
(dp1042
g53
(dp1043
sg62
g917
sg55
(lp1044
g48
(g69
g50
NtRp1045
(dp1046
g53
(dp1047
g73
g74
ssg62
g1041
sg55
(lp1048
g388
asbag48
(g69
g50
NtRp1049
(dp1050
g53
(dp1051
g80
g81
ssg62
g1041
sg55
(lp1052
S':'
asbag48
(g69
g50
NtRp1053
(dp1054
g53
(dp1055
sg62
g1041
sg55
(lp1056
g48
(g49
g50
NtRp1057
(dp1058
g53
(dp1059
g61
I3
ssg62
g1053
sg55
(lp1060
S''
asbasbasbasbasbasbasbag48
(g64
g50
NtRp1061
(dp1062
g53
(dp1063
sg62
g225
sg55
(lp1064
g48
(g69
g50
NtRp1065
(dp1066
g53
(dp1067
g73
g74
ssg62
g1061
sg55
(lp1068
S'session_id_welcome'
p1069
asbag48
(g69
g50
NtRp1070
(dp1071
g53
(dp1072
g80
g81
ssg62
g1061
sg55
(lp1073
S':'
asbag48
(g69
g50
NtRp1074
(dp1075
g53
(dp1076
sg62
g1061
sg55
(lp1077
g48
(g49
g50
NtRp1078
(dp1079
g53
(dp1080
g61
I4
ssg62
g1074
sg55
(lp1081
g48
(g57
g50
NtRp1082
(dp1083
g53
(dp1084
g61
I3
ssg62
Nsg55
(lp1085
g48
(g64
g50
NtRp1086
(dp1087
g53
(dp1088
sg62
g1082
sg55
(lp1089
g48
(g69
g50
NtRp1090
(dp1091
g53
(dp1092
g73
g74
ssg62
g1086
sg55
(lp1093
g262
asbag48
(g69
g50
NtRp1094
(dp1095
g53
(dp1096
g80
g81
ssg62
g1086
sg55
(lp1097
S':'
asbag48
(g69
g50
NtRp1098
(dp1099
g53
(dp1100
sg62
g1086
sg55
(lp1101
g48
(g49
g50
NtRp1102
(dp1103
g53
(dp1104
g61
I3
ssg62
g1098
sg55
(lp1105
S''
asbasbasbag48
(g64
g50
NtRp1106
(dp1107
g53
(dp1108
sg62
g1082
sg55
(lp1109
g48
(g69
g50
NtRp1110
(dp1111
g53
(dp1112
g73
g74
ssg62
g1106
sg55
(lp1113
g283
asbag48
(g69
g50
NtRp1114
(dp1115
g53
(dp1116
g80
g81
ssg62
g1106
sg55
(lp1117
S':'
asbag48
(g69
g50
NtRp1118
(dp1119
g53
(dp1120
sg62
g1106
sg55
(lp1121
g48
(g49
g50
NtRp1122
(dp1123
g53
(dp1124
g61
I3
ssg62
g1118
sg55
(lp1125
S''
asbasbasbag48
(g64
g50
NtRp1126
(dp1127
g53
(dp1128
sg62
g1082
sg55
(lp1129
g48
(g69
g50
NtRp1130
(dp1131
g53
(dp1132
g73
g74
ssg62
g1126
sg55
(lp1133
g304
asbag48
(g69
g50
NtRp1134
(dp1135
g53
(dp1136
g80
g81
ssg62
g1126
sg55
(lp1137
S':'
asbag48
(g69
g50
NtRp1138
(dp1139
g53
(dp1140
sg62
g1126
sg55
(lp1141
g48
(g49
g50
NtRp1142
(dp1143
g53
(dp1144
g61
I3
ssg62
g1138
sg55
(lp1145
S''
asbasbasbag48
(g64
g50
NtRp1146
(dp1147
g53
(dp1148
sg62
g1082
sg55
(lp1149
g48
(g69
g50
NtRp1150
(dp1151
g53
(dp1152
g73
g74
ssg62
g1146
sg55
(lp1153
g325
asbag48
(g69
g50
NtRp1154
(dp1155
g53
(dp1156
g80
g81
ssg62
g1146
sg55
(lp1157
S':'
asbag48
(g69
g50
NtRp1158
(dp1159
g53
(dp1160
sg62
g1146
sg55
(lp1161
g48
(g49
g50
NtRp1162
(dp1163
g53
(dp1164
g61
I3
ssg62
g1158
sg55
(lp1165
S''
asbasbasbag48
(g64
g50
NtRp1166
(dp1167
g53
(dp1168
sg62
g1082
sg55
(lp1169
g48
(g69
g50
NtRp1170
(dp1171
g53
(dp1172
g73
g74
ssg62
g1166
sg55
(lp1173
g346
asbag48
(g69
g50
NtRp1174
(dp1175
g53
(dp1176
g80
g81
ssg62
g1166
sg55
(lp1177
S':'
asbag48
(g69
g50
NtRp1178
(dp1179
g53
(dp1180
sg62
g1166
sg55
(lp1181
g48
(g49
g50
NtRp1182
(dp1183
g53
(dp1184
g61
I3
ssg62
g1178
sg55
(lp1185
S''
asbasbasbag48
(g64
g50
NtRp1186
(dp1187
g53
(dp1188
sg62
g1082
sg55
(lp1189
g48
(g69
g50
NtRp1190
(dp1191
g53
(dp1192
g73
g74
ssg62
g1186
sg55
(lp1193
g367
asbag48
(g69
g50
NtRp1194
(dp1195
g53
(dp1196
g80
g81
ssg62
g1186
sg55
(lp1197
S':'
asbag48
(g69
g50
NtRp1198
(dp1199
g53
(dp1200
sg62
g1186
sg55
(lp1201
g48
(g49
g50
NtRp1202
(dp1203
g53
(dp1204
g61
I3
ssg62
g1198
sg55
(lp1205
S''
asbasbasbag48
(g64
g50
NtRp1206
(dp1207
g53
(dp1208
sg62
g1082
sg55
(lp1209
g48
(g69
g50
NtRp1210
(dp1211
g53
(dp1212
g73
g74
ssg62
g1206
sg55
(lp1213
g388
asbag48
(g69
g50
NtRp1214
(dp1215
g53
(dp1216
g80
g81
ssg62
g1206
sg55
(lp1217
S':'
asbag48
(g69
g50
NtRp1218
(dp1219
g53
(dp1220
sg62
g1206
sg55
(lp1221
g48
(g49
g50
NtRp1222
(dp1223
g53
(dp1224
g61
I3
ssg62
g1218
sg55
(lp1225
S''
asbasbasbasbasbasbasbasbasbasbasbag48
(g64
g50
NtRp1226
(dp1227
g53
(dp1228
sg62
g58
sg55
(lp1229
g48
(g69
g50
NtRp1230
(dp1231
g53
(dp1232
g73
g74
ssg62
g1226
sg55
(lp1233
S'env'
p1234
asbag48
(g69
g50
NtRp1235
(dp1236
g53
(dp1237
g80
g81
ssg62
g1226
sg55
(lp1238
S':'
asbag48
(g69
g50
NtRp1239
(dp1240
g53
(dp1241
sg62
g1226
sg55
(lp1242
g48
(g49
g50
NtRp1243
(dp1244
g53
(dp1245
g61
I5
ssg62
g1239
sg55
(lp1246
g48
(g57
g50
NtRp1247
(dp1248
g53
(dp1249
g61
I4
ssg62
Nsg55
(lp1250
g48
(g64
g50
NtRp1251
(dp1252
g53
(dp1253
sg62
g1247
sg55
(lp1254
g48
(g69
g50
NtRp1255
(dp1256
g53
(dp1257
g73
g74
ssg62
g1251
sg55
(lp1258
S'app_folders'
p1259
asbag48
(g69
g50
NtRp1260
(dp1261
g53
(dp1262
g80
g81
ssg62
g1251
sg55
(lp1263
S':'
asbag48
(g69
g50
NtRp1264
(dp1265
g53
(dp1266
sg62
g1251
sg55
(lp1267
g48
(g49
g50
NtRp1268
(dp1269
g53
(dp1270
g61
I4
ssg62
g1264
sg55
(lp1271
S"set(['P:\\\\Workbench\\\\DevEnv\\\\web2py\\\\applications\\\\init\\\\', 'P:\\\\Workbench\\\\DevEnv\\\\web2py\\\\applications\\\\welcome\\\\', 'P:\\\\Workbench\\\\DevEnv\\\\web2py\\\\applications\\\\admin\\\\', 'P:\\\\Workbench\\\\DevEnv\\\\web2py\\\\applications\\\\RecipeApp\\\\', 'P:\\\\Workbench\\\\DevEnv\\\\web2py\\\\applications\\\\examples\\\\'])"
p1272
asbasbasbag48
(g64
g50
NtRp1273
(dp1274
g53
(dp1275
sg62
g1247
sg55
(lp1276
g48
(g69
g50
NtRp1277
(dp1278
g53
(dp1279
g73
g74
ssg62
g1273
sg55
(lp1280
S'applications_parent'
p1281
asbag48
(g69
g50
NtRp1282
(dp1283
g53
(dp1284
g80
g81
ssg62
g1273
sg55
(lp1285
S':'
asbag48
(g69
g50
NtRp1286
(dp1287
g53
(dp1288
sg62
g1273
sg55
(lp1289
g48
(g49
g50
NtRp1290
(dp1291
g53
(dp1292
g61
I4
ssg62
g1286
sg55
(lp1293
S'P:\\Workbench\\DevEnv\\web2py'
p1294
asbasbasbag48
(g64
g50
NtRp1295
(dp1296
g53
(dp1297
sg62
g1247
sg55
(lp1298
g48
(g69
g50
NtRp1299
(dp1300
g53
(dp1301
g73
g74
ssg62
g1295
sg55
(lp1302
S'cmd_args'
p1303
asbag48
(g69
g50
NtRp1304
(dp1305
g53
(dp1306
g80
g81
ssg62
g1295
sg55
(lp1307
S':'
asbag48
(g69
g50
NtRp1308
(dp1309
g53
(dp1310
sg62
g1295
sg55
(lp1311
g48
(g49
g50
NtRp1312
(dp1313
g53
(dp1314
g61
I4
ssg62
g1308
sg55
(lp1315
g48
(g57
g50
NtRp1316
(dp1317
g53
(dp1318
g61
I3
ssg62
Nsg55
(lp1319
sbasbasbasbag48
(g64
g50
NtRp1320
(dp1321
g53
(dp1322
sg62
g1247
sg55
(lp1323
g48
(g69
g50
NtRp1324
(dp1325
g53
(dp1326
g73
g74
ssg62
g1320
sg55
(lp1327
S'cmd_options'
p1328
asbag48
(g69
g50
NtRp1329
(dp1330
g53
(dp1331
g80
g81
ssg62
g1320
sg55
(lp1332
S':'
asbag48
(g69
g50
NtRp1333
(dp1334
g53
(dp1335
sg62
g1320
sg55
(lp1336
g48
(g49
g50
NtRp1337
(dp1338
g53
(dp1339
g61
I4
ssg62
g1333
sg55
(lp1340
S"<Values at 0x38e07b0: {'verbose': False, 'ip': '127.0.0.1', 'shutdown_timeout': 5, 'taskbar': False, 'nocron': False, 'pid_filename': 'httpserver.pid', 'maxthreads': None, 'softcron': False, 'server_name': 'Bishop-PC', 'bpython': False, 'nogui': False, 'port': 8000, 'extcron': False, 'debuglevel': 30, 'test': None, 'folder': 'P:\\\\Workbench\\\\DevEnv\\\\web2py', 'config': '', 'import_models': False, 'winservice': '', 'shell': None, 'run': '', 'log_filename': 'httpserver.log', 'args': [''], 'ssl_ca_certificate': None, 'scheduler': None, 'profiler_filename': None, 'ssl_private_key': '', 'password': '<ask>', 'request_queue_size': 5, 'ssl_certificate': '', 'cronjob': False, 'plain': False, 'quiet': False, 'interfaces': None, 'minthreads': None, 'timeout': 10, 'numthreads': None, 'nobanner': False}>"
p1341
asbasbasbag48
(g64
g50
NtRp1342
(dp1343
g53
(dp1344
sg62
g1247
sg55
(lp1345
g48
(g69
g50
NtRp1346
(dp1347
g53
(dp1348
g73
g74
ssg62
g1342
sg55
(lp1349
S'db_sessions'
p1350
asbag48
(g69
g50
NtRp1351
(dp1352
g53
(dp1353
g80
g81
ssg62
g1342
sg55
(lp1354
S':'
asbag48
(g69
g50
NtRp1355
(dp1356
g53
(dp1357
sg62
g1342
sg55
(lp1358
g48
(g49
g50
NtRp1359
(dp1360
g53
(dp1361
g61
I4
ssg62
g1355
sg55
(lp1362
S'set([])'
p1363
asbasbasbag48
(g64
g50
NtRp1364
(dp1365
g53
(dp1366
sg62
g1247
sg55
(lp1367
g48
(g69
g50
NtRp1368
(dp1369
g53
(dp1370
g73
g74
ssg62
g1364
sg55
(lp1371
S'debugging'
p1372
asbag48
(g69
g50
NtRp1373
(dp1374
g53
(dp1375
g80
g81
ssg62
g1364
sg55
(lp1376
S':'
asbag48
(g69
g50
NtRp1377
(dp1378
g53
(dp1379
sg62
g1364
sg55
(lp1380
g48
(g49
g50
NtRp1381
(dp1382
g53
(dp1383
g61
I4
ssg62
g1377
sg55
(lp1384
g91
asbasbasbag48
(g64
g50
NtRp1385
(dp1386
g53
(dp1387
sg62
g1247
sg55
(lp1388
g48
(g69
g50
NtRp1389
(dp1390
g53
(dp1391
g73
g74
ssg62
g1385
sg55
(lp1392
S'gluon_parent'
p1393
asbag48
(g69
g50
NtRp1394
(dp1395
g53
(dp1396
g80
g81
ssg62
g1385
sg55
(lp1397
S':'
asbag48
(g69
g50
NtRp1398
(dp1399
g53
(dp1400
sg62
g1385
sg55
(lp1401
g48
(g49
g50
NtRp1402
(dp1403
g53
(dp1404
g61
I4
ssg62
g1398
sg55
(lp1405
S'P:\\Workbench\\DevEnv\\web2py'
p1406
asbasbasbag48
(g64
g50
NtRp1407
(dp1408
g53
(dp1409
sg62
g1247
sg55
(lp1410
g48
(g69
g50
NtRp1411
(dp1412
g53
(dp1413
g73
g74
ssg62
g1407
sg55
(lp1414
S'http_accept'
p1415
asbag48
(g69
g50
NtRp1416
(dp1417
g53
(dp1418
g80
g81
ssg62
g1407
sg55
(lp1419
S':'
asbag48
(g69
g50
NtRp1420
(dp1421
g53
(dp1422
sg62
g1407
sg55
(lp1423
g48
(g49
g50
NtRp1424
(dp1425
g53
(dp1426
g61
I4
ssg62
g1420
sg55
(lp1427
S'text/html,application/xhtml+xml,application/xml;q=0.9,*/*;q=0.8'
p1428
asbasbasbag48
(g64
g50
NtRp1429
(dp1430
g53
(dp1431
sg62
g1247
sg55
(lp1432
g48
(g69
g50
NtRp1433
(dp1434
g53
(dp1435
g73
g74
ssg62
g1429
sg55
(lp1436
S'http_accept_charset'
p1437
asbag48
(g69
g50
NtRp1438
(dp1439
g53
(dp1440
g80
g81
ssg62
g1429
sg55
(lp1441
S':'
asbag48
(g69
g50
NtRp1442
(dp1443
g53
(dp1444
sg62
g1429
sg55
(lp1445
g48
(g49
g50
NtRp1446
(dp1447
g53
(dp1448
g61
I4
ssg62
g1442
sg55
(lp1449
S'ISO-8859-1,utf-8;q=0.7,*;q=0.7'
p1450
asbasbasbag48
(g64
g50
NtRp1451
(dp1452
g53
(dp1453
sg62
g1247
sg55
(lp1454
g48
(g69
g50
NtRp1455
(dp1456
g53
(dp1457
g73
g74
ssg62
g1451
sg55
(lp1458
S'http_accept_encoding'
p1459
asbag48
(g69
g50
NtRp1460
(dp1461
g53
(dp1462
g80
g81
ssg62
g1451
sg55
(lp1463
S':'
asbag48
(g69
g50
NtRp1464
(dp1465
g53
(dp1466
sg62
g1451
sg55
(lp1467
g48
(g49
g50
NtRp1468
(dp1469
g53
(dp1470
g61
I4
ssg62
g1464
sg55
(lp1471
S'gzip,deflate'
p1472
asbasbasbag48
(g64
g50
NtRp1473
(dp1474
g53
(dp1475
sg62
g1247
sg55
(lp1476
g48
(g69
g50
NtRp1477
(dp1478
g53
(dp1479
g73
g74
ssg62
g1473
sg55
(lp1480
S'http_accept_language'
p1481
asbag48
(g69
g50
NtRp1482
(dp1483
g53
(dp1484
g80
g81
ssg62
g1473
sg55
(lp1485
S':'
asbag48
(g69
g50
NtRp1486
(dp1487
g53
(dp1488
sg62
g1473
sg55
(lp1489
g48
(g49
g50
NtRp1490
(dp1491
g53
(dp1492
g61
I4
ssg62
g1486
sg55
(lp1493
S'en-us,en;q=0.5'
p1494
asbasbasbag48
(g64
g50
NtRp1495
(dp1496
g53
(dp1497
sg62
g1247
sg55
(lp1498
g48
(g69
g50
NtRp1499
(dp1500
g53
(dp1501
g73
g74
ssg62
g1495
sg55
(lp1502
S'http_connection'
p1503
asbag48
(g69
g50
NtRp1504
(dp1505
g53
(dp1506
g80
g81
ssg62
g1495
sg55
(lp1507
S':'
asbag48
(g69
g50
NtRp1508
(dp1509
g53
(dp1510
sg62
g1495
sg55
(lp1511
g48
(g49
g50
NtRp1512
(dp1513
g53
(dp1514
g61
I4
ssg62
g1508
sg55
(lp1515
S'keep-alive'
p1516
asbasbasbag48
(g64
g50
NtRp1517
(dp1518
g53
(dp1519
sg62
g1247
sg55
(lp1520
g48
(g69
g50
NtRp1521
(dp1522
g53
(dp1523
g73
g74
ssg62
g1517
sg55
(lp1524
S'http_cookie'
p1525
asbag48
(g69
g50
NtRp1526
(dp1527
g53
(dp1528
g80
g81
ssg62
g1517
sg55
(lp1529
S':'
asbag48
(g69
g50
NtRp1530
(dp1531
g53
(dp1532
sg62
g1517
sg55
(lp1533
g48
(g49
g50
NtRp1534
(dp1535
g53
(dp1536
g61
I4
ssg62
g1530
sg55
(lp1537
S'__utma_a2a=4518867300.1350888199.1319331273.1319375111.1319375111.5; session_id_welcome=127.0.0.1-1c8a66eb-aca4-45bc-b3aa-6398dc39c9e2; session_id_admin=127.0.0.1-a3a197fc-7807-4f8d-981d-b450c8cb33e4; session_id_fitnessfriends=127.0.0.1-f9472285-2ac4-4db2-b544-090801b27d20; session_id_recipeapp=127.0.0.1-04cb37b8-d078-45b4-9b40-40bec035696f; session_id_init=127.0.0.1-b664747d-5a4d-45cc-a1d2-dd0447ed1e85; session_id_examples=127.0.0.1-8a4061d3-ecf6-4e47-84a6-89933c44d5c6'
p1538
asbasbasbag48
(g64
g50
NtRp1539
(dp1540
g53
(dp1541
sg62
g1247
sg55
(lp1542
g48
(g69
g50
NtRp1543
(dp1544
g53
(dp1545
g73
g74
ssg62
g1539
sg55
(lp1546
S'http_host'
p1547
asbag48
(g69
g50
NtRp1548
(dp1549
g53
(dp1550
g80
g81
ssg62
g1539
sg55
(lp1551
S':'
asbag48
(g69
g50
NtRp1552
(dp1553
g53
(dp1554
sg62
g1539
sg55
(lp1555
g48
(g49
g50
NtRp1556
(dp1557
g53
(dp1558
g61
I4
ssg62
g1552
sg55
(lp1559
S'127.0.0.1:8000'
p1560
asbasbasbag48
(g64
g50
NtRp1561
(dp1562
g53
(dp1563
sg62
g1247
sg55
(lp1564
g48
(g69
g50
NtRp1565
(dp1566
g53
(dp1567
g73
g74
ssg62
g1561
sg55
(lp1568
S'http_keep_alive'
p1569
asbag48
(g69
g50
NtRp1570
(dp1571
g53
(dp1572
g80
g81
ssg62
g1561
sg55
(lp1573
S':'
asbag48
(g69
g50
NtRp1574
(dp1575
g53
(dp1576
sg62
g1561
sg55
(lp1577
g48
(g49
g50
NtRp1578
(dp1579
g53
(dp1580
g61
I4
ssg62
g1574
sg55
(lp1581
S'115'
p1582
asbasbasbag48
(g64
g50
NtRp1583
(dp1584
g53
(dp1585
sg62
g1247
sg55
(lp1586
g48
(g69
g50
NtRp1587
(dp1588
g53
(dp1589
g73
g74
ssg62
g1583
sg55
(lp1590
S'http_user_agent'
p1591
asbag48
(g69
g50
NtRp1592
(dp1593
g53
(dp1594
g80
g81
ssg62
g1583
sg55
(lp1595
S':'
asbag48
(g69
g50
NtRp1596
(dp1597
g53
(dp1598
sg62
g1583
sg55
(lp1599
g48
(g49
g50
NtRp1600
(dp1601
g53
(dp1602
g61
I4
ssg62
g1596
sg55
(lp1603
S'Mozilla/5.0 (Windows; U; Windows NT 6.1; en-US; rv:1.9.2.23) Gecko/20110920 Firefox/3.6.23'
p1604
asbasbasbag48
(g64
g50
NtRp1605
(dp1606
g53
(dp1607
sg62
g1247
sg55
(lp1608
g48
(g69
g50
NtRp1609
(dp1610
g53
(dp1611
g73
g74
ssg62
g1605
sg55
(lp1612
S'is_jython'
p1613
asbag48
(g69
g50
NtRp1614
(dp1615
g53
(dp1616
g80
g81
ssg62
g1605
sg55
(lp1617
S':'
asbag48
(g69
g50
NtRp1618
(dp1619
g53
(dp1620
sg62
g1605
sg55
(lp1621
g48
(g49
g50
NtRp1622
(dp1623
g53
(dp1624
g61
I4
ssg62
g1618
sg55
(lp1625
g91
asbasbasbag48
(g64
g50
NtRp1626
(dp1627
g53
(dp1628
sg62
g1247
sg55
(lp1629
g48
(g69
g50
NtRp1630
(dp1631
g53
(dp1632
g73
g74
ssg62
g1626
sg55
(lp1633
S'path_info'
p1634
asbag48
(g69
g50
NtRp1635
(dp1636
g53
(dp1637
g80
g81
ssg62
g1626
sg55
(lp1638
S':'
asbag48
(g69
g50
NtRp1639
(dp1640
g53
(dp1641
sg62
g1626
sg55
(lp1642
g48
(g49
g50
NtRp1643
(dp1644
g53
(dp1645
g61
I4
ssg62
g1639
sg55
(lp1646
S'/'
asbasbasbag48
(g64
g50
NtRp1647
(dp1648
g53
(dp1649
sg62
g1247
sg55
(lp1650
g48
(g69
g50
NtRp1651
(dp1652
g53
(dp1653
g73
g74
ssg62
g1647
sg55
(lp1654
S'query_string'
p1655
asbag48
(g69
g50
NtRp1656
(dp1657
g53
(dp1658
g80
g81
ssg62
g1647
sg55
(lp1659
S':'
asbag48
(g69
g50
NtRp1660
(dp1661
g53
(dp1662
sg62
g1647
sg55
(lp1663
g48
(g49
g50
NtRp1664
(dp1665
g53
(dp1666
g61
I4
ssg62
g1660
sg55
(lp1667
S''
asbasbasbag48
(g64
g50
NtRp1668
(dp1669
g53
(dp1670
sg62
g1247
sg55
(lp1671
g48
(g69
g50
NtRp1672
(dp1673
g53
(dp1674
g73
g74
ssg62
g1668
sg55
(lp1675
S'remote_addr'
p1676
asbag48
(g69
g50
NtRp1677
(dp1678
g53
(dp1679
g80
g81
ssg62
g1668
sg55
(lp1680
S':'
asbag48
(g69
g50
NtRp1681
(dp1682
g53
(dp1683
sg62
g1668
sg55
(lp1684
g48
(g49
g50
NtRp1685
(dp1686
g53
(dp1687
g61
I4
ssg62
g1681
sg55
(lp1688
g181
asbasbasbag48
(g64
g50
NtRp1689
(dp1690
g53
(dp1691
sg62
g1247
sg55
(lp1692
g48
(g69
g50
NtRp1693
(dp1694
g53
(dp1695
g73
g74
ssg62
g1689
sg55
(lp1696
S'remote_port'
p1697
asbag48
(g69
g50
NtRp1698
(dp1699
g53
(dp1700
g80
g81
ssg62
g1689
sg55
(lp1701
S':'
asbag48
(g69
g50
NtRp1702
(dp1703
g53
(dp1704
sg62
g1689
sg55
(lp1705
g48
(g49
g50
NtRp1706
(dp1707
g53
(dp1708
g61
I4
ssg62
g1702
sg55
(lp1709
S'49963'
p1710
asbasbasbag48
(g64
g50
NtRp1711
(dp1712
g53
(dp1713
sg62
g1247
sg55
(lp1714
g48
(g69
g50
NtRp1715
(dp1716
g53
(dp1717
g73
g74
ssg62
g1711
sg55
(lp1718
S'request_method'
p1719
asbag48
(g69
g50
NtRp1720
(dp1721
g53
(dp1722
g80
g81
ssg62
g1711
sg55
(lp1723
S':'
asbag48
(g69
g50
NtRp1724
(dp1725
g53
(dp1726
sg62
g1711
sg55
(lp1727
g48
(g49
g50
NtRp1728
(dp1729
g53
(dp1730
g61
I4
ssg62
g1724
sg55
(lp1731
S'GET'
p1732
asbasbasbag48
(g64
g50
NtRp1733
(dp1734
g53
(dp1735
sg62
g1247
sg55
(lp1736
g48
(g69
g50
NtRp1737
(dp1738
g53
(dp1739
g73
g74
ssg62
g1733
sg55
(lp1740
S'script_name'
p1741
asbag48
(g69
g50
NtRp1742
(dp1743
g53
(dp1744
g80
g81
ssg62
g1733
sg55
(lp1745
S':'
asbag48
(g69
g50
NtRp1746
(dp1747
g53
(dp1748
sg62
g1733
sg55
(lp1749
g48
(g49
g50
NtRp1750
(dp1751
g53
(dp1752
g61
I4
ssg62
g1746
sg55
(lp1753
S''
asbasbasbag48
(g64
g50
NtRp1754
(dp1755
g53
(dp1756
sg62
g1247
sg55
(lp1757
g48
(g69
g50
NtRp1758
(dp1759
g53
(dp1760
g73
g74
ssg62
g1754
sg55
(lp1761
S'server_name'
p1762
asbag48
(g69
g50
NtRp1763
(dp1764
g53
(dp1765
g80
g81
ssg62
g1754
sg55
(lp1766
S':'
asbag48
(g69
g50
NtRp1767
(dp1768
g53
(dp1769
sg62
g1754
sg55
(lp1770
g48
(g49
g50
NtRp1771
(dp1772
g53
(dp1773
g61
I4
ssg62
g1767
sg55
(lp1774
S'Bishop-PC'
p1775
asbasbasbag48
(g64
g50
NtRp1776
(dp1777
g53
(dp1778
sg62
g1247
sg55
(lp1779
g48
(g69
g50
NtRp1780
(dp1781
g53
(dp1782
g73
g74
ssg62
g1776
sg55
(lp1783
S'server_port'
p1784
asbag48
(g69
g50
NtRp1785
(dp1786
g53
(dp1787
g80
g81
ssg62
g1776
sg55
(lp1788
S':'
asbag48
(g69
g50
NtRp1789
(dp1790
g53
(dp1791
sg62
g1776
sg55
(lp1792
g48
(g49
g50
NtRp1793
(dp1794
g53
(dp1795
g61
I4
ssg62
g1789
sg55
(lp1796
S'8000'
p1797
asbasbasbag48
(g64
g50
NtRp1798
(dp1799
g53
(dp1800
sg62
g1247
sg55
(lp1801
g48
(g69
g50
NtRp1802
(dp1803
g53
(dp1804
g73
g74
ssg62
g1798
sg55
(lp1805
S'server_protocol'
p1806
asbag48
(g69
g50
NtRp1807
(dp1808
g53
(dp1809
g80
g81
ssg62
g1798
sg55
(lp1810
S':'
asbag48
(g69
g50
NtRp1811
(dp1812
g53
(dp1813
sg62
g1798
sg55
(lp1814
g48
(g49
g50
NtRp1815
(dp1816
g53
(dp1817
g61
I4
ssg62
g1811
sg55
(lp1818
S'HTTP/1.1'
p1819
asbasbasbag48
(g64
g50
NtRp1820
(dp1821
g53
(dp1822
sg62
g1247
sg55
(lp1823
g48
(g69
g50
NtRp1824
(dp1825
g53
(dp1826
g73
g74
ssg62
g1820
sg55
(lp1827
S'server_software'
p1828
asbag48
(g69
g50
NtRp1829
(dp1830
g53
(dp1831
g80
g81
ssg62
g1820
sg55
(lp1832
S':'
asbag48
(g69
g50
NtRp1833
(dp1834
g53
(dp1835
sg62
g1820
sg55
(lp1836
g48
(g49
g50
NtRp1837
(dp1838
g53
(dp1839
g61
I4
ssg62
g1833
sg55
(lp1840
S'Rocket 1.2.4'
p1841
asbasbasbag48
(g64
g50
NtRp1842
(dp1843
g53
(dp1844
sg62
g1247
sg55
(lp1845
g48
(g69
g50
NtRp1846
(dp1847
g53
(dp1848
g73
g74
ssg62
g1842
sg55
(lp1849
S'web2py_crontype'
p1850
asbag48
(g69
g50
NtRp1851
(dp1852
g53
(dp1853
g80
g81
ssg62
g1842
sg55
(lp1854
S':'
asbag48
(g69
g50
NtRp1855
(dp1856
g53
(dp1857
sg62
g1842
sg55
(lp1858
g48
(g49
g50
NtRp1859
(dp1860
g53
(dp1861
g61
I4
ssg62
g1855
sg55
(lp1862
S'hard'
p1863
asbasbasbag48
(g64
g50
NtRp1864
(dp1865
g53
(dp1866
sg62
g1247
sg55
(lp1867
g48
(g69
g50
NtRp1868
(dp1869
g53
(dp1870
g73
g74
ssg62
g1864
sg55
(lp1871
S'web2py_path'
p1872
asbag48
(g69
g50
NtRp1873
(dp1874
g53
(dp1875
g80
g81
ssg62
g1864
sg55
(lp1876
S':'
asbag48
(g69
g50
NtRp1877
(dp1878
g53
(dp1879
sg62
g1864
sg55
(lp1880
g48
(g49
g50
NtRp1881
(dp1882
g53
(dp1883
g61
I4
ssg62
g1877
sg55
(lp1884
g1294
asbasbasbag48
(g64
g50
NtRp1885
(dp1886
g53
(dp1887
sg62
g1247
sg55
(lp1888
g48
(g69
g50
NtRp1889
(dp1890
g53
(dp1891
g73
g74
ssg62
g1885
sg55
(lp1892
S'web2py_version'
p1893
asbag48
(g69
g50
NtRp1894
(dp1895
g53
(dp1896
g80
g81
ssg62
g1885
sg55
(lp1897
S':'
asbag48
(g69
g50
NtRp1898
(dp1899
g53
(dp1900
sg62
g1885
sg55
(lp1901
g48
(g49
g50
NtRp1902
(dp1903
g53
(dp1904
g61
I4
ssg62
g1898
sg55
(lp1905
g48
(g57
g50
NtRp1906
(dp1907
g53
(dp1908
g61
I3
ssg62
Nsg55
(lp1909
g48
(g64
g50
NtRp1910
(dp1911
g53
(dp1912
sg62
g1906
sg55
(lp1913
g48
(g69
g50
NtRp1914
(dp1915
g53
(dp1916
sg62
g1910
sg55
(lp1917
g48
(g49
g50
NtRp1918
(dp1919
g53
(dp1920
g61
I3
ssg62
g1914
sg55
(lp1921
S'1'
asbasbasbag48
(g64
g50
NtRp1922
(dp1923
g53
(dp1924
sg62
g1906
sg55
(lp1925
g48
(g69
g50
NtRp1926
(dp1927
g53
(dp1928
sg62
g1922
sg55
(lp1929
g48
(g49
g50
NtRp1930
(dp1931
g53
(dp1932
g61
I3
ssg62
g1926
sg55
(lp1933
S'99'
p1934
asbasbasbag48
(g64
g50
NtRp1935
(dp1936
g53
(dp1937
sg62
g1906
sg55
(lp1938
g48
(g69
g50
NtRp1939
(dp1940
g53
(dp1941
sg62
g1935
sg55
(lp1942
g48
(g49
g50
NtRp1943
(dp1944
g53
(dp1945
g61
I3
ssg62
g1939
sg55
(lp1946
S'2'
asbasbasbag48
(g64
g50
NtRp1947
(dp1948
g53
(dp1949
sg62
g1906
sg55
(lp1950
g48
(g69
g50
NtRp1951
(dp1952
g53
(dp1953
sg62
g1947
sg55
(lp1954
g48
(g49
g50
NtRp1955
(dp1956
g53
(dp1957
g61
I3
ssg62
g1951
sg55
(lp1958
S'datetime.datetime(2011, 9, 26, 6, 55, 33)'
p1959
asbasbasbag48
(g64
g50
NtRp1960
(dp1961
g53
(dp1962
sg62
g1906
sg55
(lp1963
g48
(g69
g50
NtRp1964
(dp1965
g53
(dp1966
sg62
g1960
sg55
(lp1967
g48
(g49
g50
NtRp1968
(dp1969
g53
(dp1970
g61
I3
ssg62
g1964
sg55
(lp1971
S'stable'
p1972
asbasbasbasbasbasbasbag48
(g64
g50
NtRp1973
(dp1974
g53
(dp1975
sg62
g1247
sg55
(lp1976
g48
(g69
g50
NtRp1977
(dp1978
g53
(dp1979
g73
g74
ssg62
g1973
sg55
(lp1980
S'wsgi_errors'
p1981
asbag48
(g69
g50
NtRp1982
(dp1983
g53
(dp1984
g80
g81
ssg62
g1973
sg55
(lp1985
S':'
asbag48
(g69
g50
NtRp1986
(dp1987
g53
(dp1988
sg62
g1973
sg55
(lp1989
g48
(g49
g50
NtRp1990
(dp1991
g53
(dp1992
g61
I4
ssg62
g1986
sg55
(lp1993
S"<open file '<stderr>', mode 'w' at 0x01EC00B0>"
p1994
asbasbasbag48
(g64
g50
NtRp1995
(dp1996
g53
(dp1997
sg62
g1247
sg55
(lp1998
g48
(g69
g50
NtRp1999
(dp2000
g53
(dp2001
g73
g74
ssg62
g1995
sg55
(lp2002
S'wsgi_file_wrapper'
p2003
asbag48
(g69
g50
NtRp2004
(dp2005
g53
(dp2006
g80
g81
ssg62
g1995
sg55
(lp2007
S':'
asbag48
(g69
g50
NtRp2008
(dp2009
g53
(dp2010
sg62
g1995
sg55
(lp2011
g48
(g49
g50
NtRp2012
(dp2013
g53
(dp2014
g61
I4
ssg62
g2008
sg55
(lp2015
S'<class wsgiref.util.FileWrapper at 0x02A93FC0>'
p2016
asbasbasbag48
(g64
g50
NtRp2017
(dp2018
g53
(dp2019
sg62
g1247
sg55
(lp2020
g48
(g69
g50
NtRp2021
(dp2022
g53
(dp2023
g73
g74
ssg62
g2017
sg55
(lp2024
S'wsgi_input'
p2025
asbag48
(g69
g50
NtRp2026
(dp2027
g53
(dp2028
g80
g81
ssg62
g2017
sg55
(lp2029
S':'
asbag48
(g69
g50
NtRp2030
(dp2031
g53
(dp2032
sg62
g2017
sg55
(lp2033
g48
(g49
g50
NtRp2034
(dp2035
g53
(dp2036
g61
I4
ssg62
g2030
sg55
(lp2037
S'<socket._fileobject object at 0x03F09C70>'
p2038
asbasbasbag48
(g64
g50
NtRp2039
(dp2040
g53
(dp2041
sg62
g1247
sg55
(lp2042
g48
(g69
g50
NtRp2043
(dp2044
g53
(dp2045
g73
g74
ssg62
g2039
sg55
(lp2046
S'wsgi_multiprocess'
p2047
asbag48
(g69
g50
NtRp2048
(dp2049
g53
(dp2050
g80
g81
ssg62
g2039
sg55
(lp2051
S':'
asbag48
(g69
g50
NtRp2052
(dp2053
g53
(dp2054
sg62
g2039
sg55
(lp2055
g48
(g49
g50
NtRp2056
(dp2057
g53
(dp2058
g61
I4
ssg62
g2052
sg55
(lp2059
g91
asbasbasbag48
(g64
g50
NtRp2060
(dp2061
g53
(dp2062
sg62
g1247
sg55
(lp2063
g48
(g69
g50
NtRp2064
(dp2065
g53
(dp2066
g73
g74
ssg62
g2060
sg55
(lp2067
S'wsgi_multithread'
p2068
asbag48
(g69
g50
NtRp2069
(dp2070
g53
(dp2071
g80
g81
ssg62
g2060
sg55
(lp2072
S':'
asbag48
(g69
g50
NtRp2073
(dp2074
g53
(dp2075
sg62
g2060
sg55
(lp2076
g48
(g49
g50
NtRp2077
(dp2078
g53
(dp2079
g61
I4
ssg62
g2073
sg55
(lp2080
S'True'
p2081
asbasbasbag48
(g64
g50
NtRp2082
(dp2083
g53
(dp2084
sg62
g1247
sg55
(lp2085
g48
(g69
g50
NtRp2086
(dp2087
g53
(dp2088
g73
g74
ssg62
g2082
sg55
(lp2089
S'wsgi_run_once'
p2090
asbag48
(g69
g50
NtRp2091
(dp2092
g53
(dp2093
g80
g81
ssg62
g2082
sg55
(lp2094
S':'
asbag48
(g69
g50
NtRp2095
(dp2096
g53
(dp2097
sg62
g2082
sg55
(lp2098
g48
(g49
g50
NtRp2099
(dp2100
g53
(dp2101
g61
I4
ssg62
g2095
sg55
(lp2102
g91
asbasbasbag48
(g64
g50
NtRp2103
(dp2104
g53
(dp2105
sg62
g1247
sg55
(lp2106
g48
(g69
g50
NtRp2107
(dp2108
g53
(dp2109
g73
g74
ssg62
g2103
sg55
(lp2110
S'wsgi_url_scheme'
p2111
asbag48
(g69
g50
NtRp2112
(dp2113
g53
(dp2114
g80
g81
ssg62
g2103
sg55
(lp2115
S':'
asbag48
(g69
g50
NtRp2116
(dp2117
g53
(dp2118
sg62
g2103
sg55
(lp2119
g48
(g49
g50
NtRp2120
(dp2121
g53
(dp2122
g61
I4
ssg62
g2116
sg55
(lp2123
S'http'
p2124
asbasbasbag48
(g64
g50
NtRp2125
(dp2126
g53
(dp2127
sg62
g1247
sg55
(lp2128
g48
(g69
g50
NtRp2129
(dp2130
g53
(dp2131
g73
g74
ssg62
g2125
sg55
(lp2132
S'wsgi_version'
p2133
asbag48
(g69
g50
NtRp2134
(dp2135
g53
(dp2136
g80
g81
ssg62
g2125
sg55
(lp2137
S':'
asbag48
(g69
g50
NtRp2138
(dp2139
g53
(dp2140
sg62
g2125
sg55
(lp2141
g48
(g49
g50
NtRp2142
(dp2143
g53
(dp2144
g61
I4
ssg62
g2138
sg55
(lp2145
g48
(g57
g50
NtRp2146
(dp2147
g53
(dp2148
g61
I3
ssg62
Nsg55
(lp2149
g48
(g64
g50
NtRp2150
(dp2151
g53
(dp2152
sg62
g2146
sg55
(lp2153
g48
(g69
g50
NtRp2154
(dp2155
g53
(dp2156
sg62
g2150
sg55
(lp2157
g48
(g49
g50
NtRp2158
(dp2159
g53
(dp2160
g61
I3
ssg62
g2154
sg55
(lp2161
S'1'
asbasbasbag48
(g64
g50
NtRp2162
(dp2163
g53
(dp2164
sg62
g2146
sg55
(lp2165
g48
(g69
g50
NtRp2166
(dp2167
g53
(dp2168
sg62
g2162
sg55
(lp2169
g48
(g49
g50
NtRp2170
(dp2171
g53
(dp2172
g61
I3
ssg62
g2166
sg55
(lp2173
S'0'
asbasbasbasbasbasbasbasbasbasbasbag48
(g64
g50
NtRp2174
(dp2175
g53
(dp2176
sg62
g58
sg55
(lp2177
g48
(g69
g50
NtRp2178
(dp2179
g53
(dp2180
g73
g74
ssg62
g2174
sg55
(lp2181
S'extension'
p2182
asbag48
(g69
g50
NtRp2183
(dp2184
g53
(dp2185
g80
g81
ssg62
g2174
sg55
(lp2186
S':'
asbag48
(g69
g50
NtRp2187
(dp2188
g53
(dp2189
sg62
g2174
sg55
(lp2190
g48
(g49
g50
NtRp2191
(dp2192
g53
(dp2193
g61
I5
ssg62
g2187
sg55
(lp2194
S'html'
p2195
asbasbasbag48
(g64
g50
NtRp2196
(dp2197
g53
(dp2198
sg62
g58
sg55
(lp2199
g48
(g69
g50
NtRp2200
(dp2201
g53
(dp2202
g73
g74
ssg62
g2196
sg55
(lp2203
S'folder'
p2204
asbag48
(g69
g50
NtRp2205
(dp2206
g53
(dp2207
g80
g81
ssg62
g2196
sg55
(lp2208
S':'
asbag48
(g69
g50
NtRp2209
(dp2210
g53
(dp2211
sg62
g2196
sg55
(lp2212
g48
(g49
g50
NtRp2213
(dp2214
g53
(dp2215
g61
I5
ssg62
g2209
sg55
(lp2216
S'P:\\Workbench\\DevEnv\\web2py\\applications\\init\\'
p2217
asbasbasbag48
(g64
g50
NtRp2218
(dp2219
g53
(dp2220
sg62
g58
sg55
(lp2221
g48
(g69
g50
NtRp2222
(dp2223
g53
(dp2224
g73
g74
ssg62
g2218
sg55
(lp2225
S'function'
p2226
asbag48
(g69
g50
NtRp2227
(dp2228
g53
(dp2229
g80
g81
ssg62
g2218
sg55
(lp2230
S':'
asbag48
(g69
g50
NtRp2231
(dp2232
g53
(dp2233
sg62
g2218
sg55
(lp2234
g48
(g49
g50
NtRp2235
(dp2236
g53
(dp2237
g61
I5
ssg62
g2231
sg55
(lp2238
S'index'
p2239
asbasbasbag48
(g64
g50
NtRp2240
(dp2241
g53
(dp2242
sg62
g58
sg55
(lp2243
g48
(g69
g50
NtRp2244
(dp2245
g53
(dp2246
g73
g74
ssg62
g2240
sg55
(lp2247
S'get_vars'
p2248
asbag48
(g69
g50
NtRp2249
(dp2250
g53
(dp2251
g80
g81
ssg62
g2240
sg55
(lp2252
S':'
asbag48
(g69
g50
NtRp2253
(dp2254
g53
(dp2255
sg62
g2240
sg55
(lp2256
g48
(g49
g50
NtRp2257
(dp2258
g53
(dp2259
g61
I5
ssg62
g2253
sg55
(lp2260
g48
(g57
g50
NtRp2261
(dp2262
g53
(dp2263
g61
I4
ssg62
Nsg55
(lp2264
sbasbasbasbag48
(g64
g50
NtRp2265
(dp2266
g53
(dp2267
sg62
g58
sg55
(lp2268
g48
(g69
g50
NtRp2269
(dp2270
g53
(dp2271
g73
g74
ssg62
g2265
sg55
(lp2272
S'global_settings'
p2273
asbag48
(g69
g50
NtRp2274
(dp2275
g53
(dp2276
g80
g81
ssg62
g2265
sg55
(lp2277
S':'
asbag48
(g69
g50
NtRp2278
(dp2279
g53
(dp2280
sg62
g2265
sg55
(lp2281
g48
(g49
g50
NtRp2282
(dp2283
g53
(dp2284
g61
I5
ssg62
g2278
sg55
(lp2285
g48
(g57
g50
NtRp2286
(dp2287
g53
(dp2288
g61
I4
ssg62
Nsg55
(lp2289
g48
(g64
g50
NtRp2290
(dp2291
g53
(dp2292
sg62
g2286
sg55
(lp2293
g48
(g69
g50
NtRp2294
(dp2295
g53
(dp2296
g73
g74
ssg62
g2290
sg55
(lp2297
g1259
asbag48
(g69
g50
NtRp2298
(dp2299
g53
(dp2300
g80
g81
ssg62
g2290
sg55
(lp2301
S':'
asbag48
(g69
g50
NtRp2302
(dp2303
g53
(dp2304
sg62
g2290
sg55
(lp2305
g48
(g49
g50
NtRp2306
(dp2307
g53
(dp2308
g61
I4
ssg62
g2302
sg55
(lp2309
S"set(['P:\\\\Workbench\\\\DevEnv\\\\web2py\\\\applications\\\\init\\\\', 'P:\\\\Workbench\\\\DevEnv\\\\web2py\\\\applications\\\\welcome\\\\', 'P:\\\\Workbench\\\\DevEnv\\\\web2py\\\\applications\\\\admin\\\\', 'P:\\\\Workbench\\\\DevEnv\\\\web2py\\\\applications\\\\RecipeApp\\\\', 'P:\\\\Workbench\\\\DevEnv\\\\web2py\\\\applications\\\\examples\\\\'])"
p2310
asbasbasbag48
(g64
g50
NtRp2311
(dp2312
g53
(dp2313
sg62
g2286
sg55
(lp2314
g48
(g69
g50
NtRp2315
(dp2316
g53
(dp2317
g73
g74
ssg62
g2311
sg55
(lp2318
g1281
asbag48
(g69
g50
NtRp2319
(dp2320
g53
(dp2321
g80
g81
ssg62
g2311
sg55
(lp2322
S':'
asbag48
(g69
g50
NtRp2323
(dp2324
g53
(dp2325
sg62
g2311
sg55
(lp2326
g48
(g49
g50
NtRp2327
(dp2328
g53
(dp2329
g61
I4
ssg62
g2323
sg55
(lp2330
g1294
asbasbasbag48
(g64
g50
NtRp2331
(dp2332
g53
(dp2333
sg62
g2286
sg55
(lp2334
g48
(g69
g50
NtRp2335
(dp2336
g53
(dp2337
g73
g74
ssg62
g2331
sg55
(lp2338
g1303
asbag48
(g69
g50
NtRp2339
(dp2340
g53
(dp2341
g80
g81
ssg62
g2331
sg55
(lp2342
S':'
asbag48
(g69
g50
NtRp2343
(dp2344
g53
(dp2345
sg62
g2331
sg55
(lp2346
g48
(g49
g50
NtRp2347
(dp2348
g53
(dp2349
g61
I4
ssg62
g2343
sg55
(lp2350
g48
(g57
g50
NtRp2351
(dp2352
g53
(dp2353
g61
I3
ssg62
Nsg55
(lp2354
sbasbasbasbag48
(g64
g50
NtRp2355
(dp2356
g53
(dp2357
sg62
g2286
sg55
(lp2358
g48
(g69
g50
NtRp2359
(dp2360
g53
(dp2361
g73
g74
ssg62
g2355
sg55
(lp2362
g1328
asbag48
(g69
g50
NtRp2363
(dp2364
g53
(dp2365
g80
g81
ssg62
g2355
sg55
(lp2366
S':'
asbag48
(g69
g50
NtRp2367
(dp2368
g53
(dp2369
sg62
g2355
sg55
(lp2370
g48
(g49
g50
NtRp2371
(dp2372
g53
(dp2373
g61
I4
ssg62
g2367
sg55
(lp2374
S"<Values at 0x38e07b0: {'verbose': False, 'ip': '127.0.0.1', 'shutdown_timeout': 5, 'taskbar': False, 'nocron': False, 'pid_filename': 'httpserver.pid', 'maxthreads': None, 'softcron': False, 'server_name': 'Bishop-PC', 'bpython': False, 'nogui': False, 'port': 8000, 'extcron': False, 'debuglevel': 30, 'test': None, 'folder': 'P:\\\\Workbench\\\\DevEnv\\\\web2py', 'config': '', 'import_models': False, 'winservice': '', 'shell': None, 'run': '', 'log_filename': 'httpserver.log', 'args': [''], 'ssl_ca_certificate': None, 'scheduler': None, 'profiler_filename': None, 'ssl_private_key': '', 'password': '<ask>', 'request_queue_size': 5, 'ssl_certificate': '', 'cronjob': False, 'plain': False, 'quiet': False, 'interfaces': None, 'minthreads': None, 'timeout': 10, 'numthreads': None, 'nobanner': False}>"
p2375
asbasbasbag48
(g64
g50
NtRp2376
(dp2377
g53
(dp2378
sg62
g2286
sg55
(lp2379
g48
(g69
g50
NtRp2380
(dp2381
g53
(dp2382
g73
g74
ssg62
g2376
sg55
(lp2383
g1350
asbag48
(g69
g50
NtRp2384
(dp2385
g53
(dp2386
g80
g81
ssg62
g2376
sg55
(lp2387
S':'
asbag48
(g69
g50
NtRp2388
(dp2389
g53
(dp2390
sg62
g2376
sg55
(lp2391
g48
(g49
g50
NtRp2392
(dp2393
g53
(dp2394
g61
I4
ssg62
g2388
sg55
(lp2395
S'set([])'
p2396
asbasbasbag48
(g64
g50
NtRp2397
(dp2398
g53
(dp2399
sg62
g2286
sg55
(lp2400
g48
(g69
g50
NtRp2401
(dp2402
g53
(dp2403
g73
g74
ssg62
g2397
sg55
(lp2404
g1372
asbag48
(g69
g50
NtRp2405
(dp2406
g53
(dp2407
g80
g81
ssg62
g2397
sg55
(lp2408
S':'
asbag48
(g69
g50
NtRp2409
(dp2410
g53
(dp2411
sg62
g2397
sg55
(lp2412
g48
(g49
g50
NtRp2413
(dp2414
g53
(dp2415
g61
I4
ssg62
g2409
sg55
(lp2416
g91
asbasbasbag48
(g64
g50
NtRp2417
(dp2418
g53
(dp2419
sg62
g2286
sg55
(lp2420
g48
(g69
g50
NtRp2421
(dp2422
g53
(dp2423
g73
g74
ssg62
g2417
sg55
(lp2424
g1393
asbag48
(g69
g50
NtRp2425
(dp2426
g53
(dp2427
g80
g81
ssg62
g2417
sg55
(lp2428
S':'
asbag48
(g69
g50
NtRp2429
(dp2430
g53
(dp2431
sg62
g2417
sg55
(lp2432
g48
(g49
g50
NtRp2433
(dp2434
g53
(dp2435
g61
I4
ssg62
g2429
sg55
(lp2436
g1406
asbasbasbag48
(g64
g50
NtRp2437
(dp2438
g53
(dp2439
sg62
g2286
sg55
(lp2440
g48
(g69
g50
NtRp2441
(dp2442
g53
(dp2443
g73
g74
ssg62
g2437
sg55
(lp2444
g1613
asbag48
(g69
g50
NtRp2445
(dp2446
g53
(dp2447
g80
g81
ssg62
g2437
sg55
(lp2448
S':'
asbag48
(g69
g50
NtRp2449
(dp2450
g53
(dp2451
sg62
g2437
sg55
(lp2452
g48
(g49
g50
NtRp2453
(dp2454
g53
(dp2455
g61
I4
ssg62
g2449
sg55
(lp2456
g91
asbasbasbag48
(g64
g50
NtRp2457
(dp2458
g53
(dp2459
sg62
g2286
sg55
(lp2460
g48
(g69
g50
NtRp2461
(dp2462
g53
(dp2463
g73
g74
ssg62
g2457
sg55
(lp2464
g1850
asbag48
(g69
g50
NtRp2465
(dp2466
g53
(dp2467
g80
g81
ssg62
g2457
sg55
(lp2468
S':'
asbag48
(g69
g50
NtRp2469
(dp2470
g53
(dp2471
sg62
g2457
sg55
(lp2472
g48
(g49
g50
NtRp2473
(dp2474
g53
(dp2475
g61
I4
ssg62
g2469
sg55
(lp2476
g1863
asbasbasbag48
(g64
g50
NtRp2477
(dp2478
g53
(dp2479
sg62
g2286
sg55
(lp2480
g48
(g69
g50
NtRp2481
(dp2482
g53
(dp2483
g73
g74
ssg62
g2477
sg55
(lp2484
g1893
asbag48
(g69
g50
NtRp2485
(dp2486
g53
(dp2487
g80
g81
ssg62
g2477
sg55
(lp2488
S':'
asbag48
(g69
g50
NtRp2489
(dp2490
g53
(dp2491
sg62
g2477
sg55
(lp2492
g48
(g49
g50
NtRp2493
(dp2494
g53
(dp2495
g61
I4
ssg62
g2489
sg55
(lp2496
g48
(g57
g50
NtRp2497
(dp2498
g53
(dp2499
g61
I3
ssg62
Nsg55
(lp2500
g48
(g64
g50
NtRp2501
(dp2502
g53
(dp2503
sg62
g2497
sg55
(lp2504
g48
(g69
g50
NtRp2505
(dp2506
g53
(dp2507
sg62
g2501
sg55
(lp2508
g48
(g49
g50
NtRp2509
(dp2510
g53
(dp2511
g61
I3
ssg62
g2505
sg55
(lp2512
S'1'
asbasbasbag48
(g64
g50
NtRp2513
(dp2514
g53
(dp2515
sg62
g2497
sg55
(lp2516
g48
(g69
g50
NtRp2517
(dp2518
g53
(dp2519
sg62
g2513
sg55
(lp2520
g48
(g49
g50
NtRp2521
(dp2522
g53
(dp2523
g61
I3
ssg62
g2517
sg55
(lp2524
S'99'
p2525
asbasbasbag48
(g64
g50
NtRp2526
(dp2527
g53
(dp2528
sg62
g2497
sg55
(lp2529
g48
(g69
g50
NtRp2530
(dp2531
g53
(dp2532
sg62
g2526
sg55
(lp2533
g48
(g49
g50
NtRp2534
(dp2535
g53
(dp2536
g61
I3
ssg62
g2530
sg55
(lp2537
S'2'
asbasbasbag48
(g64
g50
NtRp2538
(dp2539
g53
(dp2540
sg62
g2497
sg55
(lp2541
g48
(g69
g50
NtRp2542
(dp2543
g53
(dp2544
sg62
g2538
sg55
(lp2545
g48
(g49
g50
NtRp2546
(dp2547
g53
(dp2548
g61
I3
ssg62
g2542
sg55
(lp2549
S'datetime.datetime(2011, 9, 26, 6, 55, 33)'
p2550
asbasbasbag48
(g64
g50
NtRp2551
(dp2552
g53
(dp2553
sg62
g2497
sg55
(lp2554
g48
(g69
g50
NtRp2555
(dp2556
g53
(dp2557
sg62
g2551
sg55
(lp2558
g48
(g49
g50
NtRp2559
(dp2560
g53
(dp2561
g61
I3
ssg62
g2555
sg55
(lp2562
g1972
asbasbasbasbasbasbasbasbasbasbasbag48
(g64
g50
NtRp2563
(dp2564
g53
(dp2565
sg62
g58
sg55
(lp2566
g48
(g69
g50
NtRp2567
(dp2568
g53
(dp2569
g73
g74
ssg62
g2563
sg55
(lp2570
S'is_https'
p2571
asbag48
(g69
g50
NtRp2572
(dp2573
g53
(dp2574
g80
g81
ssg62
g2563
sg55
(lp2575
S':'
asbag48
(g69
g50
NtRp2576
(dp2577
g53
(dp2578
sg62
g2563
sg55
(lp2579
g48
(g49
g50
NtRp2580
(dp2581
g53
(dp2582
g61
I5
ssg62
g2576
sg55
(lp2583
g91
asbasbasbag48
(g64
g50
NtRp2584
(dp2585
g53
(dp2586
sg62
g58
sg55
(lp2587
g48
(g69
g50
NtRp2588
(dp2589
g53
(dp2590
g73
g74
ssg62
g2584
sg55
(lp2591
S'is_local'
p2592
asbag48
(g69
g50
NtRp2593
(dp2594
g53
(dp2595
g80
g81
ssg62
g2584
sg55
(lp2596
S':'
asbag48
(g69
g50
NtRp2597
(dp2598
g53
(dp2599
sg62
g2584
sg55
(lp2600
g48
(g49
g50
NtRp2601
(dp2602
g53
(dp2603
g61
I5
ssg62
g2597
sg55
(lp2604
g2081
asbasbasbag48
(g64
g50
NtRp2605
(dp2606
g53
(dp2607
sg62
g58
sg55
(lp2608
g48
(g69
g50
NtRp2609
(dp2610
g53
(dp2611
g73
g74
ssg62
g2605
sg55
(lp2612
S'is_restful'
p2613
asbag48
(g69
g50
NtRp2614
(dp2615
g53
(dp2616
g80
g81
ssg62
g2605
sg55
(lp2617
S':'
asbag48
(g69
g50
NtRp2618
(dp2619
g53
(dp2620
sg62
g2605
sg55
(lp2621
g48
(g49
g50
NtRp2622
(dp2623
g53
(dp2624
g61
I5
ssg62
g2618
sg55
(lp2625
g91
asbasbasbag48
(g64
g50
NtRp2626
(dp2627
g53
(dp2628
sg62
g58
sg55
(lp2629
g48
(g69
g50
NtRp2630
(dp2631
g53
(dp2632
g73
g74
ssg62
g2626
sg55
(lp2633
S'now'
p2634
asbag48
(g69
g50
NtRp2635
(dp2636
g53
(dp2637
g80
g81
ssg62
g2626
sg55
(lp2638
S':'
asbag48
(g69
g50
NtRp2639
(dp2640
g53
(dp2641
sg62
g2626
sg55
(lp2642
g48
(g49
g50
NtRp2643
(dp2644
g53
(dp2645
g61
I5
ssg62
g2639
sg55
(lp2646
S'datetime.datetime(2011, 10, 30, 19, 40, 42, 132000)'
p2647
asbasbasbag48
(g64
g50
NtRp2648
(dp2649
g53
(dp2650
sg62
g58
sg55
(lp2651
g48
(g69
g50
NtRp2652
(dp2653
g53
(dp2654
g73
g74
ssg62
g2648
sg55
(lp2655
S'post_vars'
p2656
asbag48
(g69
g50
NtRp2657
(dp2658
g53
(dp2659
g80
g81
ssg62
g2648
sg55
(lp2660
S':'
asbag48
(g69
g50
NtRp2661
(dp2662
g53
(dp2663
sg62
g2648
sg55
(lp2664
g48
(g49
g50
NtRp2665
(dp2666
g53
(dp2667
g61
I5
ssg62
g2661
sg55
(lp2668
g48
(g57
g50
NtRp2669
(dp2670
g53
(dp2671
g61
I4
ssg62
Nsg55
(lp2672
sbasbasbasbag48
(g64
g50
NtRp2673
(dp2674
g53
(dp2675
sg62
g58
sg55
(lp2676
g48
(g69
g50
NtRp2677
(dp2678
g53
(dp2679
g73
g74
ssg62
g2673
sg55
(lp2680
S'url'
p2681
asbag48
(g69
g50
NtRp2682
(dp2683
g53
(dp2684
g80
g81
ssg62
g2673
sg55
(lp2685
S':'
asbag48
(g69
g50
NtRp2686
(dp2687
g53
(dp2688
sg62
g2673
sg55
(lp2689
g48
(g49
g50
NtRp2690
(dp2691
g53
(dp2692
g61
I5
ssg62
g2686
sg55
(lp2693
S'/init/default/index'
p2694
asbasbasbag48
(g64
g50
NtRp2695
(dp2696
g53
(dp2697
sg62
g58
sg55
(lp2698
g48
(g69
g50
NtRp2699
(dp2700
g53
(dp2701
g73
g74
ssg62
g2695
sg55
(lp2702
S'utcnow'
p2703
asbag48
(g69
g50
NtRp2704
(dp2705
g53
(dp2706
g80
g81
ssg62
g2695
sg55
(lp2707
S':'
asbag48
(g69
g50
NtRp2708
(dp2709
g53
(dp2710
sg62
g2695
sg55
(lp2711
g48
(g49
g50
NtRp2712
(dp2713
g53
(dp2714
g61
I5
ssg62
g2708
sg55
(lp2715
S'datetime.datetime(2011, 10, 30, 23, 40, 42, 132000)'
p2716
asbasbasbag48
(g64
g50
NtRp2717
(dp2718
g53
(dp2719
sg62
g58
sg55
(lp2720
g48
(g69
g50
NtRp2721
(dp2722
g53
(dp2723
g73
g74
ssg62
g2717
sg55
(lp2724
S'uuid'
p2725
asbag48
(g69
g50
NtRp2726
(dp2727
g53
(dp2728
g80
g81
ssg62
g2717
sg55
(lp2729
S':'
asbag48
(g69
g50
NtRp2730
(dp2731
g53
(dp2732
sg62
g2717
sg55
(lp2733
g48
(g49
g50
NtRp2734
(dp2735
g53
(dp2736
g61
I5
ssg62
g2730
sg55
(lp2737
S'init/127.0.0.1.2011-10-30.19-40-42.8843b6e7-0a16-463c-954a-86846d5a64ae'
p2738
asbasbasbag48
(g64
g50
NtRp2739
(dp2740
g53
(dp2741
sg62
g58
sg55
(lp2742
g48
(g69
g50
NtRp2743
(dp2744
g53
(dp2745
g73
g74
ssg62
g2739
sg55
(lp2746
S'vars'
p2747
asbag48
(g69
g50
NtRp2748
(dp2749
g53
(dp2750
g80
g81
ssg62
g2739
sg55
(lp2751
S':'
asbag48
(g69
g50
NtRp2752
(dp2753
g53
(dp2754
sg62
g2739
sg55
(lp2755
g48
(g49
g50
NtRp2756
(dp2757
g53
(dp2758
g61
I5
ssg62
g2752
sg55
(lp2759
g48
(g57
g50
NtRp2760
(dp2761
g53
(dp2762
g61
I4
ssg62
Nsg55
(lp2763
sbasbasbasbag48
(g64
g50
NtRp2764
(dp2765
g53
(dp2766
sg62
g58
sg55
(lp2767
g48
(g69
g50
NtRp2768
(dp2769
g53
(dp2770
g73
g74
ssg62
g2764
sg55
(lp2771
S'wsgi'
p2772
asbag48
(g69
g50
NtRp2773
(dp2774
g53
(dp2775
g80
g81
ssg62
g2764
sg55
(lp2776
S':'
asbag48
(g69
g50
NtRp2777
(dp2778
g53
(dp2779
sg62
g2764
sg55
(lp2780
g48
(g49
g50
NtRp2781
(dp2782
g53
(dp2783
g61
I5
ssg62
g2777
sg55
(lp2784
g48
(g57
g50
NtRp2785
(dp2786
g53
(dp2787
g61
I4
ssg62
Nsg55
(lp2788
g48
(g64
g50
NtRp2789
(dp2790
g53
(dp2791
sg62
g2785
sg55
(lp2792
g48
(g69
g50
NtRp2793
(dp2794
g53
(dp2795
g73
g74
ssg62
g2789
sg55
(lp2796
S'environ'
p2797
asbag48
(g69
g50
NtRp2798
(dp2799
g53
(dp2800
g80
g81
ssg62
g2789
sg55
(lp2801
S':'
asbag48
(g69
g50
NtRp2802
(dp2803
g53
(dp2804
sg62
g2789
sg55
(lp2805
g48
(g49
g50
NtRp2806
(dp2807
g53
(dp2808
g61
I4
ssg62
g2802
sg55
(lp2809
g48
(g57
g50
NtRp2810
(dp2811
g53
(dp2812
g61
I3
ssg62
Nsg55
(lp2813
g48
(g64
g50
NtRp2814
(dp2815
g53
(dp2816
sg62
g2810
sg55
(lp2817
g48
(g69
g50
NtRp2818
(dp2819
g53
(dp2820
g73
g74
ssg62
g2814
sg55
(lp2821
S'HTTP_ACCEPT'
p2822
asbag48
(g69
g50
NtRp2823
(dp2824
g53
(dp2825
g80
g81
ssg62
g2814
sg55
(lp2826
S':'
asbag48
(g69
g50
NtRp2827
(dp2828
g53
(dp2829
sg62
g2814
sg55
(lp2830
g48
(g49
g50
NtRp2831
(dp2832
g53
(dp2833
g61
I3
ssg62
g2827
sg55
(lp2834
g1428
asbasbasbag48
(g64
g50
NtRp2835
(dp2836
g53
(dp2837
sg62
g2810
sg55
(lp2838
g48
(g69
g50
NtRp2839
(dp2840
g53
(dp2841
g73
g74
ssg62
g2835
sg55
(lp2842
S'HTTP_ACCEPT_CHARSET'
p2843
asbag48
(g69
g50
NtRp2844
(dp2845
g53
(dp2846
g80
g81
ssg62
g2835
sg55
(lp2847
S':'
asbag48
(g69
g50
NtRp2848
(dp2849
g53
(dp2850
sg62
g2835
sg55
(lp2851
g48
(g49
g50
NtRp2852
(dp2853
g53
(dp2854
g61
I3
ssg62
g2848
sg55
(lp2855
g1450
asbasbasbag48
(g64
g50
NtRp2856
(dp2857
g53
(dp2858
sg62
g2810
sg55
(lp2859
g48
(g69
g50
NtRp2860
(dp2861
g53
(dp2862
g73
g74
ssg62
g2856
sg55
(lp2863
S'HTTP_ACCEPT_ENCODING'
p2864
asbag48
(g69
g50
NtRp2865
(dp2866
g53
(dp2867
g80
g81
ssg62
g2856
sg55
(lp2868
S':'
asbag48
(g69
g50
NtRp2869
(dp2870
g53
(dp2871
sg62
g2856
sg55
(lp2872
g48
(g49
g50
NtRp2873
(dp2874
g53
(dp2875
g61
I3
ssg62
g2869
sg55
(lp2876
g1472
asbasbasbag48
(g64
g50
NtRp2877
(dp2878
g53
(dp2879
sg62
g2810
sg55
(lp2880
g48
(g69
g50
NtRp2881
(dp2882
g53
(dp2883
g73
g74
ssg62
g2877
sg55
(lp2884
S'HTTP_ACCEPT_LANGUAGE'
p2885
asbag48
(g69
g50
NtRp2886
(dp2887
g53
(dp2888
g80
g81
ssg62
g2877
sg55
(lp2889
S':'
asbag48
(g69
g50
NtRp2890
(dp2891
g53
(dp2892
sg62
g2877
sg55
(lp2893
g48
(g49
g50
NtRp2894
(dp2895
g53
(dp2896
g61
I3
ssg62
g2890
sg55
(lp2897
g1494
asbasbasbag48
(g64
g50
NtRp2898
(dp2899
g53
(dp2900
sg62
g2810
sg55
(lp2901
g48
(g69
g50
NtRp2902
(dp2903
g53
(dp2904
g73
g74
ssg62
g2898
sg55
(lp2905
S'HTTP_CONNECTION'
p2906
asbag48
(g69
g50
NtRp2907
(dp2908
g53
(dp2909
g80
g81
ssg62
g2898
sg55
(lp2910
S':'
asbag48
(g69
g50
NtRp2911
(dp2912
g53
(dp2913
sg62
g2898
sg55
(lp2914
g48
(g49
g50
NtRp2915
(dp2916
g53
(dp2917
g61
I3
ssg62
g2911
sg55
(lp2918
g1516
asbasbasbag48
(g64
g50
NtRp2919
(dp2920
g53
(dp2921
sg62
g2810
sg55
(lp2922
g48
(g69
g50
NtRp2923
(dp2924
g53
(dp2925
g73
g74
ssg62
g2919
sg55
(lp2926
S'HTTP_COOKIE'
p2927
asbag48
(g69
g50
NtRp2928
(dp2929
g53
(dp2930
g80
g81
ssg62
g2919
sg55
(lp2931
S':'
asbag48
(g69
g50
NtRp2932
(dp2933
g53
(dp2934
sg62
g2919
sg55
(lp2935
g48
(g49
g50
NtRp2936
(dp2937
g53
(dp2938
g61
I3
ssg62
g2932
sg55
(lp2939
g1538
asbasbasbag48
(g64
g50
NtRp2940
(dp2941
g53
(dp2942
sg62
g2810
sg55
(lp2943
g48
(g69
g50
NtRp2944
(dp2945
g53
(dp2946
g73
g74
ssg62
g2940
sg55
(lp2947
S'HTTP_HOST'
p2948
asbag48
(g69
g50
NtRp2949
(dp2950
g53
(dp2951
g80
g81
ssg62
g2940
sg55
(lp2952
S':'
asbag48
(g69
g50
NtRp2953
(dp2954
g53
(dp2955
sg62
g2940
sg55
(lp2956
g48
(g49
g50
NtRp2957
(dp2958
g53
(dp2959
g61
I3
ssg62
g2953
sg55
(lp2960
g1560
asbasbasbag48
(g64
g50
NtRp2961
(dp2962
g53
(dp2963
sg62
g2810
sg55
(lp2964
g48
(g69
g50
NtRp2965
(dp2966
g53
(dp2967
g73
g74
ssg62
g2961
sg55
(lp2968
S'HTTP_KEEP_ALIVE'
p2969
asbag48
(g69
g50
NtRp2970
(dp2971
g53
(dp2972
g80
g81
ssg62
g2961
sg55
(lp2973
S':'
asbag48
(g69
g50
NtRp2974
(dp2975
g53
(dp2976
sg62
g2961
sg55
(lp2977
g48
(g49
g50
NtRp2978
(dp2979
g53
(dp2980
g61
I3
ssg62
g2974
sg55
(lp2981
g1582
asbasbasbag48
(g64
g50
NtRp2982
(dp2983
g53
(dp2984
sg62
g2810
sg55
(lp2985
g48
(g69
g50
NtRp2986
(dp2987
g53
(dp2988
g73
g74
ssg62
g2982
sg55
(lp2989
S'HTTP_USER_AGENT'
p2990
asbag48
(g69
g50
NtRp2991
(dp2992
g53
(dp2993
g80
g81
ssg62
g2982
sg55
(lp2994
S':'
asbag48
(g69
g50
NtRp2995
(dp2996
g53
(dp2997
sg62
g2982
sg55
(lp2998
g48
(g49
g50
NtRp2999
(dp3000
g53
(dp3001
g61
I3
ssg62
g2995
sg55
(lp3002
g1604
asbasbasbag48
(g64
g50
NtRp3003
(dp3004
g53
(dp3005
sg62
g2810
sg55
(lp3006
g48
(g69
g50
NtRp3007
(dp3008
g53
(dp3009
g73
g74
ssg62
g3003
sg55
(lp3010
S'PATH_INFO'
p3011
asbag48
(g69
g50
NtRp3012
(dp3013
g53
(dp3014
g80
g81
ssg62
g3003
sg55
(lp3015
S':'
asbag48
(g69
g50
NtRp3016
(dp3017
g53
(dp3018
sg62
g3003
sg55
(lp3019
g48
(g49
g50
NtRp3020
(dp3021
g53
(dp3022
g61
I3
ssg62
g3016
sg55
(lp3023
S'/'
asbasbasbag48
(g64
g50
NtRp3024
(dp3025
g53
(dp3026
sg62
g2810
sg55
(lp3027
g48
(g69
g50
NtRp3028
(dp3029
g53
(dp3030
g73
g74
ssg62
g3024
sg55
(lp3031
S'QUERY_STRING'
p3032
asbag48
(g69
g50
NtRp3033
(dp3034
g53
(dp3035
g80
g81
ssg62
g3024
sg55
(lp3036
S':'
asbag48
(g69
g50
NtRp3037
(dp3038
g53
(dp3039
sg62
g3024
sg55
(lp3040
g48
(g49
g50
NtRp3041
(dp3042
g53
(dp3043
g61
I3
ssg62
g3037
sg55
(lp3044
S''
asbasbasbag48
(g64
g50
NtRp3045
(dp3046
g53
(dp3047
sg62
g2810
sg55
(lp3048
g48
(g69
g50
NtRp3049
(dp3050
g53
(dp3051
g73
g74
ssg62
g3045
sg55
(lp3052
S'REMOTE_ADDR'
p3053
asbag48
(g69
g50
NtRp3054
(dp3055
g53
(dp3056
g80
g81
ssg62
g3045
sg55
(lp3057
S':'
asbag48
(g69
g50
NtRp3058
(dp3059
g53
(dp3060
sg62
g3045
sg55
(lp3061
g48
(g49
g50
NtRp3062
(dp3063
g53
(dp3064
g61
I3
ssg62
g3058
sg55
(lp3065
g181
asbasbasbag48
(g64
g50
NtRp3066
(dp3067
g53
(dp3068
sg62
g2810
sg55
(lp3069
g48
(g69
g50
NtRp3070
(dp3071
g53
(dp3072
g73
g74
ssg62
g3066
sg55
(lp3073
S'REMOTE_PORT'
p3074
asbag48
(g69
g50
NtRp3075
(dp3076
g53
(dp3077
g80
g81
ssg62
g3066
sg55
(lp3078
S':'
asbag48
(g69
g50
NtRp3079
(dp3080
g53
(dp3081
sg62
g3066
sg55
(lp3082
g48
(g49
g50
NtRp3083
(dp3084
g53
(dp3085
g61
I3
ssg62
g3079
sg55
(lp3086
g1710
asbasbasbag48
(g64
g50
NtRp3087
(dp3088
g53
(dp3089
sg62
g2810
sg55
(lp3090
g48
(g69
g50
NtRp3091
(dp3092
g53
(dp3093
g73
g74
ssg62
g3087
sg55
(lp3094
S'REQUEST_METHOD'
p3095
asbag48
(g69
g50
NtRp3096
(dp3097
g53
(dp3098
g80
g81
ssg62
g3087
sg55
(lp3099
S':'
asbag48
(g69
g50
NtRp3100
(dp3101
g53
(dp3102
sg62
g3087
sg55
(lp3103
g48
(g49
g50
NtRp3104
(dp3105
g53
(dp3106
g61
I3
ssg62
g3100
sg55
(lp3107
g1732
asbasbasbag48
(g64
g50
NtRp3108
(dp3109
g53
(dp3110
sg62
g2810
sg55
(lp3111
g48
(g69
g50
NtRp3112
(dp3113
g53
(dp3114
g73
g74
ssg62
g3108
sg55
(lp3115
S'SCRIPT_NAME'
p3116
asbag48
(g69
g50
NtRp3117
(dp3118
g53
(dp3119
g80
g81
ssg62
g3108
sg55
(lp3120
S':'
asbag48
(g69
g50
NtRp3121
(dp3122
g53
(dp3123
sg62
g3108
sg55
(lp3124
g48
(g49
g50
NtRp3125
(dp3126
g53
(dp3127
g61
I3
ssg62
g3121
sg55
(lp3128
S''
asbasbasbag48
(g64
g50
NtRp3129
(dp3130
g53
(dp3131
sg62
g2810
sg55
(lp3132
g48
(g69
g50
NtRp3133
(dp3134
g53
(dp3135
g73
g74
ssg62
g3129
sg55
(lp3136
S'SERVER_NAME'
p3137
asbag48
(g69
g50
NtRp3138
(dp3139
g53
(dp3140
g80
g81
ssg62
g3129
sg55
(lp3141
S':'
asbag48
(g69
g50
NtRp3142
(dp3143
g53
(dp3144
sg62
g3129
sg55
(lp3145
g48
(g49
g50
NtRp3146
(dp3147
g53
(dp3148
g61
I3
ssg62
g3142
sg55
(lp3149
g1775
asbasbasbag48
(g64
g50
NtRp3150
(dp3151
g53
(dp3152
sg62
g2810
sg55
(lp3153
g48
(g69
g50
NtRp3154
(dp3155
g53
(dp3156
g73
g74
ssg62
g3150
sg55
(lp3157
S'SERVER_PORT'
p3158
asbag48
(g69
g50
NtRp3159
(dp3160
g53
(dp3161
g80
g81
ssg62
g3150
sg55
(lp3162
S':'
asbag48
(g69
g50
NtRp3163
(dp3164
g53
(dp3165
sg62
g3150
sg55
(lp3166
g48
(g49
g50
NtRp3167
(dp3168
g53
(dp3169
g61
I3
ssg62
g3163
sg55
(lp3170
g1797
asbasbasbag48
(g64
g50
NtRp3171
(dp3172
g53
(dp3173
sg62
g2810
sg55
(lp3174
g48
(g69
g50
NtRp3175
(dp3176
g53
(dp3177
g73
g74
ssg62
g3171
sg55
(lp3178
S'SERVER_PROTOCOL'
p3179
asbag48
(g69
g50
NtRp3180
(dp3181
g53
(dp3182
g80
g81
ssg62
g3171
sg55
(lp3183
S':'
asbag48
(g69
g50
NtRp3184
(dp3185
g53
(dp3186
sg62
g3171
sg55
(lp3187
g48
(g49
g50
NtRp3188
(dp3189
g53
(dp3190
g61
I3
ssg62
g3184
sg55
(lp3191
g1819
asbasbasbag48
(g64
g50
NtRp3192
(dp3193
g53
(dp3194
sg62
g2810
sg55
(lp3195
g48
(g69
g50
NtRp3196
(dp3197
g53
(dp3198
g73
g74
ssg62
g3192
sg55
(lp3199
S'SERVER_SOFTWARE'
p3200
asbag48
(g69
g50
NtRp3201
(dp3202
g53
(dp3203
g80
g81
ssg62
g3192
sg55
(lp3204
S':'
asbag48
(g69
g50
NtRp3205
(dp3206
g53
(dp3207
sg62
g3192
sg55
(lp3208
g48
(g49
g50
NtRp3209
(dp3210
g53
(dp3211
g61
I3
ssg62
g3205
sg55
(lp3212
g1841
asbasbasbag48
(g64
g50
NtRp3213
(dp3214
g53
(dp3215
sg62
g2810
sg55
(lp3216
g48
(g69
g50
NtRp3217
(dp3218
g53
(dp3219
g73
g74
ssg62
g3213
sg55
(lp3220
S'wsgi.errors'
p3221
asbag48
(g69
g50
NtRp3222
(dp3223
g53
(dp3224
g80
g81
ssg62
g3213
sg55
(lp3225
S':'
asbag48
(g69
g50
NtRp3226
(dp3227
g53
(dp3228
sg62
g3213
sg55
(lp3229
g48
(g49
g50
NtRp3230
(dp3231
g53
(dp3232
g61
I3
ssg62
g3226
sg55
(lp3233
S"<open file '<stderr>', mode 'w' at 0x01EC00B0>"
p3234
asbasbasbag48
(g64
g50
NtRp3235
(dp3236
g53
(dp3237
sg62
g2810
sg55
(lp3238
g48
(g69
g50
NtRp3239
(dp3240
g53
(dp3241
g73
g74
ssg62
g3235
sg55
(lp3242
S'wsgi.file_wrapper'
p3243
asbag48
(g69
g50
NtRp3244
(dp3245
g53
(dp3246
g80
g81
ssg62
g3235
sg55
(lp3247
S':'
asbag48
(g69
g50
NtRp3248
(dp3249
g53
(dp3250
sg62
g3235
sg55
(lp3251
g48
(g49
g50
NtRp3252
(dp3253
g53
(dp3254
g61
I3
ssg62
g3248
sg55
(lp3255
S'<class wsgiref.util.FileWrapper at 0x02A93FC0>'
p3256
asbasbasbag48
(g64
g50
NtRp3257
(dp3258
g53
(dp3259
sg62
g2810
sg55
(lp3260
g48
(g69
g50
NtRp3261
(dp3262
g53
(dp3263
g73
g74
ssg62
g3257
sg55
(lp3264
S'wsgi.input'
p3265
asbag48
(g69
g50
NtRp3266
(dp3267
g53
(dp3268
g80
g81
ssg62
g3257
sg55
(lp3269
S':'
asbag48
(g69
g50
NtRp3270
(dp3271
g53
(dp3272
sg62
g3257
sg55
(lp3273
g48
(g49
g50
NtRp3274
(dp3275
g53
(dp3276
g61
I3
ssg62
g3270
sg55
(lp3277
S'<cStringIO.StringO object at 0x0439A880>'
p3278
asbasbasbag48
(g64
g50
NtRp3279
(dp3280
g53
(dp3281
sg62
g2810
sg55
(lp3282
g48
(g69
g50
NtRp3283
(dp3284
g53
(dp3285
g73
g74
ssg62
g3279
sg55
(lp3286
S'wsgi.multiprocess'
p3287
asbag48
(g69
g50
NtRp3288
(dp3289
g53
(dp3290
g80
g81
ssg62
g3279
sg55
(lp3291
S':'
asbag48
(g69
g50
NtRp3292
(dp3293
g53
(dp3294
sg62
g3279
sg55
(lp3295
g48
(g49
g50
NtRp3296
(dp3297
g53
(dp3298
g61
I3
ssg62
g3292
sg55
(lp3299
g91
asbasbasbag48
(g64
g50
NtRp3300
(dp3301
g53
(dp3302
sg62
g2810
sg55
(lp3303
g48
(g69
g50
NtRp3304
(dp3305
g53
(dp3306
g73
g74
ssg62
g3300
sg55
(lp3307
S'wsgi.multithread'
p3308
asbag48
(g69
g50
NtRp3309
(dp3310
g53
(dp3311
g80
g81
ssg62
g3300
sg55
(lp3312
S':'
asbag48
(g69
g50
NtRp3313
(dp3314
g53
(dp3315
sg62
g3300
sg55
(lp3316
g48
(g49
g50
NtRp3317
(dp3318
g53
(dp3319
g61
I3
ssg62
g3313
sg55
(lp3320
g2081
asbasbasbag48
(g64
g50
NtRp3321
(dp3322
g53
(dp3323
sg62
g2810
sg55
(lp3324
g48
(g69
g50
NtRp3325
(dp3326
g53
(dp3327
g73
g74
ssg62
g3321
sg55
(lp3328
S'wsgi.run_once'
p3329
asbag48
(g69
g50
NtRp3330
(dp3331
g53
(dp3332
g80
g81
ssg62
g3321
sg55
(lp3333
S':'
asbag48
(g69
g50
NtRp3334
(dp3335
g53
(dp3336
sg62
g3321
sg55
(lp3337
g48
(g49
g50
NtRp3338
(dp3339
g53
(dp3340
g61
I3
ssg62
g3334
sg55
(lp3341
g91
asbasbasbag48
(g64
g50
NtRp3342
(dp3343
g53
(dp3344
sg62
g2810
sg55
(lp3345
g48
(g69
g50
NtRp3346
(dp3347
g53
(dp3348
g73
g74
ssg62
g3342
sg55
(lp3349
S'wsgi.url_scheme'
p3350
asbag48
(g69
g50
NtRp3351
(dp3352
g53
(dp3353
g80
g81
ssg62
g3342
sg55
(lp3354
S':'
asbag48
(g69
g50
NtRp3355
(dp3356
g53
(dp3357
sg62
g3342
sg55
(lp3358
g48
(g49
g50
NtRp3359
(dp3360
g53
(dp3361
g61
I3
ssg62
g3355
sg55
(lp3362
g2124
asbasbasbag48
(g64
g50
NtRp3363
(dp3364
g53
(dp3365
sg62
g2810
sg55
(lp3366
g48
(g69
g50
NtRp3367
(dp3368
g53
(dp3369
g73
g74
ssg62
g3363
sg55
(lp3370
S'wsgi.version'
p3371
asbag48
(g69
g50
NtRp3372
(dp3373
g53
(dp3374
g80
g81
ssg62
g3363
sg55
(lp3375
S':'
asbag48
(g69
g50
NtRp3376
(dp3377
g53
(dp3378
sg62
g3363
sg55
(lp3379
g48
(g49
g50
NtRp3380
(dp3381
g53
(dp3382
g61
I3
ssg62
g3376
sg55
(lp3383
S'1'
asbasbasbasbasbasbasbasbasbasbasbasbasbsS'frames'
p3384
(lp3385
(dp3386
S'file'
p3387
S'P:\\Workbench\\DevEnv\\web2py\\gluon\\restricted.py'
p3388
sS'dump'
p3389
(dp3390
sS'lnum'
p3391
I194
sS'lines'
p3392
(dp3393
I192
S'        else:'
p3394
sI193
S'            ccode = compile2(code,layer)'
p3395
sI194
S'        exec ccode in environment'
p3396
sI195
S'    except HTTP:'
p3397
sI196
S'        raise'
p3398
sI197
S'    except Exception, error:'
p3399
sI198
S'        # XXX Show exception in Wing IDE if running in debugger'
p3400
sI189
S'    try:'
p3401
sI190
S'        if type(code) == types.CodeType:'
p3402
sI191
S'            ccode = code'
p3403
ssS'call'
p3404
S"(code='# -*- coding: utf-8 -*-\\n\\n#######################...################################################\\n', environment={'A': <class 'gluon.html.A'>, 'Auth': <class 'gluon.tools.Auth'>, 'B': <class 'gluon.html.B'>, 'BEAUTIFY': <class 'gluon.html.BEAUTIFY'>, 'BODY': <class 'gluon.html.BODY'>, 'BR': <class 'gluon.html.BR'>, 'BUTTON': <class 'gluon.html.BUTTON'>, 'CAT': <class 'gluon.html.CAT'>, 'CENTER': <class 'gluon.html.CENTER'>, 'CLEANUP': <class 'gluon.validators.CLEANUP'>, ...}, layer=r'P:\\Workbench\\DevEnv\\web2py\\applications\\init\\models\\db.py')"
p3405
sS'func'
p3406
S'restricted'
p3407
sa(dp3408
g3387
S'P:\\Workbench\\DevEnv\\web2py\\applications\\init\\models\\db.py'
p3409
sg3389
(dp3410
sg3391
I46
sg3392
(dp3411
I41
S"    Field('gender'),"
p3412
sI42
S"    Field('age'),"
p3413
sI43
S"    Field('height'),"
p3414
sI44
S"    Field('current_weight')]"
p3415
sI45
S''
sI46
S"auth.auth_user.gender.requires = IS_IN_SET(['male', 'female'])"
p3416
sI47
S''
sI48
S'## create all tables needed by auth if not custom tables'
p3417
sI49
S'auth.define_tables()'
p3418
sI50
S''
ssg3404
S'()'
p3419
sg3406
S'<module>'
p3420
sasS'pyver'
p3421
S'Python 2.5.4: P:\\Workbench\\DevEnv\\web2py\\web2py.exe'
p3422
sS'session'
p3423
g48
(g49
g50
NtRp3424
(dp3425
g53
(dp3426
sg55
(lp3427
g48
(g57
g50
NtRp3428
(dp3429
g53
(dp3430
g61
I5
ssg62
Nsg55
(lp3431
sbasbsS'etype'
p3432
S"<type 'exceptions.AttributeError'>"
p3433
sS'date'
p3434
S'Sun Oct 30 19:40:42 2011'
p3435
sS'response'
p3436
g48
(g49
g50
NtRp3437
(dp3438
g53
(dp3439
sg55
(lp3440
g48
(g57
g50
NtRp3441
(dp3442
g53
(dp3443
g61
I5
ssg62
Nsg55
(lp3444
g48
(g64
g50
NtRp3445
(dp3446
g53
(dp3447
sg62
g3441
sg55
(lp3448
g48
(g69
g50
NtRp3449
(dp3450
g53
(dp3451
g73
g74
ssg62
g3445
sg55
(lp3452
g146
asbag48
(g69
g50
NtRp3453
(dp3454
g53
(dp3455
g80
g81
ssg62
g3445
sg55
(lp3456
S':'
asbag48
(g69
g50
NtRp3457
(dp3458
g53
(dp3459
sg62
g3445
sg55
(lp3460
g48
(g49
g50
NtRp3461
(dp3462
g53
(dp3463
g61
I5
ssg62
g3457
sg55
(lp3464
S'<cStringIO.StringO object at 0x03C99F00>'
p3465
asbasbasbag48
(g64
g50
NtRp3466
(dp3467
g53
(dp3468
sg62
g3441
sg55
(lp3469
g48
(g69
g50
NtRp3470
(dp3471
g53
(dp3472
g73
g74
ssg62
g3466
sg55
(lp3473
g212
asbag48
(g69
g50
NtRp3474
(dp3475
g53
(dp3476
g80
g81
ssg62
g3466
sg55
(lp3477
S':'
asbag48
(g69
g50
NtRp3478
(dp3479
g53
(dp3480
sg62
g3466
sg55
(lp3481
g48
(g49
g50
NtRp3482
(dp3483
g53
(dp3484
g61
I5
ssg62
g3478
sg55
(lp3485
g48
(g57
g50
NtRp3486
(dp3487
g53
(dp3488
g61
I4
ssg62
Nsg55
(lp3489
g48
(g64
g50
NtRp3490
(dp3491
g53
(dp3492
sg62
g3486
sg55
(lp3493
g48
(g69
g50
NtRp3494
(dp3495
g53
(dp3496
g73
g74
ssg62
g3490
sg55
(lp3497
S'session_id_init'
p3498
asbag48
(g69
g50
NtRp3499
(dp3500
g53
(dp3501
g80
g81
ssg62
g3490
sg55
(lp3502
S':'
asbag48
(g69
g50
NtRp3503
(dp3504
g53
(dp3505
sg62
g3490
sg55
(lp3506
g48
(g49
g50
NtRp3507
(dp3508
g53
(dp3509
g61
I4
ssg62
g3503
sg55
(lp3510
g48
(g57
g50
NtRp3511
(dp3512
g53
(dp3513
g61
I3
ssg62
Nsg55
(lp3514
g48
(g64
g50
NtRp3515
(dp3516
g53
(dp3517
sg62
g3511
sg55
(lp3518
g48
(g69
g50
NtRp3519
(dp3520
g53
(dp3521
g73
g74
ssg62
g3515
sg55
(lp3522
g262
asbag48
(g69
g50
NtRp3523
(dp3524
g53
(dp3525
g80
g81
ssg62
g3515
sg55
(lp3526
S':'
asbag48
(g69
g50
NtRp3527
(dp3528
g53
(dp3529
sg62
g3515
sg55
(lp3530
g48
(g49
g50
NtRp3531
(dp3532
g53
(dp3533
g61
I3
ssg62
g3527
sg55
(lp3534
S''
asbasbasbag48
(g64
g50
NtRp3535
(dp3536
g53
(dp3537
sg62
g3511
sg55
(lp3538
g48
(g69
g50
NtRp3539
(dp3540
g53
(dp3541
g73
g74
ssg62
g3535
sg55
(lp3542
g283
asbag48
(g69
g50
NtRp3543
(dp3544
g53
(dp3545
g80
g81
ssg62
g3535
sg55
(lp3546
S':'
asbag48
(g69
g50
NtRp3547
(dp3548
g53
(dp3549
sg62
g3535
sg55
(lp3550
g48
(g49
g50
NtRp3551
(dp3552
g53
(dp3553
g61
I3
ssg62
g3547
sg55
(lp3554
S''
asbasbasbag48
(g64
g50
NtRp3555
(dp3556
g53
(dp3557
sg62
g3511
sg55
(lp3558
g48
(g69
g50
NtRp3559
(dp3560
g53
(dp3561
g73
g74
ssg62
g3555
sg55
(lp3562
g304
asbag48
(g69
g50
NtRp3563
(dp3564
g53
(dp3565
g80
g81
ssg62
g3555
sg55
(lp3566
S':'
asbag48
(g69
g50
NtRp3567
(dp3568
g53
(dp3569
sg62
g3555
sg55
(lp3570
g48
(g49
g50
NtRp3571
(dp3572
g53
(dp3573
g61
I3
ssg62
g3567
sg55
(lp3574
S''
asbasbasbag48
(g64
g50
NtRp3575
(dp3576
g53
(dp3577
sg62
g3511
sg55
(lp3578
g48
(g69
g50
NtRp3579
(dp3580
g53
(dp3581
g73
g74
ssg62
g3575
sg55
(lp3582
g325
asbag48
(g69
g50
NtRp3583
(dp3584
g53
(dp3585
g80
g81
ssg62
g3575
sg55
(lp3586
S':'
asbag48
(g69
g50
NtRp3587
(dp3588
g53
(dp3589
sg62
g3575
sg55
(lp3590
g48
(g49
g50
NtRp3591
(dp3592
g53
(dp3593
g61
I3
ssg62
g3587
sg55
(lp3594
S''
asbasbasbag48
(g64
g50
NtRp3595
(dp3596
g53
(dp3597
sg62
g3511
sg55
(lp3598
g48
(g69
g50
NtRp3599
(dp3600
g53
(dp3601
g73
g74
ssg62
g3595
sg55
(lp3602
g346
asbag48
(g69
g50
NtRp3603
(dp3604
g53
(dp3605
g80
g81
ssg62
g3595
sg55
(lp3606
S':'
asbag48
(g69
g50
NtRp3607
(dp3608
g53
(dp3609
sg62
g3595
sg55
(lp3610
g48
(g49
g50
NtRp3611
(dp3612
g53
(dp3613
g61
I3
ssg62
g3607
sg55
(lp3614
S'/'
asbasbasbag48
(g64
g50
NtRp3615
(dp3616
g53
(dp3617
sg62
g3511
sg55
(lp3618
g48
(g69
g50
NtRp3619
(dp3620
g53
(dp3621
g73
g74
ssg62
g3615
sg55
(lp3622
g367
asbag48
(g69
g50
NtRp3623
(dp3624
g53
(dp3625
g80
g81
ssg62
g3615
sg55
(lp3626
S':'
asbag48
(g69
g50
NtRp3627
(dp3628
g53
(dp3629
sg62
g3615
sg55
(lp3630
g48
(g49
g50
NtRp3631
(dp3632
g53
(dp3633
g61
I3
ssg62
g3627
sg55
(lp3634
S''
asbasbasbag48
(g64
g50
NtRp3635
(dp3636
g53
(dp3637
sg62
g3511
sg55
(lp3638
g48
(g69
g50
NtRp3639
(dp3640
g53
(dp3641
g73
g74
ssg62
g3635
sg55
(lp3642
g388
asbag48
(g69
g50
NtRp3643
(dp3644
g53
(dp3645
g80
g81
ssg62
g3635
sg55
(lp3646
S':'
asbag48
(g69
g50
NtRp3647
(dp3648
g53
(dp3649
sg62
g3635
sg55
(lp3650
g48
(g49
g50
NtRp3651
(dp3652
g53
(dp3653
g61
I3
ssg62
g3647
sg55
(lp3654
S''
asbasbasbasbasbasbasbasbasbasbasbag48
(g64
g50
NtRp3655
(dp3656
g53
(dp3657
sg62
g3441
sg55
(lp3658
g48
(g69
g50
NtRp3659
(dp3660
g53
(dp3661
g73
g74
ssg62
g3655
sg55
(lp3662
S'files'
p3663
asbag48
(g69
g50
NtRp3664
(dp3665
g53
(dp3666
g80
g81
ssg62
g3655
sg55
(lp3667
S':'
asbag48
(g69
g50
NtRp3668
(dp3669
g53
(dp3670
sg62
g3655
sg55
(lp3671
g48
(g49
g50
NtRp3672
(dp3673
g53
(dp3674
g61
I5
ssg62
g3668
sg55
(lp3675
g48
(g57
g50
NtRp3676
(dp3677
g53
(dp3678
g61
I4
ssg62
Nsg55
(lp3679
sbasbasbasbag48
(g64
g50
NtRp3680
(dp3681
g53
(dp3682
sg62
g3441
sg55
(lp3683
g48
(g69
g50
NtRp3684
(dp3685
g53
(dp3686
g73
g74
ssg62
g3680
sg55
(lp3687
S'flash'
p3688
asbag48
(g69
g50
NtRp3689
(dp3690
g53
(dp3691
g80
g81
ssg62
g3680
sg55
(lp3692
S':'
asbag48
(g69
g50
NtRp3693
(dp3694
g53
(dp3695
sg62
g3680
sg55
(lp3696
g48
(g49
g50
NtRp3697
(dp3698
g53
(dp3699
g61
I5
ssg62
g3693
sg55
(lp3700
S''
asbasbasbag48
(g64
g50
NtRp3701
(dp3702
g53
(dp3703
sg62
g3441
sg55
(lp3704
g48
(g69
g50
NtRp3705
(dp3706
g53
(dp3707
g73
g74
ssg62
g3701
sg55
(lp3708
S'generic_patterns'
p3709
asbag48
(g69
g50
NtRp3710
(dp3711
g53
(dp3712
g80
g81
ssg62
g3701
sg55
(lp3713
S':'
asbag48
(g69
g50
NtRp3714
(dp3715
g53
(dp3716
sg62
g3701
sg55
(lp3717
g48
(g49
g50
NtRp3718
(dp3719
g53
(dp3720
g61
I5
ssg62
g3714
sg55
(lp3721
g48
(g57
g50
NtRp3722
(dp3723
g53
(dp3724
g61
I4
ssg62
Nsg55
(lp3725
g48
(g64
g50
NtRp3726
(dp3727
g53
(dp3728
sg62
g3722
sg55
(lp3729
g48
(g69
g50
NtRp3730
(dp3731
g53
(dp3732
sg62
g3726
sg55
(lp3733
g48
(g49
g50
NtRp3734
(dp3735
g53
(dp3736
g61
I4
ssg62
g3730
sg55
(lp3737
S'*'
asbasbasbasbasbasbasbag48
(g64
g50
NtRp3738
(dp3739
g53
(dp3740
sg62
g3441
sg55
(lp3741
g48
(g69
g50
NtRp3742
(dp3743
g53
(dp3744
g73
g74
ssg62
g3738
sg55
(lp3745
S'headers'
p3746
asbag48
(g69
g50
NtRp3747
(dp3748
g53
(dp3749
g80
g81
ssg62
g3738
sg55
(lp3750
S':'
asbag48
(g69
g50
NtRp3751
(dp3752
g53
(dp3753
sg62
g3738
sg55
(lp3754
g48
(g49
g50
NtRp3755
(dp3756
g53
(dp3757
g61
I5
ssg62
g3751
sg55
(lp3758
g48
(g57
g50
NtRp3759
(dp3760
g53
(dp3761
g61
I4
ssg62
Nsg55
(lp3762
g48
(g64
g50
NtRp3763
(dp3764
g53
(dp3765
sg62
g3759
sg55
(lp3766
g48
(g69
g50
NtRp3767
(dp3768
g53
(dp3769
g73
g74
ssg62
g3763
sg55
(lp3770
S'Cache-Control'
p3771
asbag48
(g69
g50
NtRp3772
(dp3773
g53
(dp3774
g80
g81
ssg62
g3763
sg55
(lp3775
S':'
asbag48
(g69
g50
NtRp3776
(dp3777
g53
(dp3778
sg62
g3763
sg55
(lp3779
g48
(g49
g50
NtRp3780
(dp3781
g53
(dp3782
g61
I4
ssg62
g3776
sg55
(lp3783
S'no-store, no-cache, must-revalidate, post-check=0, pre-check=0'
p3784
asbasbasbag48
(g64
g50
NtRp3785
(dp3786
g53
(dp3787
sg62
g3759
sg55
(lp3788
g48
(g69
g50
NtRp3789
(dp3790
g53
(dp3791
g73
g74
ssg62
g3785
sg55
(lp3792
S'Content-Type'
p3793
asbag48
(g69
g50
NtRp3794
(dp3795
g53
(dp3796
g80
g81
ssg62
g3785
sg55
(lp3797
S':'
asbag48
(g69
g50
NtRp3798
(dp3799
g53
(dp3800
sg62
g3785
sg55
(lp3801
g48
(g49
g50
NtRp3802
(dp3803
g53
(dp3804
g61
I4
ssg62
g3798
sg55
(lp3805
S'text/html; charset=utf-8'
p3806
asbasbasbag48
(g64
g50
NtRp3807
(dp3808
g53
(dp3809
sg62
g3759
sg55
(lp3810
g48
(g69
g50
NtRp3811
(dp3812
g53
(dp3813
g73
g74
ssg62
g3807
sg55
(lp3814
S'Expires'
p3815
asbag48
(g69
g50
NtRp3816
(dp3817
g53
(dp3818
g80
g81
ssg62
g3807
sg55
(lp3819
S':'
asbag48
(g69
g50
NtRp3820
(dp3821
g53
(dp3822
sg62
g3807
sg55
(lp3823
g48
(g49
g50
NtRp3824
(dp3825
g53
(dp3826
g61
I4
ssg62
g3820
sg55
(lp3827
S'Sun, 30 Oct 2011 23:40:42 GMT'
p3828
asbasbasbag48
(g64
g50
NtRp3829
(dp3830
g53
(dp3831
sg62
g3759
sg55
(lp3832
g48
(g69
g50
NtRp3833
(dp3834
g53
(dp3835
g73
g74
ssg62
g3829
sg55
(lp3836
S'Pragma'
p3837
asbag48
(g69
g50
NtRp3838
(dp3839
g53
(dp3840
g80
g81
ssg62
g3829
sg55
(lp3841
S':'
asbag48
(g69
g50
NtRp3842
(dp3843
g53
(dp3844
sg62
g3829
sg55
(lp3845
g48
(g49
g50
NtRp3846
(dp3847
g53
(dp3848
g61
I4
ssg62
g3842
sg55
(lp3849
S'no-cache'
p3850
asbasbasbag48
(g64
g50
NtRp3851
(dp3852
g53
(dp3853
sg62
g3759
sg55
(lp3854
g48
(g69
g50
NtRp3855
(dp3856
g53
(dp3857
g73
g74
ssg62
g3851
sg55
(lp3858
S'X-Powered-By'
p3859
asbag48
(g69
g50
NtRp3860
(dp3861
g53
(dp3862
g80
g81
ssg62
g3851
sg55
(lp3863
S':'
asbag48
(g69
g50
NtRp3864
(dp3865
g53
(dp3866
sg62
g3851
sg55
(lp3867
g48
(g49
g50
NtRp3868
(dp3869
g53
(dp3870
g61
I4
ssg62
g3864
sg55
(lp3871
S'web2py'
p3872
asbasbasbasbasbasbasbag48
(g64
g50
NtRp3873
(dp3874
g53
(dp3875
sg62
g3441
sg55
(lp3876
g48
(g69
g50
NtRp3877
(dp3878
g53
(dp3879
g73
g74
ssg62
g3873
sg55
(lp3880
S'menu'
p3881
asbag48
(g69
g50
NtRp3882
(dp3883
g53
(dp3884
g80
g81
ssg62
g3873
sg55
(lp3885
S':'
asbag48
(g69
g50
NtRp3886
(dp3887
g53
(dp3888
sg62
g3873
sg55
(lp3889
g48
(g49
g50
NtRp3890
(dp3891
g53
(dp3892
g61
I5
ssg62
g3886
sg55
(lp3893
g48
(g57
g50
NtRp3894
(dp3895
g53
(dp3896
g61
I4
ssg62
Nsg55
(lp3897
sbasbasbasbag48
(g64
g50
NtRp3898
(dp3899
g53
(dp3900
sg62
g3441
sg55
(lp3901
g48
(g69
g50
NtRp3902
(dp3903
g53
(dp3904
g73
g74
ssg62
g3898
sg55
(lp3905
S'meta'
p3906
asbag48
(g69
g50
NtRp3907
(dp3908
g53
(dp3909
g80
g81
ssg62
g3898
sg55
(lp3910
S':'
asbag48
(g69
g50
NtRp3911
(dp3912
g53
(dp3913
sg62
g3898
sg55
(lp3914
g48
(g49
g50
NtRp3915
(dp3916
g53
(dp3917
g61
I5
ssg62
g3911
sg55
(lp3918
g48
(g57
g50
NtRp3919
(dp3920
g53
(dp3921
g61
I4
ssg62
Nsg55
(lp3922
sbasbasbasbag48
(g64
g50
NtRp3923
(dp3924
g53
(dp3925
sg62
g3441
sg55
(lp3926
g48
(g69
g50
NtRp3927
(dp3928
g53
(dp3929
g73
g74
ssg62
g3923
sg55
(lp3930
S'postprocessing'
p3931
asbag48
(g69
g50
NtRp3932
(dp3933
g53
(dp3934
g80
g81
ssg62
g3923
sg55
(lp3935
S':'
asbag48
(g69
g50
NtRp3936
(dp3937
g53
(dp3938
sg62
g3923
sg55
(lp3939
g48
(g49
g50
NtRp3940
(dp3941
g53
(dp3942
g61
I5
ssg62
g3936
sg55
(lp3943
g48
(g57
g50
NtRp3944
(dp3945
g53
(dp3946
g61
I4
ssg62
Nsg55
(lp3947
sbasbasbasbag48
(g64
g50
NtRp3948
(dp3949
g53
(dp3950
sg62
g3441
sg55
(lp3951
g48
(g69
g50
NtRp3952
(dp3953
g53
(dp3954
g73
g74
ssg62
g3948
sg55
(lp3955
S'session_file'
p3956
asbag48
(g69
g50
NtRp3957
(dp3958
g53
(dp3959
g80
g81
ssg62
g3948
sg55
(lp3960
S':'
asbag48
(g69
g50
NtRp3961
(dp3962
g53
(dp3963
sg62
g3948
sg55
(lp3964
g48
(g49
g50
NtRp3965
(dp3966
g53
(dp3967
g61
I5
ssg62
g3961
sg55
(lp3968
S"<open file 'P:\\Workbench\\DevEnv\\web2py\\applications\\init\\sessions\\127.0.0.1-b664747d-5a4d-45cc-a1d2-dd0447ed1e85', mode 'rb+' at 0x0408C3C8>"
p3969
asbasbasbag48
(g64
g50
NtRp3970
(dp3971
g53
(dp3972
sg62
g3441
sg55
(lp3973
g48
(g69
g50
NtRp3974
(dp3975
g53
(dp3976
g73
g74
ssg62
g3970
sg55
(lp3977
S'session_filename'
p3978
asbag48
(g69
g50
NtRp3979
(dp3980
g53
(dp3981
g80
g81
ssg62
g3970
sg55
(lp3982
S':'
asbag48
(g69
g50
NtRp3983
(dp3984
g53
(dp3985
sg62
g3970
sg55
(lp3986
g48
(g49
g50
NtRp3987
(dp3988
g53
(dp3989
g61
I5
ssg62
g3983
sg55
(lp3990
S'P:\\Workbench\\DevEnv\\web2py\\applications\\init\\sessions\\127.0.0.1-b664747d-5a4d-45cc-a1d2-dd0447ed1e85'
p3991
asbasbasbag48
(g64
g50
NtRp3992
(dp3993
g53
(dp3994
sg62
g3441
sg55
(lp3995
g48
(g69
g50
NtRp3996
(dp3997
g53
(dp3998
g73
g74
ssg62
g3992
sg55
(lp3999
S'session_id'
p4000
asbag48
(g69
g50
NtRp4001
(dp4002
g53
(dp4003
g80
g81
ssg62
g3992
sg55
(lp4004
S':'
asbag48
(g69
g50
NtRp4005
(dp4006
g53
(dp4007
sg62
g3992
sg55
(lp4008
g48
(g49
g50
NtRp4009
(dp4010
g53
(dp4011
g61
I5
ssg62
g4005
sg55
(lp4012
S'127.0.0.1-b664747d-5a4d-45cc-a1d2-dd0447ed1e85'
p4013
asbasbasbag48
(g64
g50
NtRp4014
(dp4015
g53
(dp4016
sg62
g3441
sg55
(lp4017
g48
(g69
g50
NtRp4018
(dp4019
g53
(dp4020
g73
g74
ssg62
g4014
sg55
(lp4021
S'session_id_name'
p4022
asbag48
(g69
g50
NtRp4023
(dp4024
g53
(dp4025
g80
g81
ssg62
g4014
sg55
(lp4026
S':'
asbag48
(g69
g50
NtRp4027
(dp4028
g53
(dp4029
sg62
g4014
sg55
(lp4030
g48
(g49
g50
NtRp4031
(dp4032
g53
(dp4033
g61
I5
ssg62
g4027
sg55
(lp4034
g3498
asbasbasbag48
(g64
g50
NtRp4035
(dp4036
g53
(dp4037
sg62
g3441
sg55
(lp4038
g48
(g69
g50
NtRp4039
(dp4040
g53
(dp4041
g73
g74
ssg62
g4035
sg55
(lp4042
S'session_locked'
p4043
asbag48
(g69
g50
NtRp4044
(dp4045
g53
(dp4046
g80
g81
ssg62
g4035
sg55
(lp4047
S':'
asbag48
(g69
g50
NtRp4048
(dp4049
g53
(dp4050
sg62
g4035
sg55
(lp4051
g48
(g49
g50
NtRp4052
(dp4053
g53
(dp4054
g61
I5
ssg62
g4048
sg55
(lp4055
g2081
asbasbasbag48
(g64
g50
NtRp4056
(dp4057
g53
(dp4058
sg62
g3441
sg55
(lp4059
g48
(g69
g50
NtRp4060
(dp4061
g53
(dp4062
g73
g74
ssg62
g4056
sg55
(lp4063
S'session_new'
p4064
asbag48
(g69
g50
NtRp4065
(dp4066
g53
(dp4067
g80
g81
ssg62
g4056
sg55
(lp4068
S':'
asbag48
(g69
g50
NtRp4069
(dp4070
g53
(dp4071
sg62
g4056
sg55
(lp4072
g48
(g49
g50
NtRp4073
(dp4074
g53
(dp4075
g61
I5
ssg62
g4069
sg55
(lp4076
g91
asbasbasbag48
(g64
g50
NtRp4077
(dp4078
g53
(dp4079
sg62
g3441
sg55
(lp4080
g48
(g69
g50
NtRp4081
(dp4082
g53
(dp4083
g73
g74
ssg62
g4077
sg55
(lp4084
S'status'
p4085
asbag48
(g69
g50
NtRp4086
(dp4087
g53
(dp4088
g80
g81
ssg62
g4077
sg55
(lp4089
S':'
asbag48
(g69
g50
NtRp4090
(dp4091
g53
(dp4092
sg62
g4077
sg55
(lp4093
g48
(g49
g50
NtRp4094
(dp4095
g53
(dp4096
g61
I5
ssg62
g4090
sg55
(lp4097
S'200'
p4098
asbasbasbag48
(g64
g50
NtRp4099
(dp4100
g53
(dp4101
sg62
g3441
sg55
(lp4102
g48
(g69
g50
NtRp4103
(dp4104
g53
(dp4105
g73
g74
ssg62
g4099
sg55
(lp4106
g2725
asbag48
(g69
g50
NtRp4107
(dp4108
g53
(dp4109
g80
g81
ssg62
g4099
sg55
(lp4110
S':'
asbag48
(g69
g50
NtRp4111
(dp4112
g53
(dp4113
sg62
g4099
sg55
(lp4114
g48
(g49
g50
NtRp4115
(dp4116
g53
(dp4117
g61
I5
ssg62
g4111
sg55
(lp4118
g2738
asbasbasbag48
(g64
g50
NtRp4119
(dp4120
g53
(dp4121
sg62
g3441
sg55
(lp4122
g48
(g69
g50
NtRp4123
(dp4124
g53
(dp4125
g73
g74
ssg62
g4119
sg55
(lp4126
S'view'
p4127
asbag48
(g69
g50
NtRp4128
(dp4129
g53
(dp4130
g80
g81
ssg62
g4119
sg55
(lp4131
S':'
asbag48
(g69
g50
NtRp4132
(dp4133
g53
(dp4134
sg62
g4119
sg55
(lp4135
g48
(g49
g50
NtRp4136
(dp4137
g53
(dp4138
g61
I5
ssg62
g4132
sg55
(lp4139
S'default/index.html'
p4140
asbasbasbasbasbsS'locals'
p4141
(dp4142
S'Service'
p4143
S"<class 'gluon.tools.Service'>"
p4144
sS'OBJECT'
p4145
S"<class 'gluon.html.OBJECT'>"
p4146
sS'SQLDB'
p4147
S"<class 'gluon.dal.DAL'>"
p4148
sg3423
S'<Storage {\'_formkey[register]\': \'bc609e8a-865f-4...sh\': \'\\x03\\x07W"\\xaeg?rw\\xa6\\xeb\\x9e~\\xac\\x85<\'}>'
p4149
sS'LINK'
p4150
S"<class 'gluon.html.LINK'>"
p4151
sS'BR'
p4152
S"<class 'gluon.html.BR'>"
p4153
sS'local_import'
p4154
S'<function <lambda> at 0x03D6B670>'
p4155
sS'OPTGROUP'
p4156
S"<class 'gluon.html.OPTGROUP'>"
p4157
sS'PRE'
p4158
S"<class 'gluon.html.PRE'>"
p4159
sS'IS_INT_IN_RANGE'
p4160
S"<class 'gluon.validators.IS_INT_IN_RANGE'>"
p4161
sS'IS_LOWER'
p4162
S"<class 'gluon.validators.IS_LOWER'>"
p4163
sS'IS_STRONG'
p4164
S"<class 'gluon.validators.IS_STRONG'>"
p4165
sS'cache'
p4166
S'<gluon.cache.Cache object at 0x03C99D70>'
p4167
sS'IS_IN_DB'
p4168
S"<class 'gluon.validators.IS_IN_DB'>"
p4169
sS'TAG'
p4170
S'<gluon.html.__TAG__ object at 0x02390730>'
p4171
sS'SQLField'
p4172
S"<class 'gluon.dal.Field'>"
p4173
sS'BODY'
p4174
S"<class 'gluon.html.BODY'>"
p4175
sS'IS_DATE_IN_RANGE'
p4176
S"<class 'gluon.validators.IS_DATE_IN_RANGE'>"
p4177
sS'IFRAME'
p4178
S"<class 'gluon.html.IFRAME'>"
p4179
sS'URL'
p4180
S'<function URL at 0x023E9B70>'
p4181
sS'__file__'
p4182
S"r'P:\\Workbench\\DevEnv\\web2py\\applications\\init\\models\\db.py'"
p4183
sS'db'
p4184
S"<DAL {'_migrate_enabled': True, '_lastsql': '', ...'_uri_hash': 'c8b669d15150d7109e5f7ab36744a5b7'}>"
p4185
sS'auth'
p4186
S'<gluon.tools.Auth object at 0x06BA51F0>'
p4187
sS'P'
S"<class 'gluon.html.P'>"
p4188
sS'TFOOT'
p4189
S"<class 'gluon.html.TFOOT'>"
p4190
sS'XHTML'
p4191
S"<class 'gluon.html.XHTML'>"
p4192
sS'ON'
p4193
g2081
sS'OL'
p4194
S"<class 'gluon.html.OL'>"
p4195
sS'TEXTAREA'
p4196
S"<class 'gluon.html.TEXTAREA'>"
p4197
sS'MENU'
p4198
S"<class 'gluon.html.MENU'>"
p4199
sS'EM'
p4200
S"<class 'gluon.html.EM'>"
p4201
sS'CODE'
p4202
S"<class 'gluon.html.CODE'>"
p4203
sS'HTTP'
p4204
S"<class 'gluon.http.HTTP'>"
p4205
sS'HR'
p4206
S"<class 'gluon.html.HR'>"
p4207
sS'IS_DATETIME'
p4208
S"<class 'gluon.validators.IS_DATETIME'>"
p4209
sS'STYLE'
p4210
S"<class 'gluon.html.STYLE'>"
p4211
sS'LABEL'
p4212
S"<class 'gluon.html.LABEL'>"
p4213
sS'META'
p4214
S"<class 'gluon.html.META'>"
p4215
sS'plugins'
p4216
S'<gluon.tools.PluginManager object at 0x03B1A350>'
p4217
sS'SELECT'
p4218
S"<class 'gluon.html.SELECT'>"
p4219
sS'CENTER'
p4220
S"<class 'gluon.html.CENTER'>"
p4221
sS'prettydate'
p4222
S'<function prettydate at 0x02C9D4F0>'
p4223
sS'Crud'
p4224
S"<class 'gluon.tools.Crud'>"
p4225
sS'Auth'
p4226
S"<class 'gluon.tools.Auth'>"
p4227
sS'__builtins__'
p4228
S"{'ArithmeticError': <type 'exceptions.ArithmeticError'>, 'AssertionError': <type 'exceptions.AssertionError'>, 'AttributeError': <type 'exceptions.AttributeError'>, 'BaseException': <type 'exceptions.BaseException'>, 'DeprecationWarning': <type 'exceptions.DeprecationWarning'>, 'EOFError': <type 'exceptions.EOFError'>, 'Ellipsis': Ellipsis, 'EnvironmentError': <type 'exceptions.EnvironmentError'>, 'Exception': <type 'exceptions.Exception'>, 'False': False, ...}"
p4229
sS'HTML'
p4230
S"<class 'gluon.html.HTML'>"
p4231
sS'SQLFORM'
p4232
S"<class 'gluon.sqlhtml.SQLFORM'>"
p4233
sS'LOAD'
p4234
S'<gluon.compileapp.LoadFactory object at 0x06BA5790>'
p4235
sS'redirect'
p4236
S'<function redirect at 0x0212B530>'
p4237
sS'FIELDSET'
p4238
S"<class 'gluon.html.FIELDSET'>"
p4239
sS'IS_EQUAL_TO'
p4240
S"<class 'gluon.validators.IS_EQUAL_TO'>"
p4241
sS'embed64'
p4242
S'<function embed64 at 0x023F06B0>'
p4243
sS'IS_LIST_OF'
p4244
S"<class 'gluon.validators.IS_LIST_OF'>"
p4245
sS'INPUT'
p4246
S"<class 'gluon.html.INPUT'>"
p4247
sS'EMBED'
p4248
S"<class 'gluon.html.EMBED'>"
p4249
sS'FORM'
p4250
S"<class 'gluon.html.FORM'>"
p4251
sS'H2'
p4252
S"<class 'gluon.html.H2'>"
p4253
sS'H3'
p4254
S"<class 'gluon.html.H3'>"
p4255
sS'BUTTON'
p4256
S"<class 'gluon.html.BUTTON'>"
p4257
sS'H1'
p4258
S"<class 'gluon.html.H1'>"
p4259
sS'H6'
p4260
S"<class 'gluon.html.H6'>"
p4261
sS'H4'
p4262
S"<class 'gluon.html.H4'>"
p4263
sS'H5'
p4264
S"<class 'gluon.html.H5'>"
p4265
sS'UL'
p4266
S"<class 'gluon.html.UL'>"
p4267
sS'IS_UPPER'
p4268
S"<class 'gluon.validators.IS_UPPER'>"
p4269
sS'xmlescape'
p4270
S'<function xmlescape at 0x023E9B30>'
p4271
sS'IS_TIME'
p4272
S"<class 'gluon.validators.IS_TIME'>"
p4273
sS'OPTION'
p4274
S"<class 'gluon.html.OPTION'>"
p4275
sS'TITLE'
p4276
S"<class 'gluon.html.TITLE'>"
p4277
sS'CRYPT'
p4278
S"<class 'gluon.validators.CRYPT'>"
p4279
sS'IS_EMPTY_OR'
p4280
S"<class 'gluon.validators.IS_EMPTY_OR'>"
p4281
sS'MARKMIN'
p4282
S"<class 'gluon.html.MARKMIN'>"
p4283
sS'COL'
p4284
S"<class 'gluon.html.COL'>"
p4285
sS'service'
p4286
S'<gluon.tools.Service object at 0x06BA58B0>'
p4287
sS'SCRIPT'
p4288
S"<class 'gluon.html.SCRIPT'>"
p4289
sS'TABLE'
p4290
S"<class 'gluon.html.TABLE'>"
p4291
sS'IS_IPV4'
p4292
S"<class 'gluon.validators.IS_IPV4'>"
p4293
sS'IS_LENGTH'
p4294
S"<class 'gluon.validators.IS_LENGTH'>"
p4295
sS'XML'
p4296
S"<class 'gluon.html.XML'>"
p4297
sS'B'
S"<class 'gluon.html.B'>"
p4298
sS'IMG'
p4299
S"<class 'gluon.html.IMG'>"
p4300
sS'SQLTABLE'
p4301
S"<class 'gluon.sqlhtml.SQLTABLE'>"
p4302
sS'IS_MATCH'
p4303
S"<class 'gluon.validators.IS_MATCH'>"
p4304
sS'IS_ALPHANUMERIC'
p4305
S"<class 'gluon.validators.IS_ALPHANUMERIC'>"
p4306
sS'SPAN'
p4307
S"<class 'gluon.html.SPAN'>"
p4308
sS'IS_SLUG'
p4309
S"<class 'gluon.validators.IS_SLUG'>"
p4310
sS'CLEANUP'
p4311
S"<class 'gluon.validators.CLEANUP'>"
p4312
sS'IS_DATE'
p4313
S"<class 'gluon.validators.IS_DATE'>"
p4314
sS'IS_EMAIL'
p4315
S"<class 'gluon.validators.IS_EMAIL'>"
p4316
sS'IS_NOT_EMPTY'
p4317
S"<class 'gluon.validators.IS_NOT_EMPTY'>"
p4318
sS'IS_FLOAT_IN_RANGE'
p4319
S"<class 'gluon.validators.IS_FLOAT_IN_RANGE'>"
p4320
sS'BEAUTIFY'
p4321
S"<class 'gluon.html.BEAUTIFY'>"
p4322
sS'TBODY'
p4323
S"<class 'gluon.html.TBODY'>"
p4324
sS'CAT'
p4325
S"<class 'gluon.html.CAT'>"
p4326
sS'Field'
p4327
S"<class 'gluon.dal.Field'>"
p4328
sS'DIV'
p4329
S"<class 'gluon.html.DIV'>"
p4330
sS'LEGEND'
p4331
S"<class 'gluon.html.LEGEND'>"
p4332
sS'COLGROUP'
p4333
S"<class 'gluon.html.COLGROUP'>"
p4334
sS'DAL'
p4335
S"<class 'gluon.dal.DAL'>"
p4336
sS'TT'
p4337
S"<class 'gluon.html.TT'>"
p4338
sS'TR'
p4339
S"<class 'gluon.html.TR'>"
p4340
sS'LI'
p4341
S"<class 'gluon.html.LI'>"
p4342
sS'TH'
p4343
S"<class 'gluon.html.TH'>"
p4344
sS'TD'
p4345
S"<class 'gluon.html.TD'>"
p4346
sS'PluginManager'
p4347
S"<class 'gluon.tools.PluginManager'>"
p4348
sS'IS_URL'
p4349
S"<class 'gluon.validators.IS_URL'>"
p4350
sS'A'
S"<class 'gluon.html.A'>"
p4351
sS'HEAD'
p4352
S"<class 'gluon.html.HEAD'>"
p4353
sS'IS_DATETIME_IN_RANGE'
p4354
S"<class 'gluon.validators.IS_DATETIME_IN_RANGE'>"
p4355
sS'IS_IMAGE'
p4356
S"<class 'gluon.validators.IS_IMAGE'>"
p4357
sS'I'
S"<class 'gluon.html.I'>"
p4358
sS'crud'
p4359
S'<gluon.tools.Crud object at 0x06BA5DD0>'
p4360
sS'IS_NOT_IN_DB'
p4361
S"<class 'gluon.validators.IS_NOT_IN_DB'>"
p4362
sg3436
S"<Storage {'status': 200, 'body': <cStringIO.Stri...DF0>, 'files': [], 'view': 'default/index.html'}>"
p4363
sS'THEAD'
p4364
S"<class 'gluon.html.THEAD'>"
p4365
sS'IS_NULL_OR'
p4366
S"<class 'gluon.validators.IS_EMPTY_OR'>"
p4367
sg47
S"<Storage {'body': <cStringIO.StringO object at 0..._vars': <Storage {}>, 'post_vars': <Storage {}>}>"
p4368
sS'IS_EXPR'
p4369
S"<class 'gluon.validators.IS_EXPR'>"
p4370
sS'IS_IN_SET'
p4371
S"<class 'gluon.validators.IS_IN_SET'>"
p4372
sS'IS_UPLOAD_FILENAME'
p4373
S"<class 'gluon.validators.IS_UPLOAD_FILENAME'>"
p4374
sS'IS_DECIMAL_IN_RANGE'
p4375
S"<class 'gluon.validators.IS_DECIMAL_IN_RANGE'>"
p4376
sS'T'
S'<gluon.languages.translator object at 0x0439AA10>'
p4377
sssS'traceback'
p4378
S'Traceback (most recent call last):\n  File "gluon/restricted.py", line 194, in restricted\n  File "P:\\Workbench\\DevEnv\\web2py\\applications\\init\\models\\db.py", line 46, in <module>\nAttributeError: \'Auth\' object has no attribute \'auth_user\'\n'
p4379
s.