(dp1
S'output'
p2
S"<type 'exceptions.SyntaxError'> Field partcipants does not belong to the table"
p3
sS'layer'
p4
S'P:\\School\\DePaul\\Projects\\CSC_438\\web2py\\applications\\init\\controllers/default.py'
p5
sS'code'
p6
S'# -*- coding: utf-8 -*-\n# this file is released under public domain and you can use without limitations\n\n##### Page Functions #####\n@auth.requires_login()\ndef index():\n   redirect(URL(\'home\'))\n\ndef user():\n    """\n    exposes:\n    http://..../[app]/default/user/login\n    http://..../[app]/default/user/logout\n    http://..../[app]/default/user/register\n    http://..../[app]/default/user/profile\n    http://..../[app]/default/user/retrieve_password\n    http://..../[app]/default/user/change_password\n    use @auth.requires_login()\n        @auth.requires_membership(\'group name\')\n        @auth.requires_permission(\'read\',\'table name\',record_id)\n    to decorate functions that need access control\n    """\n\n    return dict(form=auth())\n\n## Users home page.\n@auth.requires_login()\ndef home():\n\n    db.events.name.represent = lambda name, row: A(name, _href=URL(\'home\'))\n        \n    ## get the challenges the users is currently enrolled in\n    query = db.events.participants.contains(auth.user.id)\n    events = db(query).select(orderby=db.events.name)\n\n    return dict(events=events)\n\n# Create a new challenge\n@auth.requires_login()\ndef create():\n\n    form = SQLFORM(db.events)\n         \n    if form.process(session=None, onvalidation=date_compare, formname=\'create\').accepted:\n        response.flash = \'form accepted\'\n        redirect(URL(\'home\'))\n    elif form.errors:\n        response.flash = \'form has errors\'\n    else:\n        response.flash = \'please fill the form\'\n \n    return dict(form = form)\n\n# Edit an existing Challenge. You can only edit challenges you created\n@auth.requires_login()\ndef edit():\n\n    event_id= request.vars.event\n    event_query = db.events.id == event_id\n    event = db(event_query).select().first()\n    form= SQLFORM(db.events, event)\n    \n    if form.process(session=None, onvalidation=date_compare, formname=\'edit\').accepted:\n        response.flash = \'form accepted\'\n        redirect(URL(\'home\'))\n    elif form.errors:\n        response.flash = \'form has errors\'\n    else:\n        response.flash = \'please fill the form\'\n\n    return dict(form = form)\n    \n## View the details of a challenge        \n@auth.requires_login()\ndef challenge():\n\n    event_id= request.vars.event\n    event_query = db.events.id == event_id\n    form= db(event_query).select().first()\n    \n    # Get the registered users\n    entries_query = db.event_users.event == event_id\n    entries = db(entries_query).select(db.entries.ALL, groupby=db.entries.user)\n\n    num_users = len(entries)        \n    form.writable = False\n\n    return dict(form=form, entries=entries, num_users=num_users)\n\ndef join():\n    \n    event_id=request.vars.event\n    event_update = db.events.id == event_id\n    update = db(event_update).update(partcipants=auth.user.id)\n    \n    redirect(URL(\'home\',  vars=dict(event=event)))\n\n@auth.requires_login()\ndef search():\n\n    ## get all challenges\n\n    events = db(db.events).select(orderby=db.events.name)\n\n    return dict(events=events)\n        \ndef contact():\n\n    return dict()\n    \n##### Utility Functions #####    \n\n# Get the users registered for this event\ndef get_users(event_id):\n\n    user_query = db.event_users.event == event_id\n    users = db(user_query).select()\n            \n    return (users)\n    \ndef get_entries(user):\n    \n    entry_query = db.entries.user == user\n    entry = db(entry_query).select(orderby=db.entries.date_entered).last()\n\n    return (entry)    \n\n# Make sure Start Date is less then End Date\ndef date_compare(form):\n    if form.vars.start_date > form.vars.end_date:\n        form.errors.end_date = \'End Date must be after Start Date\'\n\ndef download():\n    """\n    allows downloading of uploaded files\n    http://..../[app]/default/download/[filename]\n    """\n    return response.download(request,db)\n\n\ndef call():\n    """\n    exposes services. for example:\n    http://..../[app]/default/call/jsonrpc\n    decorate with @services.jsonrpc the functions to expose\n    supports xml, json, xmlrpc, jsonrpc, amfrpc, rss, csv\n    """\n    return service()\n\n\n@auth.requires_signature()\ndef data():\n    """\n    http://..../[app]/default/data/tables\n    http://..../[app]/default/data/create/[table]\n    http://..../[app]/default/data/read/[table]/[id]\n    http://..../[app]/default/data/update/[table]/[id]\n    http://..../[app]/default/data/delete/[table]/[id]\n    http://..../[app]/default/data/select/[table]\n    http://..../[app]/default/data/search/[table]\n    but URLs bust be signed, i.e. linked with\n      A(\'table\',_href=URL(\'data/tables\',user_signature=True))\n    or with the signed load operator\n      LOAD(\'default\',\'data.load\',args=\'tables\',ajax=True,user_signature=True)\n    """\n    return dict(form=crud())\n\nresponse._vars=response._caller(join)\n'
p7
sS'snapshot'
p8
(dp9
S'exception'
p10
(dp11
S'__getslice__'
p12
S"<method-wrapper '__getslice__' of exceptions.SyntaxError object>"
p13
sS'text'
p14
S'None'
p15
sS'__str__'
p16
S"<method-wrapper '__str__' of exceptions.SyntaxError object>"
p17
sS'__reduce__'
p18
S'<built-in method __reduce__ of exceptions.SyntaxError object>'
p19
sS'__dict__'
p20
S'{}'
p21
sS'__sizeof__'
p22
S'<built-in method __sizeof__ of exceptions.SyntaxError object>'
p23
sS'__init__'
p24
S"<method-wrapper '__init__' of exceptions.SyntaxError object>"
p25
sS'__setattr__'
p26
S"<method-wrapper '__setattr__' of exceptions.SyntaxError object>"
p27
sS'__reduce_ex__'
p28
S'<built-in method __reduce_ex__ of exceptions.SyntaxError object>'
p29
sS'__new__'
p30
S'<built-in method __new__ of type object>'
p31
sS'__format__'
p32
S'<built-in method __format__ of exceptions.SyntaxError object>'
p33
sS'__class__'
p34
S"<type 'exceptions.SyntaxError'>"
p35
sS'filename'
p36
S'None'
p37
sS'lineno'
p38
S'None'
p39
sS'msg'
p40
S"'Field partcipants does not belong to the table'"
p41
sS'__doc__'
p42
S"'Invalid syntax.'"
p43
sS'__getitem__'
p44
S"<method-wrapper '__getitem__' of exceptions.SyntaxError object>"
p45
sS'__setstate__'
p46
S'<built-in method __setstate__ of exceptions.SyntaxError object>'
p47
sS'__getattribute__'
p48
S"<method-wrapper '__getattribute__' of exceptions.SyntaxError object>"
p49
sS'print_file_and_line'
p50
S'None'
p51
sS'args'
p52
S"('Field partcipants does not belong to the table',)"
p53
sS'__subclasshook__'
p54
S'<built-in method __subclasshook__ of type object>'
p55
sS'offset'
p56
S'None'
p57
sS'__unicode__'
p58
S'<built-in method __unicode__ of exceptions.SyntaxError object>'
p59
sS'__delattr__'
p60
S"<method-wrapper '__delattr__' of exceptions.SyntaxError object>"
p61
sS'__repr__'
p62
S"<method-wrapper '__repr__' of exceptions.SyntaxError object>"
p63
sS'__hash__'
p64
S"<method-wrapper '__hash__' of exceptions.SyntaxError object>"
p65
ssS'evalue'
p66
S'Field partcipants does not belong to the table'
p67
sS'request'
p68
ccopy_reg
_reconstructor
p69
(cgluon.html
BEAUTIFY
p70
c__builtin__
object
p71
NtRp72
(dp73
S'attributes'
p74
(dp75
sS'components'
p76
(lp77
g69
(cgluon.html
TABLE
p78
g71
NtRp79
(dp80
g74
(dp81
S'level'
p82
I5
ssS'parent'
p83
Nsg76
(lp84
g69
(cgluon.html
TR
p85
g71
NtRp86
(dp87
g74
(dp88
sg83
g79
sg76
(lp89
g69
(cgluon.html
TD
p90
g71
NtRp91
(dp92
g74
(dp93
S'_style'
p94
S'font-weight:bold;vertical-align:top'
p95
ssg83
g86
sg76
(lp96
S'ajax'
p97
asbag69
(g90
g71
NtRp98
(dp99
g74
(dp100
S'_valign'
p101
S'top'
p102
ssg83
g86
sg76
(lp103
S':'
asbag69
(g90
g71
NtRp104
(dp105
g74
(dp106
sg83
g86
sg76
(lp107
g69
(g70
g71
NtRp108
(dp109
g74
(dp110
g82
I5
ssg83
g104
sg76
(lp111
S'False'
p112
asbasbasbag69
(g85
g71
NtRp113
(dp114
g74
(dp115
sg83
g79
sg76
(lp116
g69
(g90
g71
NtRp117
(dp118
g74
(dp119
g94
g95
ssg83
g113
sg76
(lp120
S'application'
p121
asbag69
(g90
g71
NtRp122
(dp123
g74
(dp124
g101
g102
ssg83
g113
sg76
(lp125
S':'
asbag69
(g90
g71
NtRp126
(dp127
g74
(dp128
sg83
g113
sg76
(lp129
g69
(g70
g71
NtRp130
(dp131
g74
(dp132
g82
I5
ssg83
g126
sg76
(lp133
S'init'
p134
asbasbasbag69
(g85
g71
NtRp135
(dp136
g74
(dp137
sg83
g79
sg76
(lp138
g69
(g90
g71
NtRp139
(dp140
g74
(dp141
g94
g95
ssg83
g135
sg76
(lp142
g52
asbag69
(g90
g71
NtRp143
(dp144
g74
(dp145
g101
g102
ssg83
g135
sg76
(lp146
S':'
asbag69
(g90
g71
NtRp147
(dp148
g74
(dp149
sg83
g135
sg76
(lp150
g69
(g70
g71
NtRp151
(dp152
g74
(dp153
g82
I5
ssg83
g147
sg76
(lp154
g69
(g78
g71
NtRp155
(dp156
g74
(dp157
g82
I4
ssg83
Nsg76
(lp158
sbasbasbasbag69
(g85
g71
NtRp159
(dp160
g74
(dp161
sg83
g79
sg76
(lp162
g69
(g90
g71
NtRp163
(dp164
g74
(dp165
g94
g95
ssg83
g159
sg76
(lp166
S'body'
p167
asbag69
(g90
g71
NtRp168
(dp169
g74
(dp170
g101
g102
ssg83
g159
sg76
(lp171
S':'
asbag69
(g90
g71
NtRp172
(dp173
g74
(dp174
sg83
g159
sg76
(lp175
g69
(g70
g71
NtRp176
(dp177
g74
(dp178
g82
I5
ssg83
g172
sg76
(lp179
S'<cStringIO.StringO object at 0x038A1B60>'
p180
asbasbasbag69
(g85
g71
NtRp181
(dp182
g74
(dp183
sg83
g79
sg76
(lp184
g69
(g90
g71
NtRp185
(dp186
g74
(dp187
g94
g95
ssg83
g181
sg76
(lp188
S'client'
p189
asbag69
(g90
g71
NtRp190
(dp191
g74
(dp192
g101
g102
ssg83
g181
sg76
(lp193
S':'
asbag69
(g90
g71
NtRp194
(dp195
g74
(dp196
sg83
g181
sg76
(lp197
g69
(g70
g71
NtRp198
(dp199
g74
(dp200
g82
I5
ssg83
g194
sg76
(lp201
S'127.0.0.1'
p202
asbasbasbag69
(g85
g71
NtRp203
(dp204
g74
(dp205
sg83
g79
sg76
(lp206
g69
(g90
g71
NtRp207
(dp208
g74
(dp209
g94
g95
ssg83
g203
sg76
(lp210
S'controller'
p211
asbag69
(g90
g71
NtRp212
(dp213
g74
(dp214
g101
g102
ssg83
g203
sg76
(lp215
S':'
asbag69
(g90
g71
NtRp216
(dp217
g74
(dp218
sg83
g203
sg76
(lp219
g69
(g70
g71
NtRp220
(dp221
g74
(dp222
g82
I5
ssg83
g216
sg76
(lp223
S'default'
p224
asbasbasbag69
(g85
g71
NtRp225
(dp226
g74
(dp227
sg83
g79
sg76
(lp228
g69
(g90
g71
NtRp229
(dp230
g74
(dp231
g94
g95
ssg83
g225
sg76
(lp232
S'cookies'
p233
asbag69
(g90
g71
NtRp234
(dp235
g74
(dp236
g101
g102
ssg83
g225
sg76
(lp237
S':'
asbag69
(g90
g71
NtRp238
(dp239
g74
(dp240
sg83
g225
sg76
(lp241
g69
(g70
g71
NtRp242
(dp243
g74
(dp244
g82
I5
ssg83
g238
sg76
(lp245
g69
(g78
g71
NtRp246
(dp247
g74
(dp248
g82
I4
ssg83
Nsg76
(lp249
g69
(g85
g71
NtRp250
(dp251
g74
(dp252
sg83
g246
sg76
(lp253
g69
(g90
g71
NtRp254
(dp255
g74
(dp256
g94
g95
ssg83
g250
sg76
(lp257
S'session_id_admin'
p258
asbag69
(g90
g71
NtRp259
(dp260
g74
(dp261
g101
g102
ssg83
g250
sg76
(lp262
S':'
asbag69
(g90
g71
NtRp263
(dp264
g74
(dp265
sg83
g250
sg76
(lp266
g69
(g70
g71
NtRp267
(dp268
g74
(dp269
g82
I4
ssg83
g263
sg76
(lp270
g69
(g78
g71
NtRp271
(dp272
g74
(dp273
g82
I3
ssg83
Nsg76
(lp274
g69
(g85
g71
NtRp275
(dp276
g74
(dp277
sg83
g271
sg76
(lp278
g69
(g90
g71
NtRp279
(dp280
g74
(dp281
g94
g95
ssg83
g275
sg76
(lp282
S'comment'
p283
asbag69
(g90
g71
NtRp284
(dp285
g74
(dp286
g101
g102
ssg83
g275
sg76
(lp287
S':'
asbag69
(g90
g71
NtRp288
(dp289
g74
(dp290
sg83
g275
sg76
(lp291
g69
(g70
g71
NtRp292
(dp293
g74
(dp294
g82
I3
ssg83
g288
sg76
(lp295
S''
asbasbasbag69
(g85
g71
NtRp296
(dp297
g74
(dp298
sg83
g271
sg76
(lp299
g69
(g90
g71
NtRp300
(dp301
g74
(dp302
g94
g95
ssg83
g296
sg76
(lp303
S'domain'
p304
asbag69
(g90
g71
NtRp305
(dp306
g74
(dp307
g101
g102
ssg83
g296
sg76
(lp308
S':'
asbag69
(g90
g71
NtRp309
(dp310
g74
(dp311
sg83
g296
sg76
(lp312
g69
(g70
g71
NtRp313
(dp314
g74
(dp315
g82
I3
ssg83
g309
sg76
(lp316
S''
asbasbasbag69
(g85
g71
NtRp317
(dp318
g74
(dp319
sg83
g271
sg76
(lp320
g69
(g90
g71
NtRp321
(dp322
g74
(dp323
g94
g95
ssg83
g317
sg76
(lp324
S'expires'
p325
asbag69
(g90
g71
NtRp326
(dp327
g74
(dp328
g101
g102
ssg83
g317
sg76
(lp329
S':'
asbag69
(g90
g71
NtRp330
(dp331
g74
(dp332
sg83
g317
sg76
(lp333
g69
(g70
g71
NtRp334
(dp335
g74
(dp336
g82
I3
ssg83
g330
sg76
(lp337
S''
asbasbasbag69
(g85
g71
NtRp338
(dp339
g74
(dp340
sg83
g271
sg76
(lp341
g69
(g90
g71
NtRp342
(dp343
g74
(dp344
g94
g95
ssg83
g338
sg76
(lp345
S'httponly'
p346
asbag69
(g90
g71
NtRp347
(dp348
g74
(dp349
g101
g102
ssg83
g338
sg76
(lp350
S':'
asbag69
(g90
g71
NtRp351
(dp352
g74
(dp353
sg83
g338
sg76
(lp354
g69
(g70
g71
NtRp355
(dp356
g74
(dp357
g82
I3
ssg83
g351
sg76
(lp358
S''
asbasbasbag69
(g85
g71
NtRp359
(dp360
g74
(dp361
sg83
g271
sg76
(lp362
g69
(g90
g71
NtRp363
(dp364
g74
(dp365
g94
g95
ssg83
g359
sg76
(lp366
S'max-age'
p367
asbag69
(g90
g71
NtRp368
(dp369
g74
(dp370
g101
g102
ssg83
g359
sg76
(lp371
S':'
asbag69
(g90
g71
NtRp372
(dp373
g74
(dp374
sg83
g359
sg76
(lp375
g69
(g70
g71
NtRp376
(dp377
g74
(dp378
g82
I3
ssg83
g372
sg76
(lp379
S''
asbasbasbag69
(g85
g71
NtRp380
(dp381
g74
(dp382
sg83
g271
sg76
(lp383
g69
(g90
g71
NtRp384
(dp385
g74
(dp386
g94
g95
ssg83
g380
sg76
(lp387
S'path'
p388
asbag69
(g90
g71
NtRp389
(dp390
g74
(dp391
g101
g102
ssg83
g380
sg76
(lp392
S':'
asbag69
(g90
g71
NtRp393
(dp394
g74
(dp395
sg83
g380
sg76
(lp396
g69
(g70
g71
NtRp397
(dp398
g74
(dp399
g82
I3
ssg83
g393
sg76
(lp400
S''
asbasbasbag69
(g85
g71
NtRp401
(dp402
g74
(dp403
sg83
g271
sg76
(lp404
g69
(g90
g71
NtRp405
(dp406
g74
(dp407
g94
g95
ssg83
g401
sg76
(lp408
S'secure'
p409
asbag69
(g90
g71
NtRp410
(dp411
g74
(dp412
g101
g102
ssg83
g401
sg76
(lp413
S':'
asbag69
(g90
g71
NtRp414
(dp415
g74
(dp416
sg83
g401
sg76
(lp417
g69
(g70
g71
NtRp418
(dp419
g74
(dp420
g82
I3
ssg83
g414
sg76
(lp421
S''
asbasbasbag69
(g85
g71
NtRp422
(dp423
g74
(dp424
sg83
g271
sg76
(lp425
g69
(g90
g71
NtRp426
(dp427
g74
(dp428
g94
g95
ssg83
g422
sg76
(lp429
S'version'
p430
asbag69
(g90
g71
NtRp431
(dp432
g74
(dp433
g101
g102
ssg83
g422
sg76
(lp434
S':'
asbag69
(g90
g71
NtRp435
(dp436
g74
(dp437
sg83
g422
sg76
(lp438
g69
(g70
g71
NtRp439
(dp440
g74
(dp441
g82
I3
ssg83
g435
sg76
(lp442
S''
asbasbasbasbasbasbasbag69
(g85
g71
NtRp443
(dp444
g74
(dp445
sg83
g246
sg76
(lp446
g69
(g90
g71
NtRp447
(dp448
g74
(dp449
g94
g95
ssg83
g443
sg76
(lp450
S'session_id_init'
p451
asbag69
(g90
g71
NtRp452
(dp453
g74
(dp454
g101
g102
ssg83
g443
sg76
(lp455
S':'
asbag69
(g90
g71
NtRp456
(dp457
g74
(dp458
sg83
g443
sg76
(lp459
g69
(g70
g71
NtRp460
(dp461
g74
(dp462
g82
I4
ssg83
g456
sg76
(lp463
g69
(g78
g71
NtRp464
(dp465
g74
(dp466
g82
I3
ssg83
Nsg76
(lp467
g69
(g85
g71
NtRp468
(dp469
g74
(dp470
sg83
g464
sg76
(lp471
g69
(g90
g71
NtRp472
(dp473
g74
(dp474
g94
g95
ssg83
g468
sg76
(lp475
g283
asbag69
(g90
g71
NtRp476
(dp477
g74
(dp478
g101
g102
ssg83
g468
sg76
(lp479
S':'
asbag69
(g90
g71
NtRp480
(dp481
g74
(dp482
sg83
g468
sg76
(lp483
g69
(g70
g71
NtRp484
(dp485
g74
(dp486
g82
I3
ssg83
g480
sg76
(lp487
S''
asbasbasbag69
(g85
g71
NtRp488
(dp489
g74
(dp490
sg83
g464
sg76
(lp491
g69
(g90
g71
NtRp492
(dp493
g74
(dp494
g94
g95
ssg83
g488
sg76
(lp495
g304
asbag69
(g90
g71
NtRp496
(dp497
g74
(dp498
g101
g102
ssg83
g488
sg76
(lp499
S':'
asbag69
(g90
g71
NtRp500
(dp501
g74
(dp502
sg83
g488
sg76
(lp503
g69
(g70
g71
NtRp504
(dp505
g74
(dp506
g82
I3
ssg83
g500
sg76
(lp507
S''
asbasbasbag69
(g85
g71
NtRp508
(dp509
g74
(dp510
sg83
g464
sg76
(lp511
g69
(g90
g71
NtRp512
(dp513
g74
(dp514
g94
g95
ssg83
g508
sg76
(lp515
g325
asbag69
(g90
g71
NtRp516
(dp517
g74
(dp518
g101
g102
ssg83
g508
sg76
(lp519
S':'
asbag69
(g90
g71
NtRp520
(dp521
g74
(dp522
sg83
g508
sg76
(lp523
g69
(g70
g71
NtRp524
(dp525
g74
(dp526
g82
I3
ssg83
g520
sg76
(lp527
S''
asbasbasbag69
(g85
g71
NtRp528
(dp529
g74
(dp530
sg83
g464
sg76
(lp531
g69
(g90
g71
NtRp532
(dp533
g74
(dp534
g94
g95
ssg83
g528
sg76
(lp535
g346
asbag69
(g90
g71
NtRp536
(dp537
g74
(dp538
g101
g102
ssg83
g528
sg76
(lp539
S':'
asbag69
(g90
g71
NtRp540
(dp541
g74
(dp542
sg83
g528
sg76
(lp543
g69
(g70
g71
NtRp544
(dp545
g74
(dp546
g82
I3
ssg83
g540
sg76
(lp547
S''
asbasbasbag69
(g85
g71
NtRp548
(dp549
g74
(dp550
sg83
g464
sg76
(lp551
g69
(g90
g71
NtRp552
(dp553
g74
(dp554
g94
g95
ssg83
g548
sg76
(lp555
g367
asbag69
(g90
g71
NtRp556
(dp557
g74
(dp558
g101
g102
ssg83
g548
sg76
(lp559
S':'
asbag69
(g90
g71
NtRp560
(dp561
g74
(dp562
sg83
g548
sg76
(lp563
g69
(g70
g71
NtRp564
(dp565
g74
(dp566
g82
I3
ssg83
g560
sg76
(lp567
S''
asbasbasbag69
(g85
g71
NtRp568
(dp569
g74
(dp570
sg83
g464
sg76
(lp571
g69
(g90
g71
NtRp572
(dp573
g74
(dp574
g94
g95
ssg83
g568
sg76
(lp575
g388
asbag69
(g90
g71
NtRp576
(dp577
g74
(dp578
g101
g102
ssg83
g568
sg76
(lp579
S':'
asbag69
(g90
g71
NtRp580
(dp581
g74
(dp582
sg83
g568
sg76
(lp583
g69
(g70
g71
NtRp584
(dp585
g74
(dp586
g82
I3
ssg83
g580
sg76
(lp587
S''
asbasbasbag69
(g85
g71
NtRp588
(dp589
g74
(dp590
sg83
g464
sg76
(lp591
g69
(g90
g71
NtRp592
(dp593
g74
(dp594
g94
g95
ssg83
g588
sg76
(lp595
g409
asbag69
(g90
g71
NtRp596
(dp597
g74
(dp598
g101
g102
ssg83
g588
sg76
(lp599
S':'
asbag69
(g90
g71
NtRp600
(dp601
g74
(dp602
sg83
g588
sg76
(lp603
g69
(g70
g71
NtRp604
(dp605
g74
(dp606
g82
I3
ssg83
g600
sg76
(lp607
S''
asbasbasbag69
(g85
g71
NtRp608
(dp609
g74
(dp610
sg83
g464
sg76
(lp611
g69
(g90
g71
NtRp612
(dp613
g74
(dp614
g94
g95
ssg83
g608
sg76
(lp615
g430
asbag69
(g90
g71
NtRp616
(dp617
g74
(dp618
g101
g102
ssg83
g608
sg76
(lp619
S':'
asbag69
(g90
g71
NtRp620
(dp621
g74
(dp622
sg83
g608
sg76
(lp623
g69
(g70
g71
NtRp624
(dp625
g74
(dp626
g82
I3
ssg83
g620
sg76
(lp627
S''
asbasbasbasbasbasbasbasbasbasbasbag69
(g85
g71
NtRp628
(dp629
g74
(dp630
sg83
g79
sg76
(lp631
g69
(g90
g71
NtRp632
(dp633
g74
(dp634
g94
g95
ssg83
g628
sg76
(lp635
S'env'
p636
asbag69
(g90
g71
NtRp637
(dp638
g74
(dp639
g101
g102
ssg83
g628
sg76
(lp640
S':'
asbag69
(g90
g71
NtRp641
(dp642
g74
(dp643
sg83
g628
sg76
(lp644
g69
(g70
g71
NtRp645
(dp646
g74
(dp647
g82
I5
ssg83
g641
sg76
(lp648
g69
(g78
g71
NtRp649
(dp650
g74
(dp651
g82
I4
ssg83
Nsg76
(lp652
g69
(g85
g71
NtRp653
(dp654
g74
(dp655
sg83
g649
sg76
(lp656
g69
(g90
g71
NtRp657
(dp658
g74
(dp659
g94
g95
ssg83
g653
sg76
(lp660
S'app_folders'
p661
asbag69
(g90
g71
NtRp662
(dp663
g74
(dp664
g101
g102
ssg83
g653
sg76
(lp665
S':'
asbag69
(g90
g71
NtRp666
(dp667
g74
(dp668
sg83
g653
sg76
(lp669
g69
(g70
g71
NtRp670
(dp671
g74
(dp672
g82
I4
ssg83
g666
sg76
(lp673
S"set(['P:\\\\School\\\\DePaul\\\\Projects\\\\CSC_438\\\\web2py\\\\applications\\\\init\\\\', 'P:\\\\School\\\\DePaul\\\\Projects\\\\CSC_438\\\\web2py\\\\applications\\\\admin\\\\'])"
p674
asbasbasbag69
(g85
g71
NtRp675
(dp676
g74
(dp677
sg83
g649
sg76
(lp678
g69
(g90
g71
NtRp679
(dp680
g74
(dp681
g94
g95
ssg83
g675
sg76
(lp682
S'applications_parent'
p683
asbag69
(g90
g71
NtRp684
(dp685
g74
(dp686
g101
g102
ssg83
g675
sg76
(lp687
S':'
asbag69
(g90
g71
NtRp688
(dp689
g74
(dp690
sg83
g675
sg76
(lp691
g69
(g70
g71
NtRp692
(dp693
g74
(dp694
g82
I4
ssg83
g688
sg76
(lp695
S'P:\\School\\DePaul\\Projects\\CSC_438\\web2py'
p696
asbasbasbag69
(g85
g71
NtRp697
(dp698
g74
(dp699
sg83
g649
sg76
(lp700
g69
(g90
g71
NtRp701
(dp702
g74
(dp703
g94
g95
ssg83
g697
sg76
(lp704
S'cmd_args'
p705
asbag69
(g90
g71
NtRp706
(dp707
g74
(dp708
g101
g102
ssg83
g697
sg76
(lp709
S':'
asbag69
(g90
g71
NtRp710
(dp711
g74
(dp712
sg83
g697
sg76
(lp713
g69
(g70
g71
NtRp714
(dp715
g74
(dp716
g82
I4
ssg83
g710
sg76
(lp717
g69
(g78
g71
NtRp718
(dp719
g74
(dp720
g82
I3
ssg83
Nsg76
(lp721
sbasbasbasbag69
(g85
g71
NtRp722
(dp723
g74
(dp724
sg83
g649
sg76
(lp725
g69
(g90
g71
NtRp726
(dp727
g74
(dp728
g94
g95
ssg83
g722
sg76
(lp729
S'cmd_options'
p730
asbag69
(g90
g71
NtRp731
(dp732
g74
(dp733
g101
g102
ssg83
g722
sg76
(lp734
S':'
asbag69
(g90
g71
NtRp735
(dp736
g74
(dp737
sg83
g722
sg76
(lp738
g69
(g70
g71
NtRp739
(dp740
g74
(dp741
g82
I4
ssg83
g735
sg76
(lp742
S"<Values at 0x35b1ee0: {'verbose': False, 'ip': '127.0.0.1', 'shutdown_timeout': 5, 'taskbar': False, 'nocron': False, 'pid_filename': 'httpserver.pid', 'maxthreads': None, 'softcron': False, 'server_name': 'Bishop-PC', 'bpython': False, 'nogui': False, 'port': 8000, 'extcron': False, 'debuglevel': 30, 'test': None, 'folder': 'P:\\\\School\\\\DePaul\\\\Projects\\\\CSC_438\\\\web2py', 'config': '', 'import_models': False, 'winservice': '', 'shell': None, 'run': '', 'log_filename': 'httpserver.log', 'args': [''], 'ssl_ca_certificate': None, 'scheduler': None, 'profiler_filename': None, 'ssl_private_key': '', 'password': '<ask>', 'request_queue_size': 5, 'ssl_certificate': '', 'cronjob': False, 'plain': False, 'quiet': False, 'interfaces': None, 'minthreads': None, 'timeout': 10, 'numthreads': None, 'nobanner': False}>"
p743
asbasbasbag69
(g85
g71
NtRp744
(dp745
g74
(dp746
sg83
g649
sg76
(lp747
g69
(g90
g71
NtRp748
(dp749
g74
(dp750
g94
g95
ssg83
g744
sg76
(lp751
S'db_sessions'
p752
asbag69
(g90
g71
NtRp753
(dp754
g74
(dp755
g101
g102
ssg83
g744
sg76
(lp756
S':'
asbag69
(g90
g71
NtRp757
(dp758
g74
(dp759
sg83
g744
sg76
(lp760
g69
(g70
g71
NtRp761
(dp762
g74
(dp763
g82
I4
ssg83
g757
sg76
(lp764
S'set([])'
p765
asbasbasbag69
(g85
g71
NtRp766
(dp767
g74
(dp768
sg83
g649
sg76
(lp769
g69
(g90
g71
NtRp770
(dp771
g74
(dp772
g94
g95
ssg83
g766
sg76
(lp773
S'debugging'
p774
asbag69
(g90
g71
NtRp775
(dp776
g74
(dp777
g101
g102
ssg83
g766
sg76
(lp778
S':'
asbag69
(g90
g71
NtRp779
(dp780
g74
(dp781
sg83
g766
sg76
(lp782
g69
(g70
g71
NtRp783
(dp784
g74
(dp785
g82
I4
ssg83
g779
sg76
(lp786
g112
asbasbasbag69
(g85
g71
NtRp787
(dp788
g74
(dp789
sg83
g649
sg76
(lp790
g69
(g90
g71
NtRp791
(dp792
g74
(dp793
g94
g95
ssg83
g787
sg76
(lp794
S'gluon_parent'
p795
asbag69
(g90
g71
NtRp796
(dp797
g74
(dp798
g101
g102
ssg83
g787
sg76
(lp799
S':'
asbag69
(g90
g71
NtRp800
(dp801
g74
(dp802
sg83
g787
sg76
(lp803
g69
(g70
g71
NtRp804
(dp805
g74
(dp806
g82
I4
ssg83
g800
sg76
(lp807
S'P:\\School\\DePaul\\Projects\\CSC_438\\web2py'
p808
asbasbasbag69
(g85
g71
NtRp809
(dp810
g74
(dp811
sg83
g649
sg76
(lp812
g69
(g90
g71
NtRp813
(dp814
g74
(dp815
g94
g95
ssg83
g809
sg76
(lp816
S'http_accept'
p817
asbag69
(g90
g71
NtRp818
(dp819
g74
(dp820
g101
g102
ssg83
g809
sg76
(lp821
S':'
asbag69
(g90
g71
NtRp822
(dp823
g74
(dp824
sg83
g809
sg76
(lp825
g69
(g70
g71
NtRp826
(dp827
g74
(dp828
g82
I4
ssg83
g822
sg76
(lp829
S'text/html,application/xhtml+xml,application/xml;q=0.9,*/*;q=0.8'
p830
asbasbasbag69
(g85
g71
NtRp831
(dp832
g74
(dp833
sg83
g649
sg76
(lp834
g69
(g90
g71
NtRp835
(dp836
g74
(dp837
g94
g95
ssg83
g831
sg76
(lp838
S'http_accept_charset'
p839
asbag69
(g90
g71
NtRp840
(dp841
g74
(dp842
g101
g102
ssg83
g831
sg76
(lp843
S':'
asbag69
(g90
g71
NtRp844
(dp845
g74
(dp846
sg83
g831
sg76
(lp847
g69
(g70
g71
NtRp848
(dp849
g74
(dp850
g82
I4
ssg83
g844
sg76
(lp851
S'ISO-8859-1,utf-8;q=0.7,*;q=0.7'
p852
asbasbasbag69
(g85
g71
NtRp853
(dp854
g74
(dp855
sg83
g649
sg76
(lp856
g69
(g90
g71
NtRp857
(dp858
g74
(dp859
g94
g95
ssg83
g853
sg76
(lp860
S'http_accept_encoding'
p861
asbag69
(g90
g71
NtRp862
(dp863
g74
(dp864
g101
g102
ssg83
g853
sg76
(lp865
S':'
asbag69
(g90
g71
NtRp866
(dp867
g74
(dp868
sg83
g853
sg76
(lp869
g69
(g70
g71
NtRp870
(dp871
g74
(dp872
g82
I4
ssg83
g866
sg76
(lp873
S'gzip,deflate'
p874
asbasbasbag69
(g85
g71
NtRp875
(dp876
g74
(dp877
sg83
g649
sg76
(lp878
g69
(g90
g71
NtRp879
(dp880
g74
(dp881
g94
g95
ssg83
g875
sg76
(lp882
S'http_accept_language'
p883
asbag69
(g90
g71
NtRp884
(dp885
g74
(dp886
g101
g102
ssg83
g875
sg76
(lp887
S':'
asbag69
(g90
g71
NtRp888
(dp889
g74
(dp890
sg83
g875
sg76
(lp891
g69
(g70
g71
NtRp892
(dp893
g74
(dp894
g82
I4
ssg83
g888
sg76
(lp895
S'en-us,en;q=0.5'
p896
asbasbasbag69
(g85
g71
NtRp897
(dp898
g74
(dp899
sg83
g649
sg76
(lp900
g69
(g90
g71
NtRp901
(dp902
g74
(dp903
g94
g95
ssg83
g897
sg76
(lp904
S'http_connection'
p905
asbag69
(g90
g71
NtRp906
(dp907
g74
(dp908
g101
g102
ssg83
g897
sg76
(lp909
S':'
asbag69
(g90
g71
NtRp910
(dp911
g74
(dp912
sg83
g897
sg76
(lp913
g69
(g70
g71
NtRp914
(dp915
g74
(dp916
g82
I4
ssg83
g910
sg76
(lp917
S'keep-alive'
p918
asbasbasbag69
(g85
g71
NtRp919
(dp920
g74
(dp921
sg83
g649
sg76
(lp922
g69
(g90
g71
NtRp923
(dp924
g74
(dp925
g94
g95
ssg83
g919
sg76
(lp926
S'http_cookie'
p927
asbag69
(g90
g71
NtRp928
(dp929
g74
(dp930
g101
g102
ssg83
g919
sg76
(lp931
S':'
asbag69
(g90
g71
NtRp932
(dp933
g74
(dp934
sg83
g919
sg76
(lp935
g69
(g70
g71
NtRp936
(dp937
g74
(dp938
g82
I4
ssg83
g932
sg76
(lp939
S'__utma_a2a=4518867300.1350888199.1319331273.1319375111.1319375111.5; session_id_init=127.0.0.1-9cf14084-4033-491f-99b2-106d13fb9973; session_id_admin=127.0.0.1-ca11266a-1e6f-4c85-a03e-d1cb0b2024f8'
p940
asbasbasbag69
(g85
g71
NtRp941
(dp942
g74
(dp943
sg83
g649
sg76
(lp944
g69
(g90
g71
NtRp945
(dp946
g74
(dp947
g94
g95
ssg83
g941
sg76
(lp948
S'http_host'
p949
asbag69
(g90
g71
NtRp950
(dp951
g74
(dp952
g101
g102
ssg83
g941
sg76
(lp953
S':'
asbag69
(g90
g71
NtRp954
(dp955
g74
(dp956
sg83
g941
sg76
(lp957
g69
(g70
g71
NtRp958
(dp959
g74
(dp960
g82
I4
ssg83
g954
sg76
(lp961
S'127.0.0.1:8000'
p962
asbasbasbag69
(g85
g71
NtRp963
(dp964
g74
(dp965
sg83
g649
sg76
(lp966
g69
(g90
g71
NtRp967
(dp968
g74
(dp969
g94
g95
ssg83
g963
sg76
(lp970
S'http_keep_alive'
p971
asbag69
(g90
g71
NtRp972
(dp973
g74
(dp974
g101
g102
ssg83
g963
sg76
(lp975
S':'
asbag69
(g90
g71
NtRp976
(dp977
g74
(dp978
sg83
g963
sg76
(lp979
g69
(g70
g71
NtRp980
(dp981
g74
(dp982
g82
I4
ssg83
g976
sg76
(lp983
S'115'
p984
asbasbasbag69
(g85
g71
NtRp985
(dp986
g74
(dp987
sg83
g649
sg76
(lp988
g69
(g90
g71
NtRp989
(dp990
g74
(dp991
g94
g95
ssg83
g985
sg76
(lp992
S'http_referer'
p993
asbag69
(g90
g71
NtRp994
(dp995
g74
(dp996
g101
g102
ssg83
g985
sg76
(lp997
S':'
asbag69
(g90
g71
NtRp998
(dp999
g74
(dp1000
sg83
g985
sg76
(lp1001
g69
(g70
g71
NtRp1002
(dp1003
g74
(dp1004
g82
I4
ssg83
g998
sg76
(lp1005
S'http://127.0.0.1:8000/init/default/challenge?event=12'
p1006
asbasbasbag69
(g85
g71
NtRp1007
(dp1008
g74
(dp1009
sg83
g649
sg76
(lp1010
g69
(g90
g71
NtRp1011
(dp1012
g74
(dp1013
g94
g95
ssg83
g1007
sg76
(lp1014
S'http_user_agent'
p1015
asbag69
(g90
g71
NtRp1016
(dp1017
g74
(dp1018
g101
g102
ssg83
g1007
sg76
(lp1019
S':'
asbag69
(g90
g71
NtRp1020
(dp1021
g74
(dp1022
sg83
g1007
sg76
(lp1023
g69
(g70
g71
NtRp1024
(dp1025
g74
(dp1026
g82
I4
ssg83
g1020
sg76
(lp1027
S'Mozilla/5.0 (Windows; U; Windows NT 6.1; en-US; rv:1.9.2.24) Gecko/20111103 Firefox/3.6.24'
p1028
asbasbasbag69
(g85
g71
NtRp1029
(dp1030
g74
(dp1031
sg83
g649
sg76
(lp1032
g69
(g90
g71
NtRp1033
(dp1034
g74
(dp1035
g94
g95
ssg83
g1029
sg76
(lp1036
S'is_jython'
p1037
asbag69
(g90
g71
NtRp1038
(dp1039
g74
(dp1040
g101
g102
ssg83
g1029
sg76
(lp1041
S':'
asbag69
(g90
g71
NtRp1042
(dp1043
g74
(dp1044
sg83
g1029
sg76
(lp1045
g69
(g70
g71
NtRp1046
(dp1047
g74
(dp1048
g82
I4
ssg83
g1042
sg76
(lp1049
g112
asbasbasbag69
(g85
g71
NtRp1050
(dp1051
g74
(dp1052
sg83
g649
sg76
(lp1053
g69
(g90
g71
NtRp1054
(dp1055
g74
(dp1056
g94
g95
ssg83
g1050
sg76
(lp1057
S'path_info'
p1058
asbag69
(g90
g71
NtRp1059
(dp1060
g74
(dp1061
g101
g102
ssg83
g1050
sg76
(lp1062
S':'
asbag69
(g90
g71
NtRp1063
(dp1064
g74
(dp1065
sg83
g1050
sg76
(lp1066
g69
(g70
g71
NtRp1067
(dp1068
g74
(dp1069
g82
I4
ssg83
g1063
sg76
(lp1070
S'/init/default/join.html'
p1071
asbasbasbag69
(g85
g71
NtRp1072
(dp1073
g74
(dp1074
sg83
g649
sg76
(lp1075
g69
(g90
g71
NtRp1076
(dp1077
g74
(dp1078
g94
g95
ssg83
g1072
sg76
(lp1079
S'query_string'
p1080
asbag69
(g90
g71
NtRp1081
(dp1082
g74
(dp1083
g101
g102
ssg83
g1072
sg76
(lp1084
S':'
asbag69
(g90
g71
NtRp1085
(dp1086
g74
(dp1087
sg83
g1072
sg76
(lp1088
g69
(g70
g71
NtRp1089
(dp1090
g74
(dp1091
g82
I4
ssg83
g1085
sg76
(lp1092
S'event=12'
p1093
asbasbasbag69
(g85
g71
NtRp1094
(dp1095
g74
(dp1096
sg83
g649
sg76
(lp1097
g69
(g90
g71
NtRp1098
(dp1099
g74
(dp1100
g94
g95
ssg83
g1094
sg76
(lp1101
S'remote_addr'
p1102
asbag69
(g90
g71
NtRp1103
(dp1104
g74
(dp1105
g101
g102
ssg83
g1094
sg76
(lp1106
S':'
asbag69
(g90
g71
NtRp1107
(dp1108
g74
(dp1109
sg83
g1094
sg76
(lp1110
g69
(g70
g71
NtRp1111
(dp1112
g74
(dp1113
g82
I4
ssg83
g1107
sg76
(lp1114
g202
asbasbasbag69
(g85
g71
NtRp1115
(dp1116
g74
(dp1117
sg83
g649
sg76
(lp1118
g69
(g90
g71
NtRp1119
(dp1120
g74
(dp1121
g94
g95
ssg83
g1115
sg76
(lp1122
S'remote_port'
p1123
asbag69
(g90
g71
NtRp1124
(dp1125
g74
(dp1126
g101
g102
ssg83
g1115
sg76
(lp1127
S':'
asbag69
(g90
g71
NtRp1128
(dp1129
g74
(dp1130
sg83
g1115
sg76
(lp1131
g69
(g70
g71
NtRp1132
(dp1133
g74
(dp1134
g82
I4
ssg83
g1128
sg76
(lp1135
S'49698'
p1136
asbasbasbag69
(g85
g71
NtRp1137
(dp1138
g74
(dp1139
sg83
g649
sg76
(lp1140
g69
(g90
g71
NtRp1141
(dp1142
g74
(dp1143
g94
g95
ssg83
g1137
sg76
(lp1144
S'request_method'
p1145
asbag69
(g90
g71
NtRp1146
(dp1147
g74
(dp1148
g101
g102
ssg83
g1137
sg76
(lp1149
S':'
asbag69
(g90
g71
NtRp1150
(dp1151
g74
(dp1152
sg83
g1137
sg76
(lp1153
g69
(g70
g71
NtRp1154
(dp1155
g74
(dp1156
g82
I4
ssg83
g1150
sg76
(lp1157
S'GET'
p1158
asbasbasbag69
(g85
g71
NtRp1159
(dp1160
g74
(dp1161
sg83
g649
sg76
(lp1162
g69
(g90
g71
NtRp1163
(dp1164
g74
(dp1165
g94
g95
ssg83
g1159
sg76
(lp1166
S'script_name'
p1167
asbag69
(g90
g71
NtRp1168
(dp1169
g74
(dp1170
g101
g102
ssg83
g1159
sg76
(lp1171
S':'
asbag69
(g90
g71
NtRp1172
(dp1173
g74
(dp1174
sg83
g1159
sg76
(lp1175
g69
(g70
g71
NtRp1176
(dp1177
g74
(dp1178
g82
I4
ssg83
g1172
sg76
(lp1179
S''
asbasbasbag69
(g85
g71
NtRp1180
(dp1181
g74
(dp1182
sg83
g649
sg76
(lp1183
g69
(g90
g71
NtRp1184
(dp1185
g74
(dp1186
g94
g95
ssg83
g1180
sg76
(lp1187
S'server_name'
p1188
asbag69
(g90
g71
NtRp1189
(dp1190
g74
(dp1191
g101
g102
ssg83
g1180
sg76
(lp1192
S':'
asbag69
(g90
g71
NtRp1193
(dp1194
g74
(dp1195
sg83
g1180
sg76
(lp1196
g69
(g70
g71
NtRp1197
(dp1198
g74
(dp1199
g82
I4
ssg83
g1193
sg76
(lp1200
S'Bishop-PC'
p1201
asbasbasbag69
(g85
g71
NtRp1202
(dp1203
g74
(dp1204
sg83
g649
sg76
(lp1205
g69
(g90
g71
NtRp1206
(dp1207
g74
(dp1208
g94
g95
ssg83
g1202
sg76
(lp1209
S'server_port'
p1210
asbag69
(g90
g71
NtRp1211
(dp1212
g74
(dp1213
g101
g102
ssg83
g1202
sg76
(lp1214
S':'
asbag69
(g90
g71
NtRp1215
(dp1216
g74
(dp1217
sg83
g1202
sg76
(lp1218
g69
(g70
g71
NtRp1219
(dp1220
g74
(dp1221
g82
I4
ssg83
g1215
sg76
(lp1222
S'8000'
p1223
asbasbasbag69
(g85
g71
NtRp1224
(dp1225
g74
(dp1226
sg83
g649
sg76
(lp1227
g69
(g90
g71
NtRp1228
(dp1229
g74
(dp1230
g94
g95
ssg83
g1224
sg76
(lp1231
S'server_protocol'
p1232
asbag69
(g90
g71
NtRp1233
(dp1234
g74
(dp1235
g101
g102
ssg83
g1224
sg76
(lp1236
S':'
asbag69
(g90
g71
NtRp1237
(dp1238
g74
(dp1239
sg83
g1224
sg76
(lp1240
g69
(g70
g71
NtRp1241
(dp1242
g74
(dp1243
g82
I4
ssg83
g1237
sg76
(lp1244
S'HTTP/1.1'
p1245
asbasbasbag69
(g85
g71
NtRp1246
(dp1247
g74
(dp1248
sg83
g649
sg76
(lp1249
g69
(g90
g71
NtRp1250
(dp1251
g74
(dp1252
g94
g95
ssg83
g1246
sg76
(lp1253
S'server_software'
p1254
asbag69
(g90
g71
NtRp1255
(dp1256
g74
(dp1257
g101
g102
ssg83
g1246
sg76
(lp1258
S':'
asbag69
(g90
g71
NtRp1259
(dp1260
g74
(dp1261
sg83
g1246
sg76
(lp1262
g69
(g70
g71
NtRp1263
(dp1264
g74
(dp1265
g82
I4
ssg83
g1259
sg76
(lp1266
S'Rocket 1.2.4'
p1267
asbasbasbag69
(g85
g71
NtRp1268
(dp1269
g74
(dp1270
sg83
g649
sg76
(lp1271
g69
(g90
g71
NtRp1272
(dp1273
g74
(dp1274
g94
g95
ssg83
g1268
sg76
(lp1275
S'web2py_crontype'
p1276
asbag69
(g90
g71
NtRp1277
(dp1278
g74
(dp1279
g101
g102
ssg83
g1268
sg76
(lp1280
S':'
asbag69
(g90
g71
NtRp1281
(dp1282
g74
(dp1283
sg83
g1268
sg76
(lp1284
g69
(g70
g71
NtRp1285
(dp1286
g74
(dp1287
g82
I4
ssg83
g1281
sg76
(lp1288
S'hard'
p1289
asbasbasbag69
(g85
g71
NtRp1290
(dp1291
g74
(dp1292
sg83
g649
sg76
(lp1293
g69
(g90
g71
NtRp1294
(dp1295
g74
(dp1296
g94
g95
ssg83
g1290
sg76
(lp1297
S'web2py_path'
p1298
asbag69
(g90
g71
NtRp1299
(dp1300
g74
(dp1301
g101
g102
ssg83
g1290
sg76
(lp1302
S':'
asbag69
(g90
g71
NtRp1303
(dp1304
g74
(dp1305
sg83
g1290
sg76
(lp1306
g69
(g70
g71
NtRp1307
(dp1308
g74
(dp1309
g82
I4
ssg83
g1303
sg76
(lp1310
g696
asbasbasbag69
(g85
g71
NtRp1311
(dp1312
g74
(dp1313
sg83
g649
sg76
(lp1314
g69
(g90
g71
NtRp1315
(dp1316
g74
(dp1317
g94
g95
ssg83
g1311
sg76
(lp1318
S'web2py_version'
p1319
asbag69
(g90
g71
NtRp1320
(dp1321
g74
(dp1322
g101
g102
ssg83
g1311
sg76
(lp1323
S':'
asbag69
(g90
g71
NtRp1324
(dp1325
g74
(dp1326
sg83
g1311
sg76
(lp1327
g69
(g70
g71
NtRp1328
(dp1329
g74
(dp1330
g82
I4
ssg83
g1324
sg76
(lp1331
g69
(g78
g71
NtRp1332
(dp1333
g74
(dp1334
g82
I3
ssg83
Nsg76
(lp1335
g69
(g85
g71
NtRp1336
(dp1337
g74
(dp1338
sg83
g1332
sg76
(lp1339
g69
(g90
g71
NtRp1340
(dp1341
g74
(dp1342
sg83
g1336
sg76
(lp1343
g69
(g70
g71
NtRp1344
(dp1345
g74
(dp1346
g82
I3
ssg83
g1340
sg76
(lp1347
S'1'
asbasbasbag69
(g85
g71
NtRp1348
(dp1349
g74
(dp1350
sg83
g1332
sg76
(lp1351
g69
(g90
g71
NtRp1352
(dp1353
g74
(dp1354
sg83
g1348
sg76
(lp1355
g69
(g70
g71
NtRp1356
(dp1357
g74
(dp1358
g82
I3
ssg83
g1352
sg76
(lp1359
S'99'
p1360
asbasbasbag69
(g85
g71
NtRp1361
(dp1362
g74
(dp1363
sg83
g1332
sg76
(lp1364
g69
(g90
g71
NtRp1365
(dp1366
g74
(dp1367
sg83
g1361
sg76
(lp1368
g69
(g70
g71
NtRp1369
(dp1370
g74
(dp1371
g82
I3
ssg83
g1365
sg76
(lp1372
S'3'
asbasbasbag69
(g85
g71
NtRp1373
(dp1374
g74
(dp1375
sg83
g1332
sg76
(lp1376
g69
(g90
g71
NtRp1377
(dp1378
g74
(dp1379
sg83
g1373
sg76
(lp1380
g69
(g70
g71
NtRp1381
(dp1382
g74
(dp1383
g82
I3
ssg83
g1377
sg76
(lp1384
S'datetime.datetime(2011, 11, 1, 8, 28, 28)'
p1385
asbasbasbag69
(g85
g71
NtRp1386
(dp1387
g74
(dp1388
sg83
g1332
sg76
(lp1389
g69
(g90
g71
NtRp1390
(dp1391
g74
(dp1392
sg83
g1386
sg76
(lp1393
g69
(g70
g71
NtRp1394
(dp1395
g74
(dp1396
g82
I3
ssg83
g1390
sg76
(lp1397
S'dev'
p1398
asbasbasbasbasbasbasbag69
(g85
g71
NtRp1399
(dp1400
g74
(dp1401
sg83
g649
sg76
(lp1402
g69
(g90
g71
NtRp1403
(dp1404
g74
(dp1405
g94
g95
ssg83
g1399
sg76
(lp1406
S'wsgi_errors'
p1407
asbag69
(g90
g71
NtRp1408
(dp1409
g74
(dp1410
g101
g102
ssg83
g1399
sg76
(lp1411
S':'
asbag69
(g90
g71
NtRp1412
(dp1413
g74
(dp1414
sg83
g1399
sg76
(lp1415
g69
(g70
g71
NtRp1416
(dp1417
g74
(dp1418
g82
I4
ssg83
g1412
sg76
(lp1419
S"<open file '<stderr>', mode 'w' at 0x004950D0>"
p1420
asbasbasbag69
(g85
g71
NtRp1421
(dp1422
g74
(dp1423
sg83
g649
sg76
(lp1424
g69
(g90
g71
NtRp1425
(dp1426
g74
(dp1427
g94
g95
ssg83
g1421
sg76
(lp1428
S'wsgi_file_wrapper'
p1429
asbag69
(g90
g71
NtRp1430
(dp1431
g74
(dp1432
g101
g102
ssg83
g1421
sg76
(lp1433
S':'
asbag69
(g90
g71
NtRp1434
(dp1435
g74
(dp1436
sg83
g1421
sg76
(lp1437
g69
(g70
g71
NtRp1438
(dp1439
g74
(dp1440
g82
I4
ssg83
g1434
sg76
(lp1441
S'<class wsgiref.util.FileWrapper at 0x034A8B20>'
p1442
asbasbasbag69
(g85
g71
NtRp1443
(dp1444
g74
(dp1445
sg83
g649
sg76
(lp1446
g69
(g90
g71
NtRp1447
(dp1448
g74
(dp1449
g94
g95
ssg83
g1443
sg76
(lp1450
S'wsgi_input'
p1451
asbag69
(g90
g71
NtRp1452
(dp1453
g74
(dp1454
g101
g102
ssg83
g1443
sg76
(lp1455
S':'
asbag69
(g90
g71
NtRp1456
(dp1457
g74
(dp1458
sg83
g1443
sg76
(lp1459
g69
(g70
g71
NtRp1460
(dp1461
g74
(dp1462
g82
I4
ssg83
g1456
sg76
(lp1463
S'<socket._fileobject object at 0x083956F0>'
p1464
asbasbasbag69
(g85
g71
NtRp1465
(dp1466
g74
(dp1467
sg83
g649
sg76
(lp1468
g69
(g90
g71
NtRp1469
(dp1470
g74
(dp1471
g94
g95
ssg83
g1465
sg76
(lp1472
S'wsgi_multiprocess'
p1473
asbag69
(g90
g71
NtRp1474
(dp1475
g74
(dp1476
g101
g102
ssg83
g1465
sg76
(lp1477
S':'
asbag69
(g90
g71
NtRp1478
(dp1479
g74
(dp1480
sg83
g1465
sg76
(lp1481
g69
(g70
g71
NtRp1482
(dp1483
g74
(dp1484
g82
I4
ssg83
g1478
sg76
(lp1485
g112
asbasbasbag69
(g85
g71
NtRp1486
(dp1487
g74
(dp1488
sg83
g649
sg76
(lp1489
g69
(g90
g71
NtRp1490
(dp1491
g74
(dp1492
g94
g95
ssg83
g1486
sg76
(lp1493
S'wsgi_multithread'
p1494
asbag69
(g90
g71
NtRp1495
(dp1496
g74
(dp1497
g101
g102
ssg83
g1486
sg76
(lp1498
S':'
asbag69
(g90
g71
NtRp1499
(dp1500
g74
(dp1501
sg83
g1486
sg76
(lp1502
g69
(g70
g71
NtRp1503
(dp1504
g74
(dp1505
g82
I4
ssg83
g1499
sg76
(lp1506
S'True'
p1507
asbasbasbag69
(g85
g71
NtRp1508
(dp1509
g74
(dp1510
sg83
g649
sg76
(lp1511
g69
(g90
g71
NtRp1512
(dp1513
g74
(dp1514
g94
g95
ssg83
g1508
sg76
(lp1515
S'wsgi_run_once'
p1516
asbag69
(g90
g71
NtRp1517
(dp1518
g74
(dp1519
g101
g102
ssg83
g1508
sg76
(lp1520
S':'
asbag69
(g90
g71
NtRp1521
(dp1522
g74
(dp1523
sg83
g1508
sg76
(lp1524
g69
(g70
g71
NtRp1525
(dp1526
g74
(dp1527
g82
I4
ssg83
g1521
sg76
(lp1528
g112
asbasbasbag69
(g85
g71
NtRp1529
(dp1530
g74
(dp1531
sg83
g649
sg76
(lp1532
g69
(g90
g71
NtRp1533
(dp1534
g74
(dp1535
g94
g95
ssg83
g1529
sg76
(lp1536
S'wsgi_url_scheme'
p1537
asbag69
(g90
g71
NtRp1538
(dp1539
g74
(dp1540
g101
g102
ssg83
g1529
sg76
(lp1541
S':'
asbag69
(g90
g71
NtRp1542
(dp1543
g74
(dp1544
sg83
g1529
sg76
(lp1545
g69
(g70
g71
NtRp1546
(dp1547
g74
(dp1548
g82
I4
ssg83
g1542
sg76
(lp1549
S'http'
p1550
asbasbasbag69
(g85
g71
NtRp1551
(dp1552
g74
(dp1553
sg83
g649
sg76
(lp1554
g69
(g90
g71
NtRp1555
(dp1556
g74
(dp1557
g94
g95
ssg83
g1551
sg76
(lp1558
S'wsgi_version'
p1559
asbag69
(g90
g71
NtRp1560
(dp1561
g74
(dp1562
g101
g102
ssg83
g1551
sg76
(lp1563
S':'
asbag69
(g90
g71
NtRp1564
(dp1565
g74
(dp1566
sg83
g1551
sg76
(lp1567
g69
(g70
g71
NtRp1568
(dp1569
g74
(dp1570
g82
I4
ssg83
g1564
sg76
(lp1571
g69
(g78
g71
NtRp1572
(dp1573
g74
(dp1574
g82
I3
ssg83
Nsg76
(lp1575
g69
(g85
g71
NtRp1576
(dp1577
g74
(dp1578
sg83
g1572
sg76
(lp1579
g69
(g90
g71
NtRp1580
(dp1581
g74
(dp1582
sg83
g1576
sg76
(lp1583
g69
(g70
g71
NtRp1584
(dp1585
g74
(dp1586
g82
I3
ssg83
g1580
sg76
(lp1587
S'1'
asbasbasbag69
(g85
g71
NtRp1588
(dp1589
g74
(dp1590
sg83
g1572
sg76
(lp1591
g69
(g90
g71
NtRp1592
(dp1593
g74
(dp1594
sg83
g1588
sg76
(lp1595
g69
(g70
g71
NtRp1596
(dp1597
g74
(dp1598
g82
I3
ssg83
g1592
sg76
(lp1599
S'0'
asbasbasbasbasbasbasbasbasbasbasbag69
(g85
g71
NtRp1600
(dp1601
g74
(dp1602
sg83
g79
sg76
(lp1603
g69
(g90
g71
NtRp1604
(dp1605
g74
(dp1606
g94
g95
ssg83
g1600
sg76
(lp1607
S'extension'
p1608
asbag69
(g90
g71
NtRp1609
(dp1610
g74
(dp1611
g101
g102
ssg83
g1600
sg76
(lp1612
S':'
asbag69
(g90
g71
NtRp1613
(dp1614
g74
(dp1615
sg83
g1600
sg76
(lp1616
g69
(g70
g71
NtRp1617
(dp1618
g74
(dp1619
g82
I5
ssg83
g1613
sg76
(lp1620
S'html'
p1621
asbasbasbag69
(g85
g71
NtRp1622
(dp1623
g74
(dp1624
sg83
g79
sg76
(lp1625
g69
(g90
g71
NtRp1626
(dp1627
g74
(dp1628
g94
g95
ssg83
g1622
sg76
(lp1629
S'folder'
p1630
asbag69
(g90
g71
NtRp1631
(dp1632
g74
(dp1633
g101
g102
ssg83
g1622
sg76
(lp1634
S':'
asbag69
(g90
g71
NtRp1635
(dp1636
g74
(dp1637
sg83
g1622
sg76
(lp1638
g69
(g70
g71
NtRp1639
(dp1640
g74
(dp1641
g82
I5
ssg83
g1635
sg76
(lp1642
S'P:\\School\\DePaul\\Projects\\CSC_438\\web2py\\applications\\init\\'
p1643
asbasbasbag69
(g85
g71
NtRp1644
(dp1645
g74
(dp1646
sg83
g79
sg76
(lp1647
g69
(g90
g71
NtRp1648
(dp1649
g74
(dp1650
g94
g95
ssg83
g1644
sg76
(lp1651
S'function'
p1652
asbag69
(g90
g71
NtRp1653
(dp1654
g74
(dp1655
g101
g102
ssg83
g1644
sg76
(lp1656
S':'
asbag69
(g90
g71
NtRp1657
(dp1658
g74
(dp1659
sg83
g1644
sg76
(lp1660
g69
(g70
g71
NtRp1661
(dp1662
g74
(dp1663
g82
I5
ssg83
g1657
sg76
(lp1664
S'join'
p1665
asbasbasbag69
(g85
g71
NtRp1666
(dp1667
g74
(dp1668
sg83
g79
sg76
(lp1669
g69
(g90
g71
NtRp1670
(dp1671
g74
(dp1672
g94
g95
ssg83
g1666
sg76
(lp1673
S'get_vars'
p1674
asbag69
(g90
g71
NtRp1675
(dp1676
g74
(dp1677
g101
g102
ssg83
g1666
sg76
(lp1678
S':'
asbag69
(g90
g71
NtRp1679
(dp1680
g74
(dp1681
sg83
g1666
sg76
(lp1682
g69
(g70
g71
NtRp1683
(dp1684
g74
(dp1685
g82
I5
ssg83
g1679
sg76
(lp1686
g69
(g78
g71
NtRp1687
(dp1688
g74
(dp1689
g82
I4
ssg83
Nsg76
(lp1690
g69
(g85
g71
NtRp1691
(dp1692
g74
(dp1693
sg83
g1687
sg76
(lp1694
g69
(g90
g71
NtRp1695
(dp1696
g74
(dp1697
g94
g95
ssg83
g1691
sg76
(lp1698
S'event'
p1699
asbag69
(g90
g71
NtRp1700
(dp1701
g74
(dp1702
g101
g102
ssg83
g1691
sg76
(lp1703
S':'
asbag69
(g90
g71
NtRp1704
(dp1705
g74
(dp1706
sg83
g1691
sg76
(lp1707
g69
(g70
g71
NtRp1708
(dp1709
g74
(dp1710
g82
I4
ssg83
g1704
sg76
(lp1711
S'12'
p1712
asbasbasbasbasbasbasbag69
(g85
g71
NtRp1713
(dp1714
g74
(dp1715
sg83
g79
sg76
(lp1716
g69
(g90
g71
NtRp1717
(dp1718
g74
(dp1719
g94
g95
ssg83
g1713
sg76
(lp1720
S'global_settings'
p1721
asbag69
(g90
g71
NtRp1722
(dp1723
g74
(dp1724
g101
g102
ssg83
g1713
sg76
(lp1725
S':'
asbag69
(g90
g71
NtRp1726
(dp1727
g74
(dp1728
sg83
g1713
sg76
(lp1729
g69
(g70
g71
NtRp1730
(dp1731
g74
(dp1732
g82
I5
ssg83
g1726
sg76
(lp1733
g69
(g78
g71
NtRp1734
(dp1735
g74
(dp1736
g82
I4
ssg83
Nsg76
(lp1737
g69
(g85
g71
NtRp1738
(dp1739
g74
(dp1740
sg83
g1734
sg76
(lp1741
g69
(g90
g71
NtRp1742
(dp1743
g74
(dp1744
g94
g95
ssg83
g1738
sg76
(lp1745
g661
asbag69
(g90
g71
NtRp1746
(dp1747
g74
(dp1748
g101
g102
ssg83
g1738
sg76
(lp1749
S':'
asbag69
(g90
g71
NtRp1750
(dp1751
g74
(dp1752
sg83
g1738
sg76
(lp1753
g69
(g70
g71
NtRp1754
(dp1755
g74
(dp1756
g82
I4
ssg83
g1750
sg76
(lp1757
S"set(['P:\\\\School\\\\DePaul\\\\Projects\\\\CSC_438\\\\web2py\\\\applications\\\\init\\\\', 'P:\\\\School\\\\DePaul\\\\Projects\\\\CSC_438\\\\web2py\\\\applications\\\\admin\\\\'])"
p1758
asbasbasbag69
(g85
g71
NtRp1759
(dp1760
g74
(dp1761
sg83
g1734
sg76
(lp1762
g69
(g90
g71
NtRp1763
(dp1764
g74
(dp1765
g94
g95
ssg83
g1759
sg76
(lp1766
g683
asbag69
(g90
g71
NtRp1767
(dp1768
g74
(dp1769
g101
g102
ssg83
g1759
sg76
(lp1770
S':'
asbag69
(g90
g71
NtRp1771
(dp1772
g74
(dp1773
sg83
g1759
sg76
(lp1774
g69
(g70
g71
NtRp1775
(dp1776
g74
(dp1777
g82
I4
ssg83
g1771
sg76
(lp1778
g696
asbasbasbag69
(g85
g71
NtRp1779
(dp1780
g74
(dp1781
sg83
g1734
sg76
(lp1782
g69
(g90
g71
NtRp1783
(dp1784
g74
(dp1785
g94
g95
ssg83
g1779
sg76
(lp1786
g705
asbag69
(g90
g71
NtRp1787
(dp1788
g74
(dp1789
g101
g102
ssg83
g1779
sg76
(lp1790
S':'
asbag69
(g90
g71
NtRp1791
(dp1792
g74
(dp1793
sg83
g1779
sg76
(lp1794
g69
(g70
g71
NtRp1795
(dp1796
g74
(dp1797
g82
I4
ssg83
g1791
sg76
(lp1798
g69
(g78
g71
NtRp1799
(dp1800
g74
(dp1801
g82
I3
ssg83
Nsg76
(lp1802
sbasbasbasbag69
(g85
g71
NtRp1803
(dp1804
g74
(dp1805
sg83
g1734
sg76
(lp1806
g69
(g90
g71
NtRp1807
(dp1808
g74
(dp1809
g94
g95
ssg83
g1803
sg76
(lp1810
g730
asbag69
(g90
g71
NtRp1811
(dp1812
g74
(dp1813
g101
g102
ssg83
g1803
sg76
(lp1814
S':'
asbag69
(g90
g71
NtRp1815
(dp1816
g74
(dp1817
sg83
g1803
sg76
(lp1818
g69
(g70
g71
NtRp1819
(dp1820
g74
(dp1821
g82
I4
ssg83
g1815
sg76
(lp1822
S"<Values at 0x35b1ee0: {'verbose': False, 'ip': '127.0.0.1', 'shutdown_timeout': 5, 'taskbar': False, 'nocron': False, 'pid_filename': 'httpserver.pid', 'maxthreads': None, 'softcron': False, 'server_name': 'Bishop-PC', 'bpython': False, 'nogui': False, 'port': 8000, 'extcron': False, 'debuglevel': 30, 'test': None, 'folder': 'P:\\\\School\\\\DePaul\\\\Projects\\\\CSC_438\\\\web2py', 'config': '', 'import_models': False, 'winservice': '', 'shell': None, 'run': '', 'log_filename': 'httpserver.log', 'args': [''], 'ssl_ca_certificate': None, 'scheduler': None, 'profiler_filename': None, 'ssl_private_key': '', 'password': '<ask>', 'request_queue_size': 5, 'ssl_certificate': '', 'cronjob': False, 'plain': False, 'quiet': False, 'interfaces': None, 'minthreads': None, 'timeout': 10, 'numthreads': None, 'nobanner': False}>"
p1823
asbasbasbag69
(g85
g71
NtRp1824
(dp1825
g74
(dp1826
sg83
g1734
sg76
(lp1827
g69
(g90
g71
NtRp1828
(dp1829
g74
(dp1830
g94
g95
ssg83
g1824
sg76
(lp1831
g752
asbag69
(g90
g71
NtRp1832
(dp1833
g74
(dp1834
g101
g102
ssg83
g1824
sg76
(lp1835
S':'
asbag69
(g90
g71
NtRp1836
(dp1837
g74
(dp1838
sg83
g1824
sg76
(lp1839
g69
(g70
g71
NtRp1840
(dp1841
g74
(dp1842
g82
I4
ssg83
g1836
sg76
(lp1843
S'set([])'
p1844
asbasbasbag69
(g85
g71
NtRp1845
(dp1846
g74
(dp1847
sg83
g1734
sg76
(lp1848
g69
(g90
g71
NtRp1849
(dp1850
g74
(dp1851
g94
g95
ssg83
g1845
sg76
(lp1852
g774
asbag69
(g90
g71
NtRp1853
(dp1854
g74
(dp1855
g101
g102
ssg83
g1845
sg76
(lp1856
S':'
asbag69
(g90
g71
NtRp1857
(dp1858
g74
(dp1859
sg83
g1845
sg76
(lp1860
g69
(g70
g71
NtRp1861
(dp1862
g74
(dp1863
g82
I4
ssg83
g1857
sg76
(lp1864
g112
asbasbasbag69
(g85
g71
NtRp1865
(dp1866
g74
(dp1867
sg83
g1734
sg76
(lp1868
g69
(g90
g71
NtRp1869
(dp1870
g74
(dp1871
g94
g95
ssg83
g1865
sg76
(lp1872
g795
asbag69
(g90
g71
NtRp1873
(dp1874
g74
(dp1875
g101
g102
ssg83
g1865
sg76
(lp1876
S':'
asbag69
(g90
g71
NtRp1877
(dp1878
g74
(dp1879
sg83
g1865
sg76
(lp1880
g69
(g70
g71
NtRp1881
(dp1882
g74
(dp1883
g82
I4
ssg83
g1877
sg76
(lp1884
g808
asbasbasbag69
(g85
g71
NtRp1885
(dp1886
g74
(dp1887
sg83
g1734
sg76
(lp1888
g69
(g90
g71
NtRp1889
(dp1890
g74
(dp1891
g94
g95
ssg83
g1885
sg76
(lp1892
g1037
asbag69
(g90
g71
NtRp1893
(dp1894
g74
(dp1895
g101
g102
ssg83
g1885
sg76
(lp1896
S':'
asbag69
(g90
g71
NtRp1897
(dp1898
g74
(dp1899
sg83
g1885
sg76
(lp1900
g69
(g70
g71
NtRp1901
(dp1902
g74
(dp1903
g82
I4
ssg83
g1897
sg76
(lp1904
g112
asbasbasbag69
(g85
g71
NtRp1905
(dp1906
g74
(dp1907
sg83
g1734
sg76
(lp1908
g69
(g90
g71
NtRp1909
(dp1910
g74
(dp1911
g94
g95
ssg83
g1905
sg76
(lp1912
g1276
asbag69
(g90
g71
NtRp1913
(dp1914
g74
(dp1915
g101
g102
ssg83
g1905
sg76
(lp1916
S':'
asbag69
(g90
g71
NtRp1917
(dp1918
g74
(dp1919
sg83
g1905
sg76
(lp1920
g69
(g70
g71
NtRp1921
(dp1922
g74
(dp1923
g82
I4
ssg83
g1917
sg76
(lp1924
g1289
asbasbasbag69
(g85
g71
NtRp1925
(dp1926
g74
(dp1927
sg83
g1734
sg76
(lp1928
g69
(g90
g71
NtRp1929
(dp1930
g74
(dp1931
g94
g95
ssg83
g1925
sg76
(lp1932
g1319
asbag69
(g90
g71
NtRp1933
(dp1934
g74
(dp1935
g101
g102
ssg83
g1925
sg76
(lp1936
S':'
asbag69
(g90
g71
NtRp1937
(dp1938
g74
(dp1939
sg83
g1925
sg76
(lp1940
g69
(g70
g71
NtRp1941
(dp1942
g74
(dp1943
g82
I4
ssg83
g1937
sg76
(lp1944
g69
(g78
g71
NtRp1945
(dp1946
g74
(dp1947
g82
I3
ssg83
Nsg76
(lp1948
g69
(g85
g71
NtRp1949
(dp1950
g74
(dp1951
sg83
g1945
sg76
(lp1952
g69
(g90
g71
NtRp1953
(dp1954
g74
(dp1955
sg83
g1949
sg76
(lp1956
g69
(g70
g71
NtRp1957
(dp1958
g74
(dp1959
g82
I3
ssg83
g1953
sg76
(lp1960
S'1'
asbasbasbag69
(g85
g71
NtRp1961
(dp1962
g74
(dp1963
sg83
g1945
sg76
(lp1964
g69
(g90
g71
NtRp1965
(dp1966
g74
(dp1967
sg83
g1961
sg76
(lp1968
g69
(g70
g71
NtRp1969
(dp1970
g74
(dp1971
g82
I3
ssg83
g1965
sg76
(lp1972
S'99'
p1973
asbasbasbag69
(g85
g71
NtRp1974
(dp1975
g74
(dp1976
sg83
g1945
sg76
(lp1977
g69
(g90
g71
NtRp1978
(dp1979
g74
(dp1980
sg83
g1974
sg76
(lp1981
g69
(g70
g71
NtRp1982
(dp1983
g74
(dp1984
g82
I3
ssg83
g1978
sg76
(lp1985
S'3'
asbasbasbag69
(g85
g71
NtRp1986
(dp1987
g74
(dp1988
sg83
g1945
sg76
(lp1989
g69
(g90
g71
NtRp1990
(dp1991
g74
(dp1992
sg83
g1986
sg76
(lp1993
g69
(g70
g71
NtRp1994
(dp1995
g74
(dp1996
g82
I3
ssg83
g1990
sg76
(lp1997
S'datetime.datetime(2011, 11, 1, 8, 28, 28)'
p1998
asbasbasbag69
(g85
g71
NtRp1999
(dp2000
g74
(dp2001
sg83
g1945
sg76
(lp2002
g69
(g90
g71
NtRp2003
(dp2004
g74
(dp2005
sg83
g1999
sg76
(lp2006
g69
(g70
g71
NtRp2007
(dp2008
g74
(dp2009
g82
I3
ssg83
g2003
sg76
(lp2010
g1398
asbasbasbasbasbasbasbasbasbasbasbag69
(g85
g71
NtRp2011
(dp2012
g74
(dp2013
sg83
g79
sg76
(lp2014
g69
(g90
g71
NtRp2015
(dp2016
g74
(dp2017
g94
g95
ssg83
g2011
sg76
(lp2018
S'is_https'
p2019
asbag69
(g90
g71
NtRp2020
(dp2021
g74
(dp2022
g101
g102
ssg83
g2011
sg76
(lp2023
S':'
asbag69
(g90
g71
NtRp2024
(dp2025
g74
(dp2026
sg83
g2011
sg76
(lp2027
g69
(g70
g71
NtRp2028
(dp2029
g74
(dp2030
g82
I5
ssg83
g2024
sg76
(lp2031
g112
asbasbasbag69
(g85
g71
NtRp2032
(dp2033
g74
(dp2034
sg83
g79
sg76
(lp2035
g69
(g90
g71
NtRp2036
(dp2037
g74
(dp2038
g94
g95
ssg83
g2032
sg76
(lp2039
S'is_local'
p2040
asbag69
(g90
g71
NtRp2041
(dp2042
g74
(dp2043
g101
g102
ssg83
g2032
sg76
(lp2044
S':'
asbag69
(g90
g71
NtRp2045
(dp2046
g74
(dp2047
sg83
g2032
sg76
(lp2048
g69
(g70
g71
NtRp2049
(dp2050
g74
(dp2051
g82
I5
ssg83
g2045
sg76
(lp2052
g1507
asbasbasbag69
(g85
g71
NtRp2053
(dp2054
g74
(dp2055
sg83
g79
sg76
(lp2056
g69
(g90
g71
NtRp2057
(dp2058
g74
(dp2059
g94
g95
ssg83
g2053
sg76
(lp2060
S'is_restful'
p2061
asbag69
(g90
g71
NtRp2062
(dp2063
g74
(dp2064
g101
g102
ssg83
g2053
sg76
(lp2065
S':'
asbag69
(g90
g71
NtRp2066
(dp2067
g74
(dp2068
sg83
g2053
sg76
(lp2069
g69
(g70
g71
NtRp2070
(dp2071
g74
(dp2072
g82
I5
ssg83
g2066
sg76
(lp2073
g112
asbasbasbag69
(g85
g71
NtRp2074
(dp2075
g74
(dp2076
sg83
g79
sg76
(lp2077
g69
(g90
g71
NtRp2078
(dp2079
g74
(dp2080
g94
g95
ssg83
g2074
sg76
(lp2081
S'now'
p2082
asbag69
(g90
g71
NtRp2083
(dp2084
g74
(dp2085
g101
g102
ssg83
g2074
sg76
(lp2086
S':'
asbag69
(g90
g71
NtRp2087
(dp2088
g74
(dp2089
sg83
g2074
sg76
(lp2090
g69
(g70
g71
NtRp2091
(dp2092
g74
(dp2093
g82
I5
ssg83
g2087
sg76
(lp2094
S'datetime.datetime(2011, 11, 20, 0, 10, 58, 290000)'
p2095
asbasbasbag69
(g85
g71
NtRp2096
(dp2097
g74
(dp2098
sg83
g79
sg76
(lp2099
g69
(g90
g71
NtRp2100
(dp2101
g74
(dp2102
g94
g95
ssg83
g2096
sg76
(lp2103
S'post_vars'
p2104
asbag69
(g90
g71
NtRp2105
(dp2106
g74
(dp2107
g101
g102
ssg83
g2096
sg76
(lp2108
S':'
asbag69
(g90
g71
NtRp2109
(dp2110
g74
(dp2111
sg83
g2096
sg76
(lp2112
g69
(g70
g71
NtRp2113
(dp2114
g74
(dp2115
g82
I5
ssg83
g2109
sg76
(lp2116
g69
(g78
g71
NtRp2117
(dp2118
g74
(dp2119
g82
I4
ssg83
Nsg76
(lp2120
sbasbasbasbag69
(g85
g71
NtRp2121
(dp2122
g74
(dp2123
sg83
g79
sg76
(lp2124
g69
(g90
g71
NtRp2125
(dp2126
g74
(dp2127
g94
g95
ssg83
g2121
sg76
(lp2128
S'raw_extension'
p2129
asbag69
(g90
g71
NtRp2130
(dp2131
g74
(dp2132
g101
g102
ssg83
g2121
sg76
(lp2133
S':'
asbag69
(g90
g71
NtRp2134
(dp2135
g74
(dp2136
sg83
g2121
sg76
(lp2137
g69
(g70
g71
NtRp2138
(dp2139
g74
(dp2140
g82
I5
ssg83
g2134
sg76
(lp2141
g1621
asbasbasbag69
(g85
g71
NtRp2142
(dp2143
g74
(dp2144
sg83
g79
sg76
(lp2145
g69
(g90
g71
NtRp2146
(dp2147
g74
(dp2148
g94
g95
ssg83
g2142
sg76
(lp2149
S'url'
p2150
asbag69
(g90
g71
NtRp2151
(dp2152
g74
(dp2153
g101
g102
ssg83
g2142
sg76
(lp2154
S':'
asbag69
(g90
g71
NtRp2155
(dp2156
g74
(dp2157
sg83
g2142
sg76
(lp2158
g69
(g70
g71
NtRp2159
(dp2160
g74
(dp2161
g82
I5
ssg83
g2155
sg76
(lp2162
S'/init/default/join.html'
p2163
asbasbasbag69
(g85
g71
NtRp2164
(dp2165
g74
(dp2166
sg83
g79
sg76
(lp2167
g69
(g90
g71
NtRp2168
(dp2169
g74
(dp2170
g94
g95
ssg83
g2164
sg76
(lp2171
S'utcnow'
p2172
asbag69
(g90
g71
NtRp2173
(dp2174
g74
(dp2175
g101
g102
ssg83
g2164
sg76
(lp2176
S':'
asbag69
(g90
g71
NtRp2177
(dp2178
g74
(dp2179
sg83
g2164
sg76
(lp2180
g69
(g70
g71
NtRp2181
(dp2182
g74
(dp2183
g82
I5
ssg83
g2177
sg76
(lp2184
S'datetime.datetime(2011, 11, 20, 5, 10, 58, 290000)'
p2185
asbasbasbag69
(g85
g71
NtRp2186
(dp2187
g74
(dp2188
sg83
g79
sg76
(lp2189
g69
(g90
g71
NtRp2190
(dp2191
g74
(dp2192
g94
g95
ssg83
g2186
sg76
(lp2193
S'uuid'
p2194
asbag69
(g90
g71
NtRp2195
(dp2196
g74
(dp2197
g101
g102
ssg83
g2186
sg76
(lp2198
S':'
asbag69
(g90
g71
NtRp2199
(dp2200
g74
(dp2201
sg83
g2186
sg76
(lp2202
g69
(g70
g71
NtRp2203
(dp2204
g74
(dp2205
g82
I5
ssg83
g2199
sg76
(lp2206
S'init/127.0.0.1.2011-11-20.00-10-58.ff020dff-3653-4149-91ee-8ae363a1f051'
p2207
asbasbasbag69
(g85
g71
NtRp2208
(dp2209
g74
(dp2210
sg83
g79
sg76
(lp2211
g69
(g90
g71
NtRp2212
(dp2213
g74
(dp2214
g94
g95
ssg83
g2208
sg76
(lp2215
S'vars'
p2216
asbag69
(g90
g71
NtRp2217
(dp2218
g74
(dp2219
g101
g102
ssg83
g2208
sg76
(lp2220
S':'
asbag69
(g90
g71
NtRp2221
(dp2222
g74
(dp2223
sg83
g2208
sg76
(lp2224
g69
(g70
g71
NtRp2225
(dp2226
g74
(dp2227
g82
I5
ssg83
g2221
sg76
(lp2228
g69
(g78
g71
NtRp2229
(dp2230
g74
(dp2231
g82
I4
ssg83
Nsg76
(lp2232
g69
(g85
g71
NtRp2233
(dp2234
g74
(dp2235
sg83
g2229
sg76
(lp2236
g69
(g90
g71
NtRp2237
(dp2238
g74
(dp2239
g94
g95
ssg83
g2233
sg76
(lp2240
g1699
asbag69
(g90
g71
NtRp2241
(dp2242
g74
(dp2243
g101
g102
ssg83
g2233
sg76
(lp2244
S':'
asbag69
(g90
g71
NtRp2245
(dp2246
g74
(dp2247
sg83
g2233
sg76
(lp2248
g69
(g70
g71
NtRp2249
(dp2250
g74
(dp2251
g82
I4
ssg83
g2245
sg76
(lp2252
g1712
asbasbasbasbasbasbasbag69
(g85
g71
NtRp2253
(dp2254
g74
(dp2255
sg83
g79
sg76
(lp2256
g69
(g90
g71
NtRp2257
(dp2258
g74
(dp2259
g94
g95
ssg83
g2253
sg76
(lp2260
S'wsgi'
p2261
asbag69
(g90
g71
NtRp2262
(dp2263
g74
(dp2264
g101
g102
ssg83
g2253
sg76
(lp2265
S':'
asbag69
(g90
g71
NtRp2266
(dp2267
g74
(dp2268
sg83
g2253
sg76
(lp2269
g69
(g70
g71
NtRp2270
(dp2271
g74
(dp2272
g82
I5
ssg83
g2266
sg76
(lp2273
g69
(g78
g71
NtRp2274
(dp2275
g74
(dp2276
g82
I4
ssg83
Nsg76
(lp2277
g69
(g85
g71
NtRp2278
(dp2279
g74
(dp2280
sg83
g2274
sg76
(lp2281
g69
(g90
g71
NtRp2282
(dp2283
g74
(dp2284
g94
g95
ssg83
g2278
sg76
(lp2285
S'environ'
p2286
asbag69
(g90
g71
NtRp2287
(dp2288
g74
(dp2289
g101
g102
ssg83
g2278
sg76
(lp2290
S':'
asbag69
(g90
g71
NtRp2291
(dp2292
g74
(dp2293
sg83
g2278
sg76
(lp2294
g69
(g70
g71
NtRp2295
(dp2296
g74
(dp2297
g82
I4
ssg83
g2291
sg76
(lp2298
g69
(g78
g71
NtRp2299
(dp2300
g74
(dp2301
g82
I3
ssg83
Nsg76
(lp2302
g69
(g85
g71
NtRp2303
(dp2304
g74
(dp2305
sg83
g2299
sg76
(lp2306
g69
(g90
g71
NtRp2307
(dp2308
g74
(dp2309
g94
g95
ssg83
g2303
sg76
(lp2310
S'HTTP_ACCEPT'
p2311
asbag69
(g90
g71
NtRp2312
(dp2313
g74
(dp2314
g101
g102
ssg83
g2303
sg76
(lp2315
S':'
asbag69
(g90
g71
NtRp2316
(dp2317
g74
(dp2318
sg83
g2303
sg76
(lp2319
g69
(g70
g71
NtRp2320
(dp2321
g74
(dp2322
g82
I3
ssg83
g2316
sg76
(lp2323
g830
asbasbasbag69
(g85
g71
NtRp2324
(dp2325
g74
(dp2326
sg83
g2299
sg76
(lp2327
g69
(g90
g71
NtRp2328
(dp2329
g74
(dp2330
g94
g95
ssg83
g2324
sg76
(lp2331
S'HTTP_ACCEPT_CHARSET'
p2332
asbag69
(g90
g71
NtRp2333
(dp2334
g74
(dp2335
g101
g102
ssg83
g2324
sg76
(lp2336
S':'
asbag69
(g90
g71
NtRp2337
(dp2338
g74
(dp2339
sg83
g2324
sg76
(lp2340
g69
(g70
g71
NtRp2341
(dp2342
g74
(dp2343
g82
I3
ssg83
g2337
sg76
(lp2344
g852
asbasbasbag69
(g85
g71
NtRp2345
(dp2346
g74
(dp2347
sg83
g2299
sg76
(lp2348
g69
(g90
g71
NtRp2349
(dp2350
g74
(dp2351
g94
g95
ssg83
g2345
sg76
(lp2352
S'HTTP_ACCEPT_ENCODING'
p2353
asbag69
(g90
g71
NtRp2354
(dp2355
g74
(dp2356
g101
g102
ssg83
g2345
sg76
(lp2357
S':'
asbag69
(g90
g71
NtRp2358
(dp2359
g74
(dp2360
sg83
g2345
sg76
(lp2361
g69
(g70
g71
NtRp2362
(dp2363
g74
(dp2364
g82
I3
ssg83
g2358
sg76
(lp2365
g874
asbasbasbag69
(g85
g71
NtRp2366
(dp2367
g74
(dp2368
sg83
g2299
sg76
(lp2369
g69
(g90
g71
NtRp2370
(dp2371
g74
(dp2372
g94
g95
ssg83
g2366
sg76
(lp2373
S'HTTP_ACCEPT_LANGUAGE'
p2374
asbag69
(g90
g71
NtRp2375
(dp2376
g74
(dp2377
g101
g102
ssg83
g2366
sg76
(lp2378
S':'
asbag69
(g90
g71
NtRp2379
(dp2380
g74
(dp2381
sg83
g2366
sg76
(lp2382
g69
(g70
g71
NtRp2383
(dp2384
g74
(dp2385
g82
I3
ssg83
g2379
sg76
(lp2386
g896
asbasbasbag69
(g85
g71
NtRp2387
(dp2388
g74
(dp2389
sg83
g2299
sg76
(lp2390
g69
(g90
g71
NtRp2391
(dp2392
g74
(dp2393
g94
g95
ssg83
g2387
sg76
(lp2394
S'HTTP_CONNECTION'
p2395
asbag69
(g90
g71
NtRp2396
(dp2397
g74
(dp2398
g101
g102
ssg83
g2387
sg76
(lp2399
S':'
asbag69
(g90
g71
NtRp2400
(dp2401
g74
(dp2402
sg83
g2387
sg76
(lp2403
g69
(g70
g71
NtRp2404
(dp2405
g74
(dp2406
g82
I3
ssg83
g2400
sg76
(lp2407
g918
asbasbasbag69
(g85
g71
NtRp2408
(dp2409
g74
(dp2410
sg83
g2299
sg76
(lp2411
g69
(g90
g71
NtRp2412
(dp2413
g74
(dp2414
g94
g95
ssg83
g2408
sg76
(lp2415
S'HTTP_COOKIE'
p2416
asbag69
(g90
g71
NtRp2417
(dp2418
g74
(dp2419
g101
g102
ssg83
g2408
sg76
(lp2420
S':'
asbag69
(g90
g71
NtRp2421
(dp2422
g74
(dp2423
sg83
g2408
sg76
(lp2424
g69
(g70
g71
NtRp2425
(dp2426
g74
(dp2427
g82
I3
ssg83
g2421
sg76
(lp2428
g940
asbasbasbag69
(g85
g71
NtRp2429
(dp2430
g74
(dp2431
sg83
g2299
sg76
(lp2432
g69
(g90
g71
NtRp2433
(dp2434
g74
(dp2435
g94
g95
ssg83
g2429
sg76
(lp2436
S'HTTP_HOST'
p2437
asbag69
(g90
g71
NtRp2438
(dp2439
g74
(dp2440
g101
g102
ssg83
g2429
sg76
(lp2441
S':'
asbag69
(g90
g71
NtRp2442
(dp2443
g74
(dp2444
sg83
g2429
sg76
(lp2445
g69
(g70
g71
NtRp2446
(dp2447
g74
(dp2448
g82
I3
ssg83
g2442
sg76
(lp2449
g962
asbasbasbag69
(g85
g71
NtRp2450
(dp2451
g74
(dp2452
sg83
g2299
sg76
(lp2453
g69
(g90
g71
NtRp2454
(dp2455
g74
(dp2456
g94
g95
ssg83
g2450
sg76
(lp2457
S'HTTP_KEEP_ALIVE'
p2458
asbag69
(g90
g71
NtRp2459
(dp2460
g74
(dp2461
g101
g102
ssg83
g2450
sg76
(lp2462
S':'
asbag69
(g90
g71
NtRp2463
(dp2464
g74
(dp2465
sg83
g2450
sg76
(lp2466
g69
(g70
g71
NtRp2467
(dp2468
g74
(dp2469
g82
I3
ssg83
g2463
sg76
(lp2470
g984
asbasbasbag69
(g85
g71
NtRp2471
(dp2472
g74
(dp2473
sg83
g2299
sg76
(lp2474
g69
(g90
g71
NtRp2475
(dp2476
g74
(dp2477
g94
g95
ssg83
g2471
sg76
(lp2478
S'HTTP_REFERER'
p2479
asbag69
(g90
g71
NtRp2480
(dp2481
g74
(dp2482
g101
g102
ssg83
g2471
sg76
(lp2483
S':'
asbag69
(g90
g71
NtRp2484
(dp2485
g74
(dp2486
sg83
g2471
sg76
(lp2487
g69
(g70
g71
NtRp2488
(dp2489
g74
(dp2490
g82
I3
ssg83
g2484
sg76
(lp2491
g1006
asbasbasbag69
(g85
g71
NtRp2492
(dp2493
g74
(dp2494
sg83
g2299
sg76
(lp2495
g69
(g90
g71
NtRp2496
(dp2497
g74
(dp2498
g94
g95
ssg83
g2492
sg76
(lp2499
S'HTTP_USER_AGENT'
p2500
asbag69
(g90
g71
NtRp2501
(dp2502
g74
(dp2503
g101
g102
ssg83
g2492
sg76
(lp2504
S':'
asbag69
(g90
g71
NtRp2505
(dp2506
g74
(dp2507
sg83
g2492
sg76
(lp2508
g69
(g70
g71
NtRp2509
(dp2510
g74
(dp2511
g82
I3
ssg83
g2505
sg76
(lp2512
g1028
asbasbasbag69
(g85
g71
NtRp2513
(dp2514
g74
(dp2515
sg83
g2299
sg76
(lp2516
g69
(g90
g71
NtRp2517
(dp2518
g74
(dp2519
g94
g95
ssg83
g2513
sg76
(lp2520
S'PATH_INFO'
p2521
asbag69
(g90
g71
NtRp2522
(dp2523
g74
(dp2524
g101
g102
ssg83
g2513
sg76
(lp2525
S':'
asbag69
(g90
g71
NtRp2526
(dp2527
g74
(dp2528
sg83
g2513
sg76
(lp2529
g69
(g70
g71
NtRp2530
(dp2531
g74
(dp2532
g82
I3
ssg83
g2526
sg76
(lp2533
g1071
asbasbasbag69
(g85
g71
NtRp2534
(dp2535
g74
(dp2536
sg83
g2299
sg76
(lp2537
g69
(g90
g71
NtRp2538
(dp2539
g74
(dp2540
g94
g95
ssg83
g2534
sg76
(lp2541
S'QUERY_STRING'
p2542
asbag69
(g90
g71
NtRp2543
(dp2544
g74
(dp2545
g101
g102
ssg83
g2534
sg76
(lp2546
S':'
asbag69
(g90
g71
NtRp2547
(dp2548
g74
(dp2549
sg83
g2534
sg76
(lp2550
g69
(g70
g71
NtRp2551
(dp2552
g74
(dp2553
g82
I3
ssg83
g2547
sg76
(lp2554
g1093
asbasbasbag69
(g85
g71
NtRp2555
(dp2556
g74
(dp2557
sg83
g2299
sg76
(lp2558
g69
(g90
g71
NtRp2559
(dp2560
g74
(dp2561
g94
g95
ssg83
g2555
sg76
(lp2562
S'REMOTE_ADDR'
p2563
asbag69
(g90
g71
NtRp2564
(dp2565
g74
(dp2566
g101
g102
ssg83
g2555
sg76
(lp2567
S':'
asbag69
(g90
g71
NtRp2568
(dp2569
g74
(dp2570
sg83
g2555
sg76
(lp2571
g69
(g70
g71
NtRp2572
(dp2573
g74
(dp2574
g82
I3
ssg83
g2568
sg76
(lp2575
g202
asbasbasbag69
(g85
g71
NtRp2576
(dp2577
g74
(dp2578
sg83
g2299
sg76
(lp2579
g69
(g90
g71
NtRp2580
(dp2581
g74
(dp2582
g94
g95
ssg83
g2576
sg76
(lp2583
S'REMOTE_PORT'
p2584
asbag69
(g90
g71
NtRp2585
(dp2586
g74
(dp2587
g101
g102
ssg83
g2576
sg76
(lp2588
S':'
asbag69
(g90
g71
NtRp2589
(dp2590
g74
(dp2591
sg83
g2576
sg76
(lp2592
g69
(g70
g71
NtRp2593
(dp2594
g74
(dp2595
g82
I3
ssg83
g2589
sg76
(lp2596
g1136
asbasbasbag69
(g85
g71
NtRp2597
(dp2598
g74
(dp2599
sg83
g2299
sg76
(lp2600
g69
(g90
g71
NtRp2601
(dp2602
g74
(dp2603
g94
g95
ssg83
g2597
sg76
(lp2604
S'REQUEST_METHOD'
p2605
asbag69
(g90
g71
NtRp2606
(dp2607
g74
(dp2608
g101
g102
ssg83
g2597
sg76
(lp2609
S':'
asbag69
(g90
g71
NtRp2610
(dp2611
g74
(dp2612
sg83
g2597
sg76
(lp2613
g69
(g70
g71
NtRp2614
(dp2615
g74
(dp2616
g82
I3
ssg83
g2610
sg76
(lp2617
g1158
asbasbasbag69
(g85
g71
NtRp2618
(dp2619
g74
(dp2620
sg83
g2299
sg76
(lp2621
g69
(g90
g71
NtRp2622
(dp2623
g74
(dp2624
g94
g95
ssg83
g2618
sg76
(lp2625
S'SCRIPT_NAME'
p2626
asbag69
(g90
g71
NtRp2627
(dp2628
g74
(dp2629
g101
g102
ssg83
g2618
sg76
(lp2630
S':'
asbag69
(g90
g71
NtRp2631
(dp2632
g74
(dp2633
sg83
g2618
sg76
(lp2634
g69
(g70
g71
NtRp2635
(dp2636
g74
(dp2637
g82
I3
ssg83
g2631
sg76
(lp2638
S''
asbasbasbag69
(g85
g71
NtRp2639
(dp2640
g74
(dp2641
sg83
g2299
sg76
(lp2642
g69
(g90
g71
NtRp2643
(dp2644
g74
(dp2645
g94
g95
ssg83
g2639
sg76
(lp2646
S'SERVER_NAME'
p2647
asbag69
(g90
g71
NtRp2648
(dp2649
g74
(dp2650
g101
g102
ssg83
g2639
sg76
(lp2651
S':'
asbag69
(g90
g71
NtRp2652
(dp2653
g74
(dp2654
sg83
g2639
sg76
(lp2655
g69
(g70
g71
NtRp2656
(dp2657
g74
(dp2658
g82
I3
ssg83
g2652
sg76
(lp2659
g1201
asbasbasbag69
(g85
g71
NtRp2660
(dp2661
g74
(dp2662
sg83
g2299
sg76
(lp2663
g69
(g90
g71
NtRp2664
(dp2665
g74
(dp2666
g94
g95
ssg83
g2660
sg76
(lp2667
S'SERVER_PORT'
p2668
asbag69
(g90
g71
NtRp2669
(dp2670
g74
(dp2671
g101
g102
ssg83
g2660
sg76
(lp2672
S':'
asbag69
(g90
g71
NtRp2673
(dp2674
g74
(dp2675
sg83
g2660
sg76
(lp2676
g69
(g70
g71
NtRp2677
(dp2678
g74
(dp2679
g82
I3
ssg83
g2673
sg76
(lp2680
g1223
asbasbasbag69
(g85
g71
NtRp2681
(dp2682
g74
(dp2683
sg83
g2299
sg76
(lp2684
g69
(g90
g71
NtRp2685
(dp2686
g74
(dp2687
g94
g95
ssg83
g2681
sg76
(lp2688
S'SERVER_PROTOCOL'
p2689
asbag69
(g90
g71
NtRp2690
(dp2691
g74
(dp2692
g101
g102
ssg83
g2681
sg76
(lp2693
S':'
asbag69
(g90
g71
NtRp2694
(dp2695
g74
(dp2696
sg83
g2681
sg76
(lp2697
g69
(g70
g71
NtRp2698
(dp2699
g74
(dp2700
g82
I3
ssg83
g2694
sg76
(lp2701
g1245
asbasbasbag69
(g85
g71
NtRp2702
(dp2703
g74
(dp2704
sg83
g2299
sg76
(lp2705
g69
(g90
g71
NtRp2706
(dp2707
g74
(dp2708
g94
g95
ssg83
g2702
sg76
(lp2709
S'SERVER_SOFTWARE'
p2710
asbag69
(g90
g71
NtRp2711
(dp2712
g74
(dp2713
g101
g102
ssg83
g2702
sg76
(lp2714
S':'
asbag69
(g90
g71
NtRp2715
(dp2716
g74
(dp2717
sg83
g2702
sg76
(lp2718
g69
(g70
g71
NtRp2719
(dp2720
g74
(dp2721
g82
I3
ssg83
g2715
sg76
(lp2722
g1267
asbasbasbag69
(g85
g71
NtRp2723
(dp2724
g74
(dp2725
sg83
g2299
sg76
(lp2726
g69
(g90
g71
NtRp2727
(dp2728
g74
(dp2729
g94
g95
ssg83
g2723
sg76
(lp2730
S'wsgi.errors'
p2731
asbag69
(g90
g71
NtRp2732
(dp2733
g74
(dp2734
g101
g102
ssg83
g2723
sg76
(lp2735
S':'
asbag69
(g90
g71
NtRp2736
(dp2737
g74
(dp2738
sg83
g2723
sg76
(lp2739
g69
(g70
g71
NtRp2740
(dp2741
g74
(dp2742
g82
I3
ssg83
g2736
sg76
(lp2743
S"<open file '<stderr>', mode 'w' at 0x004950D0>"
p2744
asbasbasbag69
(g85
g71
NtRp2745
(dp2746
g74
(dp2747
sg83
g2299
sg76
(lp2748
g69
(g90
g71
NtRp2749
(dp2750
g74
(dp2751
g94
g95
ssg83
g2745
sg76
(lp2752
S'wsgi.file_wrapper'
p2753
asbag69
(g90
g71
NtRp2754
(dp2755
g74
(dp2756
g101
g102
ssg83
g2745
sg76
(lp2757
S':'
asbag69
(g90
g71
NtRp2758
(dp2759
g74
(dp2760
sg83
g2745
sg76
(lp2761
g69
(g70
g71
NtRp2762
(dp2763
g74
(dp2764
g82
I3
ssg83
g2758
sg76
(lp2765
S'<class wsgiref.util.FileWrapper at 0x034A8B20>'
p2766
asbasbasbag69
(g85
g71
NtRp2767
(dp2768
g74
(dp2769
sg83
g2299
sg76
(lp2770
g69
(g90
g71
NtRp2771
(dp2772
g74
(dp2773
g94
g95
ssg83
g2767
sg76
(lp2774
S'wsgi.input'
p2775
asbag69
(g90
g71
NtRp2776
(dp2777
g74
(dp2778
g101
g102
ssg83
g2767
sg76
(lp2779
S':'
asbag69
(g90
g71
NtRp2780
(dp2781
g74
(dp2782
sg83
g2767
sg76
(lp2783
g69
(g70
g71
NtRp2784
(dp2785
g74
(dp2786
g82
I3
ssg83
g2780
sg76
(lp2787
S'<cStringIO.StringO object at 0x038A1B60>'
p2788
asbasbasbag69
(g85
g71
NtRp2789
(dp2790
g74
(dp2791
sg83
g2299
sg76
(lp2792
g69
(g90
g71
NtRp2793
(dp2794
g74
(dp2795
g94
g95
ssg83
g2789
sg76
(lp2796
S'wsgi.multiprocess'
p2797
asbag69
(g90
g71
NtRp2798
(dp2799
g74
(dp2800
g101
g102
ssg83
g2789
sg76
(lp2801
S':'
asbag69
(g90
g71
NtRp2802
(dp2803
g74
(dp2804
sg83
g2789
sg76
(lp2805
g69
(g70
g71
NtRp2806
(dp2807
g74
(dp2808
g82
I3
ssg83
g2802
sg76
(lp2809
g112
asbasbasbag69
(g85
g71
NtRp2810
(dp2811
g74
(dp2812
sg83
g2299
sg76
(lp2813
g69
(g90
g71
NtRp2814
(dp2815
g74
(dp2816
g94
g95
ssg83
g2810
sg76
(lp2817
S'wsgi.multithread'
p2818
asbag69
(g90
g71
NtRp2819
(dp2820
g74
(dp2821
g101
g102
ssg83
g2810
sg76
(lp2822
S':'
asbag69
(g90
g71
NtRp2823
(dp2824
g74
(dp2825
sg83
g2810
sg76
(lp2826
g69
(g70
g71
NtRp2827
(dp2828
g74
(dp2829
g82
I3
ssg83
g2823
sg76
(lp2830
g1507
asbasbasbag69
(g85
g71
NtRp2831
(dp2832
g74
(dp2833
sg83
g2299
sg76
(lp2834
g69
(g90
g71
NtRp2835
(dp2836
g74
(dp2837
g94
g95
ssg83
g2831
sg76
(lp2838
S'wsgi.run_once'
p2839
asbag69
(g90
g71
NtRp2840
(dp2841
g74
(dp2842
g101
g102
ssg83
g2831
sg76
(lp2843
S':'
asbag69
(g90
g71
NtRp2844
(dp2845
g74
(dp2846
sg83
g2831
sg76
(lp2847
g69
(g70
g71
NtRp2848
(dp2849
g74
(dp2850
g82
I3
ssg83
g2844
sg76
(lp2851
g112
asbasbasbag69
(g85
g71
NtRp2852
(dp2853
g74
(dp2854
sg83
g2299
sg76
(lp2855
g69
(g90
g71
NtRp2856
(dp2857
g74
(dp2858
g94
g95
ssg83
g2852
sg76
(lp2859
S'wsgi.url_scheme'
p2860
asbag69
(g90
g71
NtRp2861
(dp2862
g74
(dp2863
g101
g102
ssg83
g2852
sg76
(lp2864
S':'
asbag69
(g90
g71
NtRp2865
(dp2866
g74
(dp2867
sg83
g2852
sg76
(lp2868
g69
(g70
g71
NtRp2869
(dp2870
g74
(dp2871
g82
I3
ssg83
g2865
sg76
(lp2872
g1550
asbasbasbag69
(g85
g71
NtRp2873
(dp2874
g74
(dp2875
sg83
g2299
sg76
(lp2876
g69
(g90
g71
NtRp2877
(dp2878
g74
(dp2879
g94
g95
ssg83
g2873
sg76
(lp2880
S'wsgi.version'
p2881
asbag69
(g90
g71
NtRp2882
(dp2883
g74
(dp2884
g101
g102
ssg83
g2873
sg76
(lp2885
S':'
asbag69
(g90
g71
NtRp2886
(dp2887
g74
(dp2888
sg83
g2873
sg76
(lp2889
g69
(g70
g71
NtRp2890
(dp2891
g74
(dp2892
g82
I3
ssg83
g2886
sg76
(lp2893
S'1'
asbasbasbasbasbasbasbasbasbasbasbasbasbsS'frames'
p2894
(lp2895
(dp2896
S'file'
p2897
S'P:\\School\\DePaul\\Projects\\CSC_438\\web2py\\gluon\\restricted.py'
p2898
sS'dump'
p2899
(dp2900
S'environment'
p2901
S"{'A': <class 'gluon.html.A'>, 'Auth': <class 'gluon.tools.Auth'>, 'B': <class 'gluon.html.B'>, 'BEAUTIFY': <class 'gluon.html.BEAUTIFY'>, 'BODY': <class 'gluon.html.BODY'>, 'BR': <class 'gluon.html.BR'>, 'BUTTON': <class 'gluon.html.BUTTON'>, 'CAT': <class 'gluon.html.CAT'>, 'CENTER': <class 'gluon.html.CENTER'>, 'CLEANUP': <class 'gluon.validators.CLEANUP'>, ...}"
p2902
sS'ccode'
p2903
S'<code object <module> at 07E685C0, file "P:\\Scho...pplications\\init\\controllers/default.py", line 5>'
p2904
ssS'lnum'
p2905
I204
sS'lines'
p2906
(dp2907
I199
S'    try:'
p2908
sI200
S'        if type(code) == types.CodeType:'
p2909
sI201
S'            ccode = code'
p2910
sI202
S'        else:'
p2911
sI203
S'            ccode = compile2(code,layer)'
p2912
sI204
S'        exec ccode in environment'
p2913
sI205
S'    except HTTP:'
p2914
sI206
S'        raise'
p2915
sI207
S'    except RestrictedError:'
p2916
sI208
S'        # do not encapsulate (obfuscate) the original RestrictedError'
p2917
ssS'call'
p2918
S"(code='# -*- coding: utf-8 -*-\\n# this file is released ...m=crud())\\n\\nresponse._vars=response._caller(join)\\n', environment={'A': <class 'gluon.html.A'>, 'Auth': <class 'gluon.tools.Auth'>, 'B': <class 'gluon.html.B'>, 'BEAUTIFY': <class 'gluon.html.BEAUTIFY'>, 'BODY': <class 'gluon.html.BODY'>, 'BR': <class 'gluon.html.BR'>, 'BUTTON': <class 'gluon.html.BUTTON'>, 'CAT': <class 'gluon.html.CAT'>, 'CENTER': <class 'gluon.html.CENTER'>, 'CLEANUP': <class 'gluon.validators.CLEANUP'>, ...}, layer=r'P:\\School\\DePaul\\Projects\\CSC_438\\web2py\\applications\\init\\controllers/default.py')"
p2919
sS'func'
p2920
S'restricted'
p2921
sa(dp2922
g2897
S'P:\\School\\DePaul\\Projects\\CSC_438\\web2py\\applications\\init\\controllers\\default.py'
p2923
sg2899
(dp2924
sg2905
I168
sg2906
(dp2925
I160
S'    http://..../[app]/default/data/search/[table]'
p2926
sI161
S'    but URLs bust be signed, i.e. linked with'
p2927
sI162
S"      A('table',_href=URL('data/tables',user_signature=True))"
p2928
sI163
S'    or with the signed load operator'
p2929
sI164
S"      LOAD('default','data.load',args='tables',ajax=True,user_signature=True)"
p2930
sI165
S'    """'
p2931
sI166
S'    return dict(form=crud())'
p2932
sI157
S'    http://..../[app]/default/data/update/[table]/[id]'
p2933
sI158
S'    http://..../[app]/default/data/delete/[table]/[id]'
p2934
sI159
S'    http://..../[app]/default/data/select/[table]'
p2935
ssg2918
S'()'
p2936
sg2920
S'<module>'
p2937
sa(dp2938
g2897
S'P:\\School\\DePaul\\Projects\\CSC_438\\web2py\\gluon\\globals.py'
p2939
sg2899
(dp2940
S'self'
p2941
S'undefined'
p2942
sS'f'
S'<function join>'
p2943
ssg2905
I149
sg2906
(dp2944
I144
S'        self.meta = Storage()      # used by web2py_ajax.html'
p2945
sI145
S'        self.menu = []             # used by the default view layout'
p2946
sI146
S'        self.files = []            # used by web2py_ajax.html'
p2947
sI147
S'        self.generic_patterns = [] # patterns to allow generic views'
p2948
sI148
S'        self._vars = None'
p2949
sI149
S'        self._caller = lambda f: f()'
p2950
sI150
S'        self._view_environment = None'
p2951
sI151
S'        self._custom_commit = None'
p2952
sI152
S'        self._custom_rollback = None'
p2953
sI153
S''
ssg2918
S'(f=<function join>)'
p2954
sg2920
S'<lambda>'
p2955
sa(dp2956
g2897
S'P:\\School\\DePaul\\Projects\\CSC_438\\web2py\\applications\\init\\controllers\\default.py'
p2957
sg2899
(dp2958
S'global db'
p2959
S"<DAL {'auth_event': <Table {'origin': <gluon.dal...'_id': <gluon.dal.Field object at 0x07F22DB0>}>}>"
p2960
sS'event_update'
p2961
S'<gluon.dal.Query object>'
p2962
sS'event'
p2963
g2942
sS').select'
p2964
g2942
ssg2905
I94
sg2906
(dp2965
I96
S"    redirect(URL('home',  vars=dict(event=event)))"
p2966
sI97
S''
sI98
S'@auth.requires_login()'
p2967
sI89
S''
sI90
S'def join():'
p2968
sI91
S''
sI92
S'    event_id=request.vars.event'
p2969
sI93
S'    event_update = db.events.id == event_id'
p2970
sI94
S'    update = db(event_update).update(partcipants=auth.user.id)'
p2971
sI95
S''
ssg2918
S'()'
p2972
sg2920
S'join'
p2973
sa(dp2974
g2897
S'P:\\School\\DePaul\\Projects\\CSC_438\\web2py\\gluon\\dal.py'
p2975
sg2899
(dp2976
S']._listify'
p2977
g2942
sS'update_fields'
p2978
S"{'partcipants': 8}"
p2979
sS'fields'
p2980
g2942
sS'self'
p2981
S'<gluon.dal.Set object>'
p2982
sS'tablename'
p2983
S"'events'"
p2984
sS'update'
p2985
g2942
sS'builtinTrue'
p2986
g1507
sS'self.db'
p2987
S"<DAL {'auth_event': <Table {'origin': <gluon.dal...'_id': <gluon.dal.Field object at 0x07F22DB0>}>}>"
p2988
ssg2905
I5795
sg2906
(dp2989
I5792
S''
sI5793
S'    def update(self, **update_fields):'
p2990
sI5794
S'        tablename = self.db._adapter.get_table(self.query)'
p2991
sI5795
S'        fields = self.db[tablename]._listify(update_fields,update=True)'
p2992
sI5796
S'        if not fields:'
p2993
sI5797
S'            raise SyntaxError, "No fields to update"'
p2994
sI5798
S'        self.delete_uploaded_files(update_fields)'
p2995
sI5799
S'        return self.db._adapter.update(tablename,self.query,fields)'
p2996
sI5790
S'        self.delete_uploaded_files()'
p2997
sI5791
S'        return self.db._adapter.delete(tablename,self.query)'
p2998
ssg2918
S"(self=<gluon.dal.Set object>, **update_fields={'partcipants': 8})"
p2999
sg2920
S'update'
p3000
sa(dp3001
g2897
S'P:\\School\\DePaul\\Projects\\CSC_438\\web2py\\gluon\\dal.py'
p3002
sg2899
(dp3003
S'builtinSyntaxError'
p3004
S"<type 'exceptions.SyntaxError'>"
p3005
sS'name'
p3006
S"'partcipants'"
p3007
ssg2905
I5037
sg2906
(dp3008
I5032
S'        new_fields = []'
p3009
sI5033
S'        new_fields_names = []'
p3010
sI5034
S'        for name in fields:'
p3011
sI5035
S'            if not name in self.fields:'
p3012
sI5036
S"                if name != 'id':"
p3013
sI5037
S"                    raise SyntaxError, 'Field %s does not belong to the table' % name"
p3014
sI5038
S'            else:'
p3015
sI5039
S'                new_fields.append((self[name],fields[name]))'
p3016
sI5040
S'                new_fields_names.append(name)'
p3017
sI5041
S'        for ofield in self:'
p3018
ssg2918
S"(self=<Table {'_db': <DAL {'auth_event': <Table {'orig..., '_id': <gluon.dal.Field object at 0x039164F0>}>, fields={'partcipants': 8}, update=True)"
p3019
sg2920
S'_listify'
p3020
sasS'pyver'
p3021
S'Python 2.7.2: P:\\Workbench\\DevEnv\\Python27\\python.exe'
p3022
sS'session'
p3023
g69
(g70
g71
NtRp3024
(dp3025
g74
(dp3026
sg76
(lp3027
g69
(g78
g71
NtRp3028
(dp3029
g74
(dp3030
g82
I5
ssg83
Nsg76
(lp3031
g69
(g85
g71
NtRp3032
(dp3033
g74
(dp3034
sg83
g3028
sg76
(lp3035
g69
(g90
g71
NtRp3036
(dp3037
g74
(dp3038
g94
g95
ssg83
g3032
sg76
(lp3039
S'auth'
p3040
asbag69
(g90
g71
NtRp3041
(dp3042
g74
(dp3043
g101
g102
ssg83
g3032
sg76
(lp3044
S':'
asbag69
(g90
g71
NtRp3045
(dp3046
g74
(dp3047
sg83
g3032
sg76
(lp3048
g69
(g70
g71
NtRp3049
(dp3050
g74
(dp3051
g82
I5
ssg83
g3045
sg76
(lp3052
g69
(g78
g71
NtRp3053
(dp3054
g74
(dp3055
g82
I4
ssg83
Nsg76
(lp3056
g69
(g85
g71
NtRp3057
(dp3058
g74
(dp3059
sg83
g3053
sg76
(lp3060
g69
(g90
g71
NtRp3061
(dp3062
g74
(dp3063
g94
g95
ssg83
g3057
sg76
(lp3064
S'expiration'
p3065
asbag69
(g90
g71
NtRp3066
(dp3067
g74
(dp3068
g101
g102
ssg83
g3057
sg76
(lp3069
S':'
asbag69
(g90
g71
NtRp3070
(dp3071
g74
(dp3072
sg83
g3057
sg76
(lp3073
g69
(g70
g71
NtRp3074
(dp3075
g74
(dp3076
g82
I4
ssg83
g3070
sg76
(lp3077
S'2592000'
p3078
asbasbasbag69
(g85
g71
NtRp3079
(dp3080
g74
(dp3081
sg83
g3053
sg76
(lp3082
g69
(g90
g71
NtRp3083
(dp3084
g74
(dp3085
g94
g95
ssg83
g3079
sg76
(lp3086
S'hmac_key'
p3087
asbag69
(g90
g71
NtRp3088
(dp3089
g74
(dp3090
g101
g102
ssg83
g3079
sg76
(lp3091
S':'
asbag69
(g90
g71
NtRp3092
(dp3093
g74
(dp3094
sg83
g3079
sg76
(lp3095
g69
(g70
g71
NtRp3096
(dp3097
g74
(dp3098
g82
I4
ssg83
g3092
sg76
(lp3099
S'935798e3-2107-4a47-9859-16e1e0c4d221'
p3100
asbasbasbag69
(g85
g71
NtRp3101
(dp3102
g74
(dp3103
sg83
g3053
sg76
(lp3104
g69
(g90
g71
NtRp3105
(dp3106
g74
(dp3107
g94
g95
ssg83
g3101
sg76
(lp3108
S'last_visit'
p3109
asbag69
(g90
g71
NtRp3110
(dp3111
g74
(dp3112
g101
g102
ssg83
g3101
sg76
(lp3113
S':'
asbag69
(g90
g71
NtRp3114
(dp3115
g74
(dp3116
sg83
g3101
sg76
(lp3117
g69
(g70
g71
NtRp3118
(dp3119
g74
(dp3120
g82
I4
ssg83
g3114
sg76
(lp3121
S'datetime.datetime(2011, 11, 19, 23, 45, 7, 201000)'
p3122
asbasbasbag69
(g85
g71
NtRp3123
(dp3124
g74
(dp3125
sg83
g3053
sg76
(lp3126
g69
(g90
g71
NtRp3127
(dp3128
g74
(dp3129
g94
g95
ssg83
g3123
sg76
(lp3130
S'remember'
p3131
asbag69
(g90
g71
NtRp3132
(dp3133
g74
(dp3134
g101
g102
ssg83
g3123
sg76
(lp3135
S':'
asbag69
(g90
g71
NtRp3136
(dp3137
g74
(dp3138
sg83
g3123
sg76
(lp3139
g69
(g70
g71
NtRp3140
(dp3141
g74
(dp3142
g82
I4
ssg83
g3136
sg76
(lp3143
g112
asbasbasbag69
(g85
g71
NtRp3144
(dp3145
g74
(dp3146
sg83
g3053
sg76
(lp3147
g69
(g90
g71
NtRp3148
(dp3149
g74
(dp3150
g94
g95
ssg83
g3144
sg76
(lp3151
S'user'
p3152
asbag69
(g90
g71
NtRp3153
(dp3154
g74
(dp3155
g101
g102
ssg83
g3144
sg76
(lp3156
S':'
asbag69
(g90
g71
NtRp3157
(dp3158
g74
(dp3159
sg83
g3144
sg76
(lp3160
g69
(g70
g71
NtRp3161
(dp3162
g74
(dp3163
g82
I4
ssg83
g3157
sg76
(lp3164
g69
(g78
g71
NtRp3165
(dp3166
g74
(dp3167
g82
I3
ssg83
Nsg76
(lp3168
g69
(g85
g71
NtRp3169
(dp3170
g74
(dp3171
sg83
g3165
sg76
(lp3172
g69
(g90
g71
NtRp3173
(dp3174
g74
(dp3175
g94
g95
ssg83
g3169
sg76
(lp3176
S'birthday'
p3177
asbag69
(g90
g71
NtRp3178
(dp3179
g74
(dp3180
g101
g102
ssg83
g3169
sg76
(lp3181
S':'
asbag69
(g90
g71
NtRp3182
(dp3183
g74
(dp3184
sg83
g3169
sg76
(lp3185
g69
(g70
g71
NtRp3186
(dp3187
g74
(dp3188
g82
I3
ssg83
g3182
sg76
(lp3189
S'datetime.date(2011, 11, 27)'
p3190
asbasbasbag69
(g85
g71
NtRp3191
(dp3192
g74
(dp3193
sg83
g3165
sg76
(lp3194
g69
(g90
g71
NtRp3195
(dp3196
g74
(dp3197
g94
g95
ssg83
g3191
sg76
(lp3198
S'challenges'
p3199
asbag69
(g90
g71
NtRp3200
(dp3201
g74
(dp3202
g101
g102
ssg83
g3191
sg76
(lp3203
S':'
asbag69
(g90
g71
NtRp3204
(dp3205
g74
(dp3206
sg83
g3191
sg76
(lp3207
g69
(g70
g71
NtRp3208
(dp3209
g74
(dp3210
g82
I3
ssg83
g3204
sg76
(lp3211
g69
(g78
g71
NtRp3212
(dp3213
g74
(dp3214
g82
I2
ssg83
Nsg76
(lp3215
sbasbasbasbag69
(g85
g71
NtRp3216
(dp3217
g74
(dp3218
sg83
g3165
sg76
(lp3219
g69
(g90
g71
NtRp3220
(dp3221
g74
(dp3222
g94
g95
ssg83
g3216
sg76
(lp3223
S'current_weight'
p3224
asbag69
(g90
g71
NtRp3225
(dp3226
g74
(dp3227
g101
g102
ssg83
g3216
sg76
(lp3228
S':'
asbag69
(g90
g71
NtRp3229
(dp3230
g74
(dp3231
sg83
g3216
sg76
(lp3232
g69
(g70
g71
NtRp3233
(dp3234
g74
(dp3235
g82
I3
ssg83
g3229
sg76
(lp3236
S'215'
p3237
asbasbasbag69
(g85
g71
NtRp3238
(dp3239
g74
(dp3240
sg83
g3165
sg76
(lp3241
g69
(g90
g71
NtRp3242
(dp3243
g74
(dp3244
g94
g95
ssg83
g3238
sg76
(lp3245
S'email'
p3246
asbag69
(g90
g71
NtRp3247
(dp3248
g74
(dp3249
g101
g102
ssg83
g3238
sg76
(lp3250
S':'
asbag69
(g90
g71
NtRp3251
(dp3252
g74
(dp3253
sg83
g3238
sg76
(lp3254
g69
(g70
g71
NtRp3255
(dp3256
g74
(dp3257
g82
I3
ssg83
g3251
sg76
(lp3258
S'sarah@test.com'
p3259
asbasbasbag69
(g85
g71
NtRp3260
(dp3261
g74
(dp3262
sg83
g3165
sg76
(lp3263
g69
(g90
g71
NtRp3264
(dp3265
g74
(dp3266
g94
g95
ssg83
g3260
sg76
(lp3267
S'first_name'
p3268
asbag69
(g90
g71
NtRp3269
(dp3270
g74
(dp3271
g101
g102
ssg83
g3260
sg76
(lp3272
S':'
asbag69
(g90
g71
NtRp3273
(dp3274
g74
(dp3275
sg83
g3260
sg76
(lp3276
g69
(g70
g71
NtRp3277
(dp3278
g74
(dp3279
g82
I3
ssg83
g3273
sg76
(lp3280
S'Sarah'
p3281
asbasbasbag69
(g85
g71
NtRp3282
(dp3283
g74
(dp3284
sg83
g3165
sg76
(lp3285
g69
(g90
g71
NtRp3286
(dp3287
g74
(dp3288
g94
g95
ssg83
g3282
sg76
(lp3289
S'gender'
p3290
asbag69
(g90
g71
NtRp3291
(dp3292
g74
(dp3293
g101
g102
ssg83
g3282
sg76
(lp3294
S':'
asbag69
(g90
g71
NtRp3295
(dp3296
g74
(dp3297
sg83
g3282
sg76
(lp3298
g69
(g70
g71
NtRp3299
(dp3300
g74
(dp3301
g82
I3
ssg83
g3295
sg76
(lp3302
S'Female'
p3303
asbasbasbag69
(g85
g71
NtRp3304
(dp3305
g74
(dp3306
sg83
g3165
sg76
(lp3307
g69
(g90
g71
NtRp3308
(dp3309
g74
(dp3310
g94
g95
ssg83
g3304
sg76
(lp3311
S'height'
p3312
asbag69
(g90
g71
NtRp3313
(dp3314
g74
(dp3315
g101
g102
ssg83
g3304
sg76
(lp3316
S':'
asbag69
(g90
g71
NtRp3317
(dp3318
g74
(dp3319
sg83
g3304
sg76
(lp3320
g69
(g70
g71
NtRp3321
(dp3322
g74
(dp3323
g82
I3
ssg83
g3317
sg76
(lp3324
S'72'
p3325
asbasbasbag69
(g85
g71
NtRp3326
(dp3327
g74
(dp3328
sg83
g3165
sg76
(lp3329
g69
(g90
g71
NtRp3330
(dp3331
g74
(dp3332
g94
g95
ssg83
g3326
sg76
(lp3333
S'id'
p3334
asbag69
(g90
g71
NtRp3335
(dp3336
g74
(dp3337
g101
g102
ssg83
g3326
sg76
(lp3338
S':'
asbag69
(g90
g71
NtRp3339
(dp3340
g74
(dp3341
sg83
g3326
sg76
(lp3342
g69
(g70
g71
NtRp3343
(dp3344
g74
(dp3345
g82
I3
ssg83
g3339
sg76
(lp3346
S'8'
asbasbasbag69
(g85
g71
NtRp3347
(dp3348
g74
(dp3349
sg83
g3165
sg76
(lp3350
g69
(g90
g71
NtRp3351
(dp3352
g74
(dp3353
g94
g95
ssg83
g3347
sg76
(lp3354
S'image'
p3355
asbag69
(g90
g71
NtRp3356
(dp3357
g74
(dp3358
g101
g102
ssg83
g3347
sg76
(lp3359
S':'
asbag69
(g90
g71
NtRp3360
(dp3361
g74
(dp3362
sg83
g3347
sg76
(lp3363
g69
(g70
g71
NtRp3364
(dp3365
g74
(dp3366
g82
I3
ssg83
g3360
sg76
(lp3367
S''
asbasbasbag69
(g85
g71
NtRp3368
(dp3369
g74
(dp3370
sg83
g3165
sg76
(lp3371
g69
(g90
g71
NtRp3372
(dp3373
g74
(dp3374
g94
g95
ssg83
g3368
sg76
(lp3375
S'last_name'
p3376
asbag69
(g90
g71
NtRp3377
(dp3378
g74
(dp3379
g101
g102
ssg83
g3368
sg76
(lp3380
S':'
asbag69
(g90
g71
NtRp3381
(dp3382
g74
(dp3383
sg83
g3368
sg76
(lp3384
g69
(g70
g71
NtRp3385
(dp3386
g74
(dp3387
g82
I3
ssg83
g3381
sg76
(lp3388
S'Edwards'
p3389
asbasbasbag69
(g85
g71
NtRp3390
(dp3391
g74
(dp3392
sg83
g3165
sg76
(lp3393
g69
(g90
g71
NtRp3394
(dp3395
g74
(dp3396
g94
g95
ssg83
g3390
sg76
(lp3397
S'password'
p3398
asbag69
(g90
g71
NtRp3399
(dp3400
g74
(dp3401
g101
g102
ssg83
g3390
sg76
(lp3402
S':'
asbag69
(g90
g71
NtRp3403
(dp3404
g74
(dp3405
sg83
g3390
sg76
(lp3406
g69
(g70
g71
NtRp3407
(dp3408
g74
(dp3409
g82
I3
ssg83
g3403
sg76
(lp3410
S'12923092f4d9e86e56018b9cdd790947'
p3411
asbasbasbag69
(g85
g71
NtRp3412
(dp3413
g74
(dp3414
sg83
g3165
sg76
(lp3415
g69
(g90
g71
NtRp3416
(dp3417
g74
(dp3418
g94
g95
ssg83
g3412
sg76
(lp3419
S'registration_id'
p3420
asbag69
(g90
g71
NtRp3421
(dp3422
g74
(dp3423
g101
g102
ssg83
g3412
sg76
(lp3424
S':'
asbag69
(g90
g71
NtRp3425
(dp3426
g74
(dp3427
sg83
g3412
sg76
(lp3428
g69
(g70
g71
NtRp3429
(dp3430
g74
(dp3431
g82
I3
ssg83
g3425
sg76
(lp3432
S''
asbasbasbag69
(g85
g71
NtRp3433
(dp3434
g74
(dp3435
sg83
g3165
sg76
(lp3436
g69
(g90
g71
NtRp3437
(dp3438
g74
(dp3439
g94
g95
ssg83
g3433
sg76
(lp3440
S'registration_key'
p3441
asbag69
(g90
g71
NtRp3442
(dp3443
g74
(dp3444
g101
g102
ssg83
g3433
sg76
(lp3445
S':'
asbag69
(g90
g71
NtRp3446
(dp3447
g74
(dp3448
sg83
g3433
sg76
(lp3449
g69
(g70
g71
NtRp3450
(dp3451
g74
(dp3452
g82
I3
ssg83
g3446
sg76
(lp3453
S''
asbasbasbag69
(g85
g71
NtRp3454
(dp3455
g74
(dp3456
sg83
g3165
sg76
(lp3457
g69
(g90
g71
NtRp3458
(dp3459
g74
(dp3460
g94
g95
ssg83
g3454
sg76
(lp3461
S'reset_password_key'
p3462
asbag69
(g90
g71
NtRp3463
(dp3464
g74
(dp3465
g101
g102
ssg83
g3454
sg76
(lp3466
S':'
asbag69
(g90
g71
NtRp3467
(dp3468
g74
(dp3469
sg83
g3454
sg76
(lp3470
g69
(g70
g71
NtRp3471
(dp3472
g74
(dp3473
g82
I3
ssg83
g3467
sg76
(lp3474
S''
asbasbasbasbasbasbasbasbasbasbasbag69
(g85
g71
NtRp3475
(dp3476
g74
(dp3477
sg83
g3028
sg76
(lp3478
g69
(g90
g71
NtRp3479
(dp3480
g74
(dp3481
g94
g95
ssg83
g3475
sg76
(lp3482
S'last_query'
p3483
asbag69
(g90
g71
NtRp3484
(dp3485
g74
(dp3486
g101
g102
ssg83
g3475
sg76
(lp3487
S':'
asbag69
(g90
g71
NtRp3488
(dp3489
g74
(dp3490
sg83
g3475
sg76
(lp3491
g69
(g70
g71
NtRp3492
(dp3493
g74
(dp3494
g82
I5
ssg83
g3488
sg76
(lp3495
S'db.events.id>0'
p3496
asbasbasbasbasbsS'etype'
p3497
S"<type 'exceptions.SyntaxError'>"
p3498
sS'date'
p3499
S'Sun Nov 20 00:11:06 2011'
p3500
sS'response'
p3501
g69
(g70
g71
NtRp3502
(dp3503
g74
(dp3504
sg76
(lp3505
g69
(g78
g71
NtRp3506
(dp3507
g74
(dp3508
g82
I5
ssg83
Nsg76
(lp3509
g69
(g85
g71
NtRp3510
(dp3511
g74
(dp3512
sg83
g3506
sg76
(lp3513
g69
(g90
g71
NtRp3514
(dp3515
g74
(dp3516
g94
g95
ssg83
g3510
sg76
(lp3517
g167
asbag69
(g90
g71
NtRp3518
(dp3519
g74
(dp3520
g101
g102
ssg83
g3510
sg76
(lp3521
S':'
asbag69
(g90
g71
NtRp3522
(dp3523
g74
(dp3524
sg83
g3510
sg76
(lp3525
g69
(g70
g71
NtRp3526
(dp3527
g74
(dp3528
g82
I5
ssg83
g3522
sg76
(lp3529
S'<cStringIO.StringO object at 0x07BD36C0>'
p3530
asbasbasbag69
(g85
g71
NtRp3531
(dp3532
g74
(dp3533
sg83
g3506
sg76
(lp3534
g69
(g90
g71
NtRp3535
(dp3536
g74
(dp3537
g94
g95
ssg83
g3531
sg76
(lp3538
g233
asbag69
(g90
g71
NtRp3539
(dp3540
g74
(dp3541
g101
g102
ssg83
g3531
sg76
(lp3542
S':'
asbag69
(g90
g71
NtRp3543
(dp3544
g74
(dp3545
sg83
g3531
sg76
(lp3546
g69
(g70
g71
NtRp3547
(dp3548
g74
(dp3549
g82
I5
ssg83
g3543
sg76
(lp3550
g69
(g78
g71
NtRp3551
(dp3552
g74
(dp3553
g82
I4
ssg83
Nsg76
(lp3554
g69
(g85
g71
NtRp3555
(dp3556
g74
(dp3557
sg83
g3551
sg76
(lp3558
g69
(g90
g71
NtRp3559
(dp3560
g74
(dp3561
g94
g95
ssg83
g3555
sg76
(lp3562
S'session_id_init'
p3563
asbag69
(g90
g71
NtRp3564
(dp3565
g74
(dp3566
g101
g102
ssg83
g3555
sg76
(lp3567
S':'
asbag69
(g90
g71
NtRp3568
(dp3569
g74
(dp3570
sg83
g3555
sg76
(lp3571
g69
(g70
g71
NtRp3572
(dp3573
g74
(dp3574
g82
I4
ssg83
g3568
sg76
(lp3575
g69
(g78
g71
NtRp3576
(dp3577
g74
(dp3578
g82
I3
ssg83
Nsg76
(lp3579
g69
(g85
g71
NtRp3580
(dp3581
g74
(dp3582
sg83
g3576
sg76
(lp3583
g69
(g90
g71
NtRp3584
(dp3585
g74
(dp3586
g94
g95
ssg83
g3580
sg76
(lp3587
g283
asbag69
(g90
g71
NtRp3588
(dp3589
g74
(dp3590
g101
g102
ssg83
g3580
sg76
(lp3591
S':'
asbag69
(g90
g71
NtRp3592
(dp3593
g74
(dp3594
sg83
g3580
sg76
(lp3595
g69
(g70
g71
NtRp3596
(dp3597
g74
(dp3598
g82
I3
ssg83
g3592
sg76
(lp3599
S''
asbasbasbag69
(g85
g71
NtRp3600
(dp3601
g74
(dp3602
sg83
g3576
sg76
(lp3603
g69
(g90
g71
NtRp3604
(dp3605
g74
(dp3606
g94
g95
ssg83
g3600
sg76
(lp3607
g304
asbag69
(g90
g71
NtRp3608
(dp3609
g74
(dp3610
g101
g102
ssg83
g3600
sg76
(lp3611
S':'
asbag69
(g90
g71
NtRp3612
(dp3613
g74
(dp3614
sg83
g3600
sg76
(lp3615
g69
(g70
g71
NtRp3616
(dp3617
g74
(dp3618
g82
I3
ssg83
g3612
sg76
(lp3619
S''
asbasbasbag69
(g85
g71
NtRp3620
(dp3621
g74
(dp3622
sg83
g3576
sg76
(lp3623
g69
(g90
g71
NtRp3624
(dp3625
g74
(dp3626
g94
g95
ssg83
g3620
sg76
(lp3627
g325
asbag69
(g90
g71
NtRp3628
(dp3629
g74
(dp3630
g101
g102
ssg83
g3620
sg76
(lp3631
S':'
asbag69
(g90
g71
NtRp3632
(dp3633
g74
(dp3634
sg83
g3620
sg76
(lp3635
g69
(g70
g71
NtRp3636
(dp3637
g74
(dp3638
g82
I3
ssg83
g3632
sg76
(lp3639
S''
asbasbasbag69
(g85
g71
NtRp3640
(dp3641
g74
(dp3642
sg83
g3576
sg76
(lp3643
g69
(g90
g71
NtRp3644
(dp3645
g74
(dp3646
g94
g95
ssg83
g3640
sg76
(lp3647
g346
asbag69
(g90
g71
NtRp3648
(dp3649
g74
(dp3650
g101
g102
ssg83
g3640
sg76
(lp3651
S':'
asbag69
(g90
g71
NtRp3652
(dp3653
g74
(dp3654
sg83
g3640
sg76
(lp3655
g69
(g70
g71
NtRp3656
(dp3657
g74
(dp3658
g82
I3
ssg83
g3652
sg76
(lp3659
S''
asbasbasbag69
(g85
g71
NtRp3660
(dp3661
g74
(dp3662
sg83
g3576
sg76
(lp3663
g69
(g90
g71
NtRp3664
(dp3665
g74
(dp3666
g94
g95
ssg83
g3660
sg76
(lp3667
g367
asbag69
(g90
g71
NtRp3668
(dp3669
g74
(dp3670
g101
g102
ssg83
g3660
sg76
(lp3671
S':'
asbag69
(g90
g71
NtRp3672
(dp3673
g74
(dp3674
sg83
g3660
sg76
(lp3675
g69
(g70
g71
NtRp3676
(dp3677
g74
(dp3678
g82
I3
ssg83
g3672
sg76
(lp3679
S''
asbasbasbag69
(g85
g71
NtRp3680
(dp3681
g74
(dp3682
sg83
g3576
sg76
(lp3683
g69
(g90
g71
NtRp3684
(dp3685
g74
(dp3686
g94
g95
ssg83
g3680
sg76
(lp3687
g388
asbag69
(g90
g71
NtRp3688
(dp3689
g74
(dp3690
g101
g102
ssg83
g3680
sg76
(lp3691
S':'
asbag69
(g90
g71
NtRp3692
(dp3693
g74
(dp3694
sg83
g3680
sg76
(lp3695
g69
(g70
g71
NtRp3696
(dp3697
g74
(dp3698
g82
I3
ssg83
g3692
sg76
(lp3699
S'/'
asbasbasbag69
(g85
g71
NtRp3700
(dp3701
g74
(dp3702
sg83
g3576
sg76
(lp3703
g69
(g90
g71
NtRp3704
(dp3705
g74
(dp3706
g94
g95
ssg83
g3700
sg76
(lp3707
g409
asbag69
(g90
g71
NtRp3708
(dp3709
g74
(dp3710
g101
g102
ssg83
g3700
sg76
(lp3711
S':'
asbag69
(g90
g71
NtRp3712
(dp3713
g74
(dp3714
sg83
g3700
sg76
(lp3715
g69
(g70
g71
NtRp3716
(dp3717
g74
(dp3718
g82
I3
ssg83
g3712
sg76
(lp3719
S''
asbasbasbag69
(g85
g71
NtRp3720
(dp3721
g74
(dp3722
sg83
g3576
sg76
(lp3723
g69
(g90
g71
NtRp3724
(dp3725
g74
(dp3726
g94
g95
ssg83
g3720
sg76
(lp3727
g430
asbag69
(g90
g71
NtRp3728
(dp3729
g74
(dp3730
g101
g102
ssg83
g3720
sg76
(lp3731
S':'
asbag69
(g90
g71
NtRp3732
(dp3733
g74
(dp3734
sg83
g3720
sg76
(lp3735
g69
(g70
g71
NtRp3736
(dp3737
g74
(dp3738
g82
I3
ssg83
g3732
sg76
(lp3739
S''
asbasbasbasbasbasbasbasbasbasbasbag69
(g85
g71
NtRp3740
(dp3741
g74
(dp3742
sg83
g3506
sg76
(lp3743
g69
(g90
g71
NtRp3744
(dp3745
g74
(dp3746
g94
g95
ssg83
g3740
sg76
(lp3747
S'files'
p3748
asbag69
(g90
g71
NtRp3749
(dp3750
g74
(dp3751
g101
g102
ssg83
g3740
sg76
(lp3752
S':'
asbag69
(g90
g71
NtRp3753
(dp3754
g74
(dp3755
sg83
g3740
sg76
(lp3756
g69
(g70
g71
NtRp3757
(dp3758
g74
(dp3759
g82
I5
ssg83
g3753
sg76
(lp3760
g69
(g78
g71
NtRp3761
(dp3762
g74
(dp3763
g82
I4
ssg83
Nsg76
(lp3764
sbasbasbasbag69
(g85
g71
NtRp3765
(dp3766
g74
(dp3767
sg83
g3506
sg76
(lp3768
g69
(g90
g71
NtRp3769
(dp3770
g74
(dp3771
g94
g95
ssg83
g3765
sg76
(lp3772
S'flash'
p3773
asbag69
(g90
g71
NtRp3774
(dp3775
g74
(dp3776
g101
g102
ssg83
g3765
sg76
(lp3777
S':'
asbag69
(g90
g71
NtRp3778
(dp3779
g74
(dp3780
sg83
g3765
sg76
(lp3781
g69
(g70
g71
NtRp3782
(dp3783
g74
(dp3784
g82
I5
ssg83
g3778
sg76
(lp3785
S''
asbasbasbag69
(g85
g71
NtRp3786
(dp3787
g74
(dp3788
sg83
g3506
sg76
(lp3789
g69
(g90
g71
NtRp3790
(dp3791
g74
(dp3792
g94
g95
ssg83
g3786
sg76
(lp3793
S'generic_patterns'
p3794
asbag69
(g90
g71
NtRp3795
(dp3796
g74
(dp3797
g101
g102
ssg83
g3786
sg76
(lp3798
S':'
asbag69
(g90
g71
NtRp3799
(dp3800
g74
(dp3801
sg83
g3786
sg76
(lp3802
g69
(g70
g71
NtRp3803
(dp3804
g74
(dp3805
g82
I5
ssg83
g3799
sg76
(lp3806
g69
(g78
g71
NtRp3807
(dp3808
g74
(dp3809
g82
I4
ssg83
Nsg76
(lp3810
g69
(g85
g71
NtRp3811
(dp3812
g74
(dp3813
sg83
g3807
sg76
(lp3814
g69
(g90
g71
NtRp3815
(dp3816
g74
(dp3817
sg83
g3811
sg76
(lp3818
g69
(g70
g71
NtRp3819
(dp3820
g74
(dp3821
g82
I4
ssg83
g3815
sg76
(lp3822
S'*'
asbasbasbasbasbasbasbag69
(g85
g71
NtRp3823
(dp3824
g74
(dp3825
sg83
g3506
sg76
(lp3826
g69
(g90
g71
NtRp3827
(dp3828
g74
(dp3829
g94
g95
ssg83
g3823
sg76
(lp3830
S'headers'
p3831
asbag69
(g90
g71
NtRp3832
(dp3833
g74
(dp3834
g101
g102
ssg83
g3823
sg76
(lp3835
S':'
asbag69
(g90
g71
NtRp3836
(dp3837
g74
(dp3838
sg83
g3823
sg76
(lp3839
g69
(g70
g71
NtRp3840
(dp3841
g74
(dp3842
g82
I5
ssg83
g3836
sg76
(lp3843
g69
(g78
g71
NtRp3844
(dp3845
g74
(dp3846
g82
I4
ssg83
Nsg76
(lp3847
g69
(g85
g71
NtRp3848
(dp3849
g74
(dp3850
sg83
g3844
sg76
(lp3851
g69
(g90
g71
NtRp3852
(dp3853
g74
(dp3854
g94
g95
ssg83
g3848
sg76
(lp3855
S'Cache-Control'
p3856
asbag69
(g90
g71
NtRp3857
(dp3858
g74
(dp3859
g101
g102
ssg83
g3848
sg76
(lp3860
S':'
asbag69
(g90
g71
NtRp3861
(dp3862
g74
(dp3863
sg83
g3848
sg76
(lp3864
g69
(g70
g71
NtRp3865
(dp3866
g74
(dp3867
g82
I4
ssg83
g3861
sg76
(lp3868
S'no-store, no-cache, must-revalidate, post-check=0, pre-check=0'
p3869
asbasbasbag69
(g85
g71
NtRp3870
(dp3871
g74
(dp3872
sg83
g3844
sg76
(lp3873
g69
(g90
g71
NtRp3874
(dp3875
g74
(dp3876
g94
g95
ssg83
g3870
sg76
(lp3877
S'Content-Type'
p3878
asbag69
(g90
g71
NtRp3879
(dp3880
g74
(dp3881
g101
g102
ssg83
g3870
sg76
(lp3882
S':'
asbag69
(g90
g71
NtRp3883
(dp3884
g74
(dp3885
sg83
g3870
sg76
(lp3886
g69
(g70
g71
NtRp3887
(dp3888
g74
(dp3889
g82
I4
ssg83
g3883
sg76
(lp3890
S'text/html; charset=utf-8'
p3891
asbasbasbag69
(g85
g71
NtRp3892
(dp3893
g74
(dp3894
sg83
g3844
sg76
(lp3895
g69
(g90
g71
NtRp3896
(dp3897
g74
(dp3898
g94
g95
ssg83
g3892
sg76
(lp3899
S'Expires'
p3900
asbag69
(g90
g71
NtRp3901
(dp3902
g74
(dp3903
g101
g102
ssg83
g3892
sg76
(lp3904
S':'
asbag69
(g90
g71
NtRp3905
(dp3906
g74
(dp3907
sg83
g3892
sg76
(lp3908
g69
(g70
g71
NtRp3909
(dp3910
g74
(dp3911
g82
I4
ssg83
g3905
sg76
(lp3912
S'Sun, 20 Nov 2011 05:10:58 GMT'
p3913
asbasbasbag69
(g85
g71
NtRp3914
(dp3915
g74
(dp3916
sg83
g3844
sg76
(lp3917
g69
(g90
g71
NtRp3918
(dp3919
g74
(dp3920
g94
g95
ssg83
g3914
sg76
(lp3921
S'Pragma'
p3922
asbag69
(g90
g71
NtRp3923
(dp3924
g74
(dp3925
g101
g102
ssg83
g3914
sg76
(lp3926
S':'
asbag69
(g90
g71
NtRp3927
(dp3928
g74
(dp3929
sg83
g3914
sg76
(lp3930
g69
(g70
g71
NtRp3931
(dp3932
g74
(dp3933
g82
I4
ssg83
g3927
sg76
(lp3934
S'no-cache'
p3935
asbasbasbag69
(g85
g71
NtRp3936
(dp3937
g74
(dp3938
sg83
g3844
sg76
(lp3939
g69
(g90
g71
NtRp3940
(dp3941
g74
(dp3942
g94
g95
ssg83
g3936
sg76
(lp3943
S'X-Powered-By'
p3944
asbag69
(g90
g71
NtRp3945
(dp3946
g74
(dp3947
g101
g102
ssg83
g3936
sg76
(lp3948
S':'
asbag69
(g90
g71
NtRp3949
(dp3950
g74
(dp3951
sg83
g3936
sg76
(lp3952
g69
(g70
g71
NtRp3953
(dp3954
g74
(dp3955
g82
I4
ssg83
g3949
sg76
(lp3956
S'web2py'
p3957
asbasbasbasbasbasbasbag69
(g85
g71
NtRp3958
(dp3959
g74
(dp3960
sg83
g3506
sg76
(lp3961
g69
(g90
g71
NtRp3962
(dp3963
g74
(dp3964
g94
g95
ssg83
g3958
sg76
(lp3965
S'menu'
p3966
asbag69
(g90
g71
NtRp3967
(dp3968
g74
(dp3969
g101
g102
ssg83
g3958
sg76
(lp3970
S':'
asbag69
(g90
g71
NtRp3971
(dp3972
g74
(dp3973
sg83
g3958
sg76
(lp3974
g69
(g70
g71
NtRp3975
(dp3976
g74
(dp3977
g82
I5
ssg83
g3971
sg76
(lp3978
g69
(g78
g71
NtRp3979
(dp3980
g74
(dp3981
g82
I4
ssg83
Nsg76
(lp3982
g69
(g85
g71
NtRp3983
(dp3984
g74
(dp3985
sg83
g3979
sg76
(lp3986
g69
(g90
g71
NtRp3987
(dp3988
g74
(dp3989
sg83
g3983
sg76
(lp3990
g69
(g70
g71
NtRp3991
(dp3992
g74
(dp3993
g82
I4
ssg83
g3987
sg76
(lp3994
g69
(g78
g71
NtRp3995
(dp3996
g74
(dp3997
g82
I3
ssg83
Nsg76
(lp3998
g69
(g85
g71
NtRp3999
(dp4000
g74
(dp4001
sg83
g3995
sg76
(lp4002
g69
(g90
g71
NtRp4003
(dp4004
g74
(dp4005
sg83
g3999
sg76
(lp4006
g69
(g70
g71
NtRp4007
(dp4008
g74
(dp4009
g82
I3
ssg83
g4003
sg76
(lp4010
cgluon.languages
lazyT_unpickle
p4011
(S't\x04\x00\x00\x00Home'
tRp4012
asbasbasbag69
(g85
g71
NtRp4013
(dp4014
g74
(dp4015
sg83
g3995
sg76
(lp4016
g69
(g90
g71
NtRp4017
(dp4018
g74
(dp4019
sg83
g4013
sg76
(lp4020
g69
(g70
g71
NtRp4021
(dp4022
g74
(dp4023
g82
I3
ssg83
g4017
sg76
(lp4024
g112
asbasbasbag69
(g85
g71
NtRp4025
(dp4026
g74
(dp4027
sg83
g3995
sg76
(lp4028
g69
(g90
g71
NtRp4029
(dp4030
g74
(dp4031
sg83
g4025
sg76
(lp4032
g69
(g70
g71
NtRp4033
(dp4034
g74
(dp4035
g82
I3
ssg83
g4029
sg76
(lp4036
S'/init/default/index'
p4037
asbasbasbag69
(g85
g71
NtRp4038
(dp4039
g74
(dp4040
sg83
g3995
sg76
(lp4041
g69
(g90
g71
NtRp4042
(dp4043
g74
(dp4044
sg83
g4038
sg76
(lp4045
g69
(g70
g71
NtRp4046
(dp4047
g74
(dp4048
g82
I3
ssg83
g4042
sg76
(lp4049
g69
(g78
g71
NtRp4050
(dp4051
g74
(dp4052
g82
I2
ssg83
Nsg76
(lp4053
sbasbasbasbasbasbasbasbag69
(g85
g71
NtRp4054
(dp4055
g74
(dp4056
sg83
g3979
sg76
(lp4057
g69
(g90
g71
NtRp4058
(dp4059
g74
(dp4060
sg83
g4054
sg76
(lp4061
g69
(g70
g71
NtRp4062
(dp4063
g74
(dp4064
g82
I4
ssg83
g4058
sg76
(lp4065
g69
(g78
g71
NtRp4066
(dp4067
g74
(dp4068
g82
I3
ssg83
Nsg76
(lp4069
g69
(g85
g71
NtRp4070
(dp4071
g74
(dp4072
sg83
g4066
sg76
(lp4073
g69
(g90
g71
NtRp4074
(dp4075
g74
(dp4076
sg83
g4070
sg76
(lp4077
g69
(g70
g71
NtRp4078
(dp4079
g74
(dp4080
g82
I3
ssg83
g4074
sg76
(lp4081
g4011
(S's\x08\x00\x00\x00This App'
tRp4082
asbasbasbag69
(g85
g71
NtRp4083
(dp4084
g74
(dp4085
sg83
g4066
sg76
(lp4086
g69
(g90
g71
NtRp4087
(dp4088
g74
(dp4089
sg83
g4083
sg76
(lp4090
g69
(g70
g71
NtRp4091
(dp4092
g74
(dp4093
g82
I3
ssg83
g4087
sg76
(lp4094
g112
asbasbasbag69
(g85
g71
NtRp4095
(dp4096
g74
(dp4097
sg83
g4066
sg76
(lp4098
g69
(g90
g71
NtRp4099
(dp4100
g74
(dp4101
sg83
g4095
sg76
(lp4102
g69
(g70
g71
NtRp4103
(dp4104
g74
(dp4105
g82
I3
ssg83
g4099
sg76
(lp4106
S'/admin/default/design/init'
p4107
asbasbasbag69
(g85
g71
NtRp4108
(dp4109
g74
(dp4110
sg83
g4066
sg76
(lp4111
g69
(g90
g71
NtRp4112
(dp4113
g74
(dp4114
sg83
g4108
sg76
(lp4115
g69
(g70
g71
NtRp4116
(dp4117
g74
(dp4118
g82
I3
ssg83
g4112
sg76
(lp4119
g69
(g78
g71
NtRp4120
(dp4121
g74
(dp4122
g82
I2
ssg83
Nsg76
(lp4123
g69
(g85
g71
NtRp4124
(dp4125
g74
(dp4126
sg83
g4120
sg76
(lp4127
g69
(g90
g71
NtRp4128
(dp4129
g74
(dp4130
sg83
g4124
sg76
(lp4131
g69
(g70
g71
NtRp4132
(dp4133
g74
(dp4134
g82
I2
ssg83
g4128
sg76
(lp4135
g69
(g78
g71
NtRp4136
(dp4137
g74
(dp4138
g82
I1
ssg83
Nsg76
(lp4139
g69
(g85
g71
NtRp4140
(dp4141
g74
(dp4142
sg83
g4136
sg76
(lp4143
g69
(g90
g71
NtRp4144
(dp4145
g74
(dp4146
sg83
g4140
sg76
(lp4147
g69
(g70
g71
NtRp4148
(dp4149
g74
(dp4150
g82
I1
ssg83
g4144
sg76
(lp4151
g4011
(S't\n\x00\x00\x00Controller'
tRp4152
asbasbasbag69
(g85
g71
NtRp4153
(dp4154
g74
(dp4155
sg83
g4136
sg76
(lp4156
g69
(g90
g71
NtRp4157
(dp4158
g74
(dp4159
sg83
g4153
sg76
(lp4160
g69
(g70
g71
NtRp4161
(dp4162
g74
(dp4163
g82
I1
ssg83
g4157
sg76
(lp4164
I00
asbasbasbag69
(g85
g71
NtRp4165
(dp4166
g74
(dp4167
sg83
g4136
sg76
(lp4168
g69
(g90
g71
NtRp4169
(dp4170
g74
(dp4171
sg83
g4165
sg76
(lp4172
g69
(g70
g71
NtRp4173
(dp4174
g74
(dp4175
g82
I1
ssg83
g4169
sg76
(lp4176
S'/admin/default/edit/init/controllers/default.py'
p4177
asbasbasbasbasbasbasbag69
(g85
g71
NtRp4178
(dp4179
g74
(dp4180
sg83
g4120
sg76
(lp4181
g69
(g90
g71
NtRp4182
(dp4183
g74
(dp4184
sg83
g4178
sg76
(lp4185
g69
(g70
g71
NtRp4186
(dp4187
g74
(dp4188
g82
I2
ssg83
g4182
sg76
(lp4189
g69
(g78
g71
NtRp4190
(dp4191
g74
(dp4192
g82
I1
ssg83
Nsg76
(lp4193
g69
(g85
g71
NtRp4194
(dp4195
g74
(dp4196
sg83
g4190
sg76
(lp4197
g69
(g90
g71
NtRp4198
(dp4199
g74
(dp4200
sg83
g4194
sg76
(lp4201
g69
(g70
g71
NtRp4202
(dp4203
g74
(dp4204
g82
I1
ssg83
g4198
sg76
(lp4205
g4011
(S't\x04\x00\x00\x00View'
tRp4206
asbasbasbag69
(g85
g71
NtRp4207
(dp4208
g74
(dp4209
sg83
g4190
sg76
(lp4210
g69
(g90
g71
NtRp4211
(dp4212
g74
(dp4213
sg83
g4207
sg76
(lp4214
g69
(g70
g71
NtRp4215
(dp4216
g74
(dp4217
g82
I1
ssg83
g4211
sg76
(lp4218
I00
asbasbasbag69
(g85
g71
NtRp4219
(dp4220
g74
(dp4221
sg83
g4190
sg76
(lp4222
g69
(g90
g71
NtRp4223
(dp4224
g74
(dp4225
sg83
g4219
sg76
(lp4226
g69
(g70
g71
NtRp4227
(dp4228
g74
(dp4229
g82
I1
ssg83
g4223
sg76
(lp4230
S'/admin/default/edit/init/views/default/join.html'
p4231
asbasbasbasbasbasbasbag69
(g85
g71
NtRp4232
(dp4233
g74
(dp4234
sg83
g4120
sg76
(lp4235
g69
(g90
g71
NtRp4236
(dp4237
g74
(dp4238
sg83
g4232
sg76
(lp4239
g69
(g70
g71
NtRp4240
(dp4241
g74
(dp4242
g82
I2
ssg83
g4236
sg76
(lp4243
g69
(g78
g71
NtRp4244
(dp4245
g74
(dp4246
g82
I1
ssg83
Nsg76
(lp4247
g69
(g85
g71
NtRp4248
(dp4249
g74
(dp4250
sg83
g4244
sg76
(lp4251
g69
(g90
g71
NtRp4252
(dp4253
g74
(dp4254
sg83
g4248
sg76
(lp4255
g69
(g70
g71
NtRp4256
(dp4257
g74
(dp4258
g82
I1
ssg83
g4252
sg76
(lp4259
g4011
(S't\x06\x00\x00\x00Layout'
tRp4260
asbasbasbag69
(g85
g71
NtRp4261
(dp4262
g74
(dp4263
sg83
g4244
sg76
(lp4264
g69
(g90
g71
NtRp4265
(dp4266
g74
(dp4267
sg83
g4261
sg76
(lp4268
g69
(g70
g71
NtRp4269
(dp4270
g74
(dp4271
g82
I1
ssg83
g4265
sg76
(lp4272
I00
asbasbasbag69
(g85
g71
NtRp4273
(dp4274
g74
(dp4275
sg83
g4244
sg76
(lp4276
g69
(g90
g71
NtRp4277
(dp4278
g74
(dp4279
sg83
g4273
sg76
(lp4280
g69
(g70
g71
NtRp4281
(dp4282
g74
(dp4283
g82
I1
ssg83
g4277
sg76
(lp4284
S'/admin/default/edit/init/views/layout.html'
p4285
asbasbasbasbasbasbasbag69
(g85
g71
NtRp4286
(dp4287
g74
(dp4288
sg83
g4120
sg76
(lp4289
g69
(g90
g71
NtRp4290
(dp4291
g74
(dp4292
sg83
g4286
sg76
(lp4293
g69
(g70
g71
NtRp4294
(dp4295
g74
(dp4296
g82
I2
ssg83
g4290
sg76
(lp4297
g69
(g78
g71
NtRp4298
(dp4299
g74
(dp4300
g82
I1
ssg83
Nsg76
(lp4301
g69
(g85
g71
NtRp4302
(dp4303
g74
(dp4304
sg83
g4298
sg76
(lp4305
g69
(g90
g71
NtRp4306
(dp4307
g74
(dp4308
sg83
g4302
sg76
(lp4309
g69
(g70
g71
NtRp4310
(dp4311
g74
(dp4312
g82
I1
ssg83
g4306
sg76
(lp4313
g4011
(S't\n\x00\x00\x00Stylesheet'
tRp4314
asbasbasbag69
(g85
g71
NtRp4315
(dp4316
g74
(dp4317
sg83
g4298
sg76
(lp4318
g69
(g90
g71
NtRp4319
(dp4320
g74
(dp4321
sg83
g4315
sg76
(lp4322
g69
(g70
g71
NtRp4323
(dp4324
g74
(dp4325
g82
I1
ssg83
g4319
sg76
(lp4326
I00
asbasbasbag69
(g85
g71
NtRp4327
(dp4328
g74
(dp4329
sg83
g4298
sg76
(lp4330
g69
(g90
g71
NtRp4331
(dp4332
g74
(dp4333
sg83
g4327
sg76
(lp4334
g69
(g70
g71
NtRp4335
(dp4336
g74
(dp4337
g82
I1
ssg83
g4331
sg76
(lp4338
S'/admin/default/edit/init/static/base.css'
p4339
asbasbasbasbasbasbasbag69
(g85
g71
NtRp4340
(dp4341
g74
(dp4342
sg83
g4120
sg76
(lp4343
g69
(g90
g71
NtRp4344
(dp4345
g74
(dp4346
sg83
g4340
sg76
(lp4347
g69
(g70
g71
NtRp4348
(dp4349
g74
(dp4350
g82
I2
ssg83
g4344
sg76
(lp4351
g69
(g78
g71
NtRp4352
(dp4353
g74
(dp4354
g82
I1
ssg83
Nsg76
(lp4355
g69
(g85
g71
NtRp4356
(dp4357
g74
(dp4358
sg83
g4352
sg76
(lp4359
g69
(g90
g71
NtRp4360
(dp4361
g74
(dp4362
sg83
g4356
sg76
(lp4363
g69
(g70
g71
NtRp4364
(dp4365
g74
(dp4366
g82
I1
ssg83
g4360
sg76
(lp4367
g4011
(S's\x08\x00\x00\x00DB Model'
tRp4368
asbasbasbag69
(g85
g71
NtRp4369
(dp4370
g74
(dp4371
sg83
g4352
sg76
(lp4372
g69
(g90
g71
NtRp4373
(dp4374
g74
(dp4375
sg83
g4369
sg76
(lp4376
g69
(g70
g71
NtRp4377
(dp4378
g74
(dp4379
g82
I1
ssg83
g4373
sg76
(lp4380
I00
asbasbasbag69
(g85
g71
NtRp4381
(dp4382
g74
(dp4383
sg83
g4352
sg76
(lp4384
g69
(g90
g71
NtRp4385
(dp4386
g74
(dp4387
sg83
g4381
sg76
(lp4388
g69
(g70
g71
NtRp4389
(dp4390
g74
(dp4391
g82
I1
ssg83
g4385
sg76
(lp4392
S'/admin/default/edit/init/models/db.py'
p4393
asbasbasbasbasbasbasbag69
(g85
g71
NtRp4394
(dp4395
g74
(dp4396
sg83
g4120
sg76
(lp4397
g69
(g90
g71
NtRp4398
(dp4399
g74
(dp4400
sg83
g4394
sg76
(lp4401
g69
(g70
g71
NtRp4402
(dp4403
g74
(dp4404
g82
I2
ssg83
g4398
sg76
(lp4405
g69
(g78
g71
NtRp4406
(dp4407
g74
(dp4408
g82
I1
ssg83
Nsg76
(lp4409
g69
(g85
g71
NtRp4410
(dp4411
g74
(dp4412
sg83
g4406
sg76
(lp4413
g69
(g90
g71
NtRp4414
(dp4415
g74
(dp4416
sg83
g4410
sg76
(lp4417
g69
(g70
g71
NtRp4418
(dp4419
g74
(dp4420
g82
I1
ssg83
g4414
sg76
(lp4421
g4011
(S's\n\x00\x00\x00Menu Model'
tRp4422
asbasbasbag69
(g85
g71
NtRp4423
(dp4424
g74
(dp4425
sg83
g4406
sg76
(lp4426
g69
(g90
g71
NtRp4427
(dp4428
g74
(dp4429
sg83
g4423
sg76
(lp4430
g69
(g70
g71
NtRp4431
(dp4432
g74
(dp4433
g82
I1
ssg83
g4427
sg76
(lp4434
I00
asbasbasbag69
(g85
g71
NtRp4435
(dp4436
g74
(dp4437
sg83
g4406
sg76
(lp4438
g69
(g90
g71
NtRp4439
(dp4440
g74
(dp4441
sg83
g4435
sg76
(lp4442
g69
(g70
g71
NtRp4443
(dp4444
g74
(dp4445
g82
I1
ssg83
g4439
sg76
(lp4446
S'/admin/default/edit/init/models/menu.py'
p4447
asbasbasbasbasbasbasbag69
(g85
g71
NtRp4448
(dp4449
g74
(dp4450
sg83
g4120
sg76
(lp4451
g69
(g90
g71
NtRp4452
(dp4453
g74
(dp4454
sg83
g4448
sg76
(lp4455
g69
(g70
g71
NtRp4456
(dp4457
g74
(dp4458
g82
I2
ssg83
g4452
sg76
(lp4459
g69
(g78
g71
NtRp4460
(dp4461
g74
(dp4462
g82
I1
ssg83
Nsg76
(lp4463
g69
(g85
g71
NtRp4464
(dp4465
g74
(dp4466
sg83
g4460
sg76
(lp4467
g69
(g90
g71
NtRp4468
(dp4469
g74
(dp4470
sg83
g4464
sg76
(lp4471
g69
(g70
g71
NtRp4472
(dp4473
g74
(dp4474
g82
I1
ssg83
g4468
sg76
(lp4475
g4011
(S't\x08\x00\x00\x00Database'
tRp4476
asbasbasbag69
(g85
g71
NtRp4477
(dp4478
g74
(dp4479
sg83
g4460
sg76
(lp4480
g69
(g90
g71
NtRp4481
(dp4482
g74
(dp4483
sg83
g4477
sg76
(lp4484
g69
(g70
g71
NtRp4485
(dp4486
g74
(dp4487
g82
I1
ssg83
g4481
sg76
(lp4488
I00
asbasbasbag69
(g85
g71
NtRp4489
(dp4490
g74
(dp4491
sg83
g4460
sg76
(lp4492
g69
(g90
g71
NtRp4493
(dp4494
g74
(dp4495
sg83
g4489
sg76
(lp4496
g69
(g70
g71
NtRp4497
(dp4498
g74
(dp4499
g82
I1
ssg83
g4493
sg76
(lp4500
S'/init/appadmin/index'
p4501
asbasbasbasbasbasbasbag69
(g85
g71
NtRp4502
(dp4503
g74
(dp4504
sg83
g4120
sg76
(lp4505
g69
(g90
g71
NtRp4506
(dp4507
g74
(dp4508
sg83
g4502
sg76
(lp4509
g69
(g70
g71
NtRp4510
(dp4511
g74
(dp4512
g82
I2
ssg83
g4506
sg76
(lp4513
g69
(g78
g71
NtRp4514
(dp4515
g74
(dp4516
g82
I1
ssg83
Nsg76
(lp4517
g69
(g85
g71
NtRp4518
(dp4519
g74
(dp4520
sg83
g4514
sg76
(lp4521
g69
(g90
g71
NtRp4522
(dp4523
g74
(dp4524
sg83
g4518
sg76
(lp4525
g69
(g70
g71
NtRp4526
(dp4527
g74
(dp4528
g82
I1
ssg83
g4522
sg76
(lp4529
g4011
(S't\x06\x00\x00\x00Errors'
tRp4530
asbasbasbag69
(g85
g71
NtRp4531
(dp4532
g74
(dp4533
sg83
g4514
sg76
(lp4534
g69
(g90
g71
NtRp4535
(dp4536
g74
(dp4537
sg83
g4531
sg76
(lp4538
g69
(g70
g71
NtRp4539
(dp4540
g74
(dp4541
g82
I1
ssg83
g4535
sg76
(lp4542
I00
asbasbasbag69
(g85
g71
NtRp4543
(dp4544
g74
(dp4545
sg83
g4514
sg76
(lp4546
g69
(g90
g71
NtRp4547
(dp4548
g74
(dp4549
sg83
g4543
sg76
(lp4550
g69
(g70
g71
NtRp4551
(dp4552
g74
(dp4553
g82
I1
ssg83
g4547
sg76
(lp4554
S'/admin/default/errors/init'
p4555
asbasbasbasbasbasbasbag69
(g85
g71
NtRp4556
(dp4557
g74
(dp4558
sg83
g4120
sg76
(lp4559
g69
(g90
g71
NtRp4560
(dp4561
g74
(dp4562
sg83
g4556
sg76
(lp4563
g69
(g70
g71
NtRp4564
(dp4565
g74
(dp4566
g82
I2
ssg83
g4560
sg76
(lp4567
g69
(g78
g71
NtRp4568
(dp4569
g74
(dp4570
g82
I1
ssg83
Nsg76
(lp4571
g69
(g85
g71
NtRp4572
(dp4573
g74
(dp4574
sg83
g4568
sg76
(lp4575
g69
(g90
g71
NtRp4576
(dp4577
g74
(dp4578
sg83
g4572
sg76
(lp4579
g69
(g70
g71
NtRp4580
(dp4581
g74
(dp4582
g82
I1
ssg83
g4576
sg76
(lp4583
g4011
(S't\x05\x00\x00\x00About'
tRp4584
asbasbasbag69
(g85
g71
NtRp4585
(dp4586
g74
(dp4587
sg83
g4568
sg76
(lp4588
g69
(g90
g71
NtRp4589
(dp4590
g74
(dp4591
sg83
g4585
sg76
(lp4592
g69
(g70
g71
NtRp4593
(dp4594
g74
(dp4595
g82
I1
ssg83
g4589
sg76
(lp4596
I00
asbasbasbag69
(g85
g71
NtRp4597
(dp4598
g74
(dp4599
sg83
g4568
sg76
(lp4600
g69
(g90
g71
NtRp4601
(dp4602
g74
(dp4603
sg83
g4597
sg76
(lp4604
g69
(g70
g71
NtRp4605
(dp4606
g74
(dp4607
g82
I1
ssg83
g4601
sg76
(lp4608
S'/admin/default/about/init'
p4609
asbasbasbasbasbasbasbasbasbasbasbasbasbasbasbag69
(g85
g71
NtRp4610
(dp4611
g74
(dp4612
sg83
g3979
sg76
(lp4613
g69
(g90
g71
NtRp4614
(dp4615
g74
(dp4616
sg83
g4610
sg76
(lp4617
g69
(g70
g71
NtRp4618
(dp4619
g74
(dp4620
g82
I4
ssg83
g4614
sg76
(lp4621
g69
(g78
g71
NtRp4622
(dp4623
g74
(dp4624
g82
I3
ssg83
Nsg76
(lp4625
g69
(g85
g71
NtRp4626
(dp4627
g74
(dp4628
sg83
g4622
sg76
(lp4629
g69
(g90
g71
NtRp4630
(dp4631
g74
(dp4632
sg83
g4626
sg76
(lp4633
g69
(g70
g71
NtRp4634
(dp4635
g74
(dp4636
g82
I3
ssg83
g4630
sg76
(lp4637
g4011
(S't\t\x00\x00\x00Resources'
tRp4638
asbasbasbag69
(g85
g71
NtRp4639
(dp4640
g74
(dp4641
sg83
g4622
sg76
(lp4642
g69
(g90
g71
NtRp4643
(dp4644
g74
(dp4645
sg83
g4639
sg76
(lp4646
g69
(g70
g71
NtRp4647
(dp4648
g74
(dp4649
g82
I3
ssg83
g4643
sg76
(lp4650
g112
asbasbasbag69
(g85
g71
NtRp4651
(dp4652
g74
(dp4653
sg83
g4622
sg76
(lp4654
g69
(g90
g71
NtRp4655
(dp4656
g74
(dp4657
sg83
g4651
sg76
(lp4658
g69
(g70
g71
NtRp4659
(dp4660
g74
(dp4661
g82
I3
ssg83
g4655
sg76
(lp4662
S'None'
p4663
asbasbasbag69
(g85
g71
NtRp4664
(dp4665
g74
(dp4666
sg83
g4622
sg76
(lp4667
g69
(g90
g71
NtRp4668
(dp4669
g74
(dp4670
sg83
g4664
sg76
(lp4671
g69
(g70
g71
NtRp4672
(dp4673
g74
(dp4674
g82
I3
ssg83
g4668
sg76
(lp4675
g69
(g78
g71
NtRp4676
(dp4677
g74
(dp4678
g82
I2
ssg83
Nsg76
(lp4679
g69
(g85
g71
NtRp4680
(dp4681
g74
(dp4682
sg83
g4676
sg76
(lp4683
g69
(g90
g71
NtRp4684
(dp4685
g74
(dp4686
sg83
g4680
sg76
(lp4687
g69
(g70
g71
NtRp4688
(dp4689
g74
(dp4690
g82
I2
ssg83
g4684
sg76
(lp4691
g69
(g78
g71
NtRp4692
(dp4693
g74
(dp4694
g82
I1
ssg83
Nsg76
(lp4695
g69
(g85
g71
NtRp4696
(dp4697
g74
(dp4698
sg83
g4692
sg76
(lp4699
g69
(g90
g71
NtRp4700
(dp4701
g74
(dp4702
sg83
g4696
sg76
(lp4703
g69
(g70
g71
NtRp4704
(dp4705
g74
(dp4706
g82
I1
ssg83
g4700
sg76
(lp4707
g4011
(S't\r\x00\x00\x00Documentation'
tRp4708
asbasbasbag69
(g85
g71
NtRp4709
(dp4710
g74
(dp4711
sg83
g4692
sg76
(lp4712
g69
(g90
g71
NtRp4713
(dp4714
g74
(dp4715
sg83
g4709
sg76
(lp4716
g69
(g70
g71
NtRp4717
(dp4718
g74
(dp4719
g82
I1
ssg83
g4713
sg76
(lp4720
I00
asbasbasbag69
(g85
g71
NtRp4721
(dp4722
g74
(dp4723
sg83
g4692
sg76
(lp4724
g69
(g90
g71
NtRp4725
(dp4726
g74
(dp4727
sg83
g4721
sg76
(lp4728
g69
(g70
g71
NtRp4729
(dp4730
g74
(dp4731
g82
I1
ssg83
g4725
sg76
(lp4732
S'http://www.web2py.com/book'
p4733
asbasbasbag69
(g85
g71
NtRp4734
(dp4735
g74
(dp4736
sg83
g4692
sg76
(lp4737
g69
(g90
g71
NtRp4738
(dp4739
g74
(dp4740
sg83
g4734
sg76
(lp4741
g69
(g70
g71
NtRp4742
(dp4743
g74
(dp4744
g82
I1
ssg83
g4738
sg76
(lp4745
(lp4746
(g4011
(S't\x07\x00\x00\x00Preface'
tRp4747
I00
S'http://www.web2py.com/book/default/chapter/00'
p4748
tp4749
a(g4011
(S't\x0c\x00\x00\x00Introduction'
tRp4750
I00
S'http://www.web2py.com/book/default/chapter/01'
p4751
tp4752
a(g4011
(S't\x06\x00\x00\x00Python'
tRp4753
I00
S'http://www.web2py.com/book/default/chapter/02'
p4754
tp4755
a(g4011
(S't\x08\x00\x00\x00Overview'
tRp4756
I00
S'http://www.web2py.com/book/default/chapter/03'
p4757
tp4758
a(g4011
(S's\x08\x00\x00\x00The Core'
tRp4759
I00
S'http://www.web2py.com/book/default/chapter/04'
p4760
tp4761
a(g4011
(S's\t\x00\x00\x00The Views'
tRp4762
I00
S'http://www.web2py.com/book/default/chapter/05'
p4763
tp4764
a(g4011
(S't\x08\x00\x00\x00Database'
tRp4765
I00
S'http://www.web2py.com/book/default/chapter/06'
p4766
tp4767
a(g4011
(S's\x14\x00\x00\x00Forms and Validators'
tRp4768
I00
S'http://www.web2py.com/book/default/chapter/07'
p4769
tp4770
a(g4011
(S's\x0e\x00\x00\x00Access Control'
tRp4771
I00
S'http://www.web2py.com/book/default/chapter/08'
p4772
tp4773
a(g4011
(S't\x08\x00\x00\x00Services'
tRp4774
I00
S'http://www.web2py.com/book/default/chapter/09'
p4775
tp4776
a(g4011
(S's\x0c\x00\x00\x00Ajax Recipes'
tRp4777
I00
S'http://www.web2py.com/book/default/chapter/10'
p4778
tp4779
a(g4011
(S's\x12\x00\x00\x00Deployment Recipes'
tRp4780
I00
S'http://www.web2py.com/book/default/chapter/11'
p4781
tp4782
a(g4011
(S's\r\x00\x00\x00Other Recipes'
tRp4783
I00
S'http://www.web2py.com/book/default/chapter/12'
p4784
tp4785
a(g4011
(S's\r\x00\x00\x00Buy this book'
tRp4786
I00
S'http://stores.lulu.com/web2py'
p4787
tp4788
aasbasbasbasbasbasbasbag69
(g85
g71
NtRp4789
(dp4790
g74
(dp4791
sg83
g4676
sg76
(lp4792
g69
(g90
g71
NtRp4793
(dp4794
g74
(dp4795
sg83
g4789
sg76
(lp4796
g69
(g70
g71
NtRp4797
(dp4798
g74
(dp4799
g82
I2
ssg83
g4793
sg76
(lp4800
g69
(g78
g71
NtRp4801
(dp4802
g74
(dp4803
g82
I1
ssg83
Nsg76
(lp4804
g69
(g85
g71
NtRp4805
(dp4806
g74
(dp4807
sg83
g4801
sg76
(lp4808
g69
(g90
g71
NtRp4809
(dp4810
g74
(dp4811
sg83
g4805
sg76
(lp4812
g69
(g70
g71
NtRp4813
(dp4814
g74
(dp4815
g82
I1
ssg83
g4809
sg76
(lp4816
g4011
(S't\t\x00\x00\x00Community'
tRp4817
asbasbasbag69
(g85
g71
NtRp4818
(dp4819
g74
(dp4820
sg83
g4801
sg76
(lp4821
g69
(g90
g71
NtRp4822
(dp4823
g74
(dp4824
sg83
g4818
sg76
(lp4825
g69
(g70
g71
NtRp4826
(dp4827
g74
(dp4828
g82
I1
ssg83
g4822
sg76
(lp4829
I00
asbasbasbag69
(g85
g71
NtRp4830
(dp4831
g74
(dp4832
sg83
g4801
sg76
(lp4833
g69
(g90
g71
NtRp4834
(dp4835
g74
(dp4836
sg83
g4830
sg76
(lp4837
g69
(g70
g71
NtRp4838
(dp4839
g74
(dp4840
g82
I1
ssg83
g4834
sg76
(lp4841
Nasbasbasbag69
(g85
g71
NtRp4842
(dp4843
g74
(dp4844
sg83
g4801
sg76
(lp4845
g69
(g90
g71
NtRp4846
(dp4847
g74
(dp4848
sg83
g4842
sg76
(lp4849
g69
(g70
g71
NtRp4850
(dp4851
g74
(dp4852
g82
I1
ssg83
g4846
sg76
(lp4853
(lp4854
(g4011
(S't\x06\x00\x00\x00Groups'
tRp4855
I00
S'http://www.web2py.com/examples/default/usergroups'
p4856
tp4857
a(g4011
(S't\x07\x00\x00\x00Twitter'
tRp4858
I00
S'http://twitter.com/web2py'
p4859
tp4860
a(g4011
(S's\t\x00\x00\x00Live chat'
tRp4861
I00
S'http://mibbit.com/?channel=%23web2py&server=irc.mibbit.net'
p4862
tp4863
a(g4011
(S's\n\x00\x00\x00User Voice'
tRp4864
I00
S'http://web2py.uservoice.com/'
p4865
tp4866
aasbasbasbasbasbasbasbag69
(g85
g71
NtRp4867
(dp4868
g74
(dp4869
sg83
g4676
sg76
(lp4870
g69
(g90
g71
NtRp4871
(dp4872
g74
(dp4873
sg83
g4867
sg76
(lp4874
g69
(g70
g71
NtRp4875
(dp4876
g74
(dp4877
g82
I2
ssg83
g4871
sg76
(lp4878
g69
(g78
g71
NtRp4879
(dp4880
g74
(dp4881
g82
I1
ssg83
Nsg76
(lp4882
g69
(g85
g71
NtRp4883
(dp4884
g74
(dp4885
sg83
g4879
sg76
(lp4886
g69
(g90
g71
NtRp4887
(dp4888
g74
(dp4889
sg83
g4883
sg76
(lp4890
g69
(g70
g71
NtRp4891
(dp4892
g74
(dp4893
g82
I1
ssg83
g4887
sg76
(lp4894
g4011
(S't\x06\x00\x00\x00Web2py'
tRp4895
asbasbasbag69
(g85
g71
NtRp4896
(dp4897
g74
(dp4898
sg83
g4879
sg76
(lp4899
g69
(g90
g71
NtRp4900
(dp4901
g74
(dp4902
sg83
g4896
sg76
(lp4903
g69
(g70
g71
NtRp4904
(dp4905
g74
(dp4906
g82
I1
ssg83
g4900
sg76
(lp4907
I00
asbasbasbag69
(g85
g71
NtRp4908
(dp4909
g74
(dp4910
sg83
g4879
sg76
(lp4911
g69
(g90
g71
NtRp4912
(dp4913
g74
(dp4914
sg83
g4908
sg76
(lp4915
g69
(g70
g71
NtRp4916
(dp4917
g74
(dp4918
g82
I1
ssg83
g4912
sg76
(lp4919
S'http://www.web2py.com'
p4920
asbasbasbag69
(g85
g71
NtRp4921
(dp4922
g74
(dp4923
sg83
g4879
sg76
(lp4924
g69
(g90
g71
NtRp4925
(dp4926
g74
(dp4927
sg83
g4921
sg76
(lp4928
g69
(g70
g71
NtRp4929
(dp4930
g74
(dp4931
g82
I1
ssg83
g4925
sg76
(lp4932
(lp4933
(g4011
(S't\x08\x00\x00\x00Download'
tRp4934
I00
S'http://www.web2py.com/examples/default/download'
p4935
tp4936
a(g4011
(S't\x07\x00\x00\x00Support'
tRp4937
I00
S'http://www.web2py.com/examples/default/support'
p4938
tp4939
a(g4011
(S's\x0e\x00\x00\x00Quick Examples'
tRp4940
I00
S'http://web2py.com/examples/default/examples'
p4941
tp4942
a(g4011
(S't\x03\x00\x00\x00FAQ'
tRp4943
I00
S'http://web2py.com/AlterEgo'
p4944
tp4945
a(g4011
(S's\x11\x00\x00\x00Free Applications'
tRp4946
I00
S'http://web2py.com/appliances'
p4947
tp4948
a(g4011
(S't\x07\x00\x00\x00Plugins'
tRp4949
I00
S'http://web2py.com/plugins'
p4950
tp4951
a(g4011
(S't\x07\x00\x00\x00Recipes'
tRp4952
I00
S'http://web2pyslices.com/'
p4953
tp4954
a(g4011
(S't\x04\x00\x00\x00Demo'
tRp4955
I00
S'http://web2py.com/demo_admin'
p4956
tp4957
a(g4011
(S't\x08\x00\x00\x00Semantic'
tRp4958
I00
S'http://web2py.com/semantic'
p4959
tp4960
a(g4011
(S't\x07\x00\x00\x00Layouts'
tRp4961
I00
S'http://web2py.com/layouts'
p4962
tp4963
a(g4011
(S't\x06\x00\x00\x00Videos'
tRp4964
I00
S'http://www.web2py.com/examples/default/videos/'
p4965
tp4966
aasbasbasbasbasbasbasbasbasbasbasbasbasbasbasbasbasbasbasbag69
(g85
g71
NtRp4967
(dp4968
g74
(dp4969
sg83
g3506
sg76
(lp4970
g69
(g90
g71
NtRp4971
(dp4972
g74
(dp4973
g94
g95
ssg83
g4967
sg76
(lp4974
S'meta'
p4975
asbag69
(g90
g71
NtRp4976
(dp4977
g74
(dp4978
g101
g102
ssg83
g4967
sg76
(lp4979
S':'
asbag69
(g90
g71
NtRp4980
(dp4981
g74
(dp4982
sg83
g4967
sg76
(lp4983
g69
(g70
g71
NtRp4984
(dp4985
g74
(dp4986
g82
I5
ssg83
g4980
sg76
(lp4987
g69
(g78
g71
NtRp4988
(dp4989
g74
(dp4990
g82
I4
ssg83
Nsg76
(lp4991
g69
(g85
g71
NtRp4992
(dp4993
g74
(dp4994
sg83
g4988
sg76
(lp4995
g69
(g90
g71
NtRp4996
(dp4997
g74
(dp4998
g94
g95
ssg83
g4992
sg76
(lp4999
S'author'
p5000
asbag69
(g90
g71
NtRp5001
(dp5002
g74
(dp5003
g101
g102
ssg83
g4992
sg76
(lp5004
S':'
asbag69
(g90
g71
NtRp5005
(dp5006
g74
(dp5007
sg83
g4992
sg76
(lp5008
g69
(g70
g71
NtRp5009
(dp5010
g74
(dp5011
g82
I4
ssg83
g5005
sg76
(lp5012
S'Adrian Edwards'
p5013
asbasbasbag69
(g85
g71
NtRp5014
(dp5015
g74
(dp5016
sg83
g4988
sg76
(lp5017
g69
(g90
g71
NtRp5018
(dp5019
g74
(dp5020
g94
g95
ssg83
g5014
sg76
(lp5021
S'copyright'
p5022
asbag69
(g90
g71
NtRp5023
(dp5024
g74
(dp5025
g101
g102
ssg83
g5014
sg76
(lp5026
S':'
asbag69
(g90
g71
NtRp5027
(dp5028
g74
(dp5029
sg83
g5014
sg76
(lp5030
g69
(g70
g71
NtRp5031
(dp5032
g74
(dp5033
g82
I4
ssg83
g5027
sg76
(lp5034
S'Copyright 2011'
p5035
asbasbasbag69
(g85
g71
NtRp5036
(dp5037
g74
(dp5038
sg83
g4988
sg76
(lp5039
g69
(g90
g71
NtRp5040
(dp5041
g74
(dp5042
g94
g95
ssg83
g5036
sg76
(lp5043
S'description'
p5044
asbag69
(g90
g71
NtRp5045
(dp5046
g74
(dp5047
g101
g102
ssg83
g5036
sg76
(lp5048
S':'
asbag69
(g90
g71
NtRp5049
(dp5050
g74
(dp5051
sg83
g5036
sg76
(lp5052
g69
(g70
g71
NtRp5053
(dp5054
g74
(dp5055
g82
I4
ssg83
g5049
sg76
(lp5056
S'Fitness Challenge'
p5057
asbasbasbag69
(g85
g71
NtRp5058
(dp5059
g74
(dp5060
sg83
g4988
sg76
(lp5061
g69
(g90
g71
NtRp5062
(dp5063
g74
(dp5064
g94
g95
ssg83
g5058
sg76
(lp5065
S'generator'
p5066
asbag69
(g90
g71
NtRp5067
(dp5068
g74
(dp5069
g101
g102
ssg83
g5058
sg76
(lp5070
S':'
asbag69
(g90
g71
NtRp5071
(dp5072
g74
(dp5073
sg83
g5058
sg76
(lp5074
g69
(g70
g71
NtRp5075
(dp5076
g74
(dp5077
g82
I4
ssg83
g5071
sg76
(lp5078
S'Web2py Web Framework'
p5079
asbasbasbag69
(g85
g71
NtRp5080
(dp5081
g74
(dp5082
sg83
g4988
sg76
(lp5083
g69
(g90
g71
NtRp5084
(dp5085
g74
(dp5086
g94
g95
ssg83
g5080
sg76
(lp5087
S'keywords'
p5088
asbag69
(g90
g71
NtRp5089
(dp5090
g74
(dp5091
g101
g102
ssg83
g5080
sg76
(lp5092
S':'
asbag69
(g90
g71
NtRp5093
(dp5094
g74
(dp5095
sg83
g5080
sg76
(lp5096
g69
(g70
g71
NtRp5097
(dp5098
g74
(dp5099
g82
I4
ssg83
g5093
sg76
(lp5100
S'web2py, python, framework'
p5101
asbasbasbasbasbasbasbag69
(g85
g71
NtRp5102
(dp5103
g74
(dp5104
sg83
g3506
sg76
(lp5105
g69
(g90
g71
NtRp5106
(dp5107
g74
(dp5108
g94
g95
ssg83
g5102
sg76
(lp5109
S'postprocessing'
p5110
asbag69
(g90
g71
NtRp5111
(dp5112
g74
(dp5113
g101
g102
ssg83
g5102
sg76
(lp5114
S':'
asbag69
(g90
g71
NtRp5115
(dp5116
g74
(dp5117
sg83
g5102
sg76
(lp5118
g69
(g70
g71
NtRp5119
(dp5120
g74
(dp5121
g82
I5
ssg83
g5115
sg76
(lp5122
g69
(g78
g71
NtRp5123
(dp5124
g74
(dp5125
g82
I4
ssg83
Nsg76
(lp5126
sbasbasbasbag69
(g85
g71
NtRp5127
(dp5128
g74
(dp5129
sg83
g3506
sg76
(lp5130
g69
(g90
g71
NtRp5131
(dp5132
g74
(dp5133
g94
g95
ssg83
g5127
sg76
(lp5134
S'session_file'
p5135
asbag69
(g90
g71
NtRp5136
(dp5137
g74
(dp5138
g101
g102
ssg83
g5127
sg76
(lp5139
S':'
asbag69
(g90
g71
NtRp5140
(dp5141
g74
(dp5142
sg83
g5127
sg76
(lp5143
g69
(g70
g71
NtRp5144
(dp5145
g74
(dp5146
g82
I5
ssg83
g5140
sg76
(lp5147
S"<open file 'P:\\School\\DePaul\\Projects\\CSC_438\\web2py\\applications\\init\\sessions\\127.0.0.1-9cf14084-4033-491f-99b2-106d13fb9973', mode 'rb+' at 0x07C9E390>"
p5148
asbasbasbag69
(g85
g71
NtRp5149
(dp5150
g74
(dp5151
sg83
g3506
sg76
(lp5152
g69
(g90
g71
NtRp5153
(dp5154
g74
(dp5155
g94
g95
ssg83
g5149
sg76
(lp5156
S'session_filename'
p5157
asbag69
(g90
g71
NtRp5158
(dp5159
g74
(dp5160
g101
g102
ssg83
g5149
sg76
(lp5161
S':'
asbag69
(g90
g71
NtRp5162
(dp5163
g74
(dp5164
sg83
g5149
sg76
(lp5165
g69
(g70
g71
NtRp5166
(dp5167
g74
(dp5168
g82
I5
ssg83
g5162
sg76
(lp5169
S'P:\\School\\DePaul\\Projects\\CSC_438\\web2py\\applications\\init\\sessions\\127.0.0.1-9cf14084-4033-491f-99b2-106d13fb9973'
p5170
asbasbasbag69
(g85
g71
NtRp5171
(dp5172
g74
(dp5173
sg83
g3506
sg76
(lp5174
g69
(g90
g71
NtRp5175
(dp5176
g74
(dp5177
g94
g95
ssg83
g5171
sg76
(lp5178
S'session_id'
p5179
asbag69
(g90
g71
NtRp5180
(dp5181
g74
(dp5182
g101
g102
ssg83
g5171
sg76
(lp5183
S':'
asbag69
(g90
g71
NtRp5184
(dp5185
g74
(dp5186
sg83
g5171
sg76
(lp5187
g69
(g70
g71
NtRp5188
(dp5189
g74
(dp5190
g82
I5
ssg83
g5184
sg76
(lp5191
S'127.0.0.1-9cf14084-4033-491f-99b2-106d13fb9973'
p5192
asbasbasbag69
(g85
g71
NtRp5193
(dp5194
g74
(dp5195
sg83
g3506
sg76
(lp5196
g69
(g90
g71
NtRp5197
(dp5198
g74
(dp5199
g94
g95
ssg83
g5193
sg76
(lp5200
S'session_id_name'
p5201
asbag69
(g90
g71
NtRp5202
(dp5203
g74
(dp5204
g101
g102
ssg83
g5193
sg76
(lp5205
S':'
asbag69
(g90
g71
NtRp5206
(dp5207
g74
(dp5208
sg83
g5193
sg76
(lp5209
g69
(g70
g71
NtRp5210
(dp5211
g74
(dp5212
g82
I5
ssg83
g5206
sg76
(lp5213
g3563
asbasbasbag69
(g85
g71
NtRp5214
(dp5215
g74
(dp5216
sg83
g3506
sg76
(lp5217
g69
(g90
g71
NtRp5218
(dp5219
g74
(dp5220
g94
g95
ssg83
g5214
sg76
(lp5221
S'session_locked'
p5222
asbag69
(g90
g71
NtRp5223
(dp5224
g74
(dp5225
g101
g102
ssg83
g5214
sg76
(lp5226
S':'
asbag69
(g90
g71
NtRp5227
(dp5228
g74
(dp5229
sg83
g5214
sg76
(lp5230
g69
(g70
g71
NtRp5231
(dp5232
g74
(dp5233
g82
I5
ssg83
g5227
sg76
(lp5234
g1507
asbasbasbag69
(g85
g71
NtRp5235
(dp5236
g74
(dp5237
sg83
g3506
sg76
(lp5238
g69
(g90
g71
NtRp5239
(dp5240
g74
(dp5241
g94
g95
ssg83
g5235
sg76
(lp5242
S'session_new'
p5243
asbag69
(g90
g71
NtRp5244
(dp5245
g74
(dp5246
g101
g102
ssg83
g5235
sg76
(lp5247
S':'
asbag69
(g90
g71
NtRp5248
(dp5249
g74
(dp5250
sg83
g5235
sg76
(lp5251
g69
(g70
g71
NtRp5252
(dp5253
g74
(dp5254
g82
I5
ssg83
g5248
sg76
(lp5255
g112
asbasbasbag69
(g85
g71
NtRp5256
(dp5257
g74
(dp5258
sg83
g3506
sg76
(lp5259
g69
(g90
g71
NtRp5260
(dp5261
g74
(dp5262
g94
g95
ssg83
g5256
sg76
(lp5263
S'status'
p5264
asbag69
(g90
g71
NtRp5265
(dp5266
g74
(dp5267
g101
g102
ssg83
g5256
sg76
(lp5268
S':'
asbag69
(g90
g71
NtRp5269
(dp5270
g74
(dp5271
sg83
g5256
sg76
(lp5272
g69
(g70
g71
NtRp5273
(dp5274
g74
(dp5275
g82
I5
ssg83
g5269
sg76
(lp5276
S'200'
p5277
asbasbasbag69
(g85
g71
NtRp5278
(dp5279
g74
(dp5280
sg83
g3506
sg76
(lp5281
g69
(g90
g71
NtRp5282
(dp5283
g74
(dp5284
g94
g95
ssg83
g5278
sg76
(lp5285
S'subtitle'
p5286
asbag69
(g90
g71
NtRp5287
(dp5288
g74
(dp5289
g101
g102
ssg83
g5278
sg76
(lp5290
S':'
asbag69
(g90
g71
NtRp5291
(dp5292
g74
(dp5293
sg83
g5278
sg76
(lp5294
g69
(g70
g71
NtRp5295
(dp5296
g74
(dp5297
g82
I5
ssg83
g5291
sg76
(lp5298
g4011
(S's\r\x00\x00\x00customize me!'
tRp5299
asbasbasbag69
(g85
g71
NtRp5300
(dp5301
g74
(dp5302
sg83
g3506
sg76
(lp5303
g69
(g90
g71
NtRp5304
(dp5305
g74
(dp5306
g94
g95
ssg83
g5300
sg76
(lp5307
S'title'
p5308
asbag69
(g90
g71
NtRp5309
(dp5310
g74
(dp5311
g101
g102
ssg83
g5300
sg76
(lp5312
S':'
asbag69
(g90
g71
NtRp5313
(dp5314
g74
(dp5315
sg83
g5300
sg76
(lp5316
g69
(g70
g71
NtRp5317
(dp5318
g74
(dp5319
g82
I5
ssg83
g5313
sg76
(lp5320
g134
asbasbasbag69
(g85
g71
NtRp5321
(dp5322
g74
(dp5323
sg83
g3506
sg76
(lp5324
g69
(g90
g71
NtRp5325
(dp5326
g74
(dp5327
g94
g95
ssg83
g5321
sg76
(lp5328
g2194
asbag69
(g90
g71
NtRp5329
(dp5330
g74
(dp5331
g101
g102
ssg83
g5321
sg76
(lp5332
S':'
asbag69
(g90
g71
NtRp5333
(dp5334
g74
(dp5335
sg83
g5321
sg76
(lp5336
g69
(g70
g71
NtRp5337
(dp5338
g74
(dp5339
g82
I5
ssg83
g5333
sg76
(lp5340
g2207
asbasbasbag69
(g85
g71
NtRp5341
(dp5342
g74
(dp5343
sg83
g3506
sg76
(lp5344
g69
(g90
g71
NtRp5345
(dp5346
g74
(dp5347
g94
g95
ssg83
g5341
sg76
(lp5348
S'view'
p5349
asbag69
(g90
g71
NtRp5350
(dp5351
g74
(dp5352
g101
g102
ssg83
g5341
sg76
(lp5353
S':'
asbag69
(g90
g71
NtRp5354
(dp5355
g74
(dp5356
sg83
g5341
sg76
(lp5357
g69
(g70
g71
NtRp5358
(dp5359
g74
(dp5360
g82
I5
ssg83
g5354
sg76
(lp5361
S'default/join.html'
p5362
asbasbasbasbasbsS'locals'
p5363
(dp5364
S'name'
p5365
S"'partcipants'"
p5366
sS'fields'
p5367
S"{'partcipants': 8}"
p5368
sS'self'
p5369
S"<Table {'_db': <DAL {'auth_event': <Table {'orig..., '_id': <gluon.dal.Field object at 0x039164F0>}>"
p5370
sg3000
g1507
sS'new_fields_names'
p5371
S'[]'
p5372
sS'new_fields'
p5373
S'[]'
p5374
sssS'traceback'
p5375
S'Traceback (most recent call last):\n  File "P:\\School\\DePaul\\Projects\\CSC_438\\web2py\\gluon\\restricted.py", line 204, in restricted\n    exec ccode in environment\n  File "P:\\School\\DePaul\\Projects\\CSC_438\\web2py\\applications\\init\\controllers/default.py", line 168, in <module>\n  File "P:\\School\\DePaul\\Projects\\CSC_438\\web2py\\gluon\\globals.py", line 149, in <lambda>\n    self._caller = lambda f: f()\n  File "P:\\School\\DePaul\\Projects\\CSC_438\\web2py\\applications\\init\\controllers/default.py", line 94, in join\n    update = db(event_update).update(partcipants=auth.user.id)\n  File "P:\\School\\DePaul\\Projects\\CSC_438\\web2py\\gluon\\dal.py", line 5795, in update\n    fields = self.db[tablename]._listify(update_fields,update=True)\n  File "P:\\School\\DePaul\\Projects\\CSC_438\\web2py\\gluon\\dal.py", line 5037, in _listify\n    raise SyntaxError, \'Field %s does not belong to the table\' % name\nSyntaxError: Field partcipants does not belong to the table\n'
p5376
s.