(dp1
S'output'
p2
S''
sS'layer'
p3
S'P:\\Workbench\\DevEnv\\web2py\\applications\\init\\controllers/default.py'
p4
sS'code'
p5
S'# -*- coding: utf-8 -*-\n# this file is released under public domain and you can use without limitations\n\n#########################################################################\n## This is a samples controller\n## - index is the default action of any application\n## - user is required for authentication and authorization\n## - download is for downloading files uploaded in the db (does streaming)\n## - call exposes all registered services (none by default)\n#########################################################################\n\ndef index():\n\n    ## if user is already logged in, redirect to the user home page.\n    if auth.user:\n        redirect(URL(r=request, f=\'home\'))  \n    else:\n        redirect(URL(r=request, f=\'user\'))\n\n    form = auth()        \n    return dict(form = form)\n\ndef user():\n    """\n    exposes:\n    http://..../[app]/default/user/login\n    http://..../[app]/default/user/logout\n    http://..../[app]/default/user/register\n    http://..../[app]/default/user/profile\n    http://..../[app]/default/user/retrieve_password\n    http://..../[app]/default/user/change_password\n    use @auth.requires_login()\n        @auth.requires_membership(\'group name\')\n        @auth.requires_permission(\'read\',\'table name\',record_id)\n    to decorate functions that need access control\n    """\n\n    return dict(form=auth())\n\n## Users home page.\n@auth.requires_login()\ndef home():\n\n    return dict(URL(r=request, f=\'home\'))\n    \ndef contact():\n\n    return dict()\n\ndef download():\n    """\n    allows downloading of uploaded files\n    http://..../[app]/default/download/[filename]\n    """\n    return response.download(request,db)\n\n\ndef call():\n    """\n    exposes services. for example:\n    http://..../[app]/default/call/jsonrpc\n    decorate with @services.jsonrpc the functions to expose\n    supports xml, json, xmlrpc, jsonrpc, amfrpc, rss, csv\n    """\n    return service()\n\n\n@auth.requires_signature()\ndef data():\n    """\n    http://..../[app]/default/data/tables\n    http://..../[app]/default/data/create/[table]\n    http://..../[app]/default/data/read/[table]/[id]\n    http://..../[app]/default/data/update/[table]/[id]\n    http://..../[app]/default/data/delete/[table]/[id]\n    http://..../[app]/default/data/select/[table]\n    http://..../[app]/default/data/search/[table]\n    but URLs bust be signed, i.e. linked with\n      A(\'table\',_href=URL(\'data/tables\',user_signature=True))\n    or with the signed load operator\n      LOAD(\'default\',\'data.load\',args=\'tables\',ajax=True,user_signature=True)\n    """\n    return dict(form=crud())\n\nresponse._vars=response._caller(home)\n'
p6
sS'snapshot'
p7
(dp8
S'exception'
p9
(dp10
S'__hash__'
p11
S"<method-wrapper '__hash__' of exceptions.ValueError object>"
p12
sS'__setattr__'
p13
S"<method-wrapper '__setattr__' of exceptions.ValueError object>"
p14
sS'__reduce_ex__'
p15
S'<built-in method __reduce_ex__ of exceptions.ValueError object>'
p16
sS'__getslice__'
p17
S"<method-wrapper '__getslice__' of exceptions.ValueError object>"
p18
sS'__getitem__'
p19
S"<method-wrapper '__getitem__' of exceptions.ValueError object>"
p20
sS'__setstate__'
p21
S'<built-in method __setstate__ of exceptions.ValueError object>'
p22
sS'__reduce__'
p23
S'<built-in method __reduce__ of exceptions.ValueError object>'
p24
sS'__str__'
p25
S"<method-wrapper '__str__' of exceptions.ValueError object>"
p26
sS'__format__'
p27
S'<built-in method __format__ of exceptions.ValueError object>'
p28
sS'__getattribute__'
p29
S"<method-wrapper '__getattribute__' of exceptions.ValueError object>"
p30
sS'__class__'
p31
S"<type 'exceptions.ValueError'>"
p32
sS'__unicode__'
p33
S'<built-in method __unicode__ of exceptions.ValueError object>'
p34
sS'__delattr__'
p35
S"<method-wrapper '__delattr__' of exceptions.ValueError object>"
p36
sS'__subclasshook__'
p37
S'<built-in method __subclasshook__ of type object>'
p38
sS'__repr__'
p39
S"<method-wrapper '__repr__' of exceptions.ValueError object>"
p40
sS'args'
p41
S"('dictionary update sequence element #0 has length 1; 2 is required',)"
p42
sS'__dict__'
p43
S'{}'
p44
sS'__sizeof__'
p45
S'<built-in method __sizeof__ of exceptions.ValueError object>'
p46
sS'__doc__'
p47
S"'Inappropriate argument value (of correct type).'"
p48
sS'__init__'
p49
S"<method-wrapper '__init__' of exceptions.ValueError object>"
p50
sS'__new__'
p51
S'<built-in method __new__ of type object>'
p52
ssS'evalue'
p53
S'dictionary update sequence element #0 has length 1; 2 is required'
p54
sS'request'
p55
ccopy_reg
_reconstructor
p56
(cgluon.html
BEAUTIFY
p57
c__builtin__
object
p58
NtRp59
(dp60
S'attributes'
p61
(dp62
sS'components'
p63
(lp64
g56
(cgluon.html
TABLE
p65
g58
NtRp66
(dp67
g61
(dp68
S'level'
p69
I5
ssS'parent'
p70
Nsg63
(lp71
g56
(cgluon.html
TR
p72
g58
NtRp73
(dp74
g61
(dp75
sg70
g66
sg63
(lp76
g56
(cgluon.html
TD
p77
g58
NtRp78
(dp79
g61
(dp80
S'_style'
p81
S'font-weight:bold;vertical-align:top'
p82
ssg70
g73
sg63
(lp83
S'ajax'
p84
asbag56
(g77
g58
NtRp85
(dp86
g61
(dp87
S'_valign'
p88
S'top'
p89
ssg70
g73
sg63
(lp90
S':'
asbag56
(g77
g58
NtRp91
(dp92
g61
(dp93
sg70
g73
sg63
(lp94
g56
(g57
g58
NtRp95
(dp96
g61
(dp97
g69
I5
ssg70
g91
sg63
(lp98
S'False'
p99
asbasbasbag56
(g72
g58
NtRp100
(dp101
g61
(dp102
sg70
g66
sg63
(lp103
g56
(g77
g58
NtRp104
(dp105
g61
(dp106
g81
g82
ssg70
g100
sg63
(lp107
S'application'
p108
asbag56
(g77
g58
NtRp109
(dp110
g61
(dp111
g88
g89
ssg70
g100
sg63
(lp112
S':'
asbag56
(g77
g58
NtRp113
(dp114
g61
(dp115
sg70
g100
sg63
(lp116
g56
(g57
g58
NtRp117
(dp118
g61
(dp119
g69
I5
ssg70
g113
sg63
(lp120
S'init'
p121
asbasbasbag56
(g72
g58
NtRp122
(dp123
g61
(dp124
sg70
g66
sg63
(lp125
g56
(g77
g58
NtRp126
(dp127
g61
(dp128
g81
g82
ssg70
g122
sg63
(lp129
g41
asbag56
(g77
g58
NtRp130
(dp131
g61
(dp132
g88
g89
ssg70
g122
sg63
(lp133
S':'
asbag56
(g77
g58
NtRp134
(dp135
g61
(dp136
sg70
g122
sg63
(lp137
g56
(g57
g58
NtRp138
(dp139
g61
(dp140
g69
I5
ssg70
g134
sg63
(lp141
g56
(g65
g58
NtRp142
(dp143
g61
(dp144
g69
I4
ssg70
Nsg63
(lp145
sbasbasbasbag56
(g72
g58
NtRp146
(dp147
g61
(dp148
sg70
g66
sg63
(lp149
g56
(g77
g58
NtRp150
(dp151
g61
(dp152
g81
g82
ssg70
g146
sg63
(lp153
S'body'
p154
asbag56
(g77
g58
NtRp155
(dp156
g61
(dp157
g88
g89
ssg70
g146
sg63
(lp158
S':'
asbag56
(g77
g58
NtRp159
(dp160
g61
(dp161
sg70
g146
sg63
(lp162
g56
(g57
g58
NtRp163
(dp164
g61
(dp165
g69
I5
ssg70
g159
sg63
(lp166
S'<cStringIO.StringO object at 0x03696B60>'
p167
asbasbasbag56
(g72
g58
NtRp168
(dp169
g61
(dp170
sg70
g66
sg63
(lp171
g56
(g77
g58
NtRp172
(dp173
g61
(dp174
g81
g82
ssg70
g168
sg63
(lp175
S'client'
p176
asbag56
(g77
g58
NtRp177
(dp178
g61
(dp179
g88
g89
ssg70
g168
sg63
(lp180
S':'
asbag56
(g77
g58
NtRp181
(dp182
g61
(dp183
sg70
g168
sg63
(lp184
g56
(g57
g58
NtRp185
(dp186
g61
(dp187
g69
I5
ssg70
g181
sg63
(lp188
S'127.0.0.1'
p189
asbasbasbag56
(g72
g58
NtRp190
(dp191
g61
(dp192
sg70
g66
sg63
(lp193
g56
(g77
g58
NtRp194
(dp195
g61
(dp196
g81
g82
ssg70
g190
sg63
(lp197
S'controller'
p198
asbag56
(g77
g58
NtRp199
(dp200
g61
(dp201
g88
g89
ssg70
g190
sg63
(lp202
S':'
asbag56
(g77
g58
NtRp203
(dp204
g61
(dp205
sg70
g190
sg63
(lp206
g56
(g57
g58
NtRp207
(dp208
g61
(dp209
g69
I5
ssg70
g203
sg63
(lp210
S'default'
p211
asbasbasbag56
(g72
g58
NtRp212
(dp213
g61
(dp214
sg70
g66
sg63
(lp215
g56
(g77
g58
NtRp216
(dp217
g61
(dp218
g81
g82
ssg70
g212
sg63
(lp219
S'cookies'
p220
asbag56
(g77
g58
NtRp221
(dp222
g61
(dp223
g88
g89
ssg70
g212
sg63
(lp224
S':'
asbag56
(g77
g58
NtRp225
(dp226
g61
(dp227
sg70
g212
sg63
(lp228
g56
(g57
g58
NtRp229
(dp230
g61
(dp231
g69
I5
ssg70
g225
sg63
(lp232
g56
(g65
g58
NtRp233
(dp234
g61
(dp235
g69
I4
ssg70
Nsg63
(lp236
g56
(g72
g58
NtRp237
(dp238
g61
(dp239
sg70
g233
sg63
(lp240
g56
(g77
g58
NtRp241
(dp242
g61
(dp243
g81
g82
ssg70
g237
sg63
(lp244
S'session_id_admin'
p245
asbag56
(g77
g58
NtRp246
(dp247
g61
(dp248
g88
g89
ssg70
g237
sg63
(lp249
S':'
asbag56
(g77
g58
NtRp250
(dp251
g61
(dp252
sg70
g237
sg63
(lp253
g56
(g57
g58
NtRp254
(dp255
g61
(dp256
g69
I4
ssg70
g250
sg63
(lp257
g56
(g65
g58
NtRp258
(dp259
g61
(dp260
g69
I3
ssg70
Nsg63
(lp261
g56
(g72
g58
NtRp262
(dp263
g61
(dp264
sg70
g258
sg63
(lp265
g56
(g77
g58
NtRp266
(dp267
g61
(dp268
g81
g82
ssg70
g262
sg63
(lp269
S'comment'
p270
asbag56
(g77
g58
NtRp271
(dp272
g61
(dp273
g88
g89
ssg70
g262
sg63
(lp274
S':'
asbag56
(g77
g58
NtRp275
(dp276
g61
(dp277
sg70
g262
sg63
(lp278
g56
(g57
g58
NtRp279
(dp280
g61
(dp281
g69
I3
ssg70
g275
sg63
(lp282
S''
asbasbasbag56
(g72
g58
NtRp283
(dp284
g61
(dp285
sg70
g258
sg63
(lp286
g56
(g77
g58
NtRp287
(dp288
g61
(dp289
g81
g82
ssg70
g283
sg63
(lp290
S'domain'
p291
asbag56
(g77
g58
NtRp292
(dp293
g61
(dp294
g88
g89
ssg70
g283
sg63
(lp295
S':'
asbag56
(g77
g58
NtRp296
(dp297
g61
(dp298
sg70
g283
sg63
(lp299
g56
(g57
g58
NtRp300
(dp301
g61
(dp302
g69
I3
ssg70
g296
sg63
(lp303
S''
asbasbasbag56
(g72
g58
NtRp304
(dp305
g61
(dp306
sg70
g258
sg63
(lp307
g56
(g77
g58
NtRp308
(dp309
g61
(dp310
g81
g82
ssg70
g304
sg63
(lp311
S'expires'
p312
asbag56
(g77
g58
NtRp313
(dp314
g61
(dp315
g88
g89
ssg70
g304
sg63
(lp316
S':'
asbag56
(g77
g58
NtRp317
(dp318
g61
(dp319
sg70
g304
sg63
(lp320
g56
(g57
g58
NtRp321
(dp322
g61
(dp323
g69
I3
ssg70
g317
sg63
(lp324
S''
asbasbasbag56
(g72
g58
NtRp325
(dp326
g61
(dp327
sg70
g258
sg63
(lp328
g56
(g77
g58
NtRp329
(dp330
g61
(dp331
g81
g82
ssg70
g325
sg63
(lp332
S'httponly'
p333
asbag56
(g77
g58
NtRp334
(dp335
g61
(dp336
g88
g89
ssg70
g325
sg63
(lp337
S':'
asbag56
(g77
g58
NtRp338
(dp339
g61
(dp340
sg70
g325
sg63
(lp341
g56
(g57
g58
NtRp342
(dp343
g61
(dp344
g69
I3
ssg70
g338
sg63
(lp345
S''
asbasbasbag56
(g72
g58
NtRp346
(dp347
g61
(dp348
sg70
g258
sg63
(lp349
g56
(g77
g58
NtRp350
(dp351
g61
(dp352
g81
g82
ssg70
g346
sg63
(lp353
S'max-age'
p354
asbag56
(g77
g58
NtRp355
(dp356
g61
(dp357
g88
g89
ssg70
g346
sg63
(lp358
S':'
asbag56
(g77
g58
NtRp359
(dp360
g61
(dp361
sg70
g346
sg63
(lp362
g56
(g57
g58
NtRp363
(dp364
g61
(dp365
g69
I3
ssg70
g359
sg63
(lp366
S''
asbasbasbag56
(g72
g58
NtRp367
(dp368
g61
(dp369
sg70
g258
sg63
(lp370
g56
(g77
g58
NtRp371
(dp372
g61
(dp373
g81
g82
ssg70
g367
sg63
(lp374
S'path'
p375
asbag56
(g77
g58
NtRp376
(dp377
g61
(dp378
g88
g89
ssg70
g367
sg63
(lp379
S':'
asbag56
(g77
g58
NtRp380
(dp381
g61
(dp382
sg70
g367
sg63
(lp383
g56
(g57
g58
NtRp384
(dp385
g61
(dp386
g69
I3
ssg70
g380
sg63
(lp387
S''
asbasbasbag56
(g72
g58
NtRp388
(dp389
g61
(dp390
sg70
g258
sg63
(lp391
g56
(g77
g58
NtRp392
(dp393
g61
(dp394
g81
g82
ssg70
g388
sg63
(lp395
S'secure'
p396
asbag56
(g77
g58
NtRp397
(dp398
g61
(dp399
g88
g89
ssg70
g388
sg63
(lp400
S':'
asbag56
(g77
g58
NtRp401
(dp402
g61
(dp403
sg70
g388
sg63
(lp404
g56
(g57
g58
NtRp405
(dp406
g61
(dp407
g69
I3
ssg70
g401
sg63
(lp408
S''
asbasbasbag56
(g72
g58
NtRp409
(dp410
g61
(dp411
sg70
g258
sg63
(lp412
g56
(g77
g58
NtRp413
(dp414
g61
(dp415
g81
g82
ssg70
g409
sg63
(lp416
S'version'
p417
asbag56
(g77
g58
NtRp418
(dp419
g61
(dp420
g88
g89
ssg70
g409
sg63
(lp421
S':'
asbag56
(g77
g58
NtRp422
(dp423
g61
(dp424
sg70
g409
sg63
(lp425
g56
(g57
g58
NtRp426
(dp427
g61
(dp428
g69
I3
ssg70
g422
sg63
(lp429
S''
asbasbasbasbasbasbasbag56
(g72
g58
NtRp430
(dp431
g61
(dp432
sg70
g233
sg63
(lp433
g56
(g77
g58
NtRp434
(dp435
g61
(dp436
g81
g82
ssg70
g430
sg63
(lp437
S'session_id_init'
p438
asbag56
(g77
g58
NtRp439
(dp440
g61
(dp441
g88
g89
ssg70
g430
sg63
(lp442
S':'
asbag56
(g77
g58
NtRp443
(dp444
g61
(dp445
sg70
g430
sg63
(lp446
g56
(g57
g58
NtRp447
(dp448
g61
(dp449
g69
I4
ssg70
g443
sg63
(lp450
g56
(g65
g58
NtRp451
(dp452
g61
(dp453
g69
I3
ssg70
Nsg63
(lp454
g56
(g72
g58
NtRp455
(dp456
g61
(dp457
sg70
g451
sg63
(lp458
g56
(g77
g58
NtRp459
(dp460
g61
(dp461
g81
g82
ssg70
g455
sg63
(lp462
g270
asbag56
(g77
g58
NtRp463
(dp464
g61
(dp465
g88
g89
ssg70
g455
sg63
(lp466
S':'
asbag56
(g77
g58
NtRp467
(dp468
g61
(dp469
sg70
g455
sg63
(lp470
g56
(g57
g58
NtRp471
(dp472
g61
(dp473
g69
I3
ssg70
g467
sg63
(lp474
S''
asbasbasbag56
(g72
g58
NtRp475
(dp476
g61
(dp477
sg70
g451
sg63
(lp478
g56
(g77
g58
NtRp479
(dp480
g61
(dp481
g81
g82
ssg70
g475
sg63
(lp482
g291
asbag56
(g77
g58
NtRp483
(dp484
g61
(dp485
g88
g89
ssg70
g475
sg63
(lp486
S':'
asbag56
(g77
g58
NtRp487
(dp488
g61
(dp489
sg70
g475
sg63
(lp490
g56
(g57
g58
NtRp491
(dp492
g61
(dp493
g69
I3
ssg70
g487
sg63
(lp494
S''
asbasbasbag56
(g72
g58
NtRp495
(dp496
g61
(dp497
sg70
g451
sg63
(lp498
g56
(g77
g58
NtRp499
(dp500
g61
(dp501
g81
g82
ssg70
g495
sg63
(lp502
g312
asbag56
(g77
g58
NtRp503
(dp504
g61
(dp505
g88
g89
ssg70
g495
sg63
(lp506
S':'
asbag56
(g77
g58
NtRp507
(dp508
g61
(dp509
sg70
g495
sg63
(lp510
g56
(g57
g58
NtRp511
(dp512
g61
(dp513
g69
I3
ssg70
g507
sg63
(lp514
S''
asbasbasbag56
(g72
g58
NtRp515
(dp516
g61
(dp517
sg70
g451
sg63
(lp518
g56
(g77
g58
NtRp519
(dp520
g61
(dp521
g81
g82
ssg70
g515
sg63
(lp522
g333
asbag56
(g77
g58
NtRp523
(dp524
g61
(dp525
g88
g89
ssg70
g515
sg63
(lp526
S':'
asbag56
(g77
g58
NtRp527
(dp528
g61
(dp529
sg70
g515
sg63
(lp530
g56
(g57
g58
NtRp531
(dp532
g61
(dp533
g69
I3
ssg70
g527
sg63
(lp534
S''
asbasbasbag56
(g72
g58
NtRp535
(dp536
g61
(dp537
sg70
g451
sg63
(lp538
g56
(g77
g58
NtRp539
(dp540
g61
(dp541
g81
g82
ssg70
g535
sg63
(lp542
g354
asbag56
(g77
g58
NtRp543
(dp544
g61
(dp545
g88
g89
ssg70
g535
sg63
(lp546
S':'
asbag56
(g77
g58
NtRp547
(dp548
g61
(dp549
sg70
g535
sg63
(lp550
g56
(g57
g58
NtRp551
(dp552
g61
(dp553
g69
I3
ssg70
g547
sg63
(lp554
S''
asbasbasbag56
(g72
g58
NtRp555
(dp556
g61
(dp557
sg70
g451
sg63
(lp558
g56
(g77
g58
NtRp559
(dp560
g61
(dp561
g81
g82
ssg70
g555
sg63
(lp562
g375
asbag56
(g77
g58
NtRp563
(dp564
g61
(dp565
g88
g89
ssg70
g555
sg63
(lp566
S':'
asbag56
(g77
g58
NtRp567
(dp568
g61
(dp569
sg70
g555
sg63
(lp570
g56
(g57
g58
NtRp571
(dp572
g61
(dp573
g69
I3
ssg70
g567
sg63
(lp574
S''
asbasbasbag56
(g72
g58
NtRp575
(dp576
g61
(dp577
sg70
g451
sg63
(lp578
g56
(g77
g58
NtRp579
(dp580
g61
(dp581
g81
g82
ssg70
g575
sg63
(lp582
g396
asbag56
(g77
g58
NtRp583
(dp584
g61
(dp585
g88
g89
ssg70
g575
sg63
(lp586
S':'
asbag56
(g77
g58
NtRp587
(dp588
g61
(dp589
sg70
g575
sg63
(lp590
g56
(g57
g58
NtRp591
(dp592
g61
(dp593
g69
I3
ssg70
g587
sg63
(lp594
S''
asbasbasbag56
(g72
g58
NtRp595
(dp596
g61
(dp597
sg70
g451
sg63
(lp598
g56
(g77
g58
NtRp599
(dp600
g61
(dp601
g81
g82
ssg70
g595
sg63
(lp602
g417
asbag56
(g77
g58
NtRp603
(dp604
g61
(dp605
g88
g89
ssg70
g595
sg63
(lp606
S':'
asbag56
(g77
g58
NtRp607
(dp608
g61
(dp609
sg70
g595
sg63
(lp610
g56
(g57
g58
NtRp611
(dp612
g61
(dp613
g69
I3
ssg70
g607
sg63
(lp614
S''
asbasbasbasbasbasbasbasbasbasbasbag56
(g72
g58
NtRp615
(dp616
g61
(dp617
sg70
g66
sg63
(lp618
g56
(g77
g58
NtRp619
(dp620
g61
(dp621
g81
g82
ssg70
g615
sg63
(lp622
S'env'
p623
asbag56
(g77
g58
NtRp624
(dp625
g61
(dp626
g88
g89
ssg70
g615
sg63
(lp627
S':'
asbag56
(g77
g58
NtRp628
(dp629
g61
(dp630
sg70
g615
sg63
(lp631
g56
(g57
g58
NtRp632
(dp633
g61
(dp634
g69
I5
ssg70
g628
sg63
(lp635
g56
(g65
g58
NtRp636
(dp637
g61
(dp638
g69
I4
ssg70
Nsg63
(lp639
g56
(g72
g58
NtRp640
(dp641
g61
(dp642
sg70
g636
sg63
(lp643
g56
(g77
g58
NtRp644
(dp645
g61
(dp646
g81
g82
ssg70
g640
sg63
(lp647
S'app_folders'
p648
asbag56
(g77
g58
NtRp649
(dp650
g61
(dp651
g88
g89
ssg70
g640
sg63
(lp652
S':'
asbag56
(g77
g58
NtRp653
(dp654
g61
(dp655
sg70
g640
sg63
(lp656
g56
(g57
g58
NtRp657
(dp658
g61
(dp659
g69
I4
ssg70
g653
sg63
(lp660
S"set(['P:\\\\Workbench\\\\DevEnv\\\\web2py\\\\applications\\\\init\\\\', 'P:\\\\Workbench\\\\DevEnv\\\\web2py\\\\applications\\\\admin\\\\'])"
p661
asbasbasbag56
(g72
g58
NtRp662
(dp663
g61
(dp664
sg70
g636
sg63
(lp665
g56
(g77
g58
NtRp666
(dp667
g61
(dp668
g81
g82
ssg70
g662
sg63
(lp669
S'applications_parent'
p670
asbag56
(g77
g58
NtRp671
(dp672
g61
(dp673
g88
g89
ssg70
g662
sg63
(lp674
S':'
asbag56
(g77
g58
NtRp675
(dp676
g61
(dp677
sg70
g662
sg63
(lp678
g56
(g57
g58
NtRp679
(dp680
g61
(dp681
g69
I4
ssg70
g675
sg63
(lp682
S'P:\\Workbench\\DevEnv\\web2py'
p683
asbasbasbag56
(g72
g58
NtRp684
(dp685
g61
(dp686
sg70
g636
sg63
(lp687
g56
(g77
g58
NtRp688
(dp689
g61
(dp690
g81
g82
ssg70
g684
sg63
(lp691
S'cmd_args'
p692
asbag56
(g77
g58
NtRp693
(dp694
g61
(dp695
g88
g89
ssg70
g684
sg63
(lp696
S':'
asbag56
(g77
g58
NtRp697
(dp698
g61
(dp699
sg70
g684
sg63
(lp700
g56
(g57
g58
NtRp701
(dp702
g61
(dp703
g69
I4
ssg70
g697
sg63
(lp704
g56
(g65
g58
NtRp705
(dp706
g61
(dp707
g69
I3
ssg70
Nsg63
(lp708
sbasbasbasbag56
(g72
g58
NtRp709
(dp710
g61
(dp711
sg70
g636
sg63
(lp712
g56
(g77
g58
NtRp713
(dp714
g61
(dp715
g81
g82
ssg70
g709
sg63
(lp716
S'cmd_options'
p717
asbag56
(g77
g58
NtRp718
(dp719
g61
(dp720
g88
g89
ssg70
g709
sg63
(lp721
S':'
asbag56
(g77
g58
NtRp722
(dp723
g61
(dp724
sg70
g709
sg63
(lp725
g56
(g57
g58
NtRp726
(dp727
g61
(dp728
g69
I4
ssg70
g722
sg63
(lp729
S"<Values at 0x2fbd418: {'verbose': False, 'ip': '127.0.0.1', 'shutdown_timeout': 5, 'taskbar': False, 'nocron': False, 'pid_filename': 'httpserver.pid', 'maxthreads': None, 'softcron': False, 'server_name': 'Bishop-PC', 'bpython': False, 'nogui': False, 'port': 8000, 'extcron': False, 'debuglevel': 30, 'test': None, 'folder': 'P:\\\\Workbench\\\\DevEnv\\\\web2py', 'config': '', 'import_models': False, 'winservice': '', 'shell': None, 'run': '', 'log_filename': 'httpserver.log', 'args': [''], 'ssl_ca_certificate': None, 'scheduler': None, 'profiler_filename': None, 'ssl_private_key': '', 'password': '<ask>', 'request_queue_size': 5, 'ssl_certificate': '', 'cronjob': False, 'plain': False, 'quiet': False, 'interfaces': None, 'minthreads': None, 'timeout': 10, 'numthreads': None, 'nobanner': False}>"
p730
asbasbasbag56
(g72
g58
NtRp731
(dp732
g61
(dp733
sg70
g636
sg63
(lp734
g56
(g77
g58
NtRp735
(dp736
g61
(dp737
g81
g82
ssg70
g731
sg63
(lp738
S'db_sessions'
p739
asbag56
(g77
g58
NtRp740
(dp741
g61
(dp742
g88
g89
ssg70
g731
sg63
(lp743
S':'
asbag56
(g77
g58
NtRp744
(dp745
g61
(dp746
sg70
g731
sg63
(lp747
g56
(g57
g58
NtRp748
(dp749
g61
(dp750
g69
I4
ssg70
g744
sg63
(lp751
S'set([])'
p752
asbasbasbag56
(g72
g58
NtRp753
(dp754
g61
(dp755
sg70
g636
sg63
(lp756
g56
(g77
g58
NtRp757
(dp758
g61
(dp759
g81
g82
ssg70
g753
sg63
(lp760
S'debugging'
p761
asbag56
(g77
g58
NtRp762
(dp763
g61
(dp764
g88
g89
ssg70
g753
sg63
(lp765
S':'
asbag56
(g77
g58
NtRp766
(dp767
g61
(dp768
sg70
g753
sg63
(lp769
g56
(g57
g58
NtRp770
(dp771
g61
(dp772
g69
I4
ssg70
g766
sg63
(lp773
g99
asbasbasbag56
(g72
g58
NtRp774
(dp775
g61
(dp776
sg70
g636
sg63
(lp777
g56
(g77
g58
NtRp778
(dp779
g61
(dp780
g81
g82
ssg70
g774
sg63
(lp781
S'gluon_parent'
p782
asbag56
(g77
g58
NtRp783
(dp784
g61
(dp785
g88
g89
ssg70
g774
sg63
(lp786
S':'
asbag56
(g77
g58
NtRp787
(dp788
g61
(dp789
sg70
g774
sg63
(lp790
g56
(g57
g58
NtRp791
(dp792
g61
(dp793
g69
I4
ssg70
g787
sg63
(lp794
S'P:\\Workbench\\DevEnv\\web2py'
p795
asbasbasbag56
(g72
g58
NtRp796
(dp797
g61
(dp798
sg70
g636
sg63
(lp799
g56
(g77
g58
NtRp800
(dp801
g61
(dp802
g81
g82
ssg70
g796
sg63
(lp803
S'http_accept'
p804
asbag56
(g77
g58
NtRp805
(dp806
g61
(dp807
g88
g89
ssg70
g796
sg63
(lp808
S':'
asbag56
(g77
g58
NtRp809
(dp810
g61
(dp811
sg70
g796
sg63
(lp812
g56
(g57
g58
NtRp813
(dp814
g61
(dp815
g69
I4
ssg70
g809
sg63
(lp816
S'text/html,application/xhtml+xml,application/xml;q=0.9,*/*;q=0.8'
p817
asbasbasbag56
(g72
g58
NtRp818
(dp819
g61
(dp820
sg70
g636
sg63
(lp821
g56
(g77
g58
NtRp822
(dp823
g61
(dp824
g81
g82
ssg70
g818
sg63
(lp825
S'http_accept_charset'
p826
asbag56
(g77
g58
NtRp827
(dp828
g61
(dp829
g88
g89
ssg70
g818
sg63
(lp830
S':'
asbag56
(g77
g58
NtRp831
(dp832
g61
(dp833
sg70
g818
sg63
(lp834
g56
(g57
g58
NtRp835
(dp836
g61
(dp837
g69
I4
ssg70
g831
sg63
(lp838
S'ISO-8859-1,utf-8;q=0.7,*;q=0.7'
p839
asbasbasbag56
(g72
g58
NtRp840
(dp841
g61
(dp842
sg70
g636
sg63
(lp843
g56
(g77
g58
NtRp844
(dp845
g61
(dp846
g81
g82
ssg70
g840
sg63
(lp847
S'http_accept_encoding'
p848
asbag56
(g77
g58
NtRp849
(dp850
g61
(dp851
g88
g89
ssg70
g840
sg63
(lp852
S':'
asbag56
(g77
g58
NtRp853
(dp854
g61
(dp855
sg70
g840
sg63
(lp856
g56
(g57
g58
NtRp857
(dp858
g61
(dp859
g69
I4
ssg70
g853
sg63
(lp860
S'gzip,deflate'
p861
asbasbasbag56
(g72
g58
NtRp862
(dp863
g61
(dp864
sg70
g636
sg63
(lp865
g56
(g77
g58
NtRp866
(dp867
g61
(dp868
g81
g82
ssg70
g862
sg63
(lp869
S'http_accept_language'
p870
asbag56
(g77
g58
NtRp871
(dp872
g61
(dp873
g88
g89
ssg70
g862
sg63
(lp874
S':'
asbag56
(g77
g58
NtRp875
(dp876
g61
(dp877
sg70
g862
sg63
(lp878
g56
(g57
g58
NtRp879
(dp880
g61
(dp881
g69
I4
ssg70
g875
sg63
(lp882
S'en-us,en;q=0.5'
p883
asbasbasbag56
(g72
g58
NtRp884
(dp885
g61
(dp886
sg70
g636
sg63
(lp887
g56
(g77
g58
NtRp888
(dp889
g61
(dp890
g81
g82
ssg70
g884
sg63
(lp891
S'http_connection'
p892
asbag56
(g77
g58
NtRp893
(dp894
g61
(dp895
g88
g89
ssg70
g884
sg63
(lp896
S':'
asbag56
(g77
g58
NtRp897
(dp898
g61
(dp899
sg70
g884
sg63
(lp900
g56
(g57
g58
NtRp901
(dp902
g61
(dp903
g69
I4
ssg70
g897
sg63
(lp904
S'keep-alive'
p905
asbasbasbag56
(g72
g58
NtRp906
(dp907
g61
(dp908
sg70
g636
sg63
(lp909
g56
(g77
g58
NtRp910
(dp911
g61
(dp912
g81
g82
ssg70
g906
sg63
(lp913
S'http_cookie'
p914
asbag56
(g77
g58
NtRp915
(dp916
g61
(dp917
g88
g89
ssg70
g906
sg63
(lp918
S':'
asbag56
(g77
g58
NtRp919
(dp920
g61
(dp921
sg70
g906
sg63
(lp922
g56
(g57
g58
NtRp923
(dp924
g61
(dp925
g69
I4
ssg70
g919
sg63
(lp926
S'__utma_a2a=4518867300.1350888199.1319331273.1319375111.1319375111.5; session_id_init=127.0.0.1-2ee686ba-d1d2-46bc-bb75-bfad4d4c0c4c; session_id_admin=127.0.0.1-4acedcf7-4701-4781-9fc5-dd6d7a0a4bf5'
p927
asbasbasbag56
(g72
g58
NtRp928
(dp929
g61
(dp930
sg70
g636
sg63
(lp931
g56
(g77
g58
NtRp932
(dp933
g61
(dp934
g81
g82
ssg70
g928
sg63
(lp935
S'http_host'
p936
asbag56
(g77
g58
NtRp937
(dp938
g61
(dp939
g88
g89
ssg70
g928
sg63
(lp940
S':'
asbag56
(g77
g58
NtRp941
(dp942
g61
(dp943
sg70
g928
sg63
(lp944
g56
(g57
g58
NtRp945
(dp946
g61
(dp947
g69
I4
ssg70
g941
sg63
(lp948
S'127.0.0.1:8000'
p949
asbasbasbag56
(g72
g58
NtRp950
(dp951
g61
(dp952
sg70
g636
sg63
(lp953
g56
(g77
g58
NtRp954
(dp955
g61
(dp956
g81
g82
ssg70
g950
sg63
(lp957
S'http_keep_alive'
p958
asbag56
(g77
g58
NtRp959
(dp960
g61
(dp961
g88
g89
ssg70
g950
sg63
(lp962
S':'
asbag56
(g77
g58
NtRp963
(dp964
g61
(dp965
sg70
g950
sg63
(lp966
g56
(g57
g58
NtRp967
(dp968
g61
(dp969
g69
I4
ssg70
g963
sg63
(lp970
S'115'
p971
asbasbasbag56
(g72
g58
NtRp972
(dp973
g61
(dp974
sg70
g636
sg63
(lp975
g56
(g77
g58
NtRp976
(dp977
g61
(dp978
g81
g82
ssg70
g972
sg63
(lp979
S'http_user_agent'
p980
asbag56
(g77
g58
NtRp981
(dp982
g61
(dp983
g88
g89
ssg70
g972
sg63
(lp984
S':'
asbag56
(g77
g58
NtRp985
(dp986
g61
(dp987
sg70
g972
sg63
(lp988
g56
(g57
g58
NtRp989
(dp990
g61
(dp991
g69
I4
ssg70
g985
sg63
(lp992
S'Mozilla/5.0 (Windows; U; Windows NT 6.1; en-US; rv:1.9.2.23) Gecko/20110920 Firefox/3.6.23'
p993
asbasbasbag56
(g72
g58
NtRp994
(dp995
g61
(dp996
sg70
g636
sg63
(lp997
g56
(g77
g58
NtRp998
(dp999
g61
(dp1000
g81
g82
ssg70
g994
sg63
(lp1001
S'is_jython'
p1002
asbag56
(g77
g58
NtRp1003
(dp1004
g61
(dp1005
g88
g89
ssg70
g994
sg63
(lp1006
S':'
asbag56
(g77
g58
NtRp1007
(dp1008
g61
(dp1009
sg70
g994
sg63
(lp1010
g56
(g57
g58
NtRp1011
(dp1012
g61
(dp1013
g69
I4
ssg70
g1007
sg63
(lp1014
g99
asbasbasbag56
(g72
g58
NtRp1015
(dp1016
g61
(dp1017
sg70
g636
sg63
(lp1018
g56
(g77
g58
NtRp1019
(dp1020
g61
(dp1021
g81
g82
ssg70
g1015
sg63
(lp1022
S'path_info'
p1023
asbag56
(g77
g58
NtRp1024
(dp1025
g61
(dp1026
g88
g89
ssg70
g1015
sg63
(lp1027
S':'
asbag56
(g77
g58
NtRp1028
(dp1029
g61
(dp1030
sg70
g1015
sg63
(lp1031
g56
(g57
g58
NtRp1032
(dp1033
g61
(dp1034
g69
I4
ssg70
g1028
sg63
(lp1035
S'/init/default/home'
p1036
asbasbasbag56
(g72
g58
NtRp1037
(dp1038
g61
(dp1039
sg70
g636
sg63
(lp1040
g56
(g77
g58
NtRp1041
(dp1042
g61
(dp1043
g81
g82
ssg70
g1037
sg63
(lp1044
S'query_string'
p1045
asbag56
(g77
g58
NtRp1046
(dp1047
g61
(dp1048
g88
g89
ssg70
g1037
sg63
(lp1049
S':'
asbag56
(g77
g58
NtRp1050
(dp1051
g61
(dp1052
sg70
g1037
sg63
(lp1053
g56
(g57
g58
NtRp1054
(dp1055
g61
(dp1056
g69
I4
ssg70
g1050
sg63
(lp1057
S''
asbasbasbag56
(g72
g58
NtRp1058
(dp1059
g61
(dp1060
sg70
g636
sg63
(lp1061
g56
(g77
g58
NtRp1062
(dp1063
g61
(dp1064
g81
g82
ssg70
g1058
sg63
(lp1065
S'remote_addr'
p1066
asbag56
(g77
g58
NtRp1067
(dp1068
g61
(dp1069
g88
g89
ssg70
g1058
sg63
(lp1070
S':'
asbag56
(g77
g58
NtRp1071
(dp1072
g61
(dp1073
sg70
g1058
sg63
(lp1074
g56
(g57
g58
NtRp1075
(dp1076
g61
(dp1077
g69
I4
ssg70
g1071
sg63
(lp1078
g189
asbasbasbag56
(g72
g58
NtRp1079
(dp1080
g61
(dp1081
sg70
g636
sg63
(lp1082
g56
(g77
g58
NtRp1083
(dp1084
g61
(dp1085
g81
g82
ssg70
g1079
sg63
(lp1086
S'remote_port'
p1087
asbag56
(g77
g58
NtRp1088
(dp1089
g61
(dp1090
g88
g89
ssg70
g1079
sg63
(lp1091
S':'
asbag56
(g77
g58
NtRp1092
(dp1093
g61
(dp1094
sg70
g1079
sg63
(lp1095
g56
(g57
g58
NtRp1096
(dp1097
g61
(dp1098
g69
I4
ssg70
g1092
sg63
(lp1099
S'56935'
p1100
asbasbasbag56
(g72
g58
NtRp1101
(dp1102
g61
(dp1103
sg70
g636
sg63
(lp1104
g56
(g77
g58
NtRp1105
(dp1106
g61
(dp1107
g81
g82
ssg70
g1101
sg63
(lp1108
S'request_method'
p1109
asbag56
(g77
g58
NtRp1110
(dp1111
g61
(dp1112
g88
g89
ssg70
g1101
sg63
(lp1113
S':'
asbag56
(g77
g58
NtRp1114
(dp1115
g61
(dp1116
sg70
g1101
sg63
(lp1117
g56
(g57
g58
NtRp1118
(dp1119
g61
(dp1120
g69
I4
ssg70
g1114
sg63
(lp1121
S'GET'
p1122
asbasbasbag56
(g72
g58
NtRp1123
(dp1124
g61
(dp1125
sg70
g636
sg63
(lp1126
g56
(g77
g58
NtRp1127
(dp1128
g61
(dp1129
g81
g82
ssg70
g1123
sg63
(lp1130
S'script_name'
p1131
asbag56
(g77
g58
NtRp1132
(dp1133
g61
(dp1134
g88
g89
ssg70
g1123
sg63
(lp1135
S':'
asbag56
(g77
g58
NtRp1136
(dp1137
g61
(dp1138
sg70
g1123
sg63
(lp1139
g56
(g57
g58
NtRp1140
(dp1141
g61
(dp1142
g69
I4
ssg70
g1136
sg63
(lp1143
S''
asbasbasbag56
(g72
g58
NtRp1144
(dp1145
g61
(dp1146
sg70
g636
sg63
(lp1147
g56
(g77
g58
NtRp1148
(dp1149
g61
(dp1150
g81
g82
ssg70
g1144
sg63
(lp1151
S'server_name'
p1152
asbag56
(g77
g58
NtRp1153
(dp1154
g61
(dp1155
g88
g89
ssg70
g1144
sg63
(lp1156
S':'
asbag56
(g77
g58
NtRp1157
(dp1158
g61
(dp1159
sg70
g1144
sg63
(lp1160
g56
(g57
g58
NtRp1161
(dp1162
g61
(dp1163
g69
I4
ssg70
g1157
sg63
(lp1164
S'Bishop-PC'
p1165
asbasbasbag56
(g72
g58
NtRp1166
(dp1167
g61
(dp1168
sg70
g636
sg63
(lp1169
g56
(g77
g58
NtRp1170
(dp1171
g61
(dp1172
g81
g82
ssg70
g1166
sg63
(lp1173
S'server_port'
p1174
asbag56
(g77
g58
NtRp1175
(dp1176
g61
(dp1177
g88
g89
ssg70
g1166
sg63
(lp1178
S':'
asbag56
(g77
g58
NtRp1179
(dp1180
g61
(dp1181
sg70
g1166
sg63
(lp1182
g56
(g57
g58
NtRp1183
(dp1184
g61
(dp1185
g69
I4
ssg70
g1179
sg63
(lp1186
S'8000'
p1187
asbasbasbag56
(g72
g58
NtRp1188
(dp1189
g61
(dp1190
sg70
g636
sg63
(lp1191
g56
(g77
g58
NtRp1192
(dp1193
g61
(dp1194
g81
g82
ssg70
g1188
sg63
(lp1195
S'server_protocol'
p1196
asbag56
(g77
g58
NtRp1197
(dp1198
g61
(dp1199
g88
g89
ssg70
g1188
sg63
(lp1200
S':'
asbag56
(g77
g58
NtRp1201
(dp1202
g61
(dp1203
sg70
g1188
sg63
(lp1204
g56
(g57
g58
NtRp1205
(dp1206
g61
(dp1207
g69
I4
ssg70
g1201
sg63
(lp1208
S'HTTP/1.1'
p1209
asbasbasbag56
(g72
g58
NtRp1210
(dp1211
g61
(dp1212
sg70
g636
sg63
(lp1213
g56
(g77
g58
NtRp1214
(dp1215
g61
(dp1216
g81
g82
ssg70
g1210
sg63
(lp1217
S'server_software'
p1218
asbag56
(g77
g58
NtRp1219
(dp1220
g61
(dp1221
g88
g89
ssg70
g1210
sg63
(lp1222
S':'
asbag56
(g77
g58
NtRp1223
(dp1224
g61
(dp1225
sg70
g1210
sg63
(lp1226
g56
(g57
g58
NtRp1227
(dp1228
g61
(dp1229
g69
I4
ssg70
g1223
sg63
(lp1230
S'Rocket 1.2.4'
p1231
asbasbasbag56
(g72
g58
NtRp1232
(dp1233
g61
(dp1234
sg70
g636
sg63
(lp1235
g56
(g77
g58
NtRp1236
(dp1237
g61
(dp1238
g81
g82
ssg70
g1232
sg63
(lp1239
S'web2py_crontype'
p1240
asbag56
(g77
g58
NtRp1241
(dp1242
g61
(dp1243
g88
g89
ssg70
g1232
sg63
(lp1244
S':'
asbag56
(g77
g58
NtRp1245
(dp1246
g61
(dp1247
sg70
g1232
sg63
(lp1248
g56
(g57
g58
NtRp1249
(dp1250
g61
(dp1251
g69
I4
ssg70
g1245
sg63
(lp1252
S'hard'
p1253
asbasbasbag56
(g72
g58
NtRp1254
(dp1255
g61
(dp1256
sg70
g636
sg63
(lp1257
g56
(g77
g58
NtRp1258
(dp1259
g61
(dp1260
g81
g82
ssg70
g1254
sg63
(lp1261
S'web2py_path'
p1262
asbag56
(g77
g58
NtRp1263
(dp1264
g61
(dp1265
g88
g89
ssg70
g1254
sg63
(lp1266
S':'
asbag56
(g77
g58
NtRp1267
(dp1268
g61
(dp1269
sg70
g1254
sg63
(lp1270
g56
(g57
g58
NtRp1271
(dp1272
g61
(dp1273
g69
I4
ssg70
g1267
sg63
(lp1274
g683
asbasbasbag56
(g72
g58
NtRp1275
(dp1276
g61
(dp1277
sg70
g636
sg63
(lp1278
g56
(g77
g58
NtRp1279
(dp1280
g61
(dp1281
g81
g82
ssg70
g1275
sg63
(lp1282
S'web2py_version'
p1283
asbag56
(g77
g58
NtRp1284
(dp1285
g61
(dp1286
g88
g89
ssg70
g1275
sg63
(lp1287
S':'
asbag56
(g77
g58
NtRp1288
(dp1289
g61
(dp1290
sg70
g1275
sg63
(lp1291
g56
(g57
g58
NtRp1292
(dp1293
g61
(dp1294
g69
I4
ssg70
g1288
sg63
(lp1295
g56
(g65
g58
NtRp1296
(dp1297
g61
(dp1298
g69
I3
ssg70
Nsg63
(lp1299
g56
(g72
g58
NtRp1300
(dp1301
g61
(dp1302
sg70
g1296
sg63
(lp1303
g56
(g77
g58
NtRp1304
(dp1305
g61
(dp1306
sg70
g1300
sg63
(lp1307
g56
(g57
g58
NtRp1308
(dp1309
g61
(dp1310
g69
I3
ssg70
g1304
sg63
(lp1311
S'1'
asbasbasbag56
(g72
g58
NtRp1312
(dp1313
g61
(dp1314
sg70
g1296
sg63
(lp1315
g56
(g77
g58
NtRp1316
(dp1317
g61
(dp1318
sg70
g1312
sg63
(lp1319
g56
(g57
g58
NtRp1320
(dp1321
g61
(dp1322
g69
I3
ssg70
g1316
sg63
(lp1323
S'99'
p1324
asbasbasbag56
(g72
g58
NtRp1325
(dp1326
g61
(dp1327
sg70
g1296
sg63
(lp1328
g56
(g77
g58
NtRp1329
(dp1330
g61
(dp1331
sg70
g1325
sg63
(lp1332
g56
(g57
g58
NtRp1333
(dp1334
g61
(dp1335
g69
I3
ssg70
g1329
sg63
(lp1336
S'3'
asbasbasbag56
(g72
g58
NtRp1337
(dp1338
g61
(dp1339
sg70
g1296
sg63
(lp1340
g56
(g77
g58
NtRp1341
(dp1342
g61
(dp1343
sg70
g1337
sg63
(lp1344
g56
(g57
g58
NtRp1345
(dp1346
g61
(dp1347
g69
I3
ssg70
g1341
sg63
(lp1348
S'datetime.datetime(2011, 10, 24, 21, 42, 42)'
p1349
asbasbasbag56
(g72
g58
NtRp1350
(dp1351
g61
(dp1352
sg70
g1296
sg63
(lp1353
g56
(g77
g58
NtRp1354
(dp1355
g61
(dp1356
sg70
g1350
sg63
(lp1357
g56
(g57
g58
NtRp1358
(dp1359
g61
(dp1360
g69
I3
ssg70
g1354
sg63
(lp1361
S'dev'
p1362
asbasbasbasbasbasbasbag56
(g72
g58
NtRp1363
(dp1364
g61
(dp1365
sg70
g636
sg63
(lp1366
g56
(g77
g58
NtRp1367
(dp1368
g61
(dp1369
g81
g82
ssg70
g1363
sg63
(lp1370
S'wsgi_errors'
p1371
asbag56
(g77
g58
NtRp1372
(dp1373
g61
(dp1374
g88
g89
ssg70
g1363
sg63
(lp1375
S':'
asbag56
(g77
g58
NtRp1376
(dp1377
g61
(dp1378
sg70
g1363
sg63
(lp1379
g56
(g57
g58
NtRp1380
(dp1381
g61
(dp1382
g69
I4
ssg70
g1376
sg63
(lp1383
S"<open file '<stderr>', mode 'w' at 0x01DC50D0>"
p1384
asbasbasbag56
(g72
g58
NtRp1385
(dp1386
g61
(dp1387
sg70
g636
sg63
(lp1388
g56
(g77
g58
NtRp1389
(dp1390
g61
(dp1391
g81
g82
ssg70
g1385
sg63
(lp1392
S'wsgi_file_wrapper'
p1393
asbag56
(g77
g58
NtRp1394
(dp1395
g61
(dp1396
g88
g89
ssg70
g1385
sg63
(lp1397
S':'
asbag56
(g77
g58
NtRp1398
(dp1399
g61
(dp1400
sg70
g1385
sg63
(lp1401
g56
(g57
g58
NtRp1402
(dp1403
g61
(dp1404
g69
I4
ssg70
g1398
sg63
(lp1405
S'<class wsgiref.util.FileWrapper at 0x02D07AB0>'
p1406
asbasbasbag56
(g72
g58
NtRp1407
(dp1408
g61
(dp1409
sg70
g636
sg63
(lp1410
g56
(g77
g58
NtRp1411
(dp1412
g61
(dp1413
g81
g82
ssg70
g1407
sg63
(lp1414
S'wsgi_input'
p1415
asbag56
(g77
g58
NtRp1416
(dp1417
g61
(dp1418
g88
g89
ssg70
g1407
sg63
(lp1419
S':'
asbag56
(g77
g58
NtRp1420
(dp1421
g61
(dp1422
sg70
g1407
sg63
(lp1423
g56
(g57
g58
NtRp1424
(dp1425
g61
(dp1426
g69
I4
ssg70
g1420
sg63
(lp1427
S'<socket._fileobject object at 0x0977A930>'
p1428
asbasbasbag56
(g72
g58
NtRp1429
(dp1430
g61
(dp1431
sg70
g636
sg63
(lp1432
g56
(g77
g58
NtRp1433
(dp1434
g61
(dp1435
g81
g82
ssg70
g1429
sg63
(lp1436
S'wsgi_multiprocess'
p1437
asbag56
(g77
g58
NtRp1438
(dp1439
g61
(dp1440
g88
g89
ssg70
g1429
sg63
(lp1441
S':'
asbag56
(g77
g58
NtRp1442
(dp1443
g61
(dp1444
sg70
g1429
sg63
(lp1445
g56
(g57
g58
NtRp1446
(dp1447
g61
(dp1448
g69
I4
ssg70
g1442
sg63
(lp1449
g99
asbasbasbag56
(g72
g58
NtRp1450
(dp1451
g61
(dp1452
sg70
g636
sg63
(lp1453
g56
(g77
g58
NtRp1454
(dp1455
g61
(dp1456
g81
g82
ssg70
g1450
sg63
(lp1457
S'wsgi_multithread'
p1458
asbag56
(g77
g58
NtRp1459
(dp1460
g61
(dp1461
g88
g89
ssg70
g1450
sg63
(lp1462
S':'
asbag56
(g77
g58
NtRp1463
(dp1464
g61
(dp1465
sg70
g1450
sg63
(lp1466
g56
(g57
g58
NtRp1467
(dp1468
g61
(dp1469
g69
I4
ssg70
g1463
sg63
(lp1470
S'True'
p1471
asbasbasbag56
(g72
g58
NtRp1472
(dp1473
g61
(dp1474
sg70
g636
sg63
(lp1475
g56
(g77
g58
NtRp1476
(dp1477
g61
(dp1478
g81
g82
ssg70
g1472
sg63
(lp1479
S'wsgi_run_once'
p1480
asbag56
(g77
g58
NtRp1481
(dp1482
g61
(dp1483
g88
g89
ssg70
g1472
sg63
(lp1484
S':'
asbag56
(g77
g58
NtRp1485
(dp1486
g61
(dp1487
sg70
g1472
sg63
(lp1488
g56
(g57
g58
NtRp1489
(dp1490
g61
(dp1491
g69
I4
ssg70
g1485
sg63
(lp1492
g99
asbasbasbag56
(g72
g58
NtRp1493
(dp1494
g61
(dp1495
sg70
g636
sg63
(lp1496
g56
(g77
g58
NtRp1497
(dp1498
g61
(dp1499
g81
g82
ssg70
g1493
sg63
(lp1500
S'wsgi_url_scheme'
p1501
asbag56
(g77
g58
NtRp1502
(dp1503
g61
(dp1504
g88
g89
ssg70
g1493
sg63
(lp1505
S':'
asbag56
(g77
g58
NtRp1506
(dp1507
g61
(dp1508
sg70
g1493
sg63
(lp1509
g56
(g57
g58
NtRp1510
(dp1511
g61
(dp1512
g69
I4
ssg70
g1506
sg63
(lp1513
S'http'
p1514
asbasbasbag56
(g72
g58
NtRp1515
(dp1516
g61
(dp1517
sg70
g636
sg63
(lp1518
g56
(g77
g58
NtRp1519
(dp1520
g61
(dp1521
g81
g82
ssg70
g1515
sg63
(lp1522
S'wsgi_version'
p1523
asbag56
(g77
g58
NtRp1524
(dp1525
g61
(dp1526
g88
g89
ssg70
g1515
sg63
(lp1527
S':'
asbag56
(g77
g58
NtRp1528
(dp1529
g61
(dp1530
sg70
g1515
sg63
(lp1531
g56
(g57
g58
NtRp1532
(dp1533
g61
(dp1534
g69
I4
ssg70
g1528
sg63
(lp1535
g56
(g65
g58
NtRp1536
(dp1537
g61
(dp1538
g69
I3
ssg70
Nsg63
(lp1539
g56
(g72
g58
NtRp1540
(dp1541
g61
(dp1542
sg70
g1536
sg63
(lp1543
g56
(g77
g58
NtRp1544
(dp1545
g61
(dp1546
sg70
g1540
sg63
(lp1547
g56
(g57
g58
NtRp1548
(dp1549
g61
(dp1550
g69
I3
ssg70
g1544
sg63
(lp1551
S'1'
asbasbasbag56
(g72
g58
NtRp1552
(dp1553
g61
(dp1554
sg70
g1536
sg63
(lp1555
g56
(g77
g58
NtRp1556
(dp1557
g61
(dp1558
sg70
g1552
sg63
(lp1559
g56
(g57
g58
NtRp1560
(dp1561
g61
(dp1562
g69
I3
ssg70
g1556
sg63
(lp1563
S'0'
asbasbasbasbasbasbasbasbasbasbasbag56
(g72
g58
NtRp1564
(dp1565
g61
(dp1566
sg70
g66
sg63
(lp1567
g56
(g77
g58
NtRp1568
(dp1569
g61
(dp1570
g81
g82
ssg70
g1564
sg63
(lp1571
S'extension'
p1572
asbag56
(g77
g58
NtRp1573
(dp1574
g61
(dp1575
g88
g89
ssg70
g1564
sg63
(lp1576
S':'
asbag56
(g77
g58
NtRp1577
(dp1578
g61
(dp1579
sg70
g1564
sg63
(lp1580
g56
(g57
g58
NtRp1581
(dp1582
g61
(dp1583
g69
I5
ssg70
g1577
sg63
(lp1584
S'html'
p1585
asbasbasbag56
(g72
g58
NtRp1586
(dp1587
g61
(dp1588
sg70
g66
sg63
(lp1589
g56
(g77
g58
NtRp1590
(dp1591
g61
(dp1592
g81
g82
ssg70
g1586
sg63
(lp1593
S'folder'
p1594
asbag56
(g77
g58
NtRp1595
(dp1596
g61
(dp1597
g88
g89
ssg70
g1586
sg63
(lp1598
S':'
asbag56
(g77
g58
NtRp1599
(dp1600
g61
(dp1601
sg70
g1586
sg63
(lp1602
g56
(g57
g58
NtRp1603
(dp1604
g61
(dp1605
g69
I5
ssg70
g1599
sg63
(lp1606
S'P:\\Workbench\\DevEnv\\web2py\\applications\\init\\'
p1607
asbasbasbag56
(g72
g58
NtRp1608
(dp1609
g61
(dp1610
sg70
g66
sg63
(lp1611
g56
(g77
g58
NtRp1612
(dp1613
g61
(dp1614
g81
g82
ssg70
g1608
sg63
(lp1615
S'function'
p1616
asbag56
(g77
g58
NtRp1617
(dp1618
g61
(dp1619
g88
g89
ssg70
g1608
sg63
(lp1620
S':'
asbag56
(g77
g58
NtRp1621
(dp1622
g61
(dp1623
sg70
g1608
sg63
(lp1624
g56
(g57
g58
NtRp1625
(dp1626
g61
(dp1627
g69
I5
ssg70
g1621
sg63
(lp1628
S'home'
p1629
asbasbasbag56
(g72
g58
NtRp1630
(dp1631
g61
(dp1632
sg70
g66
sg63
(lp1633
g56
(g77
g58
NtRp1634
(dp1635
g61
(dp1636
g81
g82
ssg70
g1630
sg63
(lp1637
S'get_vars'
p1638
asbag56
(g77
g58
NtRp1639
(dp1640
g61
(dp1641
g88
g89
ssg70
g1630
sg63
(lp1642
S':'
asbag56
(g77
g58
NtRp1643
(dp1644
g61
(dp1645
sg70
g1630
sg63
(lp1646
g56
(g57
g58
NtRp1647
(dp1648
g61
(dp1649
g69
I5
ssg70
g1643
sg63
(lp1650
g56
(g65
g58
NtRp1651
(dp1652
g61
(dp1653
g69
I4
ssg70
Nsg63
(lp1654
sbasbasbasbag56
(g72
g58
NtRp1655
(dp1656
g61
(dp1657
sg70
g66
sg63
(lp1658
g56
(g77
g58
NtRp1659
(dp1660
g61
(dp1661
g81
g82
ssg70
g1655
sg63
(lp1662
S'global_settings'
p1663
asbag56
(g77
g58
NtRp1664
(dp1665
g61
(dp1666
g88
g89
ssg70
g1655
sg63
(lp1667
S':'
asbag56
(g77
g58
NtRp1668
(dp1669
g61
(dp1670
sg70
g1655
sg63
(lp1671
g56
(g57
g58
NtRp1672
(dp1673
g61
(dp1674
g69
I5
ssg70
g1668
sg63
(lp1675
g56
(g65
g58
NtRp1676
(dp1677
g61
(dp1678
g69
I4
ssg70
Nsg63
(lp1679
g56
(g72
g58
NtRp1680
(dp1681
g61
(dp1682
sg70
g1676
sg63
(lp1683
g56
(g77
g58
NtRp1684
(dp1685
g61
(dp1686
g81
g82
ssg70
g1680
sg63
(lp1687
g648
asbag56
(g77
g58
NtRp1688
(dp1689
g61
(dp1690
g88
g89
ssg70
g1680
sg63
(lp1691
S':'
asbag56
(g77
g58
NtRp1692
(dp1693
g61
(dp1694
sg70
g1680
sg63
(lp1695
g56
(g57
g58
NtRp1696
(dp1697
g61
(dp1698
g69
I4
ssg70
g1692
sg63
(lp1699
S"set(['P:\\\\Workbench\\\\DevEnv\\\\web2py\\\\applications\\\\init\\\\', 'P:\\\\Workbench\\\\DevEnv\\\\web2py\\\\applications\\\\admin\\\\'])"
p1700
asbasbasbag56
(g72
g58
NtRp1701
(dp1702
g61
(dp1703
sg70
g1676
sg63
(lp1704
g56
(g77
g58
NtRp1705
(dp1706
g61
(dp1707
g81
g82
ssg70
g1701
sg63
(lp1708
g670
asbag56
(g77
g58
NtRp1709
(dp1710
g61
(dp1711
g88
g89
ssg70
g1701
sg63
(lp1712
S':'
asbag56
(g77
g58
NtRp1713
(dp1714
g61
(dp1715
sg70
g1701
sg63
(lp1716
g56
(g57
g58
NtRp1717
(dp1718
g61
(dp1719
g69
I4
ssg70
g1713
sg63
(lp1720
g683
asbasbasbag56
(g72
g58
NtRp1721
(dp1722
g61
(dp1723
sg70
g1676
sg63
(lp1724
g56
(g77
g58
NtRp1725
(dp1726
g61
(dp1727
g81
g82
ssg70
g1721
sg63
(lp1728
g692
asbag56
(g77
g58
NtRp1729
(dp1730
g61
(dp1731
g88
g89
ssg70
g1721
sg63
(lp1732
S':'
asbag56
(g77
g58
NtRp1733
(dp1734
g61
(dp1735
sg70
g1721
sg63
(lp1736
g56
(g57
g58
NtRp1737
(dp1738
g61
(dp1739
g69
I4
ssg70
g1733
sg63
(lp1740
g56
(g65
g58
NtRp1741
(dp1742
g61
(dp1743
g69
I3
ssg70
Nsg63
(lp1744
sbasbasbasbag56
(g72
g58
NtRp1745
(dp1746
g61
(dp1747
sg70
g1676
sg63
(lp1748
g56
(g77
g58
NtRp1749
(dp1750
g61
(dp1751
g81
g82
ssg70
g1745
sg63
(lp1752
g717
asbag56
(g77
g58
NtRp1753
(dp1754
g61
(dp1755
g88
g89
ssg70
g1745
sg63
(lp1756
S':'
asbag56
(g77
g58
NtRp1757
(dp1758
g61
(dp1759
sg70
g1745
sg63
(lp1760
g56
(g57
g58
NtRp1761
(dp1762
g61
(dp1763
g69
I4
ssg70
g1757
sg63
(lp1764
S"<Values at 0x2fbd418: {'verbose': False, 'ip': '127.0.0.1', 'shutdown_timeout': 5, 'taskbar': False, 'nocron': False, 'pid_filename': 'httpserver.pid', 'maxthreads': None, 'softcron': False, 'server_name': 'Bishop-PC', 'bpython': False, 'nogui': False, 'port': 8000, 'extcron': False, 'debuglevel': 30, 'test': None, 'folder': 'P:\\\\Workbench\\\\DevEnv\\\\web2py', 'config': '', 'import_models': False, 'winservice': '', 'shell': None, 'run': '', 'log_filename': 'httpserver.log', 'args': [''], 'ssl_ca_certificate': None, 'scheduler': None, 'profiler_filename': None, 'ssl_private_key': '', 'password': '<ask>', 'request_queue_size': 5, 'ssl_certificate': '', 'cronjob': False, 'plain': False, 'quiet': False, 'interfaces': None, 'minthreads': None, 'timeout': 10, 'numthreads': None, 'nobanner': False}>"
p1765
asbasbasbag56
(g72
g58
NtRp1766
(dp1767
g61
(dp1768
sg70
g1676
sg63
(lp1769
g56
(g77
g58
NtRp1770
(dp1771
g61
(dp1772
g81
g82
ssg70
g1766
sg63
(lp1773
g739
asbag56
(g77
g58
NtRp1774
(dp1775
g61
(dp1776
g88
g89
ssg70
g1766
sg63
(lp1777
S':'
asbag56
(g77
g58
NtRp1778
(dp1779
g61
(dp1780
sg70
g1766
sg63
(lp1781
g56
(g57
g58
NtRp1782
(dp1783
g61
(dp1784
g69
I4
ssg70
g1778
sg63
(lp1785
S'set([])'
p1786
asbasbasbag56
(g72
g58
NtRp1787
(dp1788
g61
(dp1789
sg70
g1676
sg63
(lp1790
g56
(g77
g58
NtRp1791
(dp1792
g61
(dp1793
g81
g82
ssg70
g1787
sg63
(lp1794
g761
asbag56
(g77
g58
NtRp1795
(dp1796
g61
(dp1797
g88
g89
ssg70
g1787
sg63
(lp1798
S':'
asbag56
(g77
g58
NtRp1799
(dp1800
g61
(dp1801
sg70
g1787
sg63
(lp1802
g56
(g57
g58
NtRp1803
(dp1804
g61
(dp1805
g69
I4
ssg70
g1799
sg63
(lp1806
g99
asbasbasbag56
(g72
g58
NtRp1807
(dp1808
g61
(dp1809
sg70
g1676
sg63
(lp1810
g56
(g77
g58
NtRp1811
(dp1812
g61
(dp1813
g81
g82
ssg70
g1807
sg63
(lp1814
g782
asbag56
(g77
g58
NtRp1815
(dp1816
g61
(dp1817
g88
g89
ssg70
g1807
sg63
(lp1818
S':'
asbag56
(g77
g58
NtRp1819
(dp1820
g61
(dp1821
sg70
g1807
sg63
(lp1822
g56
(g57
g58
NtRp1823
(dp1824
g61
(dp1825
g69
I4
ssg70
g1819
sg63
(lp1826
g795
asbasbasbag56
(g72
g58
NtRp1827
(dp1828
g61
(dp1829
sg70
g1676
sg63
(lp1830
g56
(g77
g58
NtRp1831
(dp1832
g61
(dp1833
g81
g82
ssg70
g1827
sg63
(lp1834
g1002
asbag56
(g77
g58
NtRp1835
(dp1836
g61
(dp1837
g88
g89
ssg70
g1827
sg63
(lp1838
S':'
asbag56
(g77
g58
NtRp1839
(dp1840
g61
(dp1841
sg70
g1827
sg63
(lp1842
g56
(g57
g58
NtRp1843
(dp1844
g61
(dp1845
g69
I4
ssg70
g1839
sg63
(lp1846
g99
asbasbasbag56
(g72
g58
NtRp1847
(dp1848
g61
(dp1849
sg70
g1676
sg63
(lp1850
g56
(g77
g58
NtRp1851
(dp1852
g61
(dp1853
g81
g82
ssg70
g1847
sg63
(lp1854
g1240
asbag56
(g77
g58
NtRp1855
(dp1856
g61
(dp1857
g88
g89
ssg70
g1847
sg63
(lp1858
S':'
asbag56
(g77
g58
NtRp1859
(dp1860
g61
(dp1861
sg70
g1847
sg63
(lp1862
g56
(g57
g58
NtRp1863
(dp1864
g61
(dp1865
g69
I4
ssg70
g1859
sg63
(lp1866
g1253
asbasbasbag56
(g72
g58
NtRp1867
(dp1868
g61
(dp1869
sg70
g1676
sg63
(lp1870
g56
(g77
g58
NtRp1871
(dp1872
g61
(dp1873
g81
g82
ssg70
g1867
sg63
(lp1874
g1283
asbag56
(g77
g58
NtRp1875
(dp1876
g61
(dp1877
g88
g89
ssg70
g1867
sg63
(lp1878
S':'
asbag56
(g77
g58
NtRp1879
(dp1880
g61
(dp1881
sg70
g1867
sg63
(lp1882
g56
(g57
g58
NtRp1883
(dp1884
g61
(dp1885
g69
I4
ssg70
g1879
sg63
(lp1886
g56
(g65
g58
NtRp1887
(dp1888
g61
(dp1889
g69
I3
ssg70
Nsg63
(lp1890
g56
(g72
g58
NtRp1891
(dp1892
g61
(dp1893
sg70
g1887
sg63
(lp1894
g56
(g77
g58
NtRp1895
(dp1896
g61
(dp1897
sg70
g1891
sg63
(lp1898
g56
(g57
g58
NtRp1899
(dp1900
g61
(dp1901
g69
I3
ssg70
g1895
sg63
(lp1902
S'1'
asbasbasbag56
(g72
g58
NtRp1903
(dp1904
g61
(dp1905
sg70
g1887
sg63
(lp1906
g56
(g77
g58
NtRp1907
(dp1908
g61
(dp1909
sg70
g1903
sg63
(lp1910
g56
(g57
g58
NtRp1911
(dp1912
g61
(dp1913
g69
I3
ssg70
g1907
sg63
(lp1914
S'99'
p1915
asbasbasbag56
(g72
g58
NtRp1916
(dp1917
g61
(dp1918
sg70
g1887
sg63
(lp1919
g56
(g77
g58
NtRp1920
(dp1921
g61
(dp1922
sg70
g1916
sg63
(lp1923
g56
(g57
g58
NtRp1924
(dp1925
g61
(dp1926
g69
I3
ssg70
g1920
sg63
(lp1927
S'3'
asbasbasbag56
(g72
g58
NtRp1928
(dp1929
g61
(dp1930
sg70
g1887
sg63
(lp1931
g56
(g77
g58
NtRp1932
(dp1933
g61
(dp1934
sg70
g1928
sg63
(lp1935
g56
(g57
g58
NtRp1936
(dp1937
g61
(dp1938
g69
I3
ssg70
g1932
sg63
(lp1939
S'datetime.datetime(2011, 10, 24, 21, 42, 42)'
p1940
asbasbasbag56
(g72
g58
NtRp1941
(dp1942
g61
(dp1943
sg70
g1887
sg63
(lp1944
g56
(g77
g58
NtRp1945
(dp1946
g61
(dp1947
sg70
g1941
sg63
(lp1948
g56
(g57
g58
NtRp1949
(dp1950
g61
(dp1951
g69
I3
ssg70
g1945
sg63
(lp1952
g1362
asbasbasbasbasbasbasbasbasbasbasbag56
(g72
g58
NtRp1953
(dp1954
g61
(dp1955
sg70
g66
sg63
(lp1956
g56
(g77
g58
NtRp1957
(dp1958
g61
(dp1959
g81
g82
ssg70
g1953
sg63
(lp1960
S'is_https'
p1961
asbag56
(g77
g58
NtRp1962
(dp1963
g61
(dp1964
g88
g89
ssg70
g1953
sg63
(lp1965
S':'
asbag56
(g77
g58
NtRp1966
(dp1967
g61
(dp1968
sg70
g1953
sg63
(lp1969
g56
(g57
g58
NtRp1970
(dp1971
g61
(dp1972
g69
I5
ssg70
g1966
sg63
(lp1973
g99
asbasbasbag56
(g72
g58
NtRp1974
(dp1975
g61
(dp1976
sg70
g66
sg63
(lp1977
g56
(g77
g58
NtRp1978
(dp1979
g61
(dp1980
g81
g82
ssg70
g1974
sg63
(lp1981
S'is_local'
p1982
asbag56
(g77
g58
NtRp1983
(dp1984
g61
(dp1985
g88
g89
ssg70
g1974
sg63
(lp1986
S':'
asbag56
(g77
g58
NtRp1987
(dp1988
g61
(dp1989
sg70
g1974
sg63
(lp1990
g56
(g57
g58
NtRp1991
(dp1992
g61
(dp1993
g69
I5
ssg70
g1987
sg63
(lp1994
g1471
asbasbasbag56
(g72
g58
NtRp1995
(dp1996
g61
(dp1997
sg70
g66
sg63
(lp1998
g56
(g77
g58
NtRp1999
(dp2000
g61
(dp2001
g81
g82
ssg70
g1995
sg63
(lp2002
S'is_restful'
p2003
asbag56
(g77
g58
NtRp2004
(dp2005
g61
(dp2006
g88
g89
ssg70
g1995
sg63
(lp2007
S':'
asbag56
(g77
g58
NtRp2008
(dp2009
g61
(dp2010
sg70
g1995
sg63
(lp2011
g56
(g57
g58
NtRp2012
(dp2013
g61
(dp2014
g69
I5
ssg70
g2008
sg63
(lp2015
g99
asbasbasbag56
(g72
g58
NtRp2016
(dp2017
g61
(dp2018
sg70
g66
sg63
(lp2019
g56
(g77
g58
NtRp2020
(dp2021
g61
(dp2022
g81
g82
ssg70
g2016
sg63
(lp2023
S'now'
p2024
asbag56
(g77
g58
NtRp2025
(dp2026
g61
(dp2027
g88
g89
ssg70
g2016
sg63
(lp2028
S':'
asbag56
(g77
g58
NtRp2029
(dp2030
g61
(dp2031
sg70
g2016
sg63
(lp2032
g56
(g57
g58
NtRp2033
(dp2034
g61
(dp2035
g69
I5
ssg70
g2029
sg63
(lp2036
S'datetime.datetime(2011, 11, 4, 12, 22, 50, 577000)'
p2037
asbasbasbag56
(g72
g58
NtRp2038
(dp2039
g61
(dp2040
sg70
g66
sg63
(lp2041
g56
(g77
g58
NtRp2042
(dp2043
g61
(dp2044
g81
g82
ssg70
g2038
sg63
(lp2045
S'post_vars'
p2046
asbag56
(g77
g58
NtRp2047
(dp2048
g61
(dp2049
g88
g89
ssg70
g2038
sg63
(lp2050
S':'
asbag56
(g77
g58
NtRp2051
(dp2052
g61
(dp2053
sg70
g2038
sg63
(lp2054
g56
(g57
g58
NtRp2055
(dp2056
g61
(dp2057
g69
I5
ssg70
g2051
sg63
(lp2058
g56
(g65
g58
NtRp2059
(dp2060
g61
(dp2061
g69
I4
ssg70
Nsg63
(lp2062
sbasbasbasbag56
(g72
g58
NtRp2063
(dp2064
g61
(dp2065
sg70
g66
sg63
(lp2066
g56
(g77
g58
NtRp2067
(dp2068
g61
(dp2069
g81
g82
ssg70
g2063
sg63
(lp2070
S'url'
p2071
asbag56
(g77
g58
NtRp2072
(dp2073
g61
(dp2074
g88
g89
ssg70
g2063
sg63
(lp2075
S':'
asbag56
(g77
g58
NtRp2076
(dp2077
g61
(dp2078
sg70
g2063
sg63
(lp2079
g56
(g57
g58
NtRp2080
(dp2081
g61
(dp2082
g69
I5
ssg70
g2076
sg63
(lp2083
S'/init/default/home'
p2084
asbasbasbag56
(g72
g58
NtRp2085
(dp2086
g61
(dp2087
sg70
g66
sg63
(lp2088
g56
(g77
g58
NtRp2089
(dp2090
g61
(dp2091
g81
g82
ssg70
g2085
sg63
(lp2092
S'utcnow'
p2093
asbag56
(g77
g58
NtRp2094
(dp2095
g61
(dp2096
g88
g89
ssg70
g2085
sg63
(lp2097
S':'
asbag56
(g77
g58
NtRp2098
(dp2099
g61
(dp2100
sg70
g2085
sg63
(lp2101
g56
(g57
g58
NtRp2102
(dp2103
g61
(dp2104
g69
I5
ssg70
g2098
sg63
(lp2105
S'datetime.datetime(2011, 11, 4, 16, 22, 50, 577000)'
p2106
asbasbasbag56
(g72
g58
NtRp2107
(dp2108
g61
(dp2109
sg70
g66
sg63
(lp2110
g56
(g77
g58
NtRp2111
(dp2112
g61
(dp2113
g81
g82
ssg70
g2107
sg63
(lp2114
S'uuid'
p2115
asbag56
(g77
g58
NtRp2116
(dp2117
g61
(dp2118
g88
g89
ssg70
g2107
sg63
(lp2119
S':'
asbag56
(g77
g58
NtRp2120
(dp2121
g61
(dp2122
sg70
g2107
sg63
(lp2123
g56
(g57
g58
NtRp2124
(dp2125
g61
(dp2126
g69
I5
ssg70
g2120
sg63
(lp2127
S'init/127.0.0.1.2011-11-04.12-22-50.48c11f1a-a7f0-4f6f-82ca-b90dabd310ac'
p2128
asbasbasbag56
(g72
g58
NtRp2129
(dp2130
g61
(dp2131
sg70
g66
sg63
(lp2132
g56
(g77
g58
NtRp2133
(dp2134
g61
(dp2135
g81
g82
ssg70
g2129
sg63
(lp2136
S'vars'
p2137
asbag56
(g77
g58
NtRp2138
(dp2139
g61
(dp2140
g88
g89
ssg70
g2129
sg63
(lp2141
S':'
asbag56
(g77
g58
NtRp2142
(dp2143
g61
(dp2144
sg70
g2129
sg63
(lp2145
g56
(g57
g58
NtRp2146
(dp2147
g61
(dp2148
g69
I5
ssg70
g2142
sg63
(lp2149
g56
(g65
g58
NtRp2150
(dp2151
g61
(dp2152
g69
I4
ssg70
Nsg63
(lp2153
sbasbasbasbag56
(g72
g58
NtRp2154
(dp2155
g61
(dp2156
sg70
g66
sg63
(lp2157
g56
(g77
g58
NtRp2158
(dp2159
g61
(dp2160
g81
g82
ssg70
g2154
sg63
(lp2161
S'wsgi'
p2162
asbag56
(g77
g58
NtRp2163
(dp2164
g61
(dp2165
g88
g89
ssg70
g2154
sg63
(lp2166
S':'
asbag56
(g77
g58
NtRp2167
(dp2168
g61
(dp2169
sg70
g2154
sg63
(lp2170
g56
(g57
g58
NtRp2171
(dp2172
g61
(dp2173
g69
I5
ssg70
g2167
sg63
(lp2174
g56
(g65
g58
NtRp2175
(dp2176
g61
(dp2177
g69
I4
ssg70
Nsg63
(lp2178
g56
(g72
g58
NtRp2179
(dp2180
g61
(dp2181
sg70
g2175
sg63
(lp2182
g56
(g77
g58
NtRp2183
(dp2184
g61
(dp2185
g81
g82
ssg70
g2179
sg63
(lp2186
S'environ'
p2187
asbag56
(g77
g58
NtRp2188
(dp2189
g61
(dp2190
g88
g89
ssg70
g2179
sg63
(lp2191
S':'
asbag56
(g77
g58
NtRp2192
(dp2193
g61
(dp2194
sg70
g2179
sg63
(lp2195
g56
(g57
g58
NtRp2196
(dp2197
g61
(dp2198
g69
I4
ssg70
g2192
sg63
(lp2199
g56
(g65
g58
NtRp2200
(dp2201
g61
(dp2202
g69
I3
ssg70
Nsg63
(lp2203
g56
(g72
g58
NtRp2204
(dp2205
g61
(dp2206
sg70
g2200
sg63
(lp2207
g56
(g77
g58
NtRp2208
(dp2209
g61
(dp2210
g81
g82
ssg70
g2204
sg63
(lp2211
S'HTTP_ACCEPT'
p2212
asbag56
(g77
g58
NtRp2213
(dp2214
g61
(dp2215
g88
g89
ssg70
g2204
sg63
(lp2216
S':'
asbag56
(g77
g58
NtRp2217
(dp2218
g61
(dp2219
sg70
g2204
sg63
(lp2220
g56
(g57
g58
NtRp2221
(dp2222
g61
(dp2223
g69
I3
ssg70
g2217
sg63
(lp2224
g817
asbasbasbag56
(g72
g58
NtRp2225
(dp2226
g61
(dp2227
sg70
g2200
sg63
(lp2228
g56
(g77
g58
NtRp2229
(dp2230
g61
(dp2231
g81
g82
ssg70
g2225
sg63
(lp2232
S'HTTP_ACCEPT_CHARSET'
p2233
asbag56
(g77
g58
NtRp2234
(dp2235
g61
(dp2236
g88
g89
ssg70
g2225
sg63
(lp2237
S':'
asbag56
(g77
g58
NtRp2238
(dp2239
g61
(dp2240
sg70
g2225
sg63
(lp2241
g56
(g57
g58
NtRp2242
(dp2243
g61
(dp2244
g69
I3
ssg70
g2238
sg63
(lp2245
g839
asbasbasbag56
(g72
g58
NtRp2246
(dp2247
g61
(dp2248
sg70
g2200
sg63
(lp2249
g56
(g77
g58
NtRp2250
(dp2251
g61
(dp2252
g81
g82
ssg70
g2246
sg63
(lp2253
S'HTTP_ACCEPT_ENCODING'
p2254
asbag56
(g77
g58
NtRp2255
(dp2256
g61
(dp2257
g88
g89
ssg70
g2246
sg63
(lp2258
S':'
asbag56
(g77
g58
NtRp2259
(dp2260
g61
(dp2261
sg70
g2246
sg63
(lp2262
g56
(g57
g58
NtRp2263
(dp2264
g61
(dp2265
g69
I3
ssg70
g2259
sg63
(lp2266
g861
asbasbasbag56
(g72
g58
NtRp2267
(dp2268
g61
(dp2269
sg70
g2200
sg63
(lp2270
g56
(g77
g58
NtRp2271
(dp2272
g61
(dp2273
g81
g82
ssg70
g2267
sg63
(lp2274
S'HTTP_ACCEPT_LANGUAGE'
p2275
asbag56
(g77
g58
NtRp2276
(dp2277
g61
(dp2278
g88
g89
ssg70
g2267
sg63
(lp2279
S':'
asbag56
(g77
g58
NtRp2280
(dp2281
g61
(dp2282
sg70
g2267
sg63
(lp2283
g56
(g57
g58
NtRp2284
(dp2285
g61
(dp2286
g69
I3
ssg70
g2280
sg63
(lp2287
g883
asbasbasbag56
(g72
g58
NtRp2288
(dp2289
g61
(dp2290
sg70
g2200
sg63
(lp2291
g56
(g77
g58
NtRp2292
(dp2293
g61
(dp2294
g81
g82
ssg70
g2288
sg63
(lp2295
S'HTTP_CONNECTION'
p2296
asbag56
(g77
g58
NtRp2297
(dp2298
g61
(dp2299
g88
g89
ssg70
g2288
sg63
(lp2300
S':'
asbag56
(g77
g58
NtRp2301
(dp2302
g61
(dp2303
sg70
g2288
sg63
(lp2304
g56
(g57
g58
NtRp2305
(dp2306
g61
(dp2307
g69
I3
ssg70
g2301
sg63
(lp2308
g905
asbasbasbag56
(g72
g58
NtRp2309
(dp2310
g61
(dp2311
sg70
g2200
sg63
(lp2312
g56
(g77
g58
NtRp2313
(dp2314
g61
(dp2315
g81
g82
ssg70
g2309
sg63
(lp2316
S'HTTP_COOKIE'
p2317
asbag56
(g77
g58
NtRp2318
(dp2319
g61
(dp2320
g88
g89
ssg70
g2309
sg63
(lp2321
S':'
asbag56
(g77
g58
NtRp2322
(dp2323
g61
(dp2324
sg70
g2309
sg63
(lp2325
g56
(g57
g58
NtRp2326
(dp2327
g61
(dp2328
g69
I3
ssg70
g2322
sg63
(lp2329
g927
asbasbasbag56
(g72
g58
NtRp2330
(dp2331
g61
(dp2332
sg70
g2200
sg63
(lp2333
g56
(g77
g58
NtRp2334
(dp2335
g61
(dp2336
g81
g82
ssg70
g2330
sg63
(lp2337
S'HTTP_HOST'
p2338
asbag56
(g77
g58
NtRp2339
(dp2340
g61
(dp2341
g88
g89
ssg70
g2330
sg63
(lp2342
S':'
asbag56
(g77
g58
NtRp2343
(dp2344
g61
(dp2345
sg70
g2330
sg63
(lp2346
g56
(g57
g58
NtRp2347
(dp2348
g61
(dp2349
g69
I3
ssg70
g2343
sg63
(lp2350
g949
asbasbasbag56
(g72
g58
NtRp2351
(dp2352
g61
(dp2353
sg70
g2200
sg63
(lp2354
g56
(g77
g58
NtRp2355
(dp2356
g61
(dp2357
g81
g82
ssg70
g2351
sg63
(lp2358
S'HTTP_KEEP_ALIVE'
p2359
asbag56
(g77
g58
NtRp2360
(dp2361
g61
(dp2362
g88
g89
ssg70
g2351
sg63
(lp2363
S':'
asbag56
(g77
g58
NtRp2364
(dp2365
g61
(dp2366
sg70
g2351
sg63
(lp2367
g56
(g57
g58
NtRp2368
(dp2369
g61
(dp2370
g69
I3
ssg70
g2364
sg63
(lp2371
g971
asbasbasbag56
(g72
g58
NtRp2372
(dp2373
g61
(dp2374
sg70
g2200
sg63
(lp2375
g56
(g77
g58
NtRp2376
(dp2377
g61
(dp2378
g81
g82
ssg70
g2372
sg63
(lp2379
S'HTTP_USER_AGENT'
p2380
asbag56
(g77
g58
NtRp2381
(dp2382
g61
(dp2383
g88
g89
ssg70
g2372
sg63
(lp2384
S':'
asbag56
(g77
g58
NtRp2385
(dp2386
g61
(dp2387
sg70
g2372
sg63
(lp2388
g56
(g57
g58
NtRp2389
(dp2390
g61
(dp2391
g69
I3
ssg70
g2385
sg63
(lp2392
g993
asbasbasbag56
(g72
g58
NtRp2393
(dp2394
g61
(dp2395
sg70
g2200
sg63
(lp2396
g56
(g77
g58
NtRp2397
(dp2398
g61
(dp2399
g81
g82
ssg70
g2393
sg63
(lp2400
S'PATH_INFO'
p2401
asbag56
(g77
g58
NtRp2402
(dp2403
g61
(dp2404
g88
g89
ssg70
g2393
sg63
(lp2405
S':'
asbag56
(g77
g58
NtRp2406
(dp2407
g61
(dp2408
sg70
g2393
sg63
(lp2409
g56
(g57
g58
NtRp2410
(dp2411
g61
(dp2412
g69
I3
ssg70
g2406
sg63
(lp2413
g1036
asbasbasbag56
(g72
g58
NtRp2414
(dp2415
g61
(dp2416
sg70
g2200
sg63
(lp2417
g56
(g77
g58
NtRp2418
(dp2419
g61
(dp2420
g81
g82
ssg70
g2414
sg63
(lp2421
S'QUERY_STRING'
p2422
asbag56
(g77
g58
NtRp2423
(dp2424
g61
(dp2425
g88
g89
ssg70
g2414
sg63
(lp2426
S':'
asbag56
(g77
g58
NtRp2427
(dp2428
g61
(dp2429
sg70
g2414
sg63
(lp2430
g56
(g57
g58
NtRp2431
(dp2432
g61
(dp2433
g69
I3
ssg70
g2427
sg63
(lp2434
S''
asbasbasbag56
(g72
g58
NtRp2435
(dp2436
g61
(dp2437
sg70
g2200
sg63
(lp2438
g56
(g77
g58
NtRp2439
(dp2440
g61
(dp2441
g81
g82
ssg70
g2435
sg63
(lp2442
S'REMOTE_ADDR'
p2443
asbag56
(g77
g58
NtRp2444
(dp2445
g61
(dp2446
g88
g89
ssg70
g2435
sg63
(lp2447
S':'
asbag56
(g77
g58
NtRp2448
(dp2449
g61
(dp2450
sg70
g2435
sg63
(lp2451
g56
(g57
g58
NtRp2452
(dp2453
g61
(dp2454
g69
I3
ssg70
g2448
sg63
(lp2455
g189
asbasbasbag56
(g72
g58
NtRp2456
(dp2457
g61
(dp2458
sg70
g2200
sg63
(lp2459
g56
(g77
g58
NtRp2460
(dp2461
g61
(dp2462
g81
g82
ssg70
g2456
sg63
(lp2463
S'REMOTE_PORT'
p2464
asbag56
(g77
g58
NtRp2465
(dp2466
g61
(dp2467
g88
g89
ssg70
g2456
sg63
(lp2468
S':'
asbag56
(g77
g58
NtRp2469
(dp2470
g61
(dp2471
sg70
g2456
sg63
(lp2472
g56
(g57
g58
NtRp2473
(dp2474
g61
(dp2475
g69
I3
ssg70
g2469
sg63
(lp2476
g1100
asbasbasbag56
(g72
g58
NtRp2477
(dp2478
g61
(dp2479
sg70
g2200
sg63
(lp2480
g56
(g77
g58
NtRp2481
(dp2482
g61
(dp2483
g81
g82
ssg70
g2477
sg63
(lp2484
S'REQUEST_METHOD'
p2485
asbag56
(g77
g58
NtRp2486
(dp2487
g61
(dp2488
g88
g89
ssg70
g2477
sg63
(lp2489
S':'
asbag56
(g77
g58
NtRp2490
(dp2491
g61
(dp2492
sg70
g2477
sg63
(lp2493
g56
(g57
g58
NtRp2494
(dp2495
g61
(dp2496
g69
I3
ssg70
g2490
sg63
(lp2497
g1122
asbasbasbag56
(g72
g58
NtRp2498
(dp2499
g61
(dp2500
sg70
g2200
sg63
(lp2501
g56
(g77
g58
NtRp2502
(dp2503
g61
(dp2504
g81
g82
ssg70
g2498
sg63
(lp2505
S'SCRIPT_NAME'
p2506
asbag56
(g77
g58
NtRp2507
(dp2508
g61
(dp2509
g88
g89
ssg70
g2498
sg63
(lp2510
S':'
asbag56
(g77
g58
NtRp2511
(dp2512
g61
(dp2513
sg70
g2498
sg63
(lp2514
g56
(g57
g58
NtRp2515
(dp2516
g61
(dp2517
g69
I3
ssg70
g2511
sg63
(lp2518
S''
asbasbasbag56
(g72
g58
NtRp2519
(dp2520
g61
(dp2521
sg70
g2200
sg63
(lp2522
g56
(g77
g58
NtRp2523
(dp2524
g61
(dp2525
g81
g82
ssg70
g2519
sg63
(lp2526
S'SERVER_NAME'
p2527
asbag56
(g77
g58
NtRp2528
(dp2529
g61
(dp2530
g88
g89
ssg70
g2519
sg63
(lp2531
S':'
asbag56
(g77
g58
NtRp2532
(dp2533
g61
(dp2534
sg70
g2519
sg63
(lp2535
g56
(g57
g58
NtRp2536
(dp2537
g61
(dp2538
g69
I3
ssg70
g2532
sg63
(lp2539
g1165
asbasbasbag56
(g72
g58
NtRp2540
(dp2541
g61
(dp2542
sg70
g2200
sg63
(lp2543
g56
(g77
g58
NtRp2544
(dp2545
g61
(dp2546
g81
g82
ssg70
g2540
sg63
(lp2547
S'SERVER_PORT'
p2548
asbag56
(g77
g58
NtRp2549
(dp2550
g61
(dp2551
g88
g89
ssg70
g2540
sg63
(lp2552
S':'
asbag56
(g77
g58
NtRp2553
(dp2554
g61
(dp2555
sg70
g2540
sg63
(lp2556
g56
(g57
g58
NtRp2557
(dp2558
g61
(dp2559
g69
I3
ssg70
g2553
sg63
(lp2560
g1187
asbasbasbag56
(g72
g58
NtRp2561
(dp2562
g61
(dp2563
sg70
g2200
sg63
(lp2564
g56
(g77
g58
NtRp2565
(dp2566
g61
(dp2567
g81
g82
ssg70
g2561
sg63
(lp2568
S'SERVER_PROTOCOL'
p2569
asbag56
(g77
g58
NtRp2570
(dp2571
g61
(dp2572
g88
g89
ssg70
g2561
sg63
(lp2573
S':'
asbag56
(g77
g58
NtRp2574
(dp2575
g61
(dp2576
sg70
g2561
sg63
(lp2577
g56
(g57
g58
NtRp2578
(dp2579
g61
(dp2580
g69
I3
ssg70
g2574
sg63
(lp2581
g1209
asbasbasbag56
(g72
g58
NtRp2582
(dp2583
g61
(dp2584
sg70
g2200
sg63
(lp2585
g56
(g77
g58
NtRp2586
(dp2587
g61
(dp2588
g81
g82
ssg70
g2582
sg63
(lp2589
S'SERVER_SOFTWARE'
p2590
asbag56
(g77
g58
NtRp2591
(dp2592
g61
(dp2593
g88
g89
ssg70
g2582
sg63
(lp2594
S':'
asbag56
(g77
g58
NtRp2595
(dp2596
g61
(dp2597
sg70
g2582
sg63
(lp2598
g56
(g57
g58
NtRp2599
(dp2600
g61
(dp2601
g69
I3
ssg70
g2595
sg63
(lp2602
g1231
asbasbasbag56
(g72
g58
NtRp2603
(dp2604
g61
(dp2605
sg70
g2200
sg63
(lp2606
g56
(g77
g58
NtRp2607
(dp2608
g61
(dp2609
g81
g82
ssg70
g2603
sg63
(lp2610
S'wsgi.errors'
p2611
asbag56
(g77
g58
NtRp2612
(dp2613
g61
(dp2614
g88
g89
ssg70
g2603
sg63
(lp2615
S':'
asbag56
(g77
g58
NtRp2616
(dp2617
g61
(dp2618
sg70
g2603
sg63
(lp2619
g56
(g57
g58
NtRp2620
(dp2621
g61
(dp2622
g69
I3
ssg70
g2616
sg63
(lp2623
S"<open file '<stderr>', mode 'w' at 0x01DC50D0>"
p2624
asbasbasbag56
(g72
g58
NtRp2625
(dp2626
g61
(dp2627
sg70
g2200
sg63
(lp2628
g56
(g77
g58
NtRp2629
(dp2630
g61
(dp2631
g81
g82
ssg70
g2625
sg63
(lp2632
S'wsgi.file_wrapper'
p2633
asbag56
(g77
g58
NtRp2634
(dp2635
g61
(dp2636
g88
g89
ssg70
g2625
sg63
(lp2637
S':'
asbag56
(g77
g58
NtRp2638
(dp2639
g61
(dp2640
sg70
g2625
sg63
(lp2641
g56
(g57
g58
NtRp2642
(dp2643
g61
(dp2644
g69
I3
ssg70
g2638
sg63
(lp2645
S'<class wsgiref.util.FileWrapper at 0x02D07AB0>'
p2646
asbasbasbag56
(g72
g58
NtRp2647
(dp2648
g61
(dp2649
sg70
g2200
sg63
(lp2650
g56
(g77
g58
NtRp2651
(dp2652
g61
(dp2653
g81
g82
ssg70
g2647
sg63
(lp2654
S'wsgi.input'
p2655
asbag56
(g77
g58
NtRp2656
(dp2657
g61
(dp2658
g88
g89
ssg70
g2647
sg63
(lp2659
S':'
asbag56
(g77
g58
NtRp2660
(dp2661
g61
(dp2662
sg70
g2647
sg63
(lp2663
g56
(g57
g58
NtRp2664
(dp2665
g61
(dp2666
g69
I3
ssg70
g2660
sg63
(lp2667
S'<cStringIO.StringO object at 0x03696B60>'
p2668
asbasbasbag56
(g72
g58
NtRp2669
(dp2670
g61
(dp2671
sg70
g2200
sg63
(lp2672
g56
(g77
g58
NtRp2673
(dp2674
g61
(dp2675
g81
g82
ssg70
g2669
sg63
(lp2676
S'wsgi.multiprocess'
p2677
asbag56
(g77
g58
NtRp2678
(dp2679
g61
(dp2680
g88
g89
ssg70
g2669
sg63
(lp2681
S':'
asbag56
(g77
g58
NtRp2682
(dp2683
g61
(dp2684
sg70
g2669
sg63
(lp2685
g56
(g57
g58
NtRp2686
(dp2687
g61
(dp2688
g69
I3
ssg70
g2682
sg63
(lp2689
g99
asbasbasbag56
(g72
g58
NtRp2690
(dp2691
g61
(dp2692
sg70
g2200
sg63
(lp2693
g56
(g77
g58
NtRp2694
(dp2695
g61
(dp2696
g81
g82
ssg70
g2690
sg63
(lp2697
S'wsgi.multithread'
p2698
asbag56
(g77
g58
NtRp2699
(dp2700
g61
(dp2701
g88
g89
ssg70
g2690
sg63
(lp2702
S':'
asbag56
(g77
g58
NtRp2703
(dp2704
g61
(dp2705
sg70
g2690
sg63
(lp2706
g56
(g57
g58
NtRp2707
(dp2708
g61
(dp2709
g69
I3
ssg70
g2703
sg63
(lp2710
g1471
asbasbasbag56
(g72
g58
NtRp2711
(dp2712
g61
(dp2713
sg70
g2200
sg63
(lp2714
g56
(g77
g58
NtRp2715
(dp2716
g61
(dp2717
g81
g82
ssg70
g2711
sg63
(lp2718
S'wsgi.run_once'
p2719
asbag56
(g77
g58
NtRp2720
(dp2721
g61
(dp2722
g88
g89
ssg70
g2711
sg63
(lp2723
S':'
asbag56
(g77
g58
NtRp2724
(dp2725
g61
(dp2726
sg70
g2711
sg63
(lp2727
g56
(g57
g58
NtRp2728
(dp2729
g61
(dp2730
g69
I3
ssg70
g2724
sg63
(lp2731
g99
asbasbasbag56
(g72
g58
NtRp2732
(dp2733
g61
(dp2734
sg70
g2200
sg63
(lp2735
g56
(g77
g58
NtRp2736
(dp2737
g61
(dp2738
g81
g82
ssg70
g2732
sg63
(lp2739
S'wsgi.url_scheme'
p2740
asbag56
(g77
g58
NtRp2741
(dp2742
g61
(dp2743
g88
g89
ssg70
g2732
sg63
(lp2744
S':'
asbag56
(g77
g58
NtRp2745
(dp2746
g61
(dp2747
sg70
g2732
sg63
(lp2748
g56
(g57
g58
NtRp2749
(dp2750
g61
(dp2751
g69
I3
ssg70
g2745
sg63
(lp2752
g1514
asbasbasbag56
(g72
g58
NtRp2753
(dp2754
g61
(dp2755
sg70
g2200
sg63
(lp2756
g56
(g77
g58
NtRp2757
(dp2758
g61
(dp2759
g81
g82
ssg70
g2753
sg63
(lp2760
S'wsgi.version'
p2761
asbag56
(g77
g58
NtRp2762
(dp2763
g61
(dp2764
g88
g89
ssg70
g2753
sg63
(lp2765
S':'
asbag56
(g77
g58
NtRp2766
(dp2767
g61
(dp2768
sg70
g2753
sg63
(lp2769
g56
(g57
g58
NtRp2770
(dp2771
g61
(dp2772
g69
I3
ssg70
g2766
sg63
(lp2773
S'1'
asbasbasbasbasbasbasbasbasbasbasbasbasbsS'frames'
p2774
(lp2775
(dp2776
S'file'
p2777
S'P:\\Workbench\\DevEnv\\web2py\\gluon\\restricted.py'
p2778
sS'dump'
p2779
(dp2780
S'environment'
p2781
S"{'A': <class 'gluon.html.A'>, 'Auth': <class 'gluon.tools.Auth'>, 'B': <class 'gluon.html.B'>, 'BEAUTIFY': <class 'gluon.html.BEAUTIFY'>, 'BODY': <class 'gluon.html.BODY'>, 'BR': <class 'gluon.html.BR'>, 'BUTTON': <class 'gluon.html.BUTTON'>, 'CAT': <class 'gluon.html.CAT'>, 'CENTER': <class 'gluon.html.CENTER'>, 'CLEANUP': <class 'gluon.validators.CLEANUP'>, ...}"
p2782
sS'ccode'
p2783
S'<code object <module> at 092629B0, file "P:\\Work...plications\\init\\controllers/default.py", line 12>'
p2784
ssS'lnum'
p2785
I192
sS'lines'
p2786
(dp2787
I192
S'        exec ccode in environment'
p2788
sI193
S'    except HTTP:'
p2789
sI194
S'        raise'
p2790
sI195
S'    except Exception:'
p2791
sI196
S'        # XXX Show exception in Wing IDE if running in debugger'
p2792
sI187
S'    try:'
p2793
sI188
S'        if type(code) == types.CodeType:'
p2794
sI189
S'            ccode = code'
p2795
sI190
S'        else:'
p2796
sI191
S'            ccode = compile2(code,layer)'
p2797
ssS'call'
p2798
S"(code='# -*- coding: utf-8 -*-\\n# this file is released ...m=crud())\\n\\nresponse._vars=response._caller(home)\\n', environment={'A': <class 'gluon.html.A'>, 'Auth': <class 'gluon.tools.Auth'>, 'B': <class 'gluon.html.B'>, 'BEAUTIFY': <class 'gluon.html.BEAUTIFY'>, 'BODY': <class 'gluon.html.BODY'>, 'BR': <class 'gluon.html.BR'>, 'BUTTON': <class 'gluon.html.BUTTON'>, 'CAT': <class 'gluon.html.CAT'>, 'CENTER': <class 'gluon.html.CENTER'>, 'CLEANUP': <class 'gluon.validators.CLEANUP'>, ...}, layer=r'P:\\Workbench\\DevEnv\\web2py\\applications\\init\\controllers/default.py')"
p2799
sS'func'
p2800
S'restricted'
p2801
sa(dp2802
g2777
S'P:\\Workbench\\DevEnv\\web2py\\applications\\init\\controllers\\default.py'
p2803
sg2779
(dp2804
sg2785
I85
sg2786
(dp2805
I74
S'    http://..../[app]/default/data/update/[table]/[id]'
p2806
sI75
S'    http://..../[app]/default/data/delete/[table]/[id]'
p2807
sI76
S'    http://..../[app]/default/data/select/[table]'
p2808
sI77
S'    http://..../[app]/default/data/search/[table]'
p2809
sI78
S'    but URLs bust be signed, i.e. linked with'
p2810
sI79
S"      A('table',_href=URL('data/tables',user_signature=True))"
p2811
sI80
S'    or with the signed load operator'
p2812
sI81
S"      LOAD('default','data.load',args='tables',ajax=True,user_signature=True)"
p2813
sI82
S'    """'
p2814
sI83
S'    return dict(form=crud())'
p2815
ssg2798
S'()'
p2816
sg2800
S'<module>'
p2817
sa(dp2818
g2777
S'P:\\Workbench\\DevEnv\\web2py\\gluon\\globals.py'
p2819
sg2779
(dp2820
S'self'
p2821
S'undefined'
p2822
sS'f'
S'<function home>'
p2823
ssg2785
I149
sg2786
(dp2824
I144
S'        self.meta = Storage()      # used by web2py_ajax.html'
p2825
sI145
S'        self.menu = []             # used by the default view layout'
p2826
sI146
S'        self.files = []            # used by web2py_ajax.html'
p2827
sI147
S'        self.generic_patterns = [] # patterns to allow generic views'
p2828
sI148
S'        self._vars = None'
p2829
sI149
S'        self._caller = lambda f: f()'
p2830
sI150
S'        self._view_environment = None'
p2831
sI151
S'        self._custom_commit = None'
p2832
sI152
S'        self._custom_rollback = None'
p2833
sI153
S''
ssg2798
S'(f=<function home>)'
p2834
sg2800
S'<lambda>'
p2835
sa(dp2836
g2777
S'P:\\Workbench\\DevEnv\\web2py\\gluon\\tools.py'
p2837
sg2779
(dp2838
S'action'
p2839
S'<function home>'
p2840
sS'a'
S'()'
p2841
sS'b'
g44
ssg2785
I2473
sg2786
(dp2842
I2468
S"                            '?_next='+urllib.quote(next))"
p2843
sI2469
S'                if not condition and not (condition and callable(condition) and condition()):'
p2844
sI2470
S'                    current.session.flash = self.messages.access_denied'
p2845
sI2471
S'                    return call_or_redirect('
p2846
sI2472
S'                        self.settings.on_failed_authorization)'
p2847
sI2473
S'                return action(*a, **b)'
p2848
sI2474
S'            f.__doc__ = action.__doc__'
p2849
sI2475
S'            f.__name__ = action.__name__'
p2850
sI2476
S'            f.__dict__.update(action.__dict__)'
p2851
sI2477
S'            return f'
p2852
ssg2798
S'(*a=(), **b={})'
p2853
sg2800
S'f'
sa(dp2854
g2777
S'P:\\Workbench\\DevEnv\\web2py\\applications\\init\\controllers\\default.py'
p2855
sg2779
(dp2856
S'global URL'
p2857
S'<function URL>'
p2858
sS'global request'
p2859
S"<Storage {'body': <cStringIO.StringO object at 0..._vars': <Storage {}>, 'post_vars': <Storage {}>}>"
p2860
sS'r'
g2822
sS'builtindict'
p2861
S"<type 'dict'>"
p2862
sS'f'
g2822
ssg2785
I44
sg2786
(dp2863
I39
S''
sI40
S'## Users home page.'
p2864
sI41
S'@auth.requires_login()'
p2865
sI42
S'def home():'
p2866
sI43
S''
sI44
S"    return dict(URL(r=request, f='home'))"
p2867
sI45
S''
sI46
S'def contact():'
p2868
sI47
S''
sI48
S'    return dict()'
p2869
ssg2798
S'()'
p2870
sg2800
S'home'
p2871
sasS'pyver'
p2872
S'Python 2.7.2: P:\\Workbench\\DevEnv\\Python27\\python.exe'
p2873
sS'session'
p2874
g56
(g57
g58
NtRp2875
(dp2876
g61
(dp2877
sg63
(lp2878
g56
(g65
g58
NtRp2879
(dp2880
g61
(dp2881
g69
I5
ssg70
Nsg63
(lp2882
g56
(g72
g58
NtRp2883
(dp2884
g61
(dp2885
sg70
g2879
sg63
(lp2886
g56
(g77
g58
NtRp2887
(dp2888
g61
(dp2889
g81
g82
ssg70
g2883
sg63
(lp2890
S'auth'
p2891
asbag56
(g77
g58
NtRp2892
(dp2893
g61
(dp2894
g88
g89
ssg70
g2883
sg63
(lp2895
S':'
asbag56
(g77
g58
NtRp2896
(dp2897
g61
(dp2898
sg70
g2883
sg63
(lp2899
g56
(g57
g58
NtRp2900
(dp2901
g61
(dp2902
g69
I5
ssg70
g2896
sg63
(lp2903
g56
(g65
g58
NtRp2904
(dp2905
g61
(dp2906
g69
I4
ssg70
Nsg63
(lp2907
g56
(g72
g58
NtRp2908
(dp2909
g61
(dp2910
sg70
g2904
sg63
(lp2911
g56
(g77
g58
NtRp2912
(dp2913
g61
(dp2914
g81
g82
ssg70
g2908
sg63
(lp2915
S'expiration'
p2916
asbag56
(g77
g58
NtRp2917
(dp2918
g61
(dp2919
g88
g89
ssg70
g2908
sg63
(lp2920
S':'
asbag56
(g77
g58
NtRp2921
(dp2922
g61
(dp2923
sg70
g2908
sg63
(lp2924
g56
(g57
g58
NtRp2925
(dp2926
g61
(dp2927
g69
I4
ssg70
g2921
sg63
(lp2928
S'3600'
p2929
asbasbasbag56
(g72
g58
NtRp2930
(dp2931
g61
(dp2932
sg70
g2904
sg63
(lp2933
g56
(g77
g58
NtRp2934
(dp2935
g61
(dp2936
g81
g82
ssg70
g2930
sg63
(lp2937
S'hmac_key'
p2938
asbag56
(g77
g58
NtRp2939
(dp2940
g61
(dp2941
g88
g89
ssg70
g2930
sg63
(lp2942
S':'
asbag56
(g77
g58
NtRp2943
(dp2944
g61
(dp2945
sg70
g2930
sg63
(lp2946
g56
(g57
g58
NtRp2947
(dp2948
g61
(dp2949
g69
I4
ssg70
g2943
sg63
(lp2950
S'd02d35f5-ca31-4d7d-ab9a-8fb5ea988a02'
p2951
asbasbasbag56
(g72
g58
NtRp2952
(dp2953
g61
(dp2954
sg70
g2904
sg63
(lp2955
g56
(g77
g58
NtRp2956
(dp2957
g61
(dp2958
g81
g82
ssg70
g2952
sg63
(lp2959
S'last_visit'
p2960
asbag56
(g77
g58
NtRp2961
(dp2962
g61
(dp2963
g88
g89
ssg70
g2952
sg63
(lp2964
S':'
asbag56
(g77
g58
NtRp2965
(dp2966
g61
(dp2967
sg70
g2952
sg63
(lp2968
g56
(g57
g58
NtRp2969
(dp2970
g61
(dp2971
g69
I4
ssg70
g2965
sg63
(lp2972
S'datetime.datetime(2011, 11, 4, 12, 21, 8, 526000)'
p2973
asbasbasbag56
(g72
g58
NtRp2974
(dp2975
g61
(dp2976
sg70
g2904
sg63
(lp2977
g56
(g77
g58
NtRp2978
(dp2979
g61
(dp2980
g81
g82
ssg70
g2974
sg63
(lp2981
S'user'
p2982
asbag56
(g77
g58
NtRp2983
(dp2984
g61
(dp2985
g88
g89
ssg70
g2974
sg63
(lp2986
S':'
asbag56
(g77
g58
NtRp2987
(dp2988
g61
(dp2989
sg70
g2974
sg63
(lp2990
g56
(g57
g58
NtRp2991
(dp2992
g61
(dp2993
g69
I4
ssg70
g2987
sg63
(lp2994
g56
(g65
g58
NtRp2995
(dp2996
g61
(dp2997
g69
I3
ssg70
Nsg63
(lp2998
g56
(g72
g58
NtRp2999
(dp3000
g61
(dp3001
sg70
g2995
sg63
(lp3002
g56
(g77
g58
NtRp3003
(dp3004
g61
(dp3005
g81
g82
ssg70
g2999
sg63
(lp3006
S'birthday'
p3007
asbag56
(g77
g58
NtRp3008
(dp3009
g61
(dp3010
g88
g89
ssg70
g2999
sg63
(lp3011
S':'
asbag56
(g77
g58
NtRp3012
(dp3013
g61
(dp3014
sg70
g2999
sg63
(lp3015
g56
(g57
g58
NtRp3016
(dp3017
g61
(dp3018
g69
I3
ssg70
g3012
sg63
(lp3019
S'datetime.date(2011, 11, 2)'
p3020
asbasbasbag56
(g72
g58
NtRp3021
(dp3022
g61
(dp3023
sg70
g2995
sg63
(lp3024
g56
(g77
g58
NtRp3025
(dp3026
g61
(dp3027
g81
g82
ssg70
g3021
sg63
(lp3028
S'current_weight'
p3029
asbag56
(g77
g58
NtRp3030
(dp3031
g61
(dp3032
g88
g89
ssg70
g3021
sg63
(lp3033
S':'
asbag56
(g77
g58
NtRp3034
(dp3035
g61
(dp3036
sg70
g3021
sg63
(lp3037
g56
(g57
g58
NtRp3038
(dp3039
g61
(dp3040
g69
I3
ssg70
g3034
sg63
(lp3041
S'200'
p3042
asbasbasbag56
(g72
g58
NtRp3043
(dp3044
g61
(dp3045
sg70
g2995
sg63
(lp3046
g56
(g77
g58
NtRp3047
(dp3048
g61
(dp3049
g81
g82
ssg70
g3043
sg63
(lp3050
S'email'
p3051
asbag56
(g77
g58
NtRp3052
(dp3053
g61
(dp3054
g88
g89
ssg70
g3043
sg63
(lp3055
S':'
asbag56
(g77
g58
NtRp3056
(dp3057
g61
(dp3058
sg70
g3043
sg63
(lp3059
g56
(g57
g58
NtRp3060
(dp3061
g61
(dp3062
g69
I3
ssg70
g3056
sg63
(lp3063
S'test@test.com'
p3064
asbasbasbag56
(g72
g58
NtRp3065
(dp3066
g61
(dp3067
sg70
g2995
sg63
(lp3068
g56
(g77
g58
NtRp3069
(dp3070
g61
(dp3071
g81
g82
ssg70
g3065
sg63
(lp3072
S'first_name'
p3073
asbag56
(g77
g58
NtRp3074
(dp3075
g61
(dp3076
g88
g89
ssg70
g3065
sg63
(lp3077
S':'
asbag56
(g77
g58
NtRp3078
(dp3079
g61
(dp3080
sg70
g3065
sg63
(lp3081
g56
(g57
g58
NtRp3082
(dp3083
g61
(dp3084
g69
I3
ssg70
g3078
sg63
(lp3085
S'test'
p3086
asbasbasbag56
(g72
g58
NtRp3087
(dp3088
g61
(dp3089
sg70
g2995
sg63
(lp3090
g56
(g77
g58
NtRp3091
(dp3092
g61
(dp3093
g81
g82
ssg70
g3087
sg63
(lp3094
S'gender'
p3095
asbag56
(g77
g58
NtRp3096
(dp3097
g61
(dp3098
g88
g89
ssg70
g3087
sg63
(lp3099
S':'
asbag56
(g77
g58
NtRp3100
(dp3101
g61
(dp3102
sg70
g3087
sg63
(lp3103
g56
(g57
g58
NtRp3104
(dp3105
g61
(dp3106
g69
I3
ssg70
g3100
sg63
(lp3107
S'Male'
p3108
asbasbasbag56
(g72
g58
NtRp3109
(dp3110
g61
(dp3111
sg70
g2995
sg63
(lp3112
g56
(g77
g58
NtRp3113
(dp3114
g61
(dp3115
g81
g82
ssg70
g3109
sg63
(lp3116
S'height'
p3117
asbag56
(g77
g58
NtRp3118
(dp3119
g61
(dp3120
g88
g89
ssg70
g3109
sg63
(lp3121
S':'
asbag56
(g77
g58
NtRp3122
(dp3123
g61
(dp3124
sg70
g3109
sg63
(lp3125
g56
(g57
g58
NtRp3126
(dp3127
g61
(dp3128
g69
I3
ssg70
g3122
sg63
(lp3129
S'72'
p3130
asbasbasbag56
(g72
g58
NtRp3131
(dp3132
g61
(dp3133
sg70
g2995
sg63
(lp3134
g56
(g77
g58
NtRp3135
(dp3136
g61
(dp3137
g81
g82
ssg70
g3131
sg63
(lp3138
S'id'
p3139
asbag56
(g77
g58
NtRp3140
(dp3141
g61
(dp3142
g88
g89
ssg70
g3131
sg63
(lp3143
S':'
asbag56
(g77
g58
NtRp3144
(dp3145
g61
(dp3146
sg70
g3131
sg63
(lp3147
g56
(g57
g58
NtRp3148
(dp3149
g61
(dp3150
g69
I3
ssg70
g3144
sg63
(lp3151
S'1'
asbasbasbag56
(g72
g58
NtRp3152
(dp3153
g61
(dp3154
sg70
g2995
sg63
(lp3155
g56
(g77
g58
NtRp3156
(dp3157
g61
(dp3158
g81
g82
ssg70
g3152
sg63
(lp3159
S'last_name'
p3160
asbag56
(g77
g58
NtRp3161
(dp3162
g61
(dp3163
g88
g89
ssg70
g3152
sg63
(lp3164
S':'
asbag56
(g77
g58
NtRp3165
(dp3166
g61
(dp3167
sg70
g3152
sg63
(lp3168
g56
(g57
g58
NtRp3169
(dp3170
g61
(dp3171
g69
I3
ssg70
g3165
sg63
(lp3172
S'test'
p3173
asbasbasbag56
(g72
g58
NtRp3174
(dp3175
g61
(dp3176
sg70
g2995
sg63
(lp3177
g56
(g77
g58
NtRp3178
(dp3179
g61
(dp3180
g81
g82
ssg70
g3174
sg63
(lp3181
S'password'
p3182
asbag56
(g77
g58
NtRp3183
(dp3184
g61
(dp3185
g88
g89
ssg70
g3174
sg63
(lp3186
S':'
asbag56
(g77
g58
NtRp3187
(dp3188
g61
(dp3189
sg70
g3174
sg63
(lp3190
g56
(g57
g58
NtRp3191
(dp3192
g61
(dp3193
g69
I3
ssg70
g3187
sg63
(lp3194
S'12923092f4d9e86e56018b9cdd790947'
p3195
asbasbasbag56
(g72
g58
NtRp3196
(dp3197
g61
(dp3198
sg70
g2995
sg63
(lp3199
g56
(g77
g58
NtRp3200
(dp3201
g61
(dp3202
g81
g82
ssg70
g3196
sg63
(lp3203
S'registration_id'
p3204
asbag56
(g77
g58
NtRp3205
(dp3206
g61
(dp3207
g88
g89
ssg70
g3196
sg63
(lp3208
S':'
asbag56
(g77
g58
NtRp3209
(dp3210
g61
(dp3211
sg70
g3196
sg63
(lp3212
g56
(g57
g58
NtRp3213
(dp3214
g61
(dp3215
g69
I3
ssg70
g3209
sg63
(lp3216
S''
asbasbasbag56
(g72
g58
NtRp3217
(dp3218
g61
(dp3219
sg70
g2995
sg63
(lp3220
g56
(g77
g58
NtRp3221
(dp3222
g61
(dp3223
g81
g82
ssg70
g3217
sg63
(lp3224
S'registration_key'
p3225
asbag56
(g77
g58
NtRp3226
(dp3227
g61
(dp3228
g88
g89
ssg70
g3217
sg63
(lp3229
S':'
asbag56
(g77
g58
NtRp3230
(dp3231
g61
(dp3232
sg70
g3217
sg63
(lp3233
g56
(g57
g58
NtRp3234
(dp3235
g61
(dp3236
g69
I3
ssg70
g3230
sg63
(lp3237
S''
asbasbasbag56
(g72
g58
NtRp3238
(dp3239
g61
(dp3240
sg70
g2995
sg63
(lp3241
g56
(g77
g58
NtRp3242
(dp3243
g61
(dp3244
g81
g82
ssg70
g3238
sg63
(lp3245
S'reset_password_key'
p3246
asbag56
(g77
g58
NtRp3247
(dp3248
g61
(dp3249
g88
g89
ssg70
g3238
sg63
(lp3250
S':'
asbag56
(g77
g58
NtRp3251
(dp3252
g61
(dp3253
sg70
g3238
sg63
(lp3254
g56
(g57
g58
NtRp3255
(dp3256
g61
(dp3257
g69
I3
ssg70
g3251
sg63
(lp3258
S''
asbasbasbasbasbasbasbasbasbasbasbasbasbsS'etype'
p3259
S"<type 'exceptions.ValueError'>"
p3260
sS'date'
p3261
S'Fri Nov 04 12:22:50 2011'
p3262
sS'response'
p3263
g56
(g57
g58
NtRp3264
(dp3265
g61
(dp3266
sg63
(lp3267
g56
(g65
g58
NtRp3268
(dp3269
g61
(dp3270
g69
I5
ssg70
Nsg63
(lp3271
g56
(g72
g58
NtRp3272
(dp3273
g61
(dp3274
sg70
g3268
sg63
(lp3275
g56
(g77
g58
NtRp3276
(dp3277
g61
(dp3278
g81
g82
ssg70
g3272
sg63
(lp3279
g154
asbag56
(g77
g58
NtRp3280
(dp3281
g61
(dp3282
g88
g89
ssg70
g3272
sg63
(lp3283
S':'
asbag56
(g77
g58
NtRp3284
(dp3285
g61
(dp3286
sg70
g3272
sg63
(lp3287
g56
(g57
g58
NtRp3288
(dp3289
g61
(dp3290
g69
I5
ssg70
g3284
sg63
(lp3291
S'<cStringIO.StringO object at 0x0A17C380>'
p3292
asbasbasbag56
(g72
g58
NtRp3293
(dp3294
g61
(dp3295
sg70
g3268
sg63
(lp3296
g56
(g77
g58
NtRp3297
(dp3298
g61
(dp3299
g81
g82
ssg70
g3293
sg63
(lp3300
g220
asbag56
(g77
g58
NtRp3301
(dp3302
g61
(dp3303
g88
g89
ssg70
g3293
sg63
(lp3304
S':'
asbag56
(g77
g58
NtRp3305
(dp3306
g61
(dp3307
sg70
g3293
sg63
(lp3308
g56
(g57
g58
NtRp3309
(dp3310
g61
(dp3311
g69
I5
ssg70
g3305
sg63
(lp3312
g56
(g65
g58
NtRp3313
(dp3314
g61
(dp3315
g69
I4
ssg70
Nsg63
(lp3316
g56
(g72
g58
NtRp3317
(dp3318
g61
(dp3319
sg70
g3313
sg63
(lp3320
g56
(g77
g58
NtRp3321
(dp3322
g61
(dp3323
g81
g82
ssg70
g3317
sg63
(lp3324
S'session_id_init'
p3325
asbag56
(g77
g58
NtRp3326
(dp3327
g61
(dp3328
g88
g89
ssg70
g3317
sg63
(lp3329
S':'
asbag56
(g77
g58
NtRp3330
(dp3331
g61
(dp3332
sg70
g3317
sg63
(lp3333
g56
(g57
g58
NtRp3334
(dp3335
g61
(dp3336
g69
I4
ssg70
g3330
sg63
(lp3337
g56
(g65
g58
NtRp3338
(dp3339
g61
(dp3340
g69
I3
ssg70
Nsg63
(lp3341
g56
(g72
g58
NtRp3342
(dp3343
g61
(dp3344
sg70
g3338
sg63
(lp3345
g56
(g77
g58
NtRp3346
(dp3347
g61
(dp3348
g81
g82
ssg70
g3342
sg63
(lp3349
g270
asbag56
(g77
g58
NtRp3350
(dp3351
g61
(dp3352
g88
g89
ssg70
g3342
sg63
(lp3353
S':'
asbag56
(g77
g58
NtRp3354
(dp3355
g61
(dp3356
sg70
g3342
sg63
(lp3357
g56
(g57
g58
NtRp3358
(dp3359
g61
(dp3360
g69
I3
ssg70
g3354
sg63
(lp3361
S''
asbasbasbag56
(g72
g58
NtRp3362
(dp3363
g61
(dp3364
sg70
g3338
sg63
(lp3365
g56
(g77
g58
NtRp3366
(dp3367
g61
(dp3368
g81
g82
ssg70
g3362
sg63
(lp3369
g291
asbag56
(g77
g58
NtRp3370
(dp3371
g61
(dp3372
g88
g89
ssg70
g3362
sg63
(lp3373
S':'
asbag56
(g77
g58
NtRp3374
(dp3375
g61
(dp3376
sg70
g3362
sg63
(lp3377
g56
(g57
g58
NtRp3378
(dp3379
g61
(dp3380
g69
I3
ssg70
g3374
sg63
(lp3381
S''
asbasbasbag56
(g72
g58
NtRp3382
(dp3383
g61
(dp3384
sg70
g3338
sg63
(lp3385
g56
(g77
g58
NtRp3386
(dp3387
g61
(dp3388
g81
g82
ssg70
g3382
sg63
(lp3389
g312
asbag56
(g77
g58
NtRp3390
(dp3391
g61
(dp3392
g88
g89
ssg70
g3382
sg63
(lp3393
S':'
asbag56
(g77
g58
NtRp3394
(dp3395
g61
(dp3396
sg70
g3382
sg63
(lp3397
g56
(g57
g58
NtRp3398
(dp3399
g61
(dp3400
g69
I3
ssg70
g3394
sg63
(lp3401
S''
asbasbasbag56
(g72
g58
NtRp3402
(dp3403
g61
(dp3404
sg70
g3338
sg63
(lp3405
g56
(g77
g58
NtRp3406
(dp3407
g61
(dp3408
g81
g82
ssg70
g3402
sg63
(lp3409
g333
asbag56
(g77
g58
NtRp3410
(dp3411
g61
(dp3412
g88
g89
ssg70
g3402
sg63
(lp3413
S':'
asbag56
(g77
g58
NtRp3414
(dp3415
g61
(dp3416
sg70
g3402
sg63
(lp3417
g56
(g57
g58
NtRp3418
(dp3419
g61
(dp3420
g69
I3
ssg70
g3414
sg63
(lp3421
S''
asbasbasbag56
(g72
g58
NtRp3422
(dp3423
g61
(dp3424
sg70
g3338
sg63
(lp3425
g56
(g77
g58
NtRp3426
(dp3427
g61
(dp3428
g81
g82
ssg70
g3422
sg63
(lp3429
g354
asbag56
(g77
g58
NtRp3430
(dp3431
g61
(dp3432
g88
g89
ssg70
g3422
sg63
(lp3433
S':'
asbag56
(g77
g58
NtRp3434
(dp3435
g61
(dp3436
sg70
g3422
sg63
(lp3437
g56
(g57
g58
NtRp3438
(dp3439
g61
(dp3440
g69
I3
ssg70
g3434
sg63
(lp3441
S''
asbasbasbag56
(g72
g58
NtRp3442
(dp3443
g61
(dp3444
sg70
g3338
sg63
(lp3445
g56
(g77
g58
NtRp3446
(dp3447
g61
(dp3448
g81
g82
ssg70
g3442
sg63
(lp3449
g375
asbag56
(g77
g58
NtRp3450
(dp3451
g61
(dp3452
g88
g89
ssg70
g3442
sg63
(lp3453
S':'
asbag56
(g77
g58
NtRp3454
(dp3455
g61
(dp3456
sg70
g3442
sg63
(lp3457
g56
(g57
g58
NtRp3458
(dp3459
g61
(dp3460
g69
I3
ssg70
g3454
sg63
(lp3461
S'/'
asbasbasbag56
(g72
g58
NtRp3462
(dp3463
g61
(dp3464
sg70
g3338
sg63
(lp3465
g56
(g77
g58
NtRp3466
(dp3467
g61
(dp3468
g81
g82
ssg70
g3462
sg63
(lp3469
g396
asbag56
(g77
g58
NtRp3470
(dp3471
g61
(dp3472
g88
g89
ssg70
g3462
sg63
(lp3473
S':'
asbag56
(g77
g58
NtRp3474
(dp3475
g61
(dp3476
sg70
g3462
sg63
(lp3477
g56
(g57
g58
NtRp3478
(dp3479
g61
(dp3480
g69
I3
ssg70
g3474
sg63
(lp3481
S''
asbasbasbag56
(g72
g58
NtRp3482
(dp3483
g61
(dp3484
sg70
g3338
sg63
(lp3485
g56
(g77
g58
NtRp3486
(dp3487
g61
(dp3488
g81
g82
ssg70
g3482
sg63
(lp3489
g417
asbag56
(g77
g58
NtRp3490
(dp3491
g61
(dp3492
g88
g89
ssg70
g3482
sg63
(lp3493
S':'
asbag56
(g77
g58
NtRp3494
(dp3495
g61
(dp3496
sg70
g3482
sg63
(lp3497
g56
(g57
g58
NtRp3498
(dp3499
g61
(dp3500
g69
I3
ssg70
g3494
sg63
(lp3501
S''
asbasbasbasbasbasbasbasbasbasbasbag56
(g72
g58
NtRp3502
(dp3503
g61
(dp3504
sg70
g3268
sg63
(lp3505
g56
(g77
g58
NtRp3506
(dp3507
g61
(dp3508
g81
g82
ssg70
g3502
sg63
(lp3509
S'files'
p3510
asbag56
(g77
g58
NtRp3511
(dp3512
g61
(dp3513
g88
g89
ssg70
g3502
sg63
(lp3514
S':'
asbag56
(g77
g58
NtRp3515
(dp3516
g61
(dp3517
sg70
g3502
sg63
(lp3518
g56
(g57
g58
NtRp3519
(dp3520
g61
(dp3521
g69
I5
ssg70
g3515
sg63
(lp3522
g56
(g65
g58
NtRp3523
(dp3524
g61
(dp3525
g69
I4
ssg70
Nsg63
(lp3526
sbasbasbasbag56
(g72
g58
NtRp3527
(dp3528
g61
(dp3529
sg70
g3268
sg63
(lp3530
g56
(g77
g58
NtRp3531
(dp3532
g61
(dp3533
g81
g82
ssg70
g3527
sg63
(lp3534
S'flash'
p3535
asbag56
(g77
g58
NtRp3536
(dp3537
g61
(dp3538
g88
g89
ssg70
g3527
sg63
(lp3539
S':'
asbag56
(g77
g58
NtRp3540
(dp3541
g61
(dp3542
sg70
g3527
sg63
(lp3543
g56
(g57
g58
NtRp3544
(dp3545
g61
(dp3546
g69
I5
ssg70
g3540
sg63
(lp3547
S''
asbasbasbag56
(g72
g58
NtRp3548
(dp3549
g61
(dp3550
sg70
g3268
sg63
(lp3551
g56
(g77
g58
NtRp3552
(dp3553
g61
(dp3554
g81
g82
ssg70
g3548
sg63
(lp3555
S'generic_patterns'
p3556
asbag56
(g77
g58
NtRp3557
(dp3558
g61
(dp3559
g88
g89
ssg70
g3548
sg63
(lp3560
S':'
asbag56
(g77
g58
NtRp3561
(dp3562
g61
(dp3563
sg70
g3548
sg63
(lp3564
g56
(g57
g58
NtRp3565
(dp3566
g61
(dp3567
g69
I5
ssg70
g3561
sg63
(lp3568
g56
(g65
g58
NtRp3569
(dp3570
g61
(dp3571
g69
I4
ssg70
Nsg63
(lp3572
g56
(g72
g58
NtRp3573
(dp3574
g61
(dp3575
sg70
g3569
sg63
(lp3576
g56
(g77
g58
NtRp3577
(dp3578
g61
(dp3579
sg70
g3573
sg63
(lp3580
g56
(g57
g58
NtRp3581
(dp3582
g61
(dp3583
g69
I4
ssg70
g3577
sg63
(lp3584
S'*'
asbasbasbasbasbasbasbag56
(g72
g58
NtRp3585
(dp3586
g61
(dp3587
sg70
g3268
sg63
(lp3588
g56
(g77
g58
NtRp3589
(dp3590
g61
(dp3591
g81
g82
ssg70
g3585
sg63
(lp3592
S'headers'
p3593
asbag56
(g77
g58
NtRp3594
(dp3595
g61
(dp3596
g88
g89
ssg70
g3585
sg63
(lp3597
S':'
asbag56
(g77
g58
NtRp3598
(dp3599
g61
(dp3600
sg70
g3585
sg63
(lp3601
g56
(g57
g58
NtRp3602
(dp3603
g61
(dp3604
g69
I5
ssg70
g3598
sg63
(lp3605
g56
(g65
g58
NtRp3606
(dp3607
g61
(dp3608
g69
I4
ssg70
Nsg63
(lp3609
g56
(g72
g58
NtRp3610
(dp3611
g61
(dp3612
sg70
g3606
sg63
(lp3613
g56
(g77
g58
NtRp3614
(dp3615
g61
(dp3616
g81
g82
ssg70
g3610
sg63
(lp3617
S'Cache-Control'
p3618
asbag56
(g77
g58
NtRp3619
(dp3620
g61
(dp3621
g88
g89
ssg70
g3610
sg63
(lp3622
S':'
asbag56
(g77
g58
NtRp3623
(dp3624
g61
(dp3625
sg70
g3610
sg63
(lp3626
g56
(g57
g58
NtRp3627
(dp3628
g61
(dp3629
g69
I4
ssg70
g3623
sg63
(lp3630
S'no-store, no-cache, must-revalidate, post-check=0, pre-check=0'
p3631
asbasbasbag56
(g72
g58
NtRp3632
(dp3633
g61
(dp3634
sg70
g3606
sg63
(lp3635
g56
(g77
g58
NtRp3636
(dp3637
g61
(dp3638
g81
g82
ssg70
g3632
sg63
(lp3639
S'Content-Type'
p3640
asbag56
(g77
g58
NtRp3641
(dp3642
g61
(dp3643
g88
g89
ssg70
g3632
sg63
(lp3644
S':'
asbag56
(g77
g58
NtRp3645
(dp3646
g61
(dp3647
sg70
g3632
sg63
(lp3648
g56
(g57
g58
NtRp3649
(dp3650
g61
(dp3651
g69
I4
ssg70
g3645
sg63
(lp3652
S'text/html; charset=utf-8'
p3653
asbasbasbag56
(g72
g58
NtRp3654
(dp3655
g61
(dp3656
sg70
g3606
sg63
(lp3657
g56
(g77
g58
NtRp3658
(dp3659
g61
(dp3660
g81
g82
ssg70
g3654
sg63
(lp3661
S'Expires'
p3662
asbag56
(g77
g58
NtRp3663
(dp3664
g61
(dp3665
g88
g89
ssg70
g3654
sg63
(lp3666
S':'
asbag56
(g77
g58
NtRp3667
(dp3668
g61
(dp3669
sg70
g3654
sg63
(lp3670
g56
(g57
g58
NtRp3671
(dp3672
g61
(dp3673
g69
I4
ssg70
g3667
sg63
(lp3674
S'Fri, 04 Nov 2011 16:22:50 GMT'
p3675
asbasbasbag56
(g72
g58
NtRp3676
(dp3677
g61
(dp3678
sg70
g3606
sg63
(lp3679
g56
(g77
g58
NtRp3680
(dp3681
g61
(dp3682
g81
g82
ssg70
g3676
sg63
(lp3683
S'Pragma'
p3684
asbag56
(g77
g58
NtRp3685
(dp3686
g61
(dp3687
g88
g89
ssg70
g3676
sg63
(lp3688
S':'
asbag56
(g77
g58
NtRp3689
(dp3690
g61
(dp3691
sg70
g3676
sg63
(lp3692
g56
(g57
g58
NtRp3693
(dp3694
g61
(dp3695
g69
I4
ssg70
g3689
sg63
(lp3696
S'no-cache'
p3697
asbasbasbag56
(g72
g58
NtRp3698
(dp3699
g61
(dp3700
sg70
g3606
sg63
(lp3701
g56
(g77
g58
NtRp3702
(dp3703
g61
(dp3704
g81
g82
ssg70
g3698
sg63
(lp3705
S'X-Powered-By'
p3706
asbag56
(g77
g58
NtRp3707
(dp3708
g61
(dp3709
g88
g89
ssg70
g3698
sg63
(lp3710
S':'
asbag56
(g77
g58
NtRp3711
(dp3712
g61
(dp3713
sg70
g3698
sg63
(lp3714
g56
(g57
g58
NtRp3715
(dp3716
g61
(dp3717
g69
I4
ssg70
g3711
sg63
(lp3718
S'web2py'
p3719
asbasbasbasbasbasbasbag56
(g72
g58
NtRp3720
(dp3721
g61
(dp3722
sg70
g3268
sg63
(lp3723
g56
(g77
g58
NtRp3724
(dp3725
g61
(dp3726
g81
g82
ssg70
g3720
sg63
(lp3727
S'menu'
p3728
asbag56
(g77
g58
NtRp3729
(dp3730
g61
(dp3731
g88
g89
ssg70
g3720
sg63
(lp3732
S':'
asbag56
(g77
g58
NtRp3733
(dp3734
g61
(dp3735
sg70
g3720
sg63
(lp3736
g56
(g57
g58
NtRp3737
(dp3738
g61
(dp3739
g69
I5
ssg70
g3733
sg63
(lp3740
g56
(g65
g58
NtRp3741
(dp3742
g61
(dp3743
g69
I4
ssg70
Nsg63
(lp3744
g56
(g72
g58
NtRp3745
(dp3746
g61
(dp3747
sg70
g3741
sg63
(lp3748
g56
(g77
g58
NtRp3749
(dp3750
g61
(dp3751
sg70
g3745
sg63
(lp3752
g56
(g57
g58
NtRp3753
(dp3754
g61
(dp3755
g69
I4
ssg70
g3749
sg63
(lp3756
g56
(g65
g58
NtRp3757
(dp3758
g61
(dp3759
g69
I3
ssg70
Nsg63
(lp3760
g56
(g72
g58
NtRp3761
(dp3762
g61
(dp3763
sg70
g3757
sg63
(lp3764
g56
(g77
g58
NtRp3765
(dp3766
g61
(dp3767
sg70
g3761
sg63
(lp3768
g56
(g57
g58
NtRp3769
(dp3770
g61
(dp3771
g69
I3
ssg70
g3765
sg63
(lp3772
cgluon.languages
lazyT_unpickle
p3773
(S't\x04\x00\x00\x00Home'
tRp3774
asbasbasbag56
(g72
g58
NtRp3775
(dp3776
g61
(dp3777
sg70
g3757
sg63
(lp3778
g56
(g77
g58
NtRp3779
(dp3780
g61
(dp3781
sg70
g3775
sg63
(lp3782
g56
(g57
g58
NtRp3783
(dp3784
g61
(dp3785
g69
I3
ssg70
g3779
sg63
(lp3786
g99
asbasbasbag56
(g72
g58
NtRp3787
(dp3788
g61
(dp3789
sg70
g3757
sg63
(lp3790
g56
(g77
g58
NtRp3791
(dp3792
g61
(dp3793
sg70
g3787
sg63
(lp3794
g56
(g57
g58
NtRp3795
(dp3796
g61
(dp3797
g69
I3
ssg70
g3791
sg63
(lp3798
S'/init/default/index'
p3799
asbasbasbag56
(g72
g58
NtRp3800
(dp3801
g61
(dp3802
sg70
g3757
sg63
(lp3803
g56
(g77
g58
NtRp3804
(dp3805
g61
(dp3806
sg70
g3800
sg63
(lp3807
g56
(g57
g58
NtRp3808
(dp3809
g61
(dp3810
g69
I3
ssg70
g3804
sg63
(lp3811
g56
(g65
g58
NtRp3812
(dp3813
g61
(dp3814
g69
I2
ssg70
Nsg63
(lp3815
sbasbasbasbasbasbasbasbag56
(g72
g58
NtRp3816
(dp3817
g61
(dp3818
sg70
g3741
sg63
(lp3819
g56
(g77
g58
NtRp3820
(dp3821
g61
(dp3822
sg70
g3816
sg63
(lp3823
g56
(g57
g58
NtRp3824
(dp3825
g61
(dp3826
g69
I4
ssg70
g3820
sg63
(lp3827
g56
(g65
g58
NtRp3828
(dp3829
g61
(dp3830
g69
I3
ssg70
Nsg63
(lp3831
g56
(g72
g58
NtRp3832
(dp3833
g61
(dp3834
sg70
g3828
sg63
(lp3835
g56
(g77
g58
NtRp3836
(dp3837
g61
(dp3838
sg70
g3832
sg63
(lp3839
g56
(g57
g58
NtRp3840
(dp3841
g61
(dp3842
g69
I3
ssg70
g3836
sg63
(lp3843
g3773
(S's\x08\x00\x00\x00This App'
tRp3844
asbasbasbag56
(g72
g58
NtRp3845
(dp3846
g61
(dp3847
sg70
g3828
sg63
(lp3848
g56
(g77
g58
NtRp3849
(dp3850
g61
(dp3851
sg70
g3845
sg63
(lp3852
g56
(g57
g58
NtRp3853
(dp3854
g61
(dp3855
g69
I3
ssg70
g3849
sg63
(lp3856
g99
asbasbasbag56
(g72
g58
NtRp3857
(dp3858
g61
(dp3859
sg70
g3828
sg63
(lp3860
g56
(g77
g58
NtRp3861
(dp3862
g61
(dp3863
sg70
g3857
sg63
(lp3864
g56
(g57
g58
NtRp3865
(dp3866
g61
(dp3867
g69
I3
ssg70
g3861
sg63
(lp3868
S'/admin/default/design/init'
p3869
asbasbasbag56
(g72
g58
NtRp3870
(dp3871
g61
(dp3872
sg70
g3828
sg63
(lp3873
g56
(g77
g58
NtRp3874
(dp3875
g61
(dp3876
sg70
g3870
sg63
(lp3877
g56
(g57
g58
NtRp3878
(dp3879
g61
(dp3880
g69
I3
ssg70
g3874
sg63
(lp3881
g56
(g65
g58
NtRp3882
(dp3883
g61
(dp3884
g69
I2
ssg70
Nsg63
(lp3885
g56
(g72
g58
NtRp3886
(dp3887
g61
(dp3888
sg70
g3882
sg63
(lp3889
g56
(g77
g58
NtRp3890
(dp3891
g61
(dp3892
sg70
g3886
sg63
(lp3893
g56
(g57
g58
NtRp3894
(dp3895
g61
(dp3896
g69
I2
ssg70
g3890
sg63
(lp3897
g56
(g65
g58
NtRp3898
(dp3899
g61
(dp3900
g69
I1
ssg70
Nsg63
(lp3901
g56
(g72
g58
NtRp3902
(dp3903
g61
(dp3904
sg70
g3898
sg63
(lp3905
g56
(g77
g58
NtRp3906
(dp3907
g61
(dp3908
sg70
g3902
sg63
(lp3909
g56
(g57
g58
NtRp3910
(dp3911
g61
(dp3912
g69
I1
ssg70
g3906
sg63
(lp3913
g3773
(S't\n\x00\x00\x00Controller'
tRp3914
asbasbasbag56
(g72
g58
NtRp3915
(dp3916
g61
(dp3917
sg70
g3898
sg63
(lp3918
g56
(g77
g58
NtRp3919
(dp3920
g61
(dp3921
sg70
g3915
sg63
(lp3922
g56
(g57
g58
NtRp3923
(dp3924
g61
(dp3925
g69
I1
ssg70
g3919
sg63
(lp3926
I00
asbasbasbag56
(g72
g58
NtRp3927
(dp3928
g61
(dp3929
sg70
g3898
sg63
(lp3930
g56
(g77
g58
NtRp3931
(dp3932
g61
(dp3933
sg70
g3927
sg63
(lp3934
g56
(g57
g58
NtRp3935
(dp3936
g61
(dp3937
g69
I1
ssg70
g3931
sg63
(lp3938
S'/admin/default/edit/init/controllers/default.py'
p3939
asbasbasbasbasbasbasbag56
(g72
g58
NtRp3940
(dp3941
g61
(dp3942
sg70
g3882
sg63
(lp3943
g56
(g77
g58
NtRp3944
(dp3945
g61
(dp3946
sg70
g3940
sg63
(lp3947
g56
(g57
g58
NtRp3948
(dp3949
g61
(dp3950
g69
I2
ssg70
g3944
sg63
(lp3951
g56
(g65
g58
NtRp3952
(dp3953
g61
(dp3954
g69
I1
ssg70
Nsg63
(lp3955
g56
(g72
g58
NtRp3956
(dp3957
g61
(dp3958
sg70
g3952
sg63
(lp3959
g56
(g77
g58
NtRp3960
(dp3961
g61
(dp3962
sg70
g3956
sg63
(lp3963
g56
(g57
g58
NtRp3964
(dp3965
g61
(dp3966
g69
I1
ssg70
g3960
sg63
(lp3967
g3773
(S't\x04\x00\x00\x00View'
tRp3968
asbasbasbag56
(g72
g58
NtRp3969
(dp3970
g61
(dp3971
sg70
g3952
sg63
(lp3972
g56
(g77
g58
NtRp3973
(dp3974
g61
(dp3975
sg70
g3969
sg63
(lp3976
g56
(g57
g58
NtRp3977
(dp3978
g61
(dp3979
g69
I1
ssg70
g3973
sg63
(lp3980
I00
asbasbasbag56
(g72
g58
NtRp3981
(dp3982
g61
(dp3983
sg70
g3952
sg63
(lp3984
g56
(g77
g58
NtRp3985
(dp3986
g61
(dp3987
sg70
g3981
sg63
(lp3988
g56
(g57
g58
NtRp3989
(dp3990
g61
(dp3991
g69
I1
ssg70
g3985
sg63
(lp3992
S'/admin/default/edit/init/views/default/home.html'
p3993
asbasbasbasbasbasbasbag56
(g72
g58
NtRp3994
(dp3995
g61
(dp3996
sg70
g3882
sg63
(lp3997
g56
(g77
g58
NtRp3998
(dp3999
g61
(dp4000
sg70
g3994
sg63
(lp4001
g56
(g57
g58
NtRp4002
(dp4003
g61
(dp4004
g69
I2
ssg70
g3998
sg63
(lp4005
g56
(g65
g58
NtRp4006
(dp4007
g61
(dp4008
g69
I1
ssg70
Nsg63
(lp4009
g56
(g72
g58
NtRp4010
(dp4011
g61
(dp4012
sg70
g4006
sg63
(lp4013
g56
(g77
g58
NtRp4014
(dp4015
g61
(dp4016
sg70
g4010
sg63
(lp4017
g56
(g57
g58
NtRp4018
(dp4019
g61
(dp4020
g69
I1
ssg70
g4014
sg63
(lp4021
g3773
(S't\x06\x00\x00\x00Layout'
tRp4022
asbasbasbag56
(g72
g58
NtRp4023
(dp4024
g61
(dp4025
sg70
g4006
sg63
(lp4026
g56
(g77
g58
NtRp4027
(dp4028
g61
(dp4029
sg70
g4023
sg63
(lp4030
g56
(g57
g58
NtRp4031
(dp4032
g61
(dp4033
g69
I1
ssg70
g4027
sg63
(lp4034
I00
asbasbasbag56
(g72
g58
NtRp4035
(dp4036
g61
(dp4037
sg70
g4006
sg63
(lp4038
g56
(g77
g58
NtRp4039
(dp4040
g61
(dp4041
sg70
g4035
sg63
(lp4042
g56
(g57
g58
NtRp4043
(dp4044
g61
(dp4045
g69
I1
ssg70
g4039
sg63
(lp4046
S'/admin/default/edit/init/views/layout.html'
p4047
asbasbasbasbasbasbasbag56
(g72
g58
NtRp4048
(dp4049
g61
(dp4050
sg70
g3882
sg63
(lp4051
g56
(g77
g58
NtRp4052
(dp4053
g61
(dp4054
sg70
g4048
sg63
(lp4055
g56
(g57
g58
NtRp4056
(dp4057
g61
(dp4058
g69
I2
ssg70
g4052
sg63
(lp4059
g56
(g65
g58
NtRp4060
(dp4061
g61
(dp4062
g69
I1
ssg70
Nsg63
(lp4063
g56
(g72
g58
NtRp4064
(dp4065
g61
(dp4066
sg70
g4060
sg63
(lp4067
g56
(g77
g58
NtRp4068
(dp4069
g61
(dp4070
sg70
g4064
sg63
(lp4071
g56
(g57
g58
NtRp4072
(dp4073
g61
(dp4074
g69
I1
ssg70
g4068
sg63
(lp4075
g3773
(S't\n\x00\x00\x00Stylesheet'
tRp4076
asbasbasbag56
(g72
g58
NtRp4077
(dp4078
g61
(dp4079
sg70
g4060
sg63
(lp4080
g56
(g77
g58
NtRp4081
(dp4082
g61
(dp4083
sg70
g4077
sg63
(lp4084
g56
(g57
g58
NtRp4085
(dp4086
g61
(dp4087
g69
I1
ssg70
g4081
sg63
(lp4088
I00
asbasbasbag56
(g72
g58
NtRp4089
(dp4090
g61
(dp4091
sg70
g4060
sg63
(lp4092
g56
(g77
g58
NtRp4093
(dp4094
g61
(dp4095
sg70
g4089
sg63
(lp4096
g56
(g57
g58
NtRp4097
(dp4098
g61
(dp4099
g69
I1
ssg70
g4093
sg63
(lp4100
S'/admin/default/edit/init/static/base.css'
p4101
asbasbasbasbasbasbasbag56
(g72
g58
NtRp4102
(dp4103
g61
(dp4104
sg70
g3882
sg63
(lp4105
g56
(g77
g58
NtRp4106
(dp4107
g61
(dp4108
sg70
g4102
sg63
(lp4109
g56
(g57
g58
NtRp4110
(dp4111
g61
(dp4112
g69
I2
ssg70
g4106
sg63
(lp4113
g56
(g65
g58
NtRp4114
(dp4115
g61
(dp4116
g69
I1
ssg70
Nsg63
(lp4117
g56
(g72
g58
NtRp4118
(dp4119
g61
(dp4120
sg70
g4114
sg63
(lp4121
g56
(g77
g58
NtRp4122
(dp4123
g61
(dp4124
sg70
g4118
sg63
(lp4125
g56
(g57
g58
NtRp4126
(dp4127
g61
(dp4128
g69
I1
ssg70
g4122
sg63
(lp4129
g3773
(S's\x08\x00\x00\x00DB Model'
tRp4130
asbasbasbag56
(g72
g58
NtRp4131
(dp4132
g61
(dp4133
sg70
g4114
sg63
(lp4134
g56
(g77
g58
NtRp4135
(dp4136
g61
(dp4137
sg70
g4131
sg63
(lp4138
g56
(g57
g58
NtRp4139
(dp4140
g61
(dp4141
g69
I1
ssg70
g4135
sg63
(lp4142
I00
asbasbasbag56
(g72
g58
NtRp4143
(dp4144
g61
(dp4145
sg70
g4114
sg63
(lp4146
g56
(g77
g58
NtRp4147
(dp4148
g61
(dp4149
sg70
g4143
sg63
(lp4150
g56
(g57
g58
NtRp4151
(dp4152
g61
(dp4153
g69
I1
ssg70
g4147
sg63
(lp4154
S'/admin/default/edit/init/models/db.py'
p4155
asbasbasbasbasbasbasbag56
(g72
g58
NtRp4156
(dp4157
g61
(dp4158
sg70
g3882
sg63
(lp4159
g56
(g77
g58
NtRp4160
(dp4161
g61
(dp4162
sg70
g4156
sg63
(lp4163
g56
(g57
g58
NtRp4164
(dp4165
g61
(dp4166
g69
I2
ssg70
g4160
sg63
(lp4167
g56
(g65
g58
NtRp4168
(dp4169
g61
(dp4170
g69
I1
ssg70
Nsg63
(lp4171
g56
(g72
g58
NtRp4172
(dp4173
g61
(dp4174
sg70
g4168
sg63
(lp4175
g56
(g77
g58
NtRp4176
(dp4177
g61
(dp4178
sg70
g4172
sg63
(lp4179
g56
(g57
g58
NtRp4180
(dp4181
g61
(dp4182
g69
I1
ssg70
g4176
sg63
(lp4183
g3773
(S's\n\x00\x00\x00Menu Model'
tRp4184
asbasbasbag56
(g72
g58
NtRp4185
(dp4186
g61
(dp4187
sg70
g4168
sg63
(lp4188
g56
(g77
g58
NtRp4189
(dp4190
g61
(dp4191
sg70
g4185
sg63
(lp4192
g56
(g57
g58
NtRp4193
(dp4194
g61
(dp4195
g69
I1
ssg70
g4189
sg63
(lp4196
I00
asbasbasbag56
(g72
g58
NtRp4197
(dp4198
g61
(dp4199
sg70
g4168
sg63
(lp4200
g56
(g77
g58
NtRp4201
(dp4202
g61
(dp4203
sg70
g4197
sg63
(lp4204
g56
(g57
g58
NtRp4205
(dp4206
g61
(dp4207
g69
I1
ssg70
g4201
sg63
(lp4208
S'/admin/default/edit/init/models/menu.py'
p4209
asbasbasbasbasbasbasbag56
(g72
g58
NtRp4210
(dp4211
g61
(dp4212
sg70
g3882
sg63
(lp4213
g56
(g77
g58
NtRp4214
(dp4215
g61
(dp4216
sg70
g4210
sg63
(lp4217
g56
(g57
g58
NtRp4218
(dp4219
g61
(dp4220
g69
I2
ssg70
g4214
sg63
(lp4221
g56
(g65
g58
NtRp4222
(dp4223
g61
(dp4224
g69
I1
ssg70
Nsg63
(lp4225
g56
(g72
g58
NtRp4226
(dp4227
g61
(dp4228
sg70
g4222
sg63
(lp4229
g56
(g77
g58
NtRp4230
(dp4231
g61
(dp4232
sg70
g4226
sg63
(lp4233
g56
(g57
g58
NtRp4234
(dp4235
g61
(dp4236
g69
I1
ssg70
g4230
sg63
(lp4237
g3773
(S't\x08\x00\x00\x00Database'
tRp4238
asbasbasbag56
(g72
g58
NtRp4239
(dp4240
g61
(dp4241
sg70
g4222
sg63
(lp4242
g56
(g77
g58
NtRp4243
(dp4244
g61
(dp4245
sg70
g4239
sg63
(lp4246
g56
(g57
g58
NtRp4247
(dp4248
g61
(dp4249
g69
I1
ssg70
g4243
sg63
(lp4250
I00
asbasbasbag56
(g72
g58
NtRp4251
(dp4252
g61
(dp4253
sg70
g4222
sg63
(lp4254
g56
(g77
g58
NtRp4255
(dp4256
g61
(dp4257
sg70
g4251
sg63
(lp4258
g56
(g57
g58
NtRp4259
(dp4260
g61
(dp4261
g69
I1
ssg70
g4255
sg63
(lp4262
S'/init/appadmin/index'
p4263
asbasbasbasbasbasbasbag56
(g72
g58
NtRp4264
(dp4265
g61
(dp4266
sg70
g3882
sg63
(lp4267
g56
(g77
g58
NtRp4268
(dp4269
g61
(dp4270
sg70
g4264
sg63
(lp4271
g56
(g57
g58
NtRp4272
(dp4273
g61
(dp4274
g69
I2
ssg70
g4268
sg63
(lp4275
g56
(g65
g58
NtRp4276
(dp4277
g61
(dp4278
g69
I1
ssg70
Nsg63
(lp4279
g56
(g72
g58
NtRp4280
(dp4281
g61
(dp4282
sg70
g4276
sg63
(lp4283
g56
(g77
g58
NtRp4284
(dp4285
g61
(dp4286
sg70
g4280
sg63
(lp4287
g56
(g57
g58
NtRp4288
(dp4289
g61
(dp4290
g69
I1
ssg70
g4284
sg63
(lp4291
g3773
(S't\x06\x00\x00\x00Errors'
tRp4292
asbasbasbag56
(g72
g58
NtRp4293
(dp4294
g61
(dp4295
sg70
g4276
sg63
(lp4296
g56
(g77
g58
NtRp4297
(dp4298
g61
(dp4299
sg70
g4293
sg63
(lp4300
g56
(g57
g58
NtRp4301
(dp4302
g61
(dp4303
g69
I1
ssg70
g4297
sg63
(lp4304
I00
asbasbasbag56
(g72
g58
NtRp4305
(dp4306
g61
(dp4307
sg70
g4276
sg63
(lp4308
g56
(g77
g58
NtRp4309
(dp4310
g61
(dp4311
sg70
g4305
sg63
(lp4312
g56
(g57
g58
NtRp4313
(dp4314
g61
(dp4315
g69
I1
ssg70
g4309
sg63
(lp4316
S'/admin/default/errors/init'
p4317
asbasbasbasbasbasbasbag56
(g72
g58
NtRp4318
(dp4319
g61
(dp4320
sg70
g3882
sg63
(lp4321
g56
(g77
g58
NtRp4322
(dp4323
g61
(dp4324
sg70
g4318
sg63
(lp4325
g56
(g57
g58
NtRp4326
(dp4327
g61
(dp4328
g69
I2
ssg70
g4322
sg63
(lp4329
g56
(g65
g58
NtRp4330
(dp4331
g61
(dp4332
g69
I1
ssg70
Nsg63
(lp4333
g56
(g72
g58
NtRp4334
(dp4335
g61
(dp4336
sg70
g4330
sg63
(lp4337
g56
(g77
g58
NtRp4338
(dp4339
g61
(dp4340
sg70
g4334
sg63
(lp4341
g56
(g57
g58
NtRp4342
(dp4343
g61
(dp4344
g69
I1
ssg70
g4338
sg63
(lp4345
g3773
(S't\x05\x00\x00\x00About'
tRp4346
asbasbasbag56
(g72
g58
NtRp4347
(dp4348
g61
(dp4349
sg70
g4330
sg63
(lp4350
g56
(g77
g58
NtRp4351
(dp4352
g61
(dp4353
sg70
g4347
sg63
(lp4354
g56
(g57
g58
NtRp4355
(dp4356
g61
(dp4357
g69
I1
ssg70
g4351
sg63
(lp4358
I00
asbasbasbag56
(g72
g58
NtRp4359
(dp4360
g61
(dp4361
sg70
g4330
sg63
(lp4362
g56
(g77
g58
NtRp4363
(dp4364
g61
(dp4365
sg70
g4359
sg63
(lp4366
g56
(g57
g58
NtRp4367
(dp4368
g61
(dp4369
g69
I1
ssg70
g4363
sg63
(lp4370
S'/admin/default/about/init'
p4371
asbasbasbasbasbasbasbasbasbasbasbasbasbasbasbag56
(g72
g58
NtRp4372
(dp4373
g61
(dp4374
sg70
g3741
sg63
(lp4375
g56
(g77
g58
NtRp4376
(dp4377
g61
(dp4378
sg70
g4372
sg63
(lp4379
g56
(g57
g58
NtRp4380
(dp4381
g61
(dp4382
g69
I4
ssg70
g4376
sg63
(lp4383
g56
(g65
g58
NtRp4384
(dp4385
g61
(dp4386
g69
I3
ssg70
Nsg63
(lp4387
g56
(g72
g58
NtRp4388
(dp4389
g61
(dp4390
sg70
g4384
sg63
(lp4391
g56
(g77
g58
NtRp4392
(dp4393
g61
(dp4394
sg70
g4388
sg63
(lp4395
g56
(g57
g58
NtRp4396
(dp4397
g61
(dp4398
g69
I3
ssg70
g4392
sg63
(lp4399
g3773
(S't\t\x00\x00\x00Resources'
tRp4400
asbasbasbag56
(g72
g58
NtRp4401
(dp4402
g61
(dp4403
sg70
g4384
sg63
(lp4404
g56
(g77
g58
NtRp4405
(dp4406
g61
(dp4407
sg70
g4401
sg63
(lp4408
g56
(g57
g58
NtRp4409
(dp4410
g61
(dp4411
g69
I3
ssg70
g4405
sg63
(lp4412
g99
asbasbasbag56
(g72
g58
NtRp4413
(dp4414
g61
(dp4415
sg70
g4384
sg63
(lp4416
g56
(g77
g58
NtRp4417
(dp4418
g61
(dp4419
sg70
g4413
sg63
(lp4420
g56
(g57
g58
NtRp4421
(dp4422
g61
(dp4423
g69
I3
ssg70
g4417
sg63
(lp4424
S'None'
p4425
asbasbasbag56
(g72
g58
NtRp4426
(dp4427
g61
(dp4428
sg70
g4384
sg63
(lp4429
g56
(g77
g58
NtRp4430
(dp4431
g61
(dp4432
sg70
g4426
sg63
(lp4433
g56
(g57
g58
NtRp4434
(dp4435
g61
(dp4436
g69
I3
ssg70
g4430
sg63
(lp4437
g56
(g65
g58
NtRp4438
(dp4439
g61
(dp4440
g69
I2
ssg70
Nsg63
(lp4441
g56
(g72
g58
NtRp4442
(dp4443
g61
(dp4444
sg70
g4438
sg63
(lp4445
g56
(g77
g58
NtRp4446
(dp4447
g61
(dp4448
sg70
g4442
sg63
(lp4449
g56
(g57
g58
NtRp4450
(dp4451
g61
(dp4452
g69
I2
ssg70
g4446
sg63
(lp4453
g56
(g65
g58
NtRp4454
(dp4455
g61
(dp4456
g69
I1
ssg70
Nsg63
(lp4457
g56
(g72
g58
NtRp4458
(dp4459
g61
(dp4460
sg70
g4454
sg63
(lp4461
g56
(g77
g58
NtRp4462
(dp4463
g61
(dp4464
sg70
g4458
sg63
(lp4465
g56
(g57
g58
NtRp4466
(dp4467
g61
(dp4468
g69
I1
ssg70
g4462
sg63
(lp4469
g3773
(S't\r\x00\x00\x00Documentation'
tRp4470
asbasbasbag56
(g72
g58
NtRp4471
(dp4472
g61
(dp4473
sg70
g4454
sg63
(lp4474
g56
(g77
g58
NtRp4475
(dp4476
g61
(dp4477
sg70
g4471
sg63
(lp4478
g56
(g57
g58
NtRp4479
(dp4480
g61
(dp4481
g69
I1
ssg70
g4475
sg63
(lp4482
I00
asbasbasbag56
(g72
g58
NtRp4483
(dp4484
g61
(dp4485
sg70
g4454
sg63
(lp4486
g56
(g77
g58
NtRp4487
(dp4488
g61
(dp4489
sg70
g4483
sg63
(lp4490
g56
(g57
g58
NtRp4491
(dp4492
g61
(dp4493
g69
I1
ssg70
g4487
sg63
(lp4494
S'http://www.web2py.com/book'
p4495
asbasbasbag56
(g72
g58
NtRp4496
(dp4497
g61
(dp4498
sg70
g4454
sg63
(lp4499
g56
(g77
g58
NtRp4500
(dp4501
g61
(dp4502
sg70
g4496
sg63
(lp4503
g56
(g57
g58
NtRp4504
(dp4505
g61
(dp4506
g69
I1
ssg70
g4500
sg63
(lp4507
(lp4508
(g3773
(S't\x07\x00\x00\x00Preface'
tRp4509
I00
S'http://www.web2py.com/book/default/chapter/00'
p4510
tp4511
a(g3773
(S't\x0c\x00\x00\x00Introduction'
tRp4512
I00
S'http://www.web2py.com/book/default/chapter/01'
p4513
tp4514
a(g3773
(S't\x06\x00\x00\x00Python'
tRp4515
I00
S'http://www.web2py.com/book/default/chapter/02'
p4516
tp4517
a(g3773
(S't\x08\x00\x00\x00Overview'
tRp4518
I00
S'http://www.web2py.com/book/default/chapter/03'
p4519
tp4520
a(g3773
(S's\x08\x00\x00\x00The Core'
tRp4521
I00
S'http://www.web2py.com/book/default/chapter/04'
p4522
tp4523
a(g3773
(S's\t\x00\x00\x00The Views'
tRp4524
I00
S'http://www.web2py.com/book/default/chapter/05'
p4525
tp4526
a(g3773
(S't\x08\x00\x00\x00Database'
tRp4527
I00
S'http://www.web2py.com/book/default/chapter/06'
p4528
tp4529
a(g3773
(S's\x14\x00\x00\x00Forms and Validators'
tRp4530
I00
S'http://www.web2py.com/book/default/chapter/07'
p4531
tp4532
a(g3773
(S's\x0e\x00\x00\x00Access Control'
tRp4533
I00
S'http://www.web2py.com/book/default/chapter/08'
p4534
tp4535
a(g3773
(S't\x08\x00\x00\x00Services'
tRp4536
I00
S'http://www.web2py.com/book/default/chapter/09'
p4537
tp4538
a(g3773
(S's\x0c\x00\x00\x00Ajax Recipes'
tRp4539
I00
S'http://www.web2py.com/book/default/chapter/10'
p4540
tp4541
a(g3773
(S's\x12\x00\x00\x00Deployment Recipes'
tRp4542
I00
S'http://www.web2py.com/book/default/chapter/11'
p4543
tp4544
a(g3773
(S's\r\x00\x00\x00Other Recipes'
tRp4545
I00
S'http://www.web2py.com/book/default/chapter/12'
p4546
tp4547
a(g3773
(S's\r\x00\x00\x00Buy this book'
tRp4548
I00
S'http://stores.lulu.com/web2py'
p4549
tp4550
aasbasbasbasbasbasbasbag56
(g72
g58
NtRp4551
(dp4552
g61
(dp4553
sg70
g4438
sg63
(lp4554
g56
(g77
g58
NtRp4555
(dp4556
g61
(dp4557
sg70
g4551
sg63
(lp4558
g56
(g57
g58
NtRp4559
(dp4560
g61
(dp4561
g69
I2
ssg70
g4555
sg63
(lp4562
g56
(g65
g58
NtRp4563
(dp4564
g61
(dp4565
g69
I1
ssg70
Nsg63
(lp4566
g56
(g72
g58
NtRp4567
(dp4568
g61
(dp4569
sg70
g4563
sg63
(lp4570
g56
(g77
g58
NtRp4571
(dp4572
g61
(dp4573
sg70
g4567
sg63
(lp4574
g56
(g57
g58
NtRp4575
(dp4576
g61
(dp4577
g69
I1
ssg70
g4571
sg63
(lp4578
g3773
(S't\t\x00\x00\x00Community'
tRp4579
asbasbasbag56
(g72
g58
NtRp4580
(dp4581
g61
(dp4582
sg70
g4563
sg63
(lp4583
g56
(g77
g58
NtRp4584
(dp4585
g61
(dp4586
sg70
g4580
sg63
(lp4587
g56
(g57
g58
NtRp4588
(dp4589
g61
(dp4590
g69
I1
ssg70
g4584
sg63
(lp4591
I00
asbasbasbag56
(g72
g58
NtRp4592
(dp4593
g61
(dp4594
sg70
g4563
sg63
(lp4595
g56
(g77
g58
NtRp4596
(dp4597
g61
(dp4598
sg70
g4592
sg63
(lp4599
g56
(g57
g58
NtRp4600
(dp4601
g61
(dp4602
g69
I1
ssg70
g4596
sg63
(lp4603
Nasbasbasbag56
(g72
g58
NtRp4604
(dp4605
g61
(dp4606
sg70
g4563
sg63
(lp4607
g56
(g77
g58
NtRp4608
(dp4609
g61
(dp4610
sg70
g4604
sg63
(lp4611
g56
(g57
g58
NtRp4612
(dp4613
g61
(dp4614
g69
I1
ssg70
g4608
sg63
(lp4615
(lp4616
(g3773
(S't\x06\x00\x00\x00Groups'
tRp4617
I00
S'http://www.web2py.com/examples/default/usergroups'
p4618
tp4619
a(g3773
(S't\x07\x00\x00\x00Twitter'
tRp4620
I00
S'http://twitter.com/web2py'
p4621
tp4622
a(g3773
(S's\t\x00\x00\x00Live chat'
tRp4623
I00
S'http://mibbit.com/?channel=%23web2py&server=irc.mibbit.net'
p4624
tp4625
a(g3773
(S's\n\x00\x00\x00User Voice'
tRp4626
I00
S'http://web2py.uservoice.com/'
p4627
tp4628
aasbasbasbasbasbasbasbag56
(g72
g58
NtRp4629
(dp4630
g61
(dp4631
sg70
g4438
sg63
(lp4632
g56
(g77
g58
NtRp4633
(dp4634
g61
(dp4635
sg70
g4629
sg63
(lp4636
g56
(g57
g58
NtRp4637
(dp4638
g61
(dp4639
g69
I2
ssg70
g4633
sg63
(lp4640
g56
(g65
g58
NtRp4641
(dp4642
g61
(dp4643
g69
I1
ssg70
Nsg63
(lp4644
g56
(g72
g58
NtRp4645
(dp4646
g61
(dp4647
sg70
g4641
sg63
(lp4648
g56
(g77
g58
NtRp4649
(dp4650
g61
(dp4651
sg70
g4645
sg63
(lp4652
g56
(g57
g58
NtRp4653
(dp4654
g61
(dp4655
g69
I1
ssg70
g4649
sg63
(lp4656
g3773
(S't\x06\x00\x00\x00Web2py'
tRp4657
asbasbasbag56
(g72
g58
NtRp4658
(dp4659
g61
(dp4660
sg70
g4641
sg63
(lp4661
g56
(g77
g58
NtRp4662
(dp4663
g61
(dp4664
sg70
g4658
sg63
(lp4665
g56
(g57
g58
NtRp4666
(dp4667
g61
(dp4668
g69
I1
ssg70
g4662
sg63
(lp4669
I00
asbasbasbag56
(g72
g58
NtRp4670
(dp4671
g61
(dp4672
sg70
g4641
sg63
(lp4673
g56
(g77
g58
NtRp4674
(dp4675
g61
(dp4676
sg70
g4670
sg63
(lp4677
g56
(g57
g58
NtRp4678
(dp4679
g61
(dp4680
g69
I1
ssg70
g4674
sg63
(lp4681
S'http://www.web2py.com'
p4682
asbasbasbag56
(g72
g58
NtRp4683
(dp4684
g61
(dp4685
sg70
g4641
sg63
(lp4686
g56
(g77
g58
NtRp4687
(dp4688
g61
(dp4689
sg70
g4683
sg63
(lp4690
g56
(g57
g58
NtRp4691
(dp4692
g61
(dp4693
g69
I1
ssg70
g4687
sg63
(lp4694
(lp4695
(g3773
(S't\x08\x00\x00\x00Download'
tRp4696
I00
S'http://www.web2py.com/examples/default/download'
p4697
tp4698
a(g3773
(S't\x07\x00\x00\x00Support'
tRp4699
I00
S'http://www.web2py.com/examples/default/support'
p4700
tp4701
a(g3773
(S's\x0e\x00\x00\x00Quick Examples'
tRp4702
I00
S'http://web2py.com/examples/default/examples'
p4703
tp4704
a(g3773
(S't\x03\x00\x00\x00FAQ'
tRp4705
I00
S'http://web2py.com/AlterEgo'
p4706
tp4707
a(g3773
(S's\x11\x00\x00\x00Free Applications'
tRp4708
I00
S'http://web2py.com/appliances'
p4709
tp4710
a(g3773
(S't\x07\x00\x00\x00Plugins'
tRp4711
I00
S'http://web2py.com/plugins'
p4712
tp4713
a(g3773
(S't\x07\x00\x00\x00Recipes'
tRp4714
I00
S'http://web2pyslices.com/'
p4715
tp4716
a(g3773
(S't\x04\x00\x00\x00Demo'
tRp4717
I00
S'http://web2py.com/demo_admin'
p4718
tp4719
a(g3773
(S't\x08\x00\x00\x00Semantic'
tRp4720
I00
S'http://web2py.com/semantic'
p4721
tp4722
a(g3773
(S't\x07\x00\x00\x00Layouts'
tRp4723
I00
S'http://web2py.com/layouts'
p4724
tp4725
a(g3773
(S't\x06\x00\x00\x00Videos'
tRp4726
I00
S'http://www.web2py.com/examples/default/videos/'
p4727
tp4728
aasbasbasbasbasbasbasbasbasbasbasbasbasbasbasbasbasbasbasbag56
(g72
g58
NtRp4729
(dp4730
g61
(dp4731
sg70
g3268
sg63
(lp4732
g56
(g77
g58
NtRp4733
(dp4734
g61
(dp4735
g81
g82
ssg70
g4729
sg63
(lp4736
S'meta'
p4737
asbag56
(g77
g58
NtRp4738
(dp4739
g61
(dp4740
g88
g89
ssg70
g4729
sg63
(lp4741
S':'
asbag56
(g77
g58
NtRp4742
(dp4743
g61
(dp4744
sg70
g4729
sg63
(lp4745
g56
(g57
g58
NtRp4746
(dp4747
g61
(dp4748
g69
I5
ssg70
g4742
sg63
(lp4749
g56
(g65
g58
NtRp4750
(dp4751
g61
(dp4752
g69
I4
ssg70
Nsg63
(lp4753
g56
(g72
g58
NtRp4754
(dp4755
g61
(dp4756
sg70
g4750
sg63
(lp4757
g56
(g77
g58
NtRp4758
(dp4759
g61
(dp4760
g81
g82
ssg70
g4754
sg63
(lp4761
S'author'
p4762
asbag56
(g77
g58
NtRp4763
(dp4764
g61
(dp4765
g88
g89
ssg70
g4754
sg63
(lp4766
S':'
asbag56
(g77
g58
NtRp4767
(dp4768
g61
(dp4769
sg70
g4754
sg63
(lp4770
g56
(g57
g58
NtRp4771
(dp4772
g61
(dp4773
g69
I4
ssg70
g4767
sg63
(lp4774
S'Adrian Edwards'
p4775
asbasbasbag56
(g72
g58
NtRp4776
(dp4777
g61
(dp4778
sg70
g4750
sg63
(lp4779
g56
(g77
g58
NtRp4780
(dp4781
g61
(dp4782
g81
g82
ssg70
g4776
sg63
(lp4783
S'copyright'
p4784
asbag56
(g77
g58
NtRp4785
(dp4786
g61
(dp4787
g88
g89
ssg70
g4776
sg63
(lp4788
S':'
asbag56
(g77
g58
NtRp4789
(dp4790
g61
(dp4791
sg70
g4776
sg63
(lp4792
g56
(g57
g58
NtRp4793
(dp4794
g61
(dp4795
g69
I4
ssg70
g4789
sg63
(lp4796
S'Copyright 2011'
p4797
asbasbasbag56
(g72
g58
NtRp4798
(dp4799
g61
(dp4800
sg70
g4750
sg63
(lp4801
g56
(g77
g58
NtRp4802
(dp4803
g61
(dp4804
g81
g82
ssg70
g4798
sg63
(lp4805
S'description'
p4806
asbag56
(g77
g58
NtRp4807
(dp4808
g61
(dp4809
g88
g89
ssg70
g4798
sg63
(lp4810
S':'
asbag56
(g77
g58
NtRp4811
(dp4812
g61
(dp4813
sg70
g4798
sg63
(lp4814
g56
(g57
g58
NtRp4815
(dp4816
g61
(dp4817
g69
I4
ssg70
g4811
sg63
(lp4818
S'Fitness Challenge'
p4819
asbasbasbag56
(g72
g58
NtRp4820
(dp4821
g61
(dp4822
sg70
g4750
sg63
(lp4823
g56
(g77
g58
NtRp4824
(dp4825
g61
(dp4826
g81
g82
ssg70
g4820
sg63
(lp4827
S'generator'
p4828
asbag56
(g77
g58
NtRp4829
(dp4830
g61
(dp4831
g88
g89
ssg70
g4820
sg63
(lp4832
S':'
asbag56
(g77
g58
NtRp4833
(dp4834
g61
(dp4835
sg70
g4820
sg63
(lp4836
g56
(g57
g58
NtRp4837
(dp4838
g61
(dp4839
g69
I4
ssg70
g4833
sg63
(lp4840
S'Web2py Web Framework'
p4841
asbasbasbag56
(g72
g58
NtRp4842
(dp4843
g61
(dp4844
sg70
g4750
sg63
(lp4845
g56
(g77
g58
NtRp4846
(dp4847
g61
(dp4848
g81
g82
ssg70
g4842
sg63
(lp4849
S'keywords'
p4850
asbag56
(g77
g58
NtRp4851
(dp4852
g61
(dp4853
g88
g89
ssg70
g4842
sg63
(lp4854
S':'
asbag56
(g77
g58
NtRp4855
(dp4856
g61
(dp4857
sg70
g4842
sg63
(lp4858
g56
(g57
g58
NtRp4859
(dp4860
g61
(dp4861
g69
I4
ssg70
g4855
sg63
(lp4862
S'web2py, python, framework'
p4863
asbasbasbasbasbasbasbag56
(g72
g58
NtRp4864
(dp4865
g61
(dp4866
sg70
g3268
sg63
(lp4867
g56
(g77
g58
NtRp4868
(dp4869
g61
(dp4870
g81
g82
ssg70
g4864
sg63
(lp4871
S'postprocessing'
p4872
asbag56
(g77
g58
NtRp4873
(dp4874
g61
(dp4875
g88
g89
ssg70
g4864
sg63
(lp4876
S':'
asbag56
(g77
g58
NtRp4877
(dp4878
g61
(dp4879
sg70
g4864
sg63
(lp4880
g56
(g57
g58
NtRp4881
(dp4882
g61
(dp4883
g69
I5
ssg70
g4877
sg63
(lp4884
g56
(g65
g58
NtRp4885
(dp4886
g61
(dp4887
g69
I4
ssg70
Nsg63
(lp4888
sbasbasbasbag56
(g72
g58
NtRp4889
(dp4890
g61
(dp4891
sg70
g3268
sg63
(lp4892
g56
(g77
g58
NtRp4893
(dp4894
g61
(dp4895
g81
g82
ssg70
g4889
sg63
(lp4896
S'session_file'
p4897
asbag56
(g77
g58
NtRp4898
(dp4899
g61
(dp4900
g88
g89
ssg70
g4889
sg63
(lp4901
S':'
asbag56
(g77
g58
NtRp4902
(dp4903
g61
(dp4904
sg70
g4889
sg63
(lp4905
g56
(g57
g58
NtRp4906
(dp4907
g61
(dp4908
g69
I5
ssg70
g4902
sg63
(lp4909
S"<open file 'P:\\Workbench\\DevEnv\\web2py\\applications\\init\\sessions\\127.0.0.1-2ee686ba-d1d2-46bc-bb75-bfad4d4c0c4c', mode 'rb+' at 0x0A36C5A0>"
p4910
asbasbasbag56
(g72
g58
NtRp4911
(dp4912
g61
(dp4913
sg70
g3268
sg63
(lp4914
g56
(g77
g58
NtRp4915
(dp4916
g61
(dp4917
g81
g82
ssg70
g4911
sg63
(lp4918
S'session_filename'
p4919
asbag56
(g77
g58
NtRp4920
(dp4921
g61
(dp4922
g88
g89
ssg70
g4911
sg63
(lp4923
S':'
asbag56
(g77
g58
NtRp4924
(dp4925
g61
(dp4926
sg70
g4911
sg63
(lp4927
g56
(g57
g58
NtRp4928
(dp4929
g61
(dp4930
g69
I5
ssg70
g4924
sg63
(lp4931
S'P:\\Workbench\\DevEnv\\web2py\\applications\\init\\sessions\\127.0.0.1-2ee686ba-d1d2-46bc-bb75-bfad4d4c0c4c'
p4932
asbasbasbag56
(g72
g58
NtRp4933
(dp4934
g61
(dp4935
sg70
g3268
sg63
(lp4936
g56
(g77
g58
NtRp4937
(dp4938
g61
(dp4939
g81
g82
ssg70
g4933
sg63
(lp4940
S'session_id'
p4941
asbag56
(g77
g58
NtRp4942
(dp4943
g61
(dp4944
g88
g89
ssg70
g4933
sg63
(lp4945
S':'
asbag56
(g77
g58
NtRp4946
(dp4947
g61
(dp4948
sg70
g4933
sg63
(lp4949
g56
(g57
g58
NtRp4950
(dp4951
g61
(dp4952
g69
I5
ssg70
g4946
sg63
(lp4953
S'127.0.0.1-2ee686ba-d1d2-46bc-bb75-bfad4d4c0c4c'
p4954
asbasbasbag56
(g72
g58
NtRp4955
(dp4956
g61
(dp4957
sg70
g3268
sg63
(lp4958
g56
(g77
g58
NtRp4959
(dp4960
g61
(dp4961
g81
g82
ssg70
g4955
sg63
(lp4962
S'session_id_name'
p4963
asbag56
(g77
g58
NtRp4964
(dp4965
g61
(dp4966
g88
g89
ssg70
g4955
sg63
(lp4967
S':'
asbag56
(g77
g58
NtRp4968
(dp4969
g61
(dp4970
sg70
g4955
sg63
(lp4971
g56
(g57
g58
NtRp4972
(dp4973
g61
(dp4974
g69
I5
ssg70
g4968
sg63
(lp4975
g3325
asbasbasbag56
(g72
g58
NtRp4976
(dp4977
g61
(dp4978
sg70
g3268
sg63
(lp4979
g56
(g77
g58
NtRp4980
(dp4981
g61
(dp4982
g81
g82
ssg70
g4976
sg63
(lp4983
S'session_locked'
p4984
asbag56
(g77
g58
NtRp4985
(dp4986
g61
(dp4987
g88
g89
ssg70
g4976
sg63
(lp4988
S':'
asbag56
(g77
g58
NtRp4989
(dp4990
g61
(dp4991
sg70
g4976
sg63
(lp4992
g56
(g57
g58
NtRp4993
(dp4994
g61
(dp4995
g69
I5
ssg70
g4989
sg63
(lp4996
g1471
asbasbasbag56
(g72
g58
NtRp4997
(dp4998
g61
(dp4999
sg70
g3268
sg63
(lp5000
g56
(g77
g58
NtRp5001
(dp5002
g61
(dp5003
g81
g82
ssg70
g4997
sg63
(lp5004
S'session_new'
p5005
asbag56
(g77
g58
NtRp5006
(dp5007
g61
(dp5008
g88
g89
ssg70
g4997
sg63
(lp5009
S':'
asbag56
(g77
g58
NtRp5010
(dp5011
g61
(dp5012
sg70
g4997
sg63
(lp5013
g56
(g57
g58
NtRp5014
(dp5015
g61
(dp5016
g69
I5
ssg70
g5010
sg63
(lp5017
g99
asbasbasbag56
(g72
g58
NtRp5018
(dp5019
g61
(dp5020
sg70
g3268
sg63
(lp5021
g56
(g77
g58
NtRp5022
(dp5023
g61
(dp5024
g81
g82
ssg70
g5018
sg63
(lp5025
S'status'
p5026
asbag56
(g77
g58
NtRp5027
(dp5028
g61
(dp5029
g88
g89
ssg70
g5018
sg63
(lp5030
S':'
asbag56
(g77
g58
NtRp5031
(dp5032
g61
(dp5033
sg70
g5018
sg63
(lp5034
g56
(g57
g58
NtRp5035
(dp5036
g61
(dp5037
g69
I5
ssg70
g5031
sg63
(lp5038
S'200'
p5039
asbasbasbag56
(g72
g58
NtRp5040
(dp5041
g61
(dp5042
sg70
g3268
sg63
(lp5043
g56
(g77
g58
NtRp5044
(dp5045
g61
(dp5046
g81
g82
ssg70
g5040
sg63
(lp5047
S'subtitle'
p5048
asbag56
(g77
g58
NtRp5049
(dp5050
g61
(dp5051
g88
g89
ssg70
g5040
sg63
(lp5052
S':'
asbag56
(g77
g58
NtRp5053
(dp5054
g61
(dp5055
sg70
g5040
sg63
(lp5056
g56
(g57
g58
NtRp5057
(dp5058
g61
(dp5059
g69
I5
ssg70
g5053
sg63
(lp5060
g3773
(S's\r\x00\x00\x00customize me!'
tRp5061
asbasbasbag56
(g72
g58
NtRp5062
(dp5063
g61
(dp5064
sg70
g3268
sg63
(lp5065
g56
(g77
g58
NtRp5066
(dp5067
g61
(dp5068
g81
g82
ssg70
g5062
sg63
(lp5069
S'title'
p5070
asbag56
(g77
g58
NtRp5071
(dp5072
g61
(dp5073
g88
g89
ssg70
g5062
sg63
(lp5074
S':'
asbag56
(g77
g58
NtRp5075
(dp5076
g61
(dp5077
sg70
g5062
sg63
(lp5078
g56
(g57
g58
NtRp5079
(dp5080
g61
(dp5081
g69
I5
ssg70
g5075
sg63
(lp5082
g121
asbasbasbag56
(g72
g58
NtRp5083
(dp5084
g61
(dp5085
sg70
g3268
sg63
(lp5086
g56
(g77
g58
NtRp5087
(dp5088
g61
(dp5089
g81
g82
ssg70
g5083
sg63
(lp5090
g2115
asbag56
(g77
g58
NtRp5091
(dp5092
g61
(dp5093
g88
g89
ssg70
g5083
sg63
(lp5094
S':'
asbag56
(g77
g58
NtRp5095
(dp5096
g61
(dp5097
sg70
g5083
sg63
(lp5098
g56
(g57
g58
NtRp5099
(dp5100
g61
(dp5101
g69
I5
ssg70
g5095
sg63
(lp5102
g2128
asbasbasbag56
(g72
g58
NtRp5103
(dp5104
g61
(dp5105
sg70
g3268
sg63
(lp5106
g56
(g77
g58
NtRp5107
(dp5108
g61
(dp5109
g81
g82
ssg70
g5103
sg63
(lp5110
S'view'
p5111
asbag56
(g77
g58
NtRp5112
(dp5113
g61
(dp5114
g88
g89
ssg70
g5103
sg63
(lp5115
S':'
asbag56
(g77
g58
NtRp5116
(dp5117
g61
(dp5118
sg70
g5103
sg63
(lp5119
g56
(g57
g58
NtRp5120
(dp5121
g61
(dp5122
g69
I5
ssg70
g5116
sg63
(lp5123
S'default/home.html'
p5124
asbasbasbasbasbsS'locals'
p5125
(dp5126
ssS'traceback'
p5127
S'Traceback (most recent call last):\n  File "P:\\Workbench\\DevEnv\\web2py\\gluon\\restricted.py", line 192, in restricted\n    exec ccode in environment\n  File "P:\\Workbench\\DevEnv\\web2py\\applications\\init\\controllers/default.py", line 85, in <module>\n  File "P:\\Workbench\\DevEnv\\web2py\\gluon\\globals.py", line 149, in <lambda>\n    self._caller = lambda f: f()\n  File "P:\\Workbench\\DevEnv\\web2py\\gluon\\tools.py", line 2473, in f\n    return action(*a, **b)\n  File "P:\\Workbench\\DevEnv\\web2py\\applications\\init\\controllers/default.py", line 44, in home\n    return dict(URL(r=request, f=\'home\'))\nValueError: dictionary update sequence element #0 has length 1; 2 is required\n'
p5128
s.