(dp1
S'output'
p2
S''
sS'layer'
p3
S'P:\\Workbench\\DevEnv\\web2py\\applications\\init\\views\\default/contact.html'
p4
sS'code'
p5
S'response.write(\'<!DOCTYPE html PUBLIC "-//W3C//DTD XHTML 1.0 Transitional//EN" "http://www.w3.org/TR/xhtml1/DTD/xhtml1-transitional.dtd">\\r\\n\\r\\n<html xmlns="http://www.w3.org/1999/xhtml" xml:lang="en" lang="en">\\r\\n<head>\\r\\n    <meta http-equiv="Content-Type" content="text/html; charset=utf-8" />\\r\\n\\r\\n    <title>Fitness Challenge    </title>\\r\\n\\r\\n    <link rel="stylesheet" type="text/css" media="screen" href="\', escape=False)\nresponse.write(URL(\'static\', \'css/style.css\'))\nresponse.write(\'" />\\r\\n</head>\\r\\n<body>\\r\\n\\r\\n<div id="header">\\r\\n    <div id="headMenu">\\r\\n        <ul>\\r\\n            <li><a class="headMenuHomeSelected" href="\', escape=False)\nresponse.write(URL(r=request,f=\'index\'))\nresponse.write(\'"><span class="verticalAlign">home</span></a></li>\\r\\n            <li><a class="headMenuArticles" href="#"><span class="verticalAlign">challenges</span></a></li>\\r\\n            <li><a class="headMenuContact" href="\', escape=False)\nresponse.write(URL(r=request,f=\'contact\'))\nresponse.write(\'"><span class="verticalAlign">contact</span></a></li>\\r\\n        </ul>\\r\\n    </div>\\r\\n    \\r\\n    <div id="mainTitle">\\r\\n        <h1>Fitness Challenge </h1>\\r\\n        <h3>Step Up To The Challenge</h3>\\r\\n    </div>\\r\\n</div>\\r\\n\\r\\n<div id="content-wrapper">\\r\\n    <div id="content">\\r\\n        <h1 class="titlePage">\', escape=False)\nresponse.write(T( request.args(0).replace(\'_\',\' \').capitalize() ))\nresponse.write(\'</h1>\\r\\n        <div class="post">\\r\\n            <div class="postContent">\\r\\n                \', escape=False)\nresponse.write(\'\\r\\n\\r\\n<form action="#" method="post">\\r\\n    <label for="name">Name: </label> <input class="contactInputText" type="text" id="name" /><br />\\r\\n    <div style="clear:left"></div>\\r\\n    <label for="subject">Subject: </label> <input class="contactInputText" type="text" id="subject" /><br />\\r\\n    <div style="clear:left"></div>\\r\\n    <label for="email">Email: </label> <input class="contactInputText" type="text" id="email" /><br />\\r\\n    <div style="clear:left"></div>\\r\\n    <label for="message">Message: </label> <textarea class="contactTextArea" id="message" rows="8" cols="40"></textarea><br />\\r\\n    <div style="clear:left"></div>\\r\\n    \\r\\n    <input type="submit" class="button" value="Submit" />\\r\\n</form>\\r\\n\', escape=False)\nresponse.write(\'\\r\\n            </div>\\r\\n        </div>\\r\\n    </div>\\r\\n    <div class="clear"></div>\\r\\n</div>\\r\\n\\r\\n<div id="footer">\\r\\n    <ul>\\r\\n        <li><a href="#">home</a> |</li>\\r\\n        <li><a href="#">about us</a> |</li>\\r\\n        <li><a href="#">sitemap</a> |</li>\\r\\n        <li><a href="#">contact</a></li>\\r\\n    </ul>\\r\\n    <p class="copyright"><a href="http://www.florian-hacquebart.eu">florian-hacquebart.eu</a> - free css template</p>\\r\\n    <p class="w3cvalidator">\\r\\n        <a href="http://validator.w3.org/check?uri=referer">\\r\\n            <img src="images/xhtml.png" alt="Valid XHTML 1.0 Transitional" />\\r\\n        </a>&nbsp;\\r\\n        <a href="http://jigsaw.w3.org/css-validator/check/referer">\\r\\n            <img src="images/css.png" alt="Valid CSS!" />\\r\\n        </a>\\r\\n    </p>\\r\\n</div>\\r\\n\\r\\n</body>\\r\\n</html>\\r\\n\', escape=False)'
p6
sS'snapshot'
p7
(dp8
S'exception'
p9
(dp10
S'__hash__'
p11
S"<method-wrapper '__hash__' of exceptions.AttributeError object>"
p12
sS'__setattr__'
p13
S"<method-wrapper '__setattr__' of exceptions.AttributeError object>"
p14
sS'__reduce_ex__'
p15
S'<built-in method __reduce_ex__ of exceptions.AttributeError object>'
p16
sS'__getslice__'
p17
S"<method-wrapper '__getslice__' of exceptions.AttributeError object>"
p18
sS'__getitem__'
p19
S"<method-wrapper '__getitem__' of exceptions.AttributeError object>"
p20
sS'__setstate__'
p21
S'<built-in method __setstate__ of exceptions.AttributeError object>'
p22
sS'__reduce__'
p23
S'<built-in method __reduce__ of exceptions.AttributeError object>'
p24
sS'__str__'
p25
S"<method-wrapper '__str__' of exceptions.AttributeError object>"
p26
sS'__format__'
p27
S'<built-in method __format__ of exceptions.AttributeError object>'
p28
sS'__getattribute__'
p29
S"<method-wrapper '__getattribute__' of exceptions.AttributeError object>"
p30
sS'__class__'
p31
S"<type 'exceptions.AttributeError'>"
p32
sS'__unicode__'
p33
S'<built-in method __unicode__ of exceptions.AttributeError object>'
p34
sS'__delattr__'
p35
S"<method-wrapper '__delattr__' of exceptions.AttributeError object>"
p36
sS'__subclasshook__'
p37
S'<built-in method __subclasshook__ of type object>'
p38
sS'__repr__'
p39
S"<method-wrapper '__repr__' of exceptions.AttributeError object>"
p40
sS'args'
p41
S'("\'NoneType\' object has no attribute \'replace\'",)'
p42
sS'__dict__'
p43
S'{}'
p44
sS'__sizeof__'
p45
S'<built-in method __sizeof__ of exceptions.AttributeError object>'
p46
sS'__doc__'
p47
S"'Attribute not found.'"
p48
sS'__init__'
p49
S"<method-wrapper '__init__' of exceptions.AttributeError object>"
p50
sS'__new__'
p51
S'<built-in method __new__ of type object>'
p52
ssS'evalue'
p53
S"'NoneType' object has no attribute 'replace'"
p54
sS'request'
p55
ccopy_reg
_reconstructor
p56
(cgluon.html
BEAUTIFY
p57
c__builtin__
object
p58
NtRp59
(dp60
S'attributes'
p61
(dp62
sS'components'
p63
(lp64
g56
(cgluon.html
TABLE
p65
g58
NtRp66
(dp67
g61
(dp68
S'level'
p69
I5
ssS'parent'
p70
Nsg63
(lp71
g56
(cgluon.html
TR
p72
g58
NtRp73
(dp74
g61
(dp75
sg70
g66
sg63
(lp76
g56
(cgluon.html
TD
p77
g58
NtRp78
(dp79
g61
(dp80
S'_style'
p81
S'font-weight:bold;vertical-align:top'
p82
ssg70
g73
sg63
(lp83
S'ajax'
p84
asbag56
(g77
g58
NtRp85
(dp86
g61
(dp87
S'_valign'
p88
S'top'
p89
ssg70
g73
sg63
(lp90
S':'
asbag56
(g77
g58
NtRp91
(dp92
g61
(dp93
sg70
g73
sg63
(lp94
g56
(g57
g58
NtRp95
(dp96
g61
(dp97
g69
I5
ssg70
g91
sg63
(lp98
S'False'
p99
asbasbasbag56
(g72
g58
NtRp100
(dp101
g61
(dp102
sg70
g66
sg63
(lp103
g56
(g77
g58
NtRp104
(dp105
g61
(dp106
g81
g82
ssg70
g100
sg63
(lp107
S'application'
p108
asbag56
(g77
g58
NtRp109
(dp110
g61
(dp111
g88
g89
ssg70
g100
sg63
(lp112
S':'
asbag56
(g77
g58
NtRp113
(dp114
g61
(dp115
sg70
g100
sg63
(lp116
g56
(g57
g58
NtRp117
(dp118
g61
(dp119
g69
I5
ssg70
g113
sg63
(lp120
S'init'
p121
asbasbasbag56
(g72
g58
NtRp122
(dp123
g61
(dp124
sg70
g66
sg63
(lp125
g56
(g77
g58
NtRp126
(dp127
g61
(dp128
g81
g82
ssg70
g122
sg63
(lp129
g41
asbag56
(g77
g58
NtRp130
(dp131
g61
(dp132
g88
g89
ssg70
g122
sg63
(lp133
S':'
asbag56
(g77
g58
NtRp134
(dp135
g61
(dp136
sg70
g122
sg63
(lp137
g56
(g57
g58
NtRp138
(dp139
g61
(dp140
g69
I5
ssg70
g134
sg63
(lp141
g56
(g65
g58
NtRp142
(dp143
g61
(dp144
g69
I4
ssg70
Nsg63
(lp145
sbasbasbasbag56
(g72
g58
NtRp146
(dp147
g61
(dp148
sg70
g66
sg63
(lp149
g56
(g77
g58
NtRp150
(dp151
g61
(dp152
g81
g82
ssg70
g146
sg63
(lp153
S'body'
p154
asbag56
(g77
g58
NtRp155
(dp156
g61
(dp157
g88
g89
ssg70
g146
sg63
(lp158
S':'
asbag56
(g77
g58
NtRp159
(dp160
g61
(dp161
sg70
g146
sg63
(lp162
g56
(g57
g58
NtRp163
(dp164
g61
(dp165
g69
I5
ssg70
g159
sg63
(lp166
S'<cStringIO.StringO object at 0x090F9E00>'
p167
asbasbasbag56
(g72
g58
NtRp168
(dp169
g61
(dp170
sg70
g66
sg63
(lp171
g56
(g77
g58
NtRp172
(dp173
g61
(dp174
g81
g82
ssg70
g168
sg63
(lp175
S'client'
p176
asbag56
(g77
g58
NtRp177
(dp178
g61
(dp179
g88
g89
ssg70
g168
sg63
(lp180
S':'
asbag56
(g77
g58
NtRp181
(dp182
g61
(dp183
sg70
g168
sg63
(lp184
g56
(g57
g58
NtRp185
(dp186
g61
(dp187
g69
I5
ssg70
g181
sg63
(lp188
S'127.0.0.1'
p189
asbasbasbag56
(g72
g58
NtRp190
(dp191
g61
(dp192
sg70
g66
sg63
(lp193
g56
(g77
g58
NtRp194
(dp195
g61
(dp196
g81
g82
ssg70
g190
sg63
(lp197
S'controller'
p198
asbag56
(g77
g58
NtRp199
(dp200
g61
(dp201
g88
g89
ssg70
g190
sg63
(lp202
S':'
asbag56
(g77
g58
NtRp203
(dp204
g61
(dp205
sg70
g190
sg63
(lp206
g56
(g57
g58
NtRp207
(dp208
g61
(dp209
g69
I5
ssg70
g203
sg63
(lp210
S'default'
p211
asbasbasbag56
(g72
g58
NtRp212
(dp213
g61
(dp214
sg70
g66
sg63
(lp215
g56
(g77
g58
NtRp216
(dp217
g61
(dp218
g81
g82
ssg70
g212
sg63
(lp219
S'cookies'
p220
asbag56
(g77
g58
NtRp221
(dp222
g61
(dp223
g88
g89
ssg70
g212
sg63
(lp224
S':'
asbag56
(g77
g58
NtRp225
(dp226
g61
(dp227
sg70
g212
sg63
(lp228
g56
(g57
g58
NtRp229
(dp230
g61
(dp231
g69
I5
ssg70
g225
sg63
(lp232
g56
(g65
g58
NtRp233
(dp234
g61
(dp235
g69
I4
ssg70
Nsg63
(lp236
g56
(g72
g58
NtRp237
(dp238
g61
(dp239
sg70
g233
sg63
(lp240
g56
(g77
g58
NtRp241
(dp242
g61
(dp243
g81
g82
ssg70
g237
sg63
(lp244
S'session_id_admin'
p245
asbag56
(g77
g58
NtRp246
(dp247
g61
(dp248
g88
g89
ssg70
g237
sg63
(lp249
S':'
asbag56
(g77
g58
NtRp250
(dp251
g61
(dp252
sg70
g237
sg63
(lp253
g56
(g57
g58
NtRp254
(dp255
g61
(dp256
g69
I4
ssg70
g250
sg63
(lp257
g56
(g65
g58
NtRp258
(dp259
g61
(dp260
g69
I3
ssg70
Nsg63
(lp261
g56
(g72
g58
NtRp262
(dp263
g61
(dp264
sg70
g258
sg63
(lp265
g56
(g77
g58
NtRp266
(dp267
g61
(dp268
g81
g82
ssg70
g262
sg63
(lp269
S'comment'
p270
asbag56
(g77
g58
NtRp271
(dp272
g61
(dp273
g88
g89
ssg70
g262
sg63
(lp274
S':'
asbag56
(g77
g58
NtRp275
(dp276
g61
(dp277
sg70
g262
sg63
(lp278
g56
(g57
g58
NtRp279
(dp280
g61
(dp281
g69
I3
ssg70
g275
sg63
(lp282
S''
asbasbasbag56
(g72
g58
NtRp283
(dp284
g61
(dp285
sg70
g258
sg63
(lp286
g56
(g77
g58
NtRp287
(dp288
g61
(dp289
g81
g82
ssg70
g283
sg63
(lp290
S'domain'
p291
asbag56
(g77
g58
NtRp292
(dp293
g61
(dp294
g88
g89
ssg70
g283
sg63
(lp295
S':'
asbag56
(g77
g58
NtRp296
(dp297
g61
(dp298
sg70
g283
sg63
(lp299
g56
(g57
g58
NtRp300
(dp301
g61
(dp302
g69
I3
ssg70
g296
sg63
(lp303
S''
asbasbasbag56
(g72
g58
NtRp304
(dp305
g61
(dp306
sg70
g258
sg63
(lp307
g56
(g77
g58
NtRp308
(dp309
g61
(dp310
g81
g82
ssg70
g304
sg63
(lp311
S'expires'
p312
asbag56
(g77
g58
NtRp313
(dp314
g61
(dp315
g88
g89
ssg70
g304
sg63
(lp316
S':'
asbag56
(g77
g58
NtRp317
(dp318
g61
(dp319
sg70
g304
sg63
(lp320
g56
(g57
g58
NtRp321
(dp322
g61
(dp323
g69
I3
ssg70
g317
sg63
(lp324
S''
asbasbasbag56
(g72
g58
NtRp325
(dp326
g61
(dp327
sg70
g258
sg63
(lp328
g56
(g77
g58
NtRp329
(dp330
g61
(dp331
g81
g82
ssg70
g325
sg63
(lp332
S'httponly'
p333
asbag56
(g77
g58
NtRp334
(dp335
g61
(dp336
g88
g89
ssg70
g325
sg63
(lp337
S':'
asbag56
(g77
g58
NtRp338
(dp339
g61
(dp340
sg70
g325
sg63
(lp341
g56
(g57
g58
NtRp342
(dp343
g61
(dp344
g69
I3
ssg70
g338
sg63
(lp345
S''
asbasbasbag56
(g72
g58
NtRp346
(dp347
g61
(dp348
sg70
g258
sg63
(lp349
g56
(g77
g58
NtRp350
(dp351
g61
(dp352
g81
g82
ssg70
g346
sg63
(lp353
S'max-age'
p354
asbag56
(g77
g58
NtRp355
(dp356
g61
(dp357
g88
g89
ssg70
g346
sg63
(lp358
S':'
asbag56
(g77
g58
NtRp359
(dp360
g61
(dp361
sg70
g346
sg63
(lp362
g56
(g57
g58
NtRp363
(dp364
g61
(dp365
g69
I3
ssg70
g359
sg63
(lp366
S''
asbasbasbag56
(g72
g58
NtRp367
(dp368
g61
(dp369
sg70
g258
sg63
(lp370
g56
(g77
g58
NtRp371
(dp372
g61
(dp373
g81
g82
ssg70
g367
sg63
(lp374
S'path'
p375
asbag56
(g77
g58
NtRp376
(dp377
g61
(dp378
g88
g89
ssg70
g367
sg63
(lp379
S':'
asbag56
(g77
g58
NtRp380
(dp381
g61
(dp382
sg70
g367
sg63
(lp383
g56
(g57
g58
NtRp384
(dp385
g61
(dp386
g69
I3
ssg70
g380
sg63
(lp387
S''
asbasbasbag56
(g72
g58
NtRp388
(dp389
g61
(dp390
sg70
g258
sg63
(lp391
g56
(g77
g58
NtRp392
(dp393
g61
(dp394
g81
g82
ssg70
g388
sg63
(lp395
S'secure'
p396
asbag56
(g77
g58
NtRp397
(dp398
g61
(dp399
g88
g89
ssg70
g388
sg63
(lp400
S':'
asbag56
(g77
g58
NtRp401
(dp402
g61
(dp403
sg70
g388
sg63
(lp404
g56
(g57
g58
NtRp405
(dp406
g61
(dp407
g69
I3
ssg70
g401
sg63
(lp408
S''
asbasbasbag56
(g72
g58
NtRp409
(dp410
g61
(dp411
sg70
g258
sg63
(lp412
g56
(g77
g58
NtRp413
(dp414
g61
(dp415
g81
g82
ssg70
g409
sg63
(lp416
S'version'
p417
asbag56
(g77
g58
NtRp418
(dp419
g61
(dp420
g88
g89
ssg70
g409
sg63
(lp421
S':'
asbag56
(g77
g58
NtRp422
(dp423
g61
(dp424
sg70
g409
sg63
(lp425
g56
(g57
g58
NtRp426
(dp427
g61
(dp428
g69
I3
ssg70
g422
sg63
(lp429
S''
asbasbasbasbasbasbasbag56
(g72
g58
NtRp430
(dp431
g61
(dp432
sg70
g233
sg63
(lp433
g56
(g77
g58
NtRp434
(dp435
g61
(dp436
g81
g82
ssg70
g430
sg63
(lp437
S'session_id_init'
p438
asbag56
(g77
g58
NtRp439
(dp440
g61
(dp441
g88
g89
ssg70
g430
sg63
(lp442
S':'
asbag56
(g77
g58
NtRp443
(dp444
g61
(dp445
sg70
g430
sg63
(lp446
g56
(g57
g58
NtRp447
(dp448
g61
(dp449
g69
I4
ssg70
g443
sg63
(lp450
g56
(g65
g58
NtRp451
(dp452
g61
(dp453
g69
I3
ssg70
Nsg63
(lp454
g56
(g72
g58
NtRp455
(dp456
g61
(dp457
sg70
g451
sg63
(lp458
g56
(g77
g58
NtRp459
(dp460
g61
(dp461
g81
g82
ssg70
g455
sg63
(lp462
g270
asbag56
(g77
g58
NtRp463
(dp464
g61
(dp465
g88
g89
ssg70
g455
sg63
(lp466
S':'
asbag56
(g77
g58
NtRp467
(dp468
g61
(dp469
sg70
g455
sg63
(lp470
g56
(g57
g58
NtRp471
(dp472
g61
(dp473
g69
I3
ssg70
g467
sg63
(lp474
S''
asbasbasbag56
(g72
g58
NtRp475
(dp476
g61
(dp477
sg70
g451
sg63
(lp478
g56
(g77
g58
NtRp479
(dp480
g61
(dp481
g81
g82
ssg70
g475
sg63
(lp482
g291
asbag56
(g77
g58
NtRp483
(dp484
g61
(dp485
g88
g89
ssg70
g475
sg63
(lp486
S':'
asbag56
(g77
g58
NtRp487
(dp488
g61
(dp489
sg70
g475
sg63
(lp490
g56
(g57
g58
NtRp491
(dp492
g61
(dp493
g69
I3
ssg70
g487
sg63
(lp494
S''
asbasbasbag56
(g72
g58
NtRp495
(dp496
g61
(dp497
sg70
g451
sg63
(lp498
g56
(g77
g58
NtRp499
(dp500
g61
(dp501
g81
g82
ssg70
g495
sg63
(lp502
g312
asbag56
(g77
g58
NtRp503
(dp504
g61
(dp505
g88
g89
ssg70
g495
sg63
(lp506
S':'
asbag56
(g77
g58
NtRp507
(dp508
g61
(dp509
sg70
g495
sg63
(lp510
g56
(g57
g58
NtRp511
(dp512
g61
(dp513
g69
I3
ssg70
g507
sg63
(lp514
S''
asbasbasbag56
(g72
g58
NtRp515
(dp516
g61
(dp517
sg70
g451
sg63
(lp518
g56
(g77
g58
NtRp519
(dp520
g61
(dp521
g81
g82
ssg70
g515
sg63
(lp522
g333
asbag56
(g77
g58
NtRp523
(dp524
g61
(dp525
g88
g89
ssg70
g515
sg63
(lp526
S':'
asbag56
(g77
g58
NtRp527
(dp528
g61
(dp529
sg70
g515
sg63
(lp530
g56
(g57
g58
NtRp531
(dp532
g61
(dp533
g69
I3
ssg70
g527
sg63
(lp534
S''
asbasbasbag56
(g72
g58
NtRp535
(dp536
g61
(dp537
sg70
g451
sg63
(lp538
g56
(g77
g58
NtRp539
(dp540
g61
(dp541
g81
g82
ssg70
g535
sg63
(lp542
g354
asbag56
(g77
g58
NtRp543
(dp544
g61
(dp545
g88
g89
ssg70
g535
sg63
(lp546
S':'
asbag56
(g77
g58
NtRp547
(dp548
g61
(dp549
sg70
g535
sg63
(lp550
g56
(g57
g58
NtRp551
(dp552
g61
(dp553
g69
I3
ssg70
g547
sg63
(lp554
S''
asbasbasbag56
(g72
g58
NtRp555
(dp556
g61
(dp557
sg70
g451
sg63
(lp558
g56
(g77
g58
NtRp559
(dp560
g61
(dp561
g81
g82
ssg70
g555
sg63
(lp562
g375
asbag56
(g77
g58
NtRp563
(dp564
g61
(dp565
g88
g89
ssg70
g555
sg63
(lp566
S':'
asbag56
(g77
g58
NtRp567
(dp568
g61
(dp569
sg70
g555
sg63
(lp570
g56
(g57
g58
NtRp571
(dp572
g61
(dp573
g69
I3
ssg70
g567
sg63
(lp574
S''
asbasbasbag56
(g72
g58
NtRp575
(dp576
g61
(dp577
sg70
g451
sg63
(lp578
g56
(g77
g58
NtRp579
(dp580
g61
(dp581
g81
g82
ssg70
g575
sg63
(lp582
g396
asbag56
(g77
g58
NtRp583
(dp584
g61
(dp585
g88
g89
ssg70
g575
sg63
(lp586
S':'
asbag56
(g77
g58
NtRp587
(dp588
g61
(dp589
sg70
g575
sg63
(lp590
g56
(g57
g58
NtRp591
(dp592
g61
(dp593
g69
I3
ssg70
g587
sg63
(lp594
S''
asbasbasbag56
(g72
g58
NtRp595
(dp596
g61
(dp597
sg70
g451
sg63
(lp598
g56
(g77
g58
NtRp599
(dp600
g61
(dp601
g81
g82
ssg70
g595
sg63
(lp602
g417
asbag56
(g77
g58
NtRp603
(dp604
g61
(dp605
g88
g89
ssg70
g595
sg63
(lp606
S':'
asbag56
(g77
g58
NtRp607
(dp608
g61
(dp609
sg70
g595
sg63
(lp610
g56
(g57
g58
NtRp611
(dp612
g61
(dp613
g69
I3
ssg70
g607
sg63
(lp614
S''
asbasbasbasbasbasbasbasbasbasbasbag56
(g72
g58
NtRp615
(dp616
g61
(dp617
sg70
g66
sg63
(lp618
g56
(g77
g58
NtRp619
(dp620
g61
(dp621
g81
g82
ssg70
g615
sg63
(lp622
S'env'
p623
asbag56
(g77
g58
NtRp624
(dp625
g61
(dp626
g88
g89
ssg70
g615
sg63
(lp627
S':'
asbag56
(g77
g58
NtRp628
(dp629
g61
(dp630
sg70
g615
sg63
(lp631
g56
(g57
g58
NtRp632
(dp633
g61
(dp634
g69
I5
ssg70
g628
sg63
(lp635
g56
(g65
g58
NtRp636
(dp637
g61
(dp638
g69
I4
ssg70
Nsg63
(lp639
g56
(g72
g58
NtRp640
(dp641
g61
(dp642
sg70
g636
sg63
(lp643
g56
(g77
g58
NtRp644
(dp645
g61
(dp646
g81
g82
ssg70
g640
sg63
(lp647
S'app_folders'
p648
asbag56
(g77
g58
NtRp649
(dp650
g61
(dp651
g88
g89
ssg70
g640
sg63
(lp652
S':'
asbag56
(g77
g58
NtRp653
(dp654
g61
(dp655
sg70
g640
sg63
(lp656
g56
(g57
g58
NtRp657
(dp658
g61
(dp659
g69
I4
ssg70
g653
sg63
(lp660
S"set(['P:\\\\Workbench\\\\DevEnv\\\\web2py\\\\applications\\\\init\\\\', 'P:\\\\Workbench\\\\DevEnv\\\\web2py\\\\applications\\\\admin\\\\'])"
p661
asbasbasbag56
(g72
g58
NtRp662
(dp663
g61
(dp664
sg70
g636
sg63
(lp665
g56
(g77
g58
NtRp666
(dp667
g61
(dp668
g81
g82
ssg70
g662
sg63
(lp669
S'applications_parent'
p670
asbag56
(g77
g58
NtRp671
(dp672
g61
(dp673
g88
g89
ssg70
g662
sg63
(lp674
S':'
asbag56
(g77
g58
NtRp675
(dp676
g61
(dp677
sg70
g662
sg63
(lp678
g56
(g57
g58
NtRp679
(dp680
g61
(dp681
g69
I4
ssg70
g675
sg63
(lp682
S'P:\\Workbench\\DevEnv\\web2py'
p683
asbasbasbag56
(g72
g58
NtRp684
(dp685
g61
(dp686
sg70
g636
sg63
(lp687
g56
(g77
g58
NtRp688
(dp689
g61
(dp690
g81
g82
ssg70
g684
sg63
(lp691
S'cmd_args'
p692
asbag56
(g77
g58
NtRp693
(dp694
g61
(dp695
g88
g89
ssg70
g684
sg63
(lp696
S':'
asbag56
(g77
g58
NtRp697
(dp698
g61
(dp699
sg70
g684
sg63
(lp700
g56
(g57
g58
NtRp701
(dp702
g61
(dp703
g69
I4
ssg70
g697
sg63
(lp704
g56
(g65
g58
NtRp705
(dp706
g61
(dp707
g69
I3
ssg70
Nsg63
(lp708
sbasbasbasbag56
(g72
g58
NtRp709
(dp710
g61
(dp711
sg70
g636
sg63
(lp712
g56
(g77
g58
NtRp713
(dp714
g61
(dp715
g81
g82
ssg70
g709
sg63
(lp716
S'cmd_options'
p717
asbag56
(g77
g58
NtRp718
(dp719
g61
(dp720
g88
g89
ssg70
g709
sg63
(lp721
S':'
asbag56
(g77
g58
NtRp722
(dp723
g61
(dp724
sg70
g709
sg63
(lp725
g56
(g57
g58
NtRp726
(dp727
g61
(dp728
g69
I4
ssg70
g722
sg63
(lp729
S"<Values at 0x2fbd418: {'verbose': False, 'ip': '127.0.0.1', 'shutdown_timeout': 5, 'taskbar': False, 'nocron': False, 'pid_filename': 'httpserver.pid', 'maxthreads': None, 'softcron': False, 'server_name': 'Bishop-PC', 'bpython': False, 'nogui': False, 'port': 8000, 'extcron': False, 'debuglevel': 30, 'test': None, 'folder': 'P:\\\\Workbench\\\\DevEnv\\\\web2py', 'config': '', 'import_models': False, 'winservice': '', 'shell': None, 'run': '', 'log_filename': 'httpserver.log', 'args': [''], 'ssl_ca_certificate': None, 'scheduler': None, 'profiler_filename': None, 'ssl_private_key': '', 'password': '<ask>', 'request_queue_size': 5, 'ssl_certificate': '', 'cronjob': False, 'plain': False, 'quiet': False, 'interfaces': None, 'minthreads': None, 'timeout': 10, 'numthreads': None, 'nobanner': False}>"
p730
asbasbasbag56
(g72
g58
NtRp731
(dp732
g61
(dp733
sg70
g636
sg63
(lp734
g56
(g77
g58
NtRp735
(dp736
g61
(dp737
g81
g82
ssg70
g731
sg63
(lp738
S'db_sessions'
p739
asbag56
(g77
g58
NtRp740
(dp741
g61
(dp742
g88
g89
ssg70
g731
sg63
(lp743
S':'
asbag56
(g77
g58
NtRp744
(dp745
g61
(dp746
sg70
g731
sg63
(lp747
g56
(g57
g58
NtRp748
(dp749
g61
(dp750
g69
I4
ssg70
g744
sg63
(lp751
S'set([])'
p752
asbasbasbag56
(g72
g58
NtRp753
(dp754
g61
(dp755
sg70
g636
sg63
(lp756
g56
(g77
g58
NtRp757
(dp758
g61
(dp759
g81
g82
ssg70
g753
sg63
(lp760
S'debugging'
p761
asbag56
(g77
g58
NtRp762
(dp763
g61
(dp764
g88
g89
ssg70
g753
sg63
(lp765
S':'
asbag56
(g77
g58
NtRp766
(dp767
g61
(dp768
sg70
g753
sg63
(lp769
g56
(g57
g58
NtRp770
(dp771
g61
(dp772
g69
I4
ssg70
g766
sg63
(lp773
g99
asbasbasbag56
(g72
g58
NtRp774
(dp775
g61
(dp776
sg70
g636
sg63
(lp777
g56
(g77
g58
NtRp778
(dp779
g61
(dp780
g81
g82
ssg70
g774
sg63
(lp781
S'gluon_parent'
p782
asbag56
(g77
g58
NtRp783
(dp784
g61
(dp785
g88
g89
ssg70
g774
sg63
(lp786
S':'
asbag56
(g77
g58
NtRp787
(dp788
g61
(dp789
sg70
g774
sg63
(lp790
g56
(g57
g58
NtRp791
(dp792
g61
(dp793
g69
I4
ssg70
g787
sg63
(lp794
S'P:\\Workbench\\DevEnv\\web2py'
p795
asbasbasbag56
(g72
g58
NtRp796
(dp797
g61
(dp798
sg70
g636
sg63
(lp799
g56
(g77
g58
NtRp800
(dp801
g61
(dp802
g81
g82
ssg70
g796
sg63
(lp803
S'http_accept'
p804
asbag56
(g77
g58
NtRp805
(dp806
g61
(dp807
g88
g89
ssg70
g796
sg63
(lp808
S':'
asbag56
(g77
g58
NtRp809
(dp810
g61
(dp811
sg70
g796
sg63
(lp812
g56
(g57
g58
NtRp813
(dp814
g61
(dp815
g69
I4
ssg70
g809
sg63
(lp816
S'text/html,application/xhtml+xml,application/xml;q=0.9,*/*;q=0.8'
p817
asbasbasbag56
(g72
g58
NtRp818
(dp819
g61
(dp820
sg70
g636
sg63
(lp821
g56
(g77
g58
NtRp822
(dp823
g61
(dp824
g81
g82
ssg70
g818
sg63
(lp825
S'http_accept_charset'
p826
asbag56
(g77
g58
NtRp827
(dp828
g61
(dp829
g88
g89
ssg70
g818
sg63
(lp830
S':'
asbag56
(g77
g58
NtRp831
(dp832
g61
(dp833
sg70
g818
sg63
(lp834
g56
(g57
g58
NtRp835
(dp836
g61
(dp837
g69
I4
ssg70
g831
sg63
(lp838
S'ISO-8859-1,utf-8;q=0.7,*;q=0.7'
p839
asbasbasbag56
(g72
g58
NtRp840
(dp841
g61
(dp842
sg70
g636
sg63
(lp843
g56
(g77
g58
NtRp844
(dp845
g61
(dp846
g81
g82
ssg70
g840
sg63
(lp847
S'http_accept_encoding'
p848
asbag56
(g77
g58
NtRp849
(dp850
g61
(dp851
g88
g89
ssg70
g840
sg63
(lp852
S':'
asbag56
(g77
g58
NtRp853
(dp854
g61
(dp855
sg70
g840
sg63
(lp856
g56
(g57
g58
NtRp857
(dp858
g61
(dp859
g69
I4
ssg70
g853
sg63
(lp860
S'gzip,deflate'
p861
asbasbasbag56
(g72
g58
NtRp862
(dp863
g61
(dp864
sg70
g636
sg63
(lp865
g56
(g77
g58
NtRp866
(dp867
g61
(dp868
g81
g82
ssg70
g862
sg63
(lp869
S'http_accept_language'
p870
asbag56
(g77
g58
NtRp871
(dp872
g61
(dp873
g88
g89
ssg70
g862
sg63
(lp874
S':'
asbag56
(g77
g58
NtRp875
(dp876
g61
(dp877
sg70
g862
sg63
(lp878
g56
(g57
g58
NtRp879
(dp880
g61
(dp881
g69
I4
ssg70
g875
sg63
(lp882
S'en-us,en;q=0.5'
p883
asbasbasbag56
(g72
g58
NtRp884
(dp885
g61
(dp886
sg70
g636
sg63
(lp887
g56
(g77
g58
NtRp888
(dp889
g61
(dp890
g81
g82
ssg70
g884
sg63
(lp891
S'http_connection'
p892
asbag56
(g77
g58
NtRp893
(dp894
g61
(dp895
g88
g89
ssg70
g884
sg63
(lp896
S':'
asbag56
(g77
g58
NtRp897
(dp898
g61
(dp899
sg70
g884
sg63
(lp900
g56
(g57
g58
NtRp901
(dp902
g61
(dp903
g69
I4
ssg70
g897
sg63
(lp904
S'keep-alive'
p905
asbasbasbag56
(g72
g58
NtRp906
(dp907
g61
(dp908
sg70
g636
sg63
(lp909
g56
(g77
g58
NtRp910
(dp911
g61
(dp912
g81
g82
ssg70
g906
sg63
(lp913
S'http_cookie'
p914
asbag56
(g77
g58
NtRp915
(dp916
g61
(dp917
g88
g89
ssg70
g906
sg63
(lp918
S':'
asbag56
(g77
g58
NtRp919
(dp920
g61
(dp921
sg70
g906
sg63
(lp922
g56
(g57
g58
NtRp923
(dp924
g61
(dp925
g69
I4
ssg70
g919
sg63
(lp926
S'__utma_a2a=4518867300.1350888199.1319331273.1319375111.1319375111.5; session_id_init=127.0.0.1-2ee686ba-d1d2-46bc-bb75-bfad4d4c0c4c; session_id_admin=127.0.0.1-4acedcf7-4701-4781-9fc5-dd6d7a0a4bf5'
p927
asbasbasbag56
(g72
g58
NtRp928
(dp929
g61
(dp930
sg70
g636
sg63
(lp931
g56
(g77
g58
NtRp932
(dp933
g61
(dp934
g81
g82
ssg70
g928
sg63
(lp935
S'http_host'
p936
asbag56
(g77
g58
NtRp937
(dp938
g61
(dp939
g88
g89
ssg70
g928
sg63
(lp940
S':'
asbag56
(g77
g58
NtRp941
(dp942
g61
(dp943
sg70
g928
sg63
(lp944
g56
(g57
g58
NtRp945
(dp946
g61
(dp947
g69
I4
ssg70
g941
sg63
(lp948
S'127.0.0.1:8000'
p949
asbasbasbag56
(g72
g58
NtRp950
(dp951
g61
(dp952
sg70
g636
sg63
(lp953
g56
(g77
g58
NtRp954
(dp955
g61
(dp956
g81
g82
ssg70
g950
sg63
(lp957
S'http_keep_alive'
p958
asbag56
(g77
g58
NtRp959
(dp960
g61
(dp961
g88
g89
ssg70
g950
sg63
(lp962
S':'
asbag56
(g77
g58
NtRp963
(dp964
g61
(dp965
sg70
g950
sg63
(lp966
g56
(g57
g58
NtRp967
(dp968
g61
(dp969
g69
I4
ssg70
g963
sg63
(lp970
S'115'
p971
asbasbasbag56
(g72
g58
NtRp972
(dp973
g61
(dp974
sg70
g636
sg63
(lp975
g56
(g77
g58
NtRp976
(dp977
g61
(dp978
g81
g82
ssg70
g972
sg63
(lp979
S'http_referer'
p980
asbag56
(g77
g58
NtRp981
(dp982
g61
(dp983
g88
g89
ssg70
g972
sg63
(lp984
S':'
asbag56
(g77
g58
NtRp985
(dp986
g61
(dp987
sg70
g972
sg63
(lp988
g56
(g57
g58
NtRp989
(dp990
g61
(dp991
g69
I4
ssg70
g985
sg63
(lp992
S'http://127.0.0.1:8000/init/default/index/login'
p993
asbasbasbag56
(g72
g58
NtRp994
(dp995
g61
(dp996
sg70
g636
sg63
(lp997
g56
(g77
g58
NtRp998
(dp999
g61
(dp1000
g81
g82
ssg70
g994
sg63
(lp1001
S'http_user_agent'
p1002
asbag56
(g77
g58
NtRp1003
(dp1004
g61
(dp1005
g88
g89
ssg70
g994
sg63
(lp1006
S':'
asbag56
(g77
g58
NtRp1007
(dp1008
g61
(dp1009
sg70
g994
sg63
(lp1010
g56
(g57
g58
NtRp1011
(dp1012
g61
(dp1013
g69
I4
ssg70
g1007
sg63
(lp1014
S'Mozilla/5.0 (Windows; U; Windows NT 6.1; en-US; rv:1.9.2.23) Gecko/20110920 Firefox/3.6.23'
p1015
asbasbasbag56
(g72
g58
NtRp1016
(dp1017
g61
(dp1018
sg70
g636
sg63
(lp1019
g56
(g77
g58
NtRp1020
(dp1021
g61
(dp1022
g81
g82
ssg70
g1016
sg63
(lp1023
S'is_jython'
p1024
asbag56
(g77
g58
NtRp1025
(dp1026
g61
(dp1027
g88
g89
ssg70
g1016
sg63
(lp1028
S':'
asbag56
(g77
g58
NtRp1029
(dp1030
g61
(dp1031
sg70
g1016
sg63
(lp1032
g56
(g57
g58
NtRp1033
(dp1034
g61
(dp1035
g69
I4
ssg70
g1029
sg63
(lp1036
g99
asbasbasbag56
(g72
g58
NtRp1037
(dp1038
g61
(dp1039
sg70
g636
sg63
(lp1040
g56
(g77
g58
NtRp1041
(dp1042
g61
(dp1043
g81
g82
ssg70
g1037
sg63
(lp1044
S'path_info'
p1045
asbag56
(g77
g58
NtRp1046
(dp1047
g61
(dp1048
g88
g89
ssg70
g1037
sg63
(lp1049
S':'
asbag56
(g77
g58
NtRp1050
(dp1051
g61
(dp1052
sg70
g1037
sg63
(lp1053
g56
(g57
g58
NtRp1054
(dp1055
g61
(dp1056
g69
I4
ssg70
g1050
sg63
(lp1057
S'/init/default/contact'
p1058
asbasbasbag56
(g72
g58
NtRp1059
(dp1060
g61
(dp1061
sg70
g636
sg63
(lp1062
g56
(g77
g58
NtRp1063
(dp1064
g61
(dp1065
g81
g82
ssg70
g1059
sg63
(lp1066
S'query_string'
p1067
asbag56
(g77
g58
NtRp1068
(dp1069
g61
(dp1070
g88
g89
ssg70
g1059
sg63
(lp1071
S':'
asbag56
(g77
g58
NtRp1072
(dp1073
g61
(dp1074
sg70
g1059
sg63
(lp1075
g56
(g57
g58
NtRp1076
(dp1077
g61
(dp1078
g69
I4
ssg70
g1072
sg63
(lp1079
S''
asbasbasbag56
(g72
g58
NtRp1080
(dp1081
g61
(dp1082
sg70
g636
sg63
(lp1083
g56
(g77
g58
NtRp1084
(dp1085
g61
(dp1086
g81
g82
ssg70
g1080
sg63
(lp1087
S'remote_addr'
p1088
asbag56
(g77
g58
NtRp1089
(dp1090
g61
(dp1091
g88
g89
ssg70
g1080
sg63
(lp1092
S':'
asbag56
(g77
g58
NtRp1093
(dp1094
g61
(dp1095
sg70
g1080
sg63
(lp1096
g56
(g57
g58
NtRp1097
(dp1098
g61
(dp1099
g69
I4
ssg70
g1093
sg63
(lp1100
g189
asbasbasbag56
(g72
g58
NtRp1101
(dp1102
g61
(dp1103
sg70
g636
sg63
(lp1104
g56
(g77
g58
NtRp1105
(dp1106
g61
(dp1107
g81
g82
ssg70
g1101
sg63
(lp1108
S'remote_port'
p1109
asbag56
(g77
g58
NtRp1110
(dp1111
g61
(dp1112
g88
g89
ssg70
g1101
sg63
(lp1113
S':'
asbag56
(g77
g58
NtRp1114
(dp1115
g61
(dp1116
sg70
g1101
sg63
(lp1117
g56
(g57
g58
NtRp1118
(dp1119
g61
(dp1120
g69
I4
ssg70
g1114
sg63
(lp1121
S'55591'
p1122
asbasbasbag56
(g72
g58
NtRp1123
(dp1124
g61
(dp1125
sg70
g636
sg63
(lp1126
g56
(g77
g58
NtRp1127
(dp1128
g61
(dp1129
g81
g82
ssg70
g1123
sg63
(lp1130
S'request_method'
p1131
asbag56
(g77
g58
NtRp1132
(dp1133
g61
(dp1134
g88
g89
ssg70
g1123
sg63
(lp1135
S':'
asbag56
(g77
g58
NtRp1136
(dp1137
g61
(dp1138
sg70
g1123
sg63
(lp1139
g56
(g57
g58
NtRp1140
(dp1141
g61
(dp1142
g69
I4
ssg70
g1136
sg63
(lp1143
S'GET'
p1144
asbasbasbag56
(g72
g58
NtRp1145
(dp1146
g61
(dp1147
sg70
g636
sg63
(lp1148
g56
(g77
g58
NtRp1149
(dp1150
g61
(dp1151
g81
g82
ssg70
g1145
sg63
(lp1152
S'script_name'
p1153
asbag56
(g77
g58
NtRp1154
(dp1155
g61
(dp1156
g88
g89
ssg70
g1145
sg63
(lp1157
S':'
asbag56
(g77
g58
NtRp1158
(dp1159
g61
(dp1160
sg70
g1145
sg63
(lp1161
g56
(g57
g58
NtRp1162
(dp1163
g61
(dp1164
g69
I4
ssg70
g1158
sg63
(lp1165
S''
asbasbasbag56
(g72
g58
NtRp1166
(dp1167
g61
(dp1168
sg70
g636
sg63
(lp1169
g56
(g77
g58
NtRp1170
(dp1171
g61
(dp1172
g81
g82
ssg70
g1166
sg63
(lp1173
S'server_name'
p1174
asbag56
(g77
g58
NtRp1175
(dp1176
g61
(dp1177
g88
g89
ssg70
g1166
sg63
(lp1178
S':'
asbag56
(g77
g58
NtRp1179
(dp1180
g61
(dp1181
sg70
g1166
sg63
(lp1182
g56
(g57
g58
NtRp1183
(dp1184
g61
(dp1185
g69
I4
ssg70
g1179
sg63
(lp1186
S'Bishop-PC'
p1187
asbasbasbag56
(g72
g58
NtRp1188
(dp1189
g61
(dp1190
sg70
g636
sg63
(lp1191
g56
(g77
g58
NtRp1192
(dp1193
g61
(dp1194
g81
g82
ssg70
g1188
sg63
(lp1195
S'server_port'
p1196
asbag56
(g77
g58
NtRp1197
(dp1198
g61
(dp1199
g88
g89
ssg70
g1188
sg63
(lp1200
S':'
asbag56
(g77
g58
NtRp1201
(dp1202
g61
(dp1203
sg70
g1188
sg63
(lp1204
g56
(g57
g58
NtRp1205
(dp1206
g61
(dp1207
g69
I4
ssg70
g1201
sg63
(lp1208
S'8000'
p1209
asbasbasbag56
(g72
g58
NtRp1210
(dp1211
g61
(dp1212
sg70
g636
sg63
(lp1213
g56
(g77
g58
NtRp1214
(dp1215
g61
(dp1216
g81
g82
ssg70
g1210
sg63
(lp1217
S'server_protocol'
p1218
asbag56
(g77
g58
NtRp1219
(dp1220
g61
(dp1221
g88
g89
ssg70
g1210
sg63
(lp1222
S':'
asbag56
(g77
g58
NtRp1223
(dp1224
g61
(dp1225
sg70
g1210
sg63
(lp1226
g56
(g57
g58
NtRp1227
(dp1228
g61
(dp1229
g69
I4
ssg70
g1223
sg63
(lp1230
S'HTTP/1.1'
p1231
asbasbasbag56
(g72
g58
NtRp1232
(dp1233
g61
(dp1234
sg70
g636
sg63
(lp1235
g56
(g77
g58
NtRp1236
(dp1237
g61
(dp1238
g81
g82
ssg70
g1232
sg63
(lp1239
S'server_software'
p1240
asbag56
(g77
g58
NtRp1241
(dp1242
g61
(dp1243
g88
g89
ssg70
g1232
sg63
(lp1244
S':'
asbag56
(g77
g58
NtRp1245
(dp1246
g61
(dp1247
sg70
g1232
sg63
(lp1248
g56
(g57
g58
NtRp1249
(dp1250
g61
(dp1251
g69
I4
ssg70
g1245
sg63
(lp1252
S'Rocket 1.2.4'
p1253
asbasbasbag56
(g72
g58
NtRp1254
(dp1255
g61
(dp1256
sg70
g636
sg63
(lp1257
g56
(g77
g58
NtRp1258
(dp1259
g61
(dp1260
g81
g82
ssg70
g1254
sg63
(lp1261
S'web2py_crontype'
p1262
asbag56
(g77
g58
NtRp1263
(dp1264
g61
(dp1265
g88
g89
ssg70
g1254
sg63
(lp1266
S':'
asbag56
(g77
g58
NtRp1267
(dp1268
g61
(dp1269
sg70
g1254
sg63
(lp1270
g56
(g57
g58
NtRp1271
(dp1272
g61
(dp1273
g69
I4
ssg70
g1267
sg63
(lp1274
S'hard'
p1275
asbasbasbag56
(g72
g58
NtRp1276
(dp1277
g61
(dp1278
sg70
g636
sg63
(lp1279
g56
(g77
g58
NtRp1280
(dp1281
g61
(dp1282
g81
g82
ssg70
g1276
sg63
(lp1283
S'web2py_path'
p1284
asbag56
(g77
g58
NtRp1285
(dp1286
g61
(dp1287
g88
g89
ssg70
g1276
sg63
(lp1288
S':'
asbag56
(g77
g58
NtRp1289
(dp1290
g61
(dp1291
sg70
g1276
sg63
(lp1292
g56
(g57
g58
NtRp1293
(dp1294
g61
(dp1295
g69
I4
ssg70
g1289
sg63
(lp1296
g683
asbasbasbag56
(g72
g58
NtRp1297
(dp1298
g61
(dp1299
sg70
g636
sg63
(lp1300
g56
(g77
g58
NtRp1301
(dp1302
g61
(dp1303
g81
g82
ssg70
g1297
sg63
(lp1304
S'web2py_version'
p1305
asbag56
(g77
g58
NtRp1306
(dp1307
g61
(dp1308
g88
g89
ssg70
g1297
sg63
(lp1309
S':'
asbag56
(g77
g58
NtRp1310
(dp1311
g61
(dp1312
sg70
g1297
sg63
(lp1313
g56
(g57
g58
NtRp1314
(dp1315
g61
(dp1316
g69
I4
ssg70
g1310
sg63
(lp1317
g56
(g65
g58
NtRp1318
(dp1319
g61
(dp1320
g69
I3
ssg70
Nsg63
(lp1321
g56
(g72
g58
NtRp1322
(dp1323
g61
(dp1324
sg70
g1318
sg63
(lp1325
g56
(g77
g58
NtRp1326
(dp1327
g61
(dp1328
sg70
g1322
sg63
(lp1329
g56
(g57
g58
NtRp1330
(dp1331
g61
(dp1332
g69
I3
ssg70
g1326
sg63
(lp1333
S'1'
asbasbasbag56
(g72
g58
NtRp1334
(dp1335
g61
(dp1336
sg70
g1318
sg63
(lp1337
g56
(g77
g58
NtRp1338
(dp1339
g61
(dp1340
sg70
g1334
sg63
(lp1341
g56
(g57
g58
NtRp1342
(dp1343
g61
(dp1344
g69
I3
ssg70
g1338
sg63
(lp1345
S'99'
p1346
asbasbasbag56
(g72
g58
NtRp1347
(dp1348
g61
(dp1349
sg70
g1318
sg63
(lp1350
g56
(g77
g58
NtRp1351
(dp1352
g61
(dp1353
sg70
g1347
sg63
(lp1354
g56
(g57
g58
NtRp1355
(dp1356
g61
(dp1357
g69
I3
ssg70
g1351
sg63
(lp1358
S'3'
asbasbasbag56
(g72
g58
NtRp1359
(dp1360
g61
(dp1361
sg70
g1318
sg63
(lp1362
g56
(g77
g58
NtRp1363
(dp1364
g61
(dp1365
sg70
g1359
sg63
(lp1366
g56
(g57
g58
NtRp1367
(dp1368
g61
(dp1369
g69
I3
ssg70
g1363
sg63
(lp1370
S'datetime.datetime(2011, 10, 24, 21, 42, 42)'
p1371
asbasbasbag56
(g72
g58
NtRp1372
(dp1373
g61
(dp1374
sg70
g1318
sg63
(lp1375
g56
(g77
g58
NtRp1376
(dp1377
g61
(dp1378
sg70
g1372
sg63
(lp1379
g56
(g57
g58
NtRp1380
(dp1381
g61
(dp1382
g69
I3
ssg70
g1376
sg63
(lp1383
S'dev'
p1384
asbasbasbasbasbasbasbag56
(g72
g58
NtRp1385
(dp1386
g61
(dp1387
sg70
g636
sg63
(lp1388
g56
(g77
g58
NtRp1389
(dp1390
g61
(dp1391
g81
g82
ssg70
g1385
sg63
(lp1392
S'wsgi_errors'
p1393
asbag56
(g77
g58
NtRp1394
(dp1395
g61
(dp1396
g88
g89
ssg70
g1385
sg63
(lp1397
S':'
asbag56
(g77
g58
NtRp1398
(dp1399
g61
(dp1400
sg70
g1385
sg63
(lp1401
g56
(g57
g58
NtRp1402
(dp1403
g61
(dp1404
g69
I4
ssg70
g1398
sg63
(lp1405
S"<open file '<stderr>', mode 'w' at 0x01DC50D0>"
p1406
asbasbasbag56
(g72
g58
NtRp1407
(dp1408
g61
(dp1409
sg70
g636
sg63
(lp1410
g56
(g77
g58
NtRp1411
(dp1412
g61
(dp1413
g81
g82
ssg70
g1407
sg63
(lp1414
S'wsgi_file_wrapper'
p1415
asbag56
(g77
g58
NtRp1416
(dp1417
g61
(dp1418
g88
g89
ssg70
g1407
sg63
(lp1419
S':'
asbag56
(g77
g58
NtRp1420
(dp1421
g61
(dp1422
sg70
g1407
sg63
(lp1423
g56
(g57
g58
NtRp1424
(dp1425
g61
(dp1426
g69
I4
ssg70
g1420
sg63
(lp1427
S'<class wsgiref.util.FileWrapper at 0x02D07AB0>'
p1428
asbasbasbag56
(g72
g58
NtRp1429
(dp1430
g61
(dp1431
sg70
g636
sg63
(lp1432
g56
(g77
g58
NtRp1433
(dp1434
g61
(dp1435
g81
g82
ssg70
g1429
sg63
(lp1436
S'wsgi_input'
p1437
asbag56
(g77
g58
NtRp1438
(dp1439
g61
(dp1440
g88
g89
ssg70
g1429
sg63
(lp1441
S':'
asbag56
(g77
g58
NtRp1442
(dp1443
g61
(dp1444
sg70
g1429
sg63
(lp1445
g56
(g57
g58
NtRp1446
(dp1447
g61
(dp1448
g69
I4
ssg70
g1442
sg63
(lp1449
S'<socket._fileobject object at 0x0977ECF0>'
p1450
asbasbasbag56
(g72
g58
NtRp1451
(dp1452
g61
(dp1453
sg70
g636
sg63
(lp1454
g56
(g77
g58
NtRp1455
(dp1456
g61
(dp1457
g81
g82
ssg70
g1451
sg63
(lp1458
S'wsgi_multiprocess'
p1459
asbag56
(g77
g58
NtRp1460
(dp1461
g61
(dp1462
g88
g89
ssg70
g1451
sg63
(lp1463
S':'
asbag56
(g77
g58
NtRp1464
(dp1465
g61
(dp1466
sg70
g1451
sg63
(lp1467
g56
(g57
g58
NtRp1468
(dp1469
g61
(dp1470
g69
I4
ssg70
g1464
sg63
(lp1471
g99
asbasbasbag56
(g72
g58
NtRp1472
(dp1473
g61
(dp1474
sg70
g636
sg63
(lp1475
g56
(g77
g58
NtRp1476
(dp1477
g61
(dp1478
g81
g82
ssg70
g1472
sg63
(lp1479
S'wsgi_multithread'
p1480
asbag56
(g77
g58
NtRp1481
(dp1482
g61
(dp1483
g88
g89
ssg70
g1472
sg63
(lp1484
S':'
asbag56
(g77
g58
NtRp1485
(dp1486
g61
(dp1487
sg70
g1472
sg63
(lp1488
g56
(g57
g58
NtRp1489
(dp1490
g61
(dp1491
g69
I4
ssg70
g1485
sg63
(lp1492
S'True'
p1493
asbasbasbag56
(g72
g58
NtRp1494
(dp1495
g61
(dp1496
sg70
g636
sg63
(lp1497
g56
(g77
g58
NtRp1498
(dp1499
g61
(dp1500
g81
g82
ssg70
g1494
sg63
(lp1501
S'wsgi_run_once'
p1502
asbag56
(g77
g58
NtRp1503
(dp1504
g61
(dp1505
g88
g89
ssg70
g1494
sg63
(lp1506
S':'
asbag56
(g77
g58
NtRp1507
(dp1508
g61
(dp1509
sg70
g1494
sg63
(lp1510
g56
(g57
g58
NtRp1511
(dp1512
g61
(dp1513
g69
I4
ssg70
g1507
sg63
(lp1514
g99
asbasbasbag56
(g72
g58
NtRp1515
(dp1516
g61
(dp1517
sg70
g636
sg63
(lp1518
g56
(g77
g58
NtRp1519
(dp1520
g61
(dp1521
g81
g82
ssg70
g1515
sg63
(lp1522
S'wsgi_url_scheme'
p1523
asbag56
(g77
g58
NtRp1524
(dp1525
g61
(dp1526
g88
g89
ssg70
g1515
sg63
(lp1527
S':'
asbag56
(g77
g58
NtRp1528
(dp1529
g61
(dp1530
sg70
g1515
sg63
(lp1531
g56
(g57
g58
NtRp1532
(dp1533
g61
(dp1534
g69
I4
ssg70
g1528
sg63
(lp1535
S'http'
p1536
asbasbasbag56
(g72
g58
NtRp1537
(dp1538
g61
(dp1539
sg70
g636
sg63
(lp1540
g56
(g77
g58
NtRp1541
(dp1542
g61
(dp1543
g81
g82
ssg70
g1537
sg63
(lp1544
S'wsgi_version'
p1545
asbag56
(g77
g58
NtRp1546
(dp1547
g61
(dp1548
g88
g89
ssg70
g1537
sg63
(lp1549
S':'
asbag56
(g77
g58
NtRp1550
(dp1551
g61
(dp1552
sg70
g1537
sg63
(lp1553
g56
(g57
g58
NtRp1554
(dp1555
g61
(dp1556
g69
I4
ssg70
g1550
sg63
(lp1557
g56
(g65
g58
NtRp1558
(dp1559
g61
(dp1560
g69
I3
ssg70
Nsg63
(lp1561
g56
(g72
g58
NtRp1562
(dp1563
g61
(dp1564
sg70
g1558
sg63
(lp1565
g56
(g77
g58
NtRp1566
(dp1567
g61
(dp1568
sg70
g1562
sg63
(lp1569
g56
(g57
g58
NtRp1570
(dp1571
g61
(dp1572
g69
I3
ssg70
g1566
sg63
(lp1573
S'1'
asbasbasbag56
(g72
g58
NtRp1574
(dp1575
g61
(dp1576
sg70
g1558
sg63
(lp1577
g56
(g77
g58
NtRp1578
(dp1579
g61
(dp1580
sg70
g1574
sg63
(lp1581
g56
(g57
g58
NtRp1582
(dp1583
g61
(dp1584
g69
I3
ssg70
g1578
sg63
(lp1585
S'0'
asbasbasbasbasbasbasbasbasbasbasbag56
(g72
g58
NtRp1586
(dp1587
g61
(dp1588
sg70
g66
sg63
(lp1589
g56
(g77
g58
NtRp1590
(dp1591
g61
(dp1592
g81
g82
ssg70
g1586
sg63
(lp1593
S'extension'
p1594
asbag56
(g77
g58
NtRp1595
(dp1596
g61
(dp1597
g88
g89
ssg70
g1586
sg63
(lp1598
S':'
asbag56
(g77
g58
NtRp1599
(dp1600
g61
(dp1601
sg70
g1586
sg63
(lp1602
g56
(g57
g58
NtRp1603
(dp1604
g61
(dp1605
g69
I5
ssg70
g1599
sg63
(lp1606
S'html'
p1607
asbasbasbag56
(g72
g58
NtRp1608
(dp1609
g61
(dp1610
sg70
g66
sg63
(lp1611
g56
(g77
g58
NtRp1612
(dp1613
g61
(dp1614
g81
g82
ssg70
g1608
sg63
(lp1615
S'folder'
p1616
asbag56
(g77
g58
NtRp1617
(dp1618
g61
(dp1619
g88
g89
ssg70
g1608
sg63
(lp1620
S':'
asbag56
(g77
g58
NtRp1621
(dp1622
g61
(dp1623
sg70
g1608
sg63
(lp1624
g56
(g57
g58
NtRp1625
(dp1626
g61
(dp1627
g69
I5
ssg70
g1621
sg63
(lp1628
S'P:\\Workbench\\DevEnv\\web2py\\applications\\init\\'
p1629
asbasbasbag56
(g72
g58
NtRp1630
(dp1631
g61
(dp1632
sg70
g66
sg63
(lp1633
g56
(g77
g58
NtRp1634
(dp1635
g61
(dp1636
g81
g82
ssg70
g1630
sg63
(lp1637
S'function'
p1638
asbag56
(g77
g58
NtRp1639
(dp1640
g61
(dp1641
g88
g89
ssg70
g1630
sg63
(lp1642
S':'
asbag56
(g77
g58
NtRp1643
(dp1644
g61
(dp1645
sg70
g1630
sg63
(lp1646
g56
(g57
g58
NtRp1647
(dp1648
g61
(dp1649
g69
I5
ssg70
g1643
sg63
(lp1650
S'contact'
p1651
asbasbasbag56
(g72
g58
NtRp1652
(dp1653
g61
(dp1654
sg70
g66
sg63
(lp1655
g56
(g77
g58
NtRp1656
(dp1657
g61
(dp1658
g81
g82
ssg70
g1652
sg63
(lp1659
S'get_vars'
p1660
asbag56
(g77
g58
NtRp1661
(dp1662
g61
(dp1663
g88
g89
ssg70
g1652
sg63
(lp1664
S':'
asbag56
(g77
g58
NtRp1665
(dp1666
g61
(dp1667
sg70
g1652
sg63
(lp1668
g56
(g57
g58
NtRp1669
(dp1670
g61
(dp1671
g69
I5
ssg70
g1665
sg63
(lp1672
g56
(g65
g58
NtRp1673
(dp1674
g61
(dp1675
g69
I4
ssg70
Nsg63
(lp1676
sbasbasbasbag56
(g72
g58
NtRp1677
(dp1678
g61
(dp1679
sg70
g66
sg63
(lp1680
g56
(g77
g58
NtRp1681
(dp1682
g61
(dp1683
g81
g82
ssg70
g1677
sg63
(lp1684
S'global_settings'
p1685
asbag56
(g77
g58
NtRp1686
(dp1687
g61
(dp1688
g88
g89
ssg70
g1677
sg63
(lp1689
S':'
asbag56
(g77
g58
NtRp1690
(dp1691
g61
(dp1692
sg70
g1677
sg63
(lp1693
g56
(g57
g58
NtRp1694
(dp1695
g61
(dp1696
g69
I5
ssg70
g1690
sg63
(lp1697
g56
(g65
g58
NtRp1698
(dp1699
g61
(dp1700
g69
I4
ssg70
Nsg63
(lp1701
g56
(g72
g58
NtRp1702
(dp1703
g61
(dp1704
sg70
g1698
sg63
(lp1705
g56
(g77
g58
NtRp1706
(dp1707
g61
(dp1708
g81
g82
ssg70
g1702
sg63
(lp1709
g648
asbag56
(g77
g58
NtRp1710
(dp1711
g61
(dp1712
g88
g89
ssg70
g1702
sg63
(lp1713
S':'
asbag56
(g77
g58
NtRp1714
(dp1715
g61
(dp1716
sg70
g1702
sg63
(lp1717
g56
(g57
g58
NtRp1718
(dp1719
g61
(dp1720
g69
I4
ssg70
g1714
sg63
(lp1721
S"set(['P:\\\\Workbench\\\\DevEnv\\\\web2py\\\\applications\\\\init\\\\', 'P:\\\\Workbench\\\\DevEnv\\\\web2py\\\\applications\\\\admin\\\\'])"
p1722
asbasbasbag56
(g72
g58
NtRp1723
(dp1724
g61
(dp1725
sg70
g1698
sg63
(lp1726
g56
(g77
g58
NtRp1727
(dp1728
g61
(dp1729
g81
g82
ssg70
g1723
sg63
(lp1730
g670
asbag56
(g77
g58
NtRp1731
(dp1732
g61
(dp1733
g88
g89
ssg70
g1723
sg63
(lp1734
S':'
asbag56
(g77
g58
NtRp1735
(dp1736
g61
(dp1737
sg70
g1723
sg63
(lp1738
g56
(g57
g58
NtRp1739
(dp1740
g61
(dp1741
g69
I4
ssg70
g1735
sg63
(lp1742
g683
asbasbasbag56
(g72
g58
NtRp1743
(dp1744
g61
(dp1745
sg70
g1698
sg63
(lp1746
g56
(g77
g58
NtRp1747
(dp1748
g61
(dp1749
g81
g82
ssg70
g1743
sg63
(lp1750
g692
asbag56
(g77
g58
NtRp1751
(dp1752
g61
(dp1753
g88
g89
ssg70
g1743
sg63
(lp1754
S':'
asbag56
(g77
g58
NtRp1755
(dp1756
g61
(dp1757
sg70
g1743
sg63
(lp1758
g56
(g57
g58
NtRp1759
(dp1760
g61
(dp1761
g69
I4
ssg70
g1755
sg63
(lp1762
g56
(g65
g58
NtRp1763
(dp1764
g61
(dp1765
g69
I3
ssg70
Nsg63
(lp1766
sbasbasbasbag56
(g72
g58
NtRp1767
(dp1768
g61
(dp1769
sg70
g1698
sg63
(lp1770
g56
(g77
g58
NtRp1771
(dp1772
g61
(dp1773
g81
g82
ssg70
g1767
sg63
(lp1774
g717
asbag56
(g77
g58
NtRp1775
(dp1776
g61
(dp1777
g88
g89
ssg70
g1767
sg63
(lp1778
S':'
asbag56
(g77
g58
NtRp1779
(dp1780
g61
(dp1781
sg70
g1767
sg63
(lp1782
g56
(g57
g58
NtRp1783
(dp1784
g61
(dp1785
g69
I4
ssg70
g1779
sg63
(lp1786
S"<Values at 0x2fbd418: {'verbose': False, 'ip': '127.0.0.1', 'shutdown_timeout': 5, 'taskbar': False, 'nocron': False, 'pid_filename': 'httpserver.pid', 'maxthreads': None, 'softcron': False, 'server_name': 'Bishop-PC', 'bpython': False, 'nogui': False, 'port': 8000, 'extcron': False, 'debuglevel': 30, 'test': None, 'folder': 'P:\\\\Workbench\\\\DevEnv\\\\web2py', 'config': '', 'import_models': False, 'winservice': '', 'shell': None, 'run': '', 'log_filename': 'httpserver.log', 'args': [''], 'ssl_ca_certificate': None, 'scheduler': None, 'profiler_filename': None, 'ssl_private_key': '', 'password': '<ask>', 'request_queue_size': 5, 'ssl_certificate': '', 'cronjob': False, 'plain': False, 'quiet': False, 'interfaces': None, 'minthreads': None, 'timeout': 10, 'numthreads': None, 'nobanner': False}>"
p1787
asbasbasbag56
(g72
g58
NtRp1788
(dp1789
g61
(dp1790
sg70
g1698
sg63
(lp1791
g56
(g77
g58
NtRp1792
(dp1793
g61
(dp1794
g81
g82
ssg70
g1788
sg63
(lp1795
g739
asbag56
(g77
g58
NtRp1796
(dp1797
g61
(dp1798
g88
g89
ssg70
g1788
sg63
(lp1799
S':'
asbag56
(g77
g58
NtRp1800
(dp1801
g61
(dp1802
sg70
g1788
sg63
(lp1803
g56
(g57
g58
NtRp1804
(dp1805
g61
(dp1806
g69
I4
ssg70
g1800
sg63
(lp1807
S'set([])'
p1808
asbasbasbag56
(g72
g58
NtRp1809
(dp1810
g61
(dp1811
sg70
g1698
sg63
(lp1812
g56
(g77
g58
NtRp1813
(dp1814
g61
(dp1815
g81
g82
ssg70
g1809
sg63
(lp1816
g761
asbag56
(g77
g58
NtRp1817
(dp1818
g61
(dp1819
g88
g89
ssg70
g1809
sg63
(lp1820
S':'
asbag56
(g77
g58
NtRp1821
(dp1822
g61
(dp1823
sg70
g1809
sg63
(lp1824
g56
(g57
g58
NtRp1825
(dp1826
g61
(dp1827
g69
I4
ssg70
g1821
sg63
(lp1828
g99
asbasbasbag56
(g72
g58
NtRp1829
(dp1830
g61
(dp1831
sg70
g1698
sg63
(lp1832
g56
(g77
g58
NtRp1833
(dp1834
g61
(dp1835
g81
g82
ssg70
g1829
sg63
(lp1836
g782
asbag56
(g77
g58
NtRp1837
(dp1838
g61
(dp1839
g88
g89
ssg70
g1829
sg63
(lp1840
S':'
asbag56
(g77
g58
NtRp1841
(dp1842
g61
(dp1843
sg70
g1829
sg63
(lp1844
g56
(g57
g58
NtRp1845
(dp1846
g61
(dp1847
g69
I4
ssg70
g1841
sg63
(lp1848
g795
asbasbasbag56
(g72
g58
NtRp1849
(dp1850
g61
(dp1851
sg70
g1698
sg63
(lp1852
g56
(g77
g58
NtRp1853
(dp1854
g61
(dp1855
g81
g82
ssg70
g1849
sg63
(lp1856
g1024
asbag56
(g77
g58
NtRp1857
(dp1858
g61
(dp1859
g88
g89
ssg70
g1849
sg63
(lp1860
S':'
asbag56
(g77
g58
NtRp1861
(dp1862
g61
(dp1863
sg70
g1849
sg63
(lp1864
g56
(g57
g58
NtRp1865
(dp1866
g61
(dp1867
g69
I4
ssg70
g1861
sg63
(lp1868
g99
asbasbasbag56
(g72
g58
NtRp1869
(dp1870
g61
(dp1871
sg70
g1698
sg63
(lp1872
g56
(g77
g58
NtRp1873
(dp1874
g61
(dp1875
g81
g82
ssg70
g1869
sg63
(lp1876
g1262
asbag56
(g77
g58
NtRp1877
(dp1878
g61
(dp1879
g88
g89
ssg70
g1869
sg63
(lp1880
S':'
asbag56
(g77
g58
NtRp1881
(dp1882
g61
(dp1883
sg70
g1869
sg63
(lp1884
g56
(g57
g58
NtRp1885
(dp1886
g61
(dp1887
g69
I4
ssg70
g1881
sg63
(lp1888
g1275
asbasbasbag56
(g72
g58
NtRp1889
(dp1890
g61
(dp1891
sg70
g1698
sg63
(lp1892
g56
(g77
g58
NtRp1893
(dp1894
g61
(dp1895
g81
g82
ssg70
g1889
sg63
(lp1896
g1305
asbag56
(g77
g58
NtRp1897
(dp1898
g61
(dp1899
g88
g89
ssg70
g1889
sg63
(lp1900
S':'
asbag56
(g77
g58
NtRp1901
(dp1902
g61
(dp1903
sg70
g1889
sg63
(lp1904
g56
(g57
g58
NtRp1905
(dp1906
g61
(dp1907
g69
I4
ssg70
g1901
sg63
(lp1908
g56
(g65
g58
NtRp1909
(dp1910
g61
(dp1911
g69
I3
ssg70
Nsg63
(lp1912
g56
(g72
g58
NtRp1913
(dp1914
g61
(dp1915
sg70
g1909
sg63
(lp1916
g56
(g77
g58
NtRp1917
(dp1918
g61
(dp1919
sg70
g1913
sg63
(lp1920
g56
(g57
g58
NtRp1921
(dp1922
g61
(dp1923
g69
I3
ssg70
g1917
sg63
(lp1924
S'1'
asbasbasbag56
(g72
g58
NtRp1925
(dp1926
g61
(dp1927
sg70
g1909
sg63
(lp1928
g56
(g77
g58
NtRp1929
(dp1930
g61
(dp1931
sg70
g1925
sg63
(lp1932
g56
(g57
g58
NtRp1933
(dp1934
g61
(dp1935
g69
I3
ssg70
g1929
sg63
(lp1936
S'99'
p1937
asbasbasbag56
(g72
g58
NtRp1938
(dp1939
g61
(dp1940
sg70
g1909
sg63
(lp1941
g56
(g77
g58
NtRp1942
(dp1943
g61
(dp1944
sg70
g1938
sg63
(lp1945
g56
(g57
g58
NtRp1946
(dp1947
g61
(dp1948
g69
I3
ssg70
g1942
sg63
(lp1949
S'3'
asbasbasbag56
(g72
g58
NtRp1950
(dp1951
g61
(dp1952
sg70
g1909
sg63
(lp1953
g56
(g77
g58
NtRp1954
(dp1955
g61
(dp1956
sg70
g1950
sg63
(lp1957
g56
(g57
g58
NtRp1958
(dp1959
g61
(dp1960
g69
I3
ssg70
g1954
sg63
(lp1961
S'datetime.datetime(2011, 10, 24, 21, 42, 42)'
p1962
asbasbasbag56
(g72
g58
NtRp1963
(dp1964
g61
(dp1965
sg70
g1909
sg63
(lp1966
g56
(g77
g58
NtRp1967
(dp1968
g61
(dp1969
sg70
g1963
sg63
(lp1970
g56
(g57
g58
NtRp1971
(dp1972
g61
(dp1973
g69
I3
ssg70
g1967
sg63
(lp1974
g1384
asbasbasbasbasbasbasbasbasbasbasbag56
(g72
g58
NtRp1975
(dp1976
g61
(dp1977
sg70
g66
sg63
(lp1978
g56
(g77
g58
NtRp1979
(dp1980
g61
(dp1981
g81
g82
ssg70
g1975
sg63
(lp1982
S'is_https'
p1983
asbag56
(g77
g58
NtRp1984
(dp1985
g61
(dp1986
g88
g89
ssg70
g1975
sg63
(lp1987
S':'
asbag56
(g77
g58
NtRp1988
(dp1989
g61
(dp1990
sg70
g1975
sg63
(lp1991
g56
(g57
g58
NtRp1992
(dp1993
g61
(dp1994
g69
I5
ssg70
g1988
sg63
(lp1995
g99
asbasbasbag56
(g72
g58
NtRp1996
(dp1997
g61
(dp1998
sg70
g66
sg63
(lp1999
g56
(g77
g58
NtRp2000
(dp2001
g61
(dp2002
g81
g82
ssg70
g1996
sg63
(lp2003
S'is_local'
p2004
asbag56
(g77
g58
NtRp2005
(dp2006
g61
(dp2007
g88
g89
ssg70
g1996
sg63
(lp2008
S':'
asbag56
(g77
g58
NtRp2009
(dp2010
g61
(dp2011
sg70
g1996
sg63
(lp2012
g56
(g57
g58
NtRp2013
(dp2014
g61
(dp2015
g69
I5
ssg70
g2009
sg63
(lp2016
g1493
asbasbasbag56
(g72
g58
NtRp2017
(dp2018
g61
(dp2019
sg70
g66
sg63
(lp2020
g56
(g77
g58
NtRp2021
(dp2022
g61
(dp2023
g81
g82
ssg70
g2017
sg63
(lp2024
S'is_restful'
p2025
asbag56
(g77
g58
NtRp2026
(dp2027
g61
(dp2028
g88
g89
ssg70
g2017
sg63
(lp2029
S':'
asbag56
(g77
g58
NtRp2030
(dp2031
g61
(dp2032
sg70
g2017
sg63
(lp2033
g56
(g57
g58
NtRp2034
(dp2035
g61
(dp2036
g69
I5
ssg70
g2030
sg63
(lp2037
g99
asbasbasbag56
(g72
g58
NtRp2038
(dp2039
g61
(dp2040
sg70
g66
sg63
(lp2041
g56
(g77
g58
NtRp2042
(dp2043
g61
(dp2044
g81
g82
ssg70
g2038
sg63
(lp2045
S'now'
p2046
asbag56
(g77
g58
NtRp2047
(dp2048
g61
(dp2049
g88
g89
ssg70
g2038
sg63
(lp2050
S':'
asbag56
(g77
g58
NtRp2051
(dp2052
g61
(dp2053
sg70
g2038
sg63
(lp2054
g56
(g57
g58
NtRp2055
(dp2056
g61
(dp2057
g69
I5
ssg70
g2051
sg63
(lp2058
S'datetime.datetime(2011, 11, 4, 10, 11, 54, 817000)'
p2059
asbasbasbag56
(g72
g58
NtRp2060
(dp2061
g61
(dp2062
sg70
g66
sg63
(lp2063
g56
(g77
g58
NtRp2064
(dp2065
g61
(dp2066
g81
g82
ssg70
g2060
sg63
(lp2067
S'post_vars'
p2068
asbag56
(g77
g58
NtRp2069
(dp2070
g61
(dp2071
g88
g89
ssg70
g2060
sg63
(lp2072
S':'
asbag56
(g77
g58
NtRp2073
(dp2074
g61
(dp2075
sg70
g2060
sg63
(lp2076
g56
(g57
g58
NtRp2077
(dp2078
g61
(dp2079
g69
I5
ssg70
g2073
sg63
(lp2080
g56
(g65
g58
NtRp2081
(dp2082
g61
(dp2083
g69
I4
ssg70
Nsg63
(lp2084
sbasbasbasbag56
(g72
g58
NtRp2085
(dp2086
g61
(dp2087
sg70
g66
sg63
(lp2088
g56
(g77
g58
NtRp2089
(dp2090
g61
(dp2091
g81
g82
ssg70
g2085
sg63
(lp2092
S'url'
p2093
asbag56
(g77
g58
NtRp2094
(dp2095
g61
(dp2096
g88
g89
ssg70
g2085
sg63
(lp2097
S':'
asbag56
(g77
g58
NtRp2098
(dp2099
g61
(dp2100
sg70
g2085
sg63
(lp2101
g56
(g57
g58
NtRp2102
(dp2103
g61
(dp2104
g69
I5
ssg70
g2098
sg63
(lp2105
S'/init/default/contact'
p2106
asbasbasbag56
(g72
g58
NtRp2107
(dp2108
g61
(dp2109
sg70
g66
sg63
(lp2110
g56
(g77
g58
NtRp2111
(dp2112
g61
(dp2113
g81
g82
ssg70
g2107
sg63
(lp2114
S'utcnow'
p2115
asbag56
(g77
g58
NtRp2116
(dp2117
g61
(dp2118
g88
g89
ssg70
g2107
sg63
(lp2119
S':'
asbag56
(g77
g58
NtRp2120
(dp2121
g61
(dp2122
sg70
g2107
sg63
(lp2123
g56
(g57
g58
NtRp2124
(dp2125
g61
(dp2126
g69
I5
ssg70
g2120
sg63
(lp2127
S'datetime.datetime(2011, 11, 4, 14, 11, 54, 817000)'
p2128
asbasbasbag56
(g72
g58
NtRp2129
(dp2130
g61
(dp2131
sg70
g66
sg63
(lp2132
g56
(g77
g58
NtRp2133
(dp2134
g61
(dp2135
g81
g82
ssg70
g2129
sg63
(lp2136
S'uuid'
p2137
asbag56
(g77
g58
NtRp2138
(dp2139
g61
(dp2140
g88
g89
ssg70
g2129
sg63
(lp2141
S':'
asbag56
(g77
g58
NtRp2142
(dp2143
g61
(dp2144
sg70
g2129
sg63
(lp2145
g56
(g57
g58
NtRp2146
(dp2147
g61
(dp2148
g69
I5
ssg70
g2142
sg63
(lp2149
S'init/127.0.0.1.2011-11-04.10-11-54.40ed6bbe-9ada-4033-9dea-75bf20b4cd81'
p2150
asbasbasbag56
(g72
g58
NtRp2151
(dp2152
g61
(dp2153
sg70
g66
sg63
(lp2154
g56
(g77
g58
NtRp2155
(dp2156
g61
(dp2157
g81
g82
ssg70
g2151
sg63
(lp2158
S'vars'
p2159
asbag56
(g77
g58
NtRp2160
(dp2161
g61
(dp2162
g88
g89
ssg70
g2151
sg63
(lp2163
S':'
asbag56
(g77
g58
NtRp2164
(dp2165
g61
(dp2166
sg70
g2151
sg63
(lp2167
g56
(g57
g58
NtRp2168
(dp2169
g61
(dp2170
g69
I5
ssg70
g2164
sg63
(lp2171
g56
(g65
g58
NtRp2172
(dp2173
g61
(dp2174
g69
I4
ssg70
Nsg63
(lp2175
sbasbasbasbag56
(g72
g58
NtRp2176
(dp2177
g61
(dp2178
sg70
g66
sg63
(lp2179
g56
(g77
g58
NtRp2180
(dp2181
g61
(dp2182
g81
g82
ssg70
g2176
sg63
(lp2183
S'wsgi'
p2184
asbag56
(g77
g58
NtRp2185
(dp2186
g61
(dp2187
g88
g89
ssg70
g2176
sg63
(lp2188
S':'
asbag56
(g77
g58
NtRp2189
(dp2190
g61
(dp2191
sg70
g2176
sg63
(lp2192
g56
(g57
g58
NtRp2193
(dp2194
g61
(dp2195
g69
I5
ssg70
g2189
sg63
(lp2196
g56
(g65
g58
NtRp2197
(dp2198
g61
(dp2199
g69
I4
ssg70
Nsg63
(lp2200
g56
(g72
g58
NtRp2201
(dp2202
g61
(dp2203
sg70
g2197
sg63
(lp2204
g56
(g77
g58
NtRp2205
(dp2206
g61
(dp2207
g81
g82
ssg70
g2201
sg63
(lp2208
S'environ'
p2209
asbag56
(g77
g58
NtRp2210
(dp2211
g61
(dp2212
g88
g89
ssg70
g2201
sg63
(lp2213
S':'
asbag56
(g77
g58
NtRp2214
(dp2215
g61
(dp2216
sg70
g2201
sg63
(lp2217
g56
(g57
g58
NtRp2218
(dp2219
g61
(dp2220
g69
I4
ssg70
g2214
sg63
(lp2221
g56
(g65
g58
NtRp2222
(dp2223
g61
(dp2224
g69
I3
ssg70
Nsg63
(lp2225
g56
(g72
g58
NtRp2226
(dp2227
g61
(dp2228
sg70
g2222
sg63
(lp2229
g56
(g77
g58
NtRp2230
(dp2231
g61
(dp2232
g81
g82
ssg70
g2226
sg63
(lp2233
S'HTTP_ACCEPT'
p2234
asbag56
(g77
g58
NtRp2235
(dp2236
g61
(dp2237
g88
g89
ssg70
g2226
sg63
(lp2238
S':'
asbag56
(g77
g58
NtRp2239
(dp2240
g61
(dp2241
sg70
g2226
sg63
(lp2242
g56
(g57
g58
NtRp2243
(dp2244
g61
(dp2245
g69
I3
ssg70
g2239
sg63
(lp2246
g817
asbasbasbag56
(g72
g58
NtRp2247
(dp2248
g61
(dp2249
sg70
g2222
sg63
(lp2250
g56
(g77
g58
NtRp2251
(dp2252
g61
(dp2253
g81
g82
ssg70
g2247
sg63
(lp2254
S'HTTP_ACCEPT_CHARSET'
p2255
asbag56
(g77
g58
NtRp2256
(dp2257
g61
(dp2258
g88
g89
ssg70
g2247
sg63
(lp2259
S':'
asbag56
(g77
g58
NtRp2260
(dp2261
g61
(dp2262
sg70
g2247
sg63
(lp2263
g56
(g57
g58
NtRp2264
(dp2265
g61
(dp2266
g69
I3
ssg70
g2260
sg63
(lp2267
g839
asbasbasbag56
(g72
g58
NtRp2268
(dp2269
g61
(dp2270
sg70
g2222
sg63
(lp2271
g56
(g77
g58
NtRp2272
(dp2273
g61
(dp2274
g81
g82
ssg70
g2268
sg63
(lp2275
S'HTTP_ACCEPT_ENCODING'
p2276
asbag56
(g77
g58
NtRp2277
(dp2278
g61
(dp2279
g88
g89
ssg70
g2268
sg63
(lp2280
S':'
asbag56
(g77
g58
NtRp2281
(dp2282
g61
(dp2283
sg70
g2268
sg63
(lp2284
g56
(g57
g58
NtRp2285
(dp2286
g61
(dp2287
g69
I3
ssg70
g2281
sg63
(lp2288
g861
asbasbasbag56
(g72
g58
NtRp2289
(dp2290
g61
(dp2291
sg70
g2222
sg63
(lp2292
g56
(g77
g58
NtRp2293
(dp2294
g61
(dp2295
g81
g82
ssg70
g2289
sg63
(lp2296
S'HTTP_ACCEPT_LANGUAGE'
p2297
asbag56
(g77
g58
NtRp2298
(dp2299
g61
(dp2300
g88
g89
ssg70
g2289
sg63
(lp2301
S':'
asbag56
(g77
g58
NtRp2302
(dp2303
g61
(dp2304
sg70
g2289
sg63
(lp2305
g56
(g57
g58
NtRp2306
(dp2307
g61
(dp2308
g69
I3
ssg70
g2302
sg63
(lp2309
g883
asbasbasbag56
(g72
g58
NtRp2310
(dp2311
g61
(dp2312
sg70
g2222
sg63
(lp2313
g56
(g77
g58
NtRp2314
(dp2315
g61
(dp2316
g81
g82
ssg70
g2310
sg63
(lp2317
S'HTTP_CONNECTION'
p2318
asbag56
(g77
g58
NtRp2319
(dp2320
g61
(dp2321
g88
g89
ssg70
g2310
sg63
(lp2322
S':'
asbag56
(g77
g58
NtRp2323
(dp2324
g61
(dp2325
sg70
g2310
sg63
(lp2326
g56
(g57
g58
NtRp2327
(dp2328
g61
(dp2329
g69
I3
ssg70
g2323
sg63
(lp2330
g905
asbasbasbag56
(g72
g58
NtRp2331
(dp2332
g61
(dp2333
sg70
g2222
sg63
(lp2334
g56
(g77
g58
NtRp2335
(dp2336
g61
(dp2337
g81
g82
ssg70
g2331
sg63
(lp2338
S'HTTP_COOKIE'
p2339
asbag56
(g77
g58
NtRp2340
(dp2341
g61
(dp2342
g88
g89
ssg70
g2331
sg63
(lp2343
S':'
asbag56
(g77
g58
NtRp2344
(dp2345
g61
(dp2346
sg70
g2331
sg63
(lp2347
g56
(g57
g58
NtRp2348
(dp2349
g61
(dp2350
g69
I3
ssg70
g2344
sg63
(lp2351
g927
asbasbasbag56
(g72
g58
NtRp2352
(dp2353
g61
(dp2354
sg70
g2222
sg63
(lp2355
g56
(g77
g58
NtRp2356
(dp2357
g61
(dp2358
g81
g82
ssg70
g2352
sg63
(lp2359
S'HTTP_HOST'
p2360
asbag56
(g77
g58
NtRp2361
(dp2362
g61
(dp2363
g88
g89
ssg70
g2352
sg63
(lp2364
S':'
asbag56
(g77
g58
NtRp2365
(dp2366
g61
(dp2367
sg70
g2352
sg63
(lp2368
g56
(g57
g58
NtRp2369
(dp2370
g61
(dp2371
g69
I3
ssg70
g2365
sg63
(lp2372
g949
asbasbasbag56
(g72
g58
NtRp2373
(dp2374
g61
(dp2375
sg70
g2222
sg63
(lp2376
g56
(g77
g58
NtRp2377
(dp2378
g61
(dp2379
g81
g82
ssg70
g2373
sg63
(lp2380
S'HTTP_KEEP_ALIVE'
p2381
asbag56
(g77
g58
NtRp2382
(dp2383
g61
(dp2384
g88
g89
ssg70
g2373
sg63
(lp2385
S':'
asbag56
(g77
g58
NtRp2386
(dp2387
g61
(dp2388
sg70
g2373
sg63
(lp2389
g56
(g57
g58
NtRp2390
(dp2391
g61
(dp2392
g69
I3
ssg70
g2386
sg63
(lp2393
g971
asbasbasbag56
(g72
g58
NtRp2394
(dp2395
g61
(dp2396
sg70
g2222
sg63
(lp2397
g56
(g77
g58
NtRp2398
(dp2399
g61
(dp2400
g81
g82
ssg70
g2394
sg63
(lp2401
S'HTTP_REFERER'
p2402
asbag56
(g77
g58
NtRp2403
(dp2404
g61
(dp2405
g88
g89
ssg70
g2394
sg63
(lp2406
S':'
asbag56
(g77
g58
NtRp2407
(dp2408
g61
(dp2409
sg70
g2394
sg63
(lp2410
g56
(g57
g58
NtRp2411
(dp2412
g61
(dp2413
g69
I3
ssg70
g2407
sg63
(lp2414
g993
asbasbasbag56
(g72
g58
NtRp2415
(dp2416
g61
(dp2417
sg70
g2222
sg63
(lp2418
g56
(g77
g58
NtRp2419
(dp2420
g61
(dp2421
g81
g82
ssg70
g2415
sg63
(lp2422
S'HTTP_USER_AGENT'
p2423
asbag56
(g77
g58
NtRp2424
(dp2425
g61
(dp2426
g88
g89
ssg70
g2415
sg63
(lp2427
S':'
asbag56
(g77
g58
NtRp2428
(dp2429
g61
(dp2430
sg70
g2415
sg63
(lp2431
g56
(g57
g58
NtRp2432
(dp2433
g61
(dp2434
g69
I3
ssg70
g2428
sg63
(lp2435
g1015
asbasbasbag56
(g72
g58
NtRp2436
(dp2437
g61
(dp2438
sg70
g2222
sg63
(lp2439
g56
(g77
g58
NtRp2440
(dp2441
g61
(dp2442
g81
g82
ssg70
g2436
sg63
(lp2443
S'PATH_INFO'
p2444
asbag56
(g77
g58
NtRp2445
(dp2446
g61
(dp2447
g88
g89
ssg70
g2436
sg63
(lp2448
S':'
asbag56
(g77
g58
NtRp2449
(dp2450
g61
(dp2451
sg70
g2436
sg63
(lp2452
g56
(g57
g58
NtRp2453
(dp2454
g61
(dp2455
g69
I3
ssg70
g2449
sg63
(lp2456
g1058
asbasbasbag56
(g72
g58
NtRp2457
(dp2458
g61
(dp2459
sg70
g2222
sg63
(lp2460
g56
(g77
g58
NtRp2461
(dp2462
g61
(dp2463
g81
g82
ssg70
g2457
sg63
(lp2464
S'QUERY_STRING'
p2465
asbag56
(g77
g58
NtRp2466
(dp2467
g61
(dp2468
g88
g89
ssg70
g2457
sg63
(lp2469
S':'
asbag56
(g77
g58
NtRp2470
(dp2471
g61
(dp2472
sg70
g2457
sg63
(lp2473
g56
(g57
g58
NtRp2474
(dp2475
g61
(dp2476
g69
I3
ssg70
g2470
sg63
(lp2477
S''
asbasbasbag56
(g72
g58
NtRp2478
(dp2479
g61
(dp2480
sg70
g2222
sg63
(lp2481
g56
(g77
g58
NtRp2482
(dp2483
g61
(dp2484
g81
g82
ssg70
g2478
sg63
(lp2485
S'REMOTE_ADDR'
p2486
asbag56
(g77
g58
NtRp2487
(dp2488
g61
(dp2489
g88
g89
ssg70
g2478
sg63
(lp2490
S':'
asbag56
(g77
g58
NtRp2491
(dp2492
g61
(dp2493
sg70
g2478
sg63
(lp2494
g56
(g57
g58
NtRp2495
(dp2496
g61
(dp2497
g69
I3
ssg70
g2491
sg63
(lp2498
g189
asbasbasbag56
(g72
g58
NtRp2499
(dp2500
g61
(dp2501
sg70
g2222
sg63
(lp2502
g56
(g77
g58
NtRp2503
(dp2504
g61
(dp2505
g81
g82
ssg70
g2499
sg63
(lp2506
S'REMOTE_PORT'
p2507
asbag56
(g77
g58
NtRp2508
(dp2509
g61
(dp2510
g88
g89
ssg70
g2499
sg63
(lp2511
S':'
asbag56
(g77
g58
NtRp2512
(dp2513
g61
(dp2514
sg70
g2499
sg63
(lp2515
g56
(g57
g58
NtRp2516
(dp2517
g61
(dp2518
g69
I3
ssg70
g2512
sg63
(lp2519
g1122
asbasbasbag56
(g72
g58
NtRp2520
(dp2521
g61
(dp2522
sg70
g2222
sg63
(lp2523
g56
(g77
g58
NtRp2524
(dp2525
g61
(dp2526
g81
g82
ssg70
g2520
sg63
(lp2527
S'REQUEST_METHOD'
p2528
asbag56
(g77
g58
NtRp2529
(dp2530
g61
(dp2531
g88
g89
ssg70
g2520
sg63
(lp2532
S':'
asbag56
(g77
g58
NtRp2533
(dp2534
g61
(dp2535
sg70
g2520
sg63
(lp2536
g56
(g57
g58
NtRp2537
(dp2538
g61
(dp2539
g69
I3
ssg70
g2533
sg63
(lp2540
g1144
asbasbasbag56
(g72
g58
NtRp2541
(dp2542
g61
(dp2543
sg70
g2222
sg63
(lp2544
g56
(g77
g58
NtRp2545
(dp2546
g61
(dp2547
g81
g82
ssg70
g2541
sg63
(lp2548
S'SCRIPT_NAME'
p2549
asbag56
(g77
g58
NtRp2550
(dp2551
g61
(dp2552
g88
g89
ssg70
g2541
sg63
(lp2553
S':'
asbag56
(g77
g58
NtRp2554
(dp2555
g61
(dp2556
sg70
g2541
sg63
(lp2557
g56
(g57
g58
NtRp2558
(dp2559
g61
(dp2560
g69
I3
ssg70
g2554
sg63
(lp2561
S''
asbasbasbag56
(g72
g58
NtRp2562
(dp2563
g61
(dp2564
sg70
g2222
sg63
(lp2565
g56
(g77
g58
NtRp2566
(dp2567
g61
(dp2568
g81
g82
ssg70
g2562
sg63
(lp2569
S'SERVER_NAME'
p2570
asbag56
(g77
g58
NtRp2571
(dp2572
g61
(dp2573
g88
g89
ssg70
g2562
sg63
(lp2574
S':'
asbag56
(g77
g58
NtRp2575
(dp2576
g61
(dp2577
sg70
g2562
sg63
(lp2578
g56
(g57
g58
NtRp2579
(dp2580
g61
(dp2581
g69
I3
ssg70
g2575
sg63
(lp2582
g1187
asbasbasbag56
(g72
g58
NtRp2583
(dp2584
g61
(dp2585
sg70
g2222
sg63
(lp2586
g56
(g77
g58
NtRp2587
(dp2588
g61
(dp2589
g81
g82
ssg70
g2583
sg63
(lp2590
S'SERVER_PORT'
p2591
asbag56
(g77
g58
NtRp2592
(dp2593
g61
(dp2594
g88
g89
ssg70
g2583
sg63
(lp2595
S':'
asbag56
(g77
g58
NtRp2596
(dp2597
g61
(dp2598
sg70
g2583
sg63
(lp2599
g56
(g57
g58
NtRp2600
(dp2601
g61
(dp2602
g69
I3
ssg70
g2596
sg63
(lp2603
g1209
asbasbasbag56
(g72
g58
NtRp2604
(dp2605
g61
(dp2606
sg70
g2222
sg63
(lp2607
g56
(g77
g58
NtRp2608
(dp2609
g61
(dp2610
g81
g82
ssg70
g2604
sg63
(lp2611
S'SERVER_PROTOCOL'
p2612
asbag56
(g77
g58
NtRp2613
(dp2614
g61
(dp2615
g88
g89
ssg70
g2604
sg63
(lp2616
S':'
asbag56
(g77
g58
NtRp2617
(dp2618
g61
(dp2619
sg70
g2604
sg63
(lp2620
g56
(g57
g58
NtRp2621
(dp2622
g61
(dp2623
g69
I3
ssg70
g2617
sg63
(lp2624
g1231
asbasbasbag56
(g72
g58
NtRp2625
(dp2626
g61
(dp2627
sg70
g2222
sg63
(lp2628
g56
(g77
g58
NtRp2629
(dp2630
g61
(dp2631
g81
g82
ssg70
g2625
sg63
(lp2632
S'SERVER_SOFTWARE'
p2633
asbag56
(g77
g58
NtRp2634
(dp2635
g61
(dp2636
g88
g89
ssg70
g2625
sg63
(lp2637
S':'
asbag56
(g77
g58
NtRp2638
(dp2639
g61
(dp2640
sg70
g2625
sg63
(lp2641
g56
(g57
g58
NtRp2642
(dp2643
g61
(dp2644
g69
I3
ssg70
g2638
sg63
(lp2645
g1253
asbasbasbag56
(g72
g58
NtRp2646
(dp2647
g61
(dp2648
sg70
g2222
sg63
(lp2649
g56
(g77
g58
NtRp2650
(dp2651
g61
(dp2652
g81
g82
ssg70
g2646
sg63
(lp2653
S'wsgi.errors'
p2654
asbag56
(g77
g58
NtRp2655
(dp2656
g61
(dp2657
g88
g89
ssg70
g2646
sg63
(lp2658
S':'
asbag56
(g77
g58
NtRp2659
(dp2660
g61
(dp2661
sg70
g2646
sg63
(lp2662
g56
(g57
g58
NtRp2663
(dp2664
g61
(dp2665
g69
I3
ssg70
g2659
sg63
(lp2666
S"<open file '<stderr>', mode 'w' at 0x01DC50D0>"
p2667
asbasbasbag56
(g72
g58
NtRp2668
(dp2669
g61
(dp2670
sg70
g2222
sg63
(lp2671
g56
(g77
g58
NtRp2672
(dp2673
g61
(dp2674
g81
g82
ssg70
g2668
sg63
(lp2675
S'wsgi.file_wrapper'
p2676
asbag56
(g77
g58
NtRp2677
(dp2678
g61
(dp2679
g88
g89
ssg70
g2668
sg63
(lp2680
S':'
asbag56
(g77
g58
NtRp2681
(dp2682
g61
(dp2683
sg70
g2668
sg63
(lp2684
g56
(g57
g58
NtRp2685
(dp2686
g61
(dp2687
g69
I3
ssg70
g2681
sg63
(lp2688
S'<class wsgiref.util.FileWrapper at 0x02D07AB0>'
p2689
asbasbasbag56
(g72
g58
NtRp2690
(dp2691
g61
(dp2692
sg70
g2222
sg63
(lp2693
g56
(g77
g58
NtRp2694
(dp2695
g61
(dp2696
g81
g82
ssg70
g2690
sg63
(lp2697
S'wsgi.input'
p2698
asbag56
(g77
g58
NtRp2699
(dp2700
g61
(dp2701
g88
g89
ssg70
g2690
sg63
(lp2702
S':'
asbag56
(g77
g58
NtRp2703
(dp2704
g61
(dp2705
sg70
g2690
sg63
(lp2706
g56
(g57
g58
NtRp2707
(dp2708
g61
(dp2709
g69
I3
ssg70
g2703
sg63
(lp2710
S'<cStringIO.StringO object at 0x090F9E00>'
p2711
asbasbasbag56
(g72
g58
NtRp2712
(dp2713
g61
(dp2714
sg70
g2222
sg63
(lp2715
g56
(g77
g58
NtRp2716
(dp2717
g61
(dp2718
g81
g82
ssg70
g2712
sg63
(lp2719
S'wsgi.multiprocess'
p2720
asbag56
(g77
g58
NtRp2721
(dp2722
g61
(dp2723
g88
g89
ssg70
g2712
sg63
(lp2724
S':'
asbag56
(g77
g58
NtRp2725
(dp2726
g61
(dp2727
sg70
g2712
sg63
(lp2728
g56
(g57
g58
NtRp2729
(dp2730
g61
(dp2731
g69
I3
ssg70
g2725
sg63
(lp2732
g99
asbasbasbag56
(g72
g58
NtRp2733
(dp2734
g61
(dp2735
sg70
g2222
sg63
(lp2736
g56
(g77
g58
NtRp2737
(dp2738
g61
(dp2739
g81
g82
ssg70
g2733
sg63
(lp2740
S'wsgi.multithread'
p2741
asbag56
(g77
g58
NtRp2742
(dp2743
g61
(dp2744
g88
g89
ssg70
g2733
sg63
(lp2745
S':'
asbag56
(g77
g58
NtRp2746
(dp2747
g61
(dp2748
sg70
g2733
sg63
(lp2749
g56
(g57
g58
NtRp2750
(dp2751
g61
(dp2752
g69
I3
ssg70
g2746
sg63
(lp2753
g1493
asbasbasbag56
(g72
g58
NtRp2754
(dp2755
g61
(dp2756
sg70
g2222
sg63
(lp2757
g56
(g77
g58
NtRp2758
(dp2759
g61
(dp2760
g81
g82
ssg70
g2754
sg63
(lp2761
S'wsgi.run_once'
p2762
asbag56
(g77
g58
NtRp2763
(dp2764
g61
(dp2765
g88
g89
ssg70
g2754
sg63
(lp2766
S':'
asbag56
(g77
g58
NtRp2767
(dp2768
g61
(dp2769
sg70
g2754
sg63
(lp2770
g56
(g57
g58
NtRp2771
(dp2772
g61
(dp2773
g69
I3
ssg70
g2767
sg63
(lp2774
g99
asbasbasbag56
(g72
g58
NtRp2775
(dp2776
g61
(dp2777
sg70
g2222
sg63
(lp2778
g56
(g77
g58
NtRp2779
(dp2780
g61
(dp2781
g81
g82
ssg70
g2775
sg63
(lp2782
S'wsgi.url_scheme'
p2783
asbag56
(g77
g58
NtRp2784
(dp2785
g61
(dp2786
g88
g89
ssg70
g2775
sg63
(lp2787
S':'
asbag56
(g77
g58
NtRp2788
(dp2789
g61
(dp2790
sg70
g2775
sg63
(lp2791
g56
(g57
g58
NtRp2792
(dp2793
g61
(dp2794
g69
I3
ssg70
g2788
sg63
(lp2795
g1536
asbasbasbag56
(g72
g58
NtRp2796
(dp2797
g61
(dp2798
sg70
g2222
sg63
(lp2799
g56
(g77
g58
NtRp2800
(dp2801
g61
(dp2802
g81
g82
ssg70
g2796
sg63
(lp2803
S'wsgi.version'
p2804
asbag56
(g77
g58
NtRp2805
(dp2806
g61
(dp2807
g88
g89
ssg70
g2796
sg63
(lp2808
S':'
asbag56
(g77
g58
NtRp2809
(dp2810
g61
(dp2811
sg70
g2796
sg63
(lp2812
g56
(g57
g58
NtRp2813
(dp2814
g61
(dp2815
g69
I3
ssg70
g2809
sg63
(lp2816
S'1'
asbasbasbasbasbasbasbasbasbasbasbasbasbsS'frames'
p2817
(lp2818
(dp2819
S'file'
p2820
S'P:\\Workbench\\DevEnv\\web2py\\gluon\\restricted.py'
p2821
sS'dump'
p2822
(dp2823
S'environment'
p2824
S"{'A': <class 'gluon.html.A'>, 'Auth': <class 'gluon.tools.Auth'>, 'B': <class 'gluon.html.B'>, 'BEAUTIFY': <class 'gluon.html.BEAUTIFY'>, 'BODY': <class 'gluon.html.BODY'>, 'BR': <class 'gluon.html.BR'>, 'BUTTON': <class 'gluon.html.BUTTON'>, 'CAT': <class 'gluon.html.CAT'>, 'CENTER': <class 'gluon.html.CENTER'>, 'CLEANUP': <class 'gluon.validators.CLEANUP'>, ...}"
p2825
sS'ccode'
p2826
S'<code object <module> at 032F6A88, file "P:\\Work...cations\\init\\views\\default/contact.html", line 1>'
p2827
ssS'lnum'
p2828
I192
sS'lines'
p2829
(dp2830
I192
S'        exec ccode in environment'
p2831
sI193
S'    except HTTP:'
p2832
sI194
S'        raise'
p2833
sI195
S'    except Exception:'
p2834
sI196
S'        # XXX Show exception in Wing IDE if running in debugger'
p2835
sI187
S'    try:'
p2836
sI188
S'        if type(code) == types.CodeType:'
p2837
sI189
S'            ccode = code'
p2838
sI190
S'        else:'
p2839
sI191
S'            ccode = compile2(code,layer)'
p2840
ssS'call'
p2841
S'(code=\'response.write(\\\'<!DOCTYPE html PUBLIC "-//W3C//D...iv>\\\\r\\\\n\\\\r\\\\n</body>\\\\r\\\\n</html>\\\\r\\\\n\\\', escape=False)\', environment={\'A\': <class \'gluon.html.A\'>, \'Auth\': <class \'gluon.tools.Auth\'>, \'B\': <class \'gluon.html.B\'>, \'BEAUTIFY\': <class \'gluon.html.BEAUTIFY\'>, \'BODY\': <class \'gluon.html.BODY\'>, \'BR\': <class \'gluon.html.BR\'>, \'BUTTON\': <class \'gluon.html.BUTTON\'>, \'CAT\': <class \'gluon.html.CAT\'>, \'CENTER\': <class \'gluon.html.CENTER\'>, \'CLEANUP\': <class \'gluon.validators.CLEANUP\'>, ...}, layer=r\'P:\\Workbench\\DevEnv\\web2py\\applications\\init\\views\\default/contact.html\')'
p2842
sS'func'
p2843
S'restricted'
p2844
sa(dp2845
g2820
S'P:\\Workbench\\DevEnv\\web2py\\applications\\init\\views\\default\\contact.html'
p2846
sg2822
(dp2847
S'builtininput'
p2848
S'<built-in function input>'
p2849
sS'builtintype'
p2850
S"<type 'type'>"
p2851
sS'builtinid'
p2852
S'<built-in function id>'
p2853
sS'br'
p2854
S'undefined'
p2855
sS'label'
p2856
g2855
sS'Email'
p2857
g2855
ssg2828
I8
sg2829
(dp2858
I1
S'response.write(\'<!DOCTYPE html PUBLIC "-//W3C//DTD XHTML 1.0 Transitional//EN" "http://www.w3.org/TR/xhtml1/DTD/xhtml1-transitional.dtd">\\r\\n\\r\\n<html xmlns="http://www.w3.org/1999/xhtml" xml:lang="en" lang="en">\\r\\n<head>\\r\\n    <meta http-equiv="Content-Type" content="text/html; charset=utf-8" />\\r\\n\\r\\n    <title>Fitness Challenge    </title>\\r\\n\\r\\n    <link rel="stylesheet" type="text/css" media="screen" href="\', escape=False)'
p2859
sI2
S"response.write(URL('static', 'css/style.css'))"
p2860
sI3
S'response.write(\'" />\\r\\n</head>\\r\\n<body>\\r\\n\\r\\n<div id="header">\\r\\n    <div id="headMenu">\\r\\n        <ul>\\r\\n            <li><a class="headMenuHomeSelected" href="\', escape=False)'
p2861
sI4
S"response.write(URL(r=request,f='index'))"
p2862
sI5
S'response.write(\'"><span class="verticalAlign">home</span></a></li>\\r\\n            <li><a class="headMenuArticles" href="#"><span class="verticalAlign">challenges</span></a></li>\\r\\n            <li><a class="headMenuContact" href="\', escape=False)'
p2863
sI6
S"response.write(URL(r=request,f='contact'))"
p2864
sI7
S'response.write(\'"><span class="verticalAlign">contact</span></a></li>\\r\\n        </ul>\\r\\n    </div>\\r\\n    \\r\\n    <div id="mainTitle">\\r\\n        <h1>Fitness Challenge </h1>\\r\\n        <h3>Step Up To The Challenge</h3>\\r\\n    </div>\\r\\n</div>\\r\\n\\r\\n<div id="content-wrapper">\\r\\n    <div id="content">\\r\\n        <h1 class="titlePage">\', escape=False)'
p2865
sI8
S"response.write(T( request.args(0).replace('_',' ').capitalize() ))"
p2866
sI9
S'response.write(\'</h1>\\r\\n        <div class="post">\\r\\n            <div class="postContent">\\r\\n                \', escape=False)'
p2867
sI10
S'response.write(\'\\r\\n\\r\\n<form action="#" method="post">\\r\\n    <label for="name">Name: </label> <input class="contactInputText" type="text" id="name" /><br />\\r\\n    <div style="clear:left"></div>\\r\\n    <label for="subject">Subject: </label> <input class="contactInputText" type="text" id="subject" /><br />\\r\\n    <div style="clear:left"></div>\\r\\n    <label for="email">Email: </label> <input class="contactInputText" type="text" id="email" /><br />\\r\\n    <div style="clear:left"></div>\\r\\n    <label for="message">Message: </label> <textarea class="contactTextArea" id="message" rows="8" cols="40"></textarea><br />\\r\\n    <div style="clear:left"></div>\\r\\n    \\r\\n    <input type="submit" class="button" value="Submit" />\\r\\n</form>\\r\\n\', escape=False)'
p2868
sI11
S'response.write(\'\\r\\n            </div>\\r\\n        </div>\\r\\n    </div>\\r\\n    <div class="clear"></div>\\r\\n</div>\\r\\n\\r\\n<div id="footer">\\r\\n    <ul>\\r\\n        <li><a href="#">home</a> |</li>\\r\\n        <li><a href="#">about us</a> |</li>\\r\\n        <li><a href="#">sitemap</a> |</li>\\r\\n        <li><a href="#">contact</a></li>\\r\\n    </ul>\\r\\n    <p class="copyright"><a href="http://www.florian-hacquebart.eu">florian-hacquebart.eu</a> - free css template</p>\\r\\n    <p class="w3cvalidator">\\r\\n        <a href="http://validator.w3.org/check?uri=referer">\\r\\n            <img src="images/xhtml.png" alt="Valid XHTML 1.0 Transitional" />\\r\\n        </a>&nbsp;\\r\\n        <a href="http://jigsaw.w3.org/css-validator/check/referer">\\r\\n            <img src="images/css.png" alt="Valid CSS!" />\\r\\n        </a>\\r\\n    </p>\\r\\n</div>\\r\\n\\r\\n</body>\\r\\n</html>\\r\\n\', escape=False)'
p2869
ssg2841
S'()'
p2870
sg2843
S'<module>'
p2871
sasS'pyver'
p2872
S'Python 2.7.2: P:\\Workbench\\DevEnv\\Python27\\python.exe'
p2873
sS'session'
p2874
g56
(g57
g58
NtRp2875
(dp2876
g61
(dp2877
sg63
(lp2878
g56
(g65
g58
NtRp2879
(dp2880
g61
(dp2881
g69
I5
ssg70
Nsg63
(lp2882
sbasbsS'etype'
p2883
S"<type 'exceptions.AttributeError'>"
p2884
sS'date'
p2885
S'Fri Nov 04 10:11:54 2011'
p2886
sS'response'
p2887
g56
(g57
g58
NtRp2888
(dp2889
g61
(dp2890
sg63
(lp2891
g56
(g65
g58
NtRp2892
(dp2893
g61
(dp2894
g69
I5
ssg70
Nsg63
(lp2895
g56
(g72
g58
NtRp2896
(dp2897
g61
(dp2898
sg70
g2892
sg63
(lp2899
g56
(g77
g58
NtRp2900
(dp2901
g61
(dp2902
g81
g82
ssg70
g2896
sg63
(lp2903
g154
asbag56
(g77
g58
NtRp2904
(dp2905
g61
(dp2906
g88
g89
ssg70
g2896
sg63
(lp2907
S':'
asbag56
(g77
g58
NtRp2908
(dp2909
g61
(dp2910
sg70
g2896
sg63
(lp2911
g56
(g57
g58
NtRp2912
(dp2913
g61
(dp2914
g69
I5
ssg70
g2908
sg63
(lp2915
S'<cStringIO.StringO object at 0x099696C0>'
p2916
asbasbasbag56
(g72
g58
NtRp2917
(dp2918
g61
(dp2919
sg70
g2892
sg63
(lp2920
g56
(g77
g58
NtRp2921
(dp2922
g61
(dp2923
g81
g82
ssg70
g2917
sg63
(lp2924
g220
asbag56
(g77
g58
NtRp2925
(dp2926
g61
(dp2927
g88
g89
ssg70
g2917
sg63
(lp2928
S':'
asbag56
(g77
g58
NtRp2929
(dp2930
g61
(dp2931
sg70
g2917
sg63
(lp2932
g56
(g57
g58
NtRp2933
(dp2934
g61
(dp2935
g69
I5
ssg70
g2929
sg63
(lp2936
g56
(g65
g58
NtRp2937
(dp2938
g61
(dp2939
g69
I4
ssg70
Nsg63
(lp2940
g56
(g72
g58
NtRp2941
(dp2942
g61
(dp2943
sg70
g2937
sg63
(lp2944
g56
(g77
g58
NtRp2945
(dp2946
g61
(dp2947
g81
g82
ssg70
g2941
sg63
(lp2948
S'session_id_init'
p2949
asbag56
(g77
g58
NtRp2950
(dp2951
g61
(dp2952
g88
g89
ssg70
g2941
sg63
(lp2953
S':'
asbag56
(g77
g58
NtRp2954
(dp2955
g61
(dp2956
sg70
g2941
sg63
(lp2957
g56
(g57
g58
NtRp2958
(dp2959
g61
(dp2960
g69
I4
ssg70
g2954
sg63
(lp2961
g56
(g65
g58
NtRp2962
(dp2963
g61
(dp2964
g69
I3
ssg70
Nsg63
(lp2965
g56
(g72
g58
NtRp2966
(dp2967
g61
(dp2968
sg70
g2962
sg63
(lp2969
g56
(g77
g58
NtRp2970
(dp2971
g61
(dp2972
g81
g82
ssg70
g2966
sg63
(lp2973
g270
asbag56
(g77
g58
NtRp2974
(dp2975
g61
(dp2976
g88
g89
ssg70
g2966
sg63
(lp2977
S':'
asbag56
(g77
g58
NtRp2978
(dp2979
g61
(dp2980
sg70
g2966
sg63
(lp2981
g56
(g57
g58
NtRp2982
(dp2983
g61
(dp2984
g69
I3
ssg70
g2978
sg63
(lp2985
S''
asbasbasbag56
(g72
g58
NtRp2986
(dp2987
g61
(dp2988
sg70
g2962
sg63
(lp2989
g56
(g77
g58
NtRp2990
(dp2991
g61
(dp2992
g81
g82
ssg70
g2986
sg63
(lp2993
g291
asbag56
(g77
g58
NtRp2994
(dp2995
g61
(dp2996
g88
g89
ssg70
g2986
sg63
(lp2997
S':'
asbag56
(g77
g58
NtRp2998
(dp2999
g61
(dp3000
sg70
g2986
sg63
(lp3001
g56
(g57
g58
NtRp3002
(dp3003
g61
(dp3004
g69
I3
ssg70
g2998
sg63
(lp3005
S''
asbasbasbag56
(g72
g58
NtRp3006
(dp3007
g61
(dp3008
sg70
g2962
sg63
(lp3009
g56
(g77
g58
NtRp3010
(dp3011
g61
(dp3012
g81
g82
ssg70
g3006
sg63
(lp3013
g312
asbag56
(g77
g58
NtRp3014
(dp3015
g61
(dp3016
g88
g89
ssg70
g3006
sg63
(lp3017
S':'
asbag56
(g77
g58
NtRp3018
(dp3019
g61
(dp3020
sg70
g3006
sg63
(lp3021
g56
(g57
g58
NtRp3022
(dp3023
g61
(dp3024
g69
I3
ssg70
g3018
sg63
(lp3025
S''
asbasbasbag56
(g72
g58
NtRp3026
(dp3027
g61
(dp3028
sg70
g2962
sg63
(lp3029
g56
(g77
g58
NtRp3030
(dp3031
g61
(dp3032
g81
g82
ssg70
g3026
sg63
(lp3033
g333
asbag56
(g77
g58
NtRp3034
(dp3035
g61
(dp3036
g88
g89
ssg70
g3026
sg63
(lp3037
S':'
asbag56
(g77
g58
NtRp3038
(dp3039
g61
(dp3040
sg70
g3026
sg63
(lp3041
g56
(g57
g58
NtRp3042
(dp3043
g61
(dp3044
g69
I3
ssg70
g3038
sg63
(lp3045
S''
asbasbasbag56
(g72
g58
NtRp3046
(dp3047
g61
(dp3048
sg70
g2962
sg63
(lp3049
g56
(g77
g58
NtRp3050
(dp3051
g61
(dp3052
g81
g82
ssg70
g3046
sg63
(lp3053
g354
asbag56
(g77
g58
NtRp3054
(dp3055
g61
(dp3056
g88
g89
ssg70
g3046
sg63
(lp3057
S':'
asbag56
(g77
g58
NtRp3058
(dp3059
g61
(dp3060
sg70
g3046
sg63
(lp3061
g56
(g57
g58
NtRp3062
(dp3063
g61
(dp3064
g69
I3
ssg70
g3058
sg63
(lp3065
S''
asbasbasbag56
(g72
g58
NtRp3066
(dp3067
g61
(dp3068
sg70
g2962
sg63
(lp3069
g56
(g77
g58
NtRp3070
(dp3071
g61
(dp3072
g81
g82
ssg70
g3066
sg63
(lp3073
g375
asbag56
(g77
g58
NtRp3074
(dp3075
g61
(dp3076
g88
g89
ssg70
g3066
sg63
(lp3077
S':'
asbag56
(g77
g58
NtRp3078
(dp3079
g61
(dp3080
sg70
g3066
sg63
(lp3081
g56
(g57
g58
NtRp3082
(dp3083
g61
(dp3084
g69
I3
ssg70
g3078
sg63
(lp3085
S'/'
asbasbasbag56
(g72
g58
NtRp3086
(dp3087
g61
(dp3088
sg70
g2962
sg63
(lp3089
g56
(g77
g58
NtRp3090
(dp3091
g61
(dp3092
g81
g82
ssg70
g3086
sg63
(lp3093
g396
asbag56
(g77
g58
NtRp3094
(dp3095
g61
(dp3096
g88
g89
ssg70
g3086
sg63
(lp3097
S':'
asbag56
(g77
g58
NtRp3098
(dp3099
g61
(dp3100
sg70
g3086
sg63
(lp3101
g56
(g57
g58
NtRp3102
(dp3103
g61
(dp3104
g69
I3
ssg70
g3098
sg63
(lp3105
S''
asbasbasbag56
(g72
g58
NtRp3106
(dp3107
g61
(dp3108
sg70
g2962
sg63
(lp3109
g56
(g77
g58
NtRp3110
(dp3111
g61
(dp3112
g81
g82
ssg70
g3106
sg63
(lp3113
g417
asbag56
(g77
g58
NtRp3114
(dp3115
g61
(dp3116
g88
g89
ssg70
g3106
sg63
(lp3117
S':'
asbag56
(g77
g58
NtRp3118
(dp3119
g61
(dp3120
sg70
g3106
sg63
(lp3121
g56
(g57
g58
NtRp3122
(dp3123
g61
(dp3124
g69
I3
ssg70
g3118
sg63
(lp3125
S''
asbasbasbasbasbasbasbasbasbasbasbag56
(g72
g58
NtRp3126
(dp3127
g61
(dp3128
sg70
g2892
sg63
(lp3129
g56
(g77
g58
NtRp3130
(dp3131
g61
(dp3132
g81
g82
ssg70
g3126
sg63
(lp3133
S'files'
p3134
asbag56
(g77
g58
NtRp3135
(dp3136
g61
(dp3137
g88
g89
ssg70
g3126
sg63
(lp3138
S':'
asbag56
(g77
g58
NtRp3139
(dp3140
g61
(dp3141
sg70
g3126
sg63
(lp3142
g56
(g57
g58
NtRp3143
(dp3144
g61
(dp3145
g69
I5
ssg70
g3139
sg63
(lp3146
g56
(g65
g58
NtRp3147
(dp3148
g61
(dp3149
g69
I4
ssg70
Nsg63
(lp3150
sbasbasbasbag56
(g72
g58
NtRp3151
(dp3152
g61
(dp3153
sg70
g2892
sg63
(lp3154
g56
(g77
g58
NtRp3155
(dp3156
g61
(dp3157
g81
g82
ssg70
g3151
sg63
(lp3158
S'flash'
p3159
asbag56
(g77
g58
NtRp3160
(dp3161
g61
(dp3162
g88
g89
ssg70
g3151
sg63
(lp3163
S':'
asbag56
(g77
g58
NtRp3164
(dp3165
g61
(dp3166
sg70
g3151
sg63
(lp3167
g56
(g57
g58
NtRp3168
(dp3169
g61
(dp3170
g69
I5
ssg70
g3164
sg63
(lp3171
S''
asbasbasbag56
(g72
g58
NtRp3172
(dp3173
g61
(dp3174
sg70
g2892
sg63
(lp3175
g56
(g77
g58
NtRp3176
(dp3177
g61
(dp3178
g81
g82
ssg70
g3172
sg63
(lp3179
S'generic_patterns'
p3180
asbag56
(g77
g58
NtRp3181
(dp3182
g61
(dp3183
g88
g89
ssg70
g3172
sg63
(lp3184
S':'
asbag56
(g77
g58
NtRp3185
(dp3186
g61
(dp3187
sg70
g3172
sg63
(lp3188
g56
(g57
g58
NtRp3189
(dp3190
g61
(dp3191
g69
I5
ssg70
g3185
sg63
(lp3192
g56
(g65
g58
NtRp3193
(dp3194
g61
(dp3195
g69
I4
ssg70
Nsg63
(lp3196
g56
(g72
g58
NtRp3197
(dp3198
g61
(dp3199
sg70
g3193
sg63
(lp3200
g56
(g77
g58
NtRp3201
(dp3202
g61
(dp3203
sg70
g3197
sg63
(lp3204
g56
(g57
g58
NtRp3205
(dp3206
g61
(dp3207
g69
I4
ssg70
g3201
sg63
(lp3208
S'*'
asbasbasbasbasbasbasbag56
(g72
g58
NtRp3209
(dp3210
g61
(dp3211
sg70
g2892
sg63
(lp3212
g56
(g77
g58
NtRp3213
(dp3214
g61
(dp3215
g81
g82
ssg70
g3209
sg63
(lp3216
S'headers'
p3217
asbag56
(g77
g58
NtRp3218
(dp3219
g61
(dp3220
g88
g89
ssg70
g3209
sg63
(lp3221
S':'
asbag56
(g77
g58
NtRp3222
(dp3223
g61
(dp3224
sg70
g3209
sg63
(lp3225
g56
(g57
g58
NtRp3226
(dp3227
g61
(dp3228
g69
I5
ssg70
g3222
sg63
(lp3229
g56
(g65
g58
NtRp3230
(dp3231
g61
(dp3232
g69
I4
ssg70
Nsg63
(lp3233
g56
(g72
g58
NtRp3234
(dp3235
g61
(dp3236
sg70
g3230
sg63
(lp3237
g56
(g77
g58
NtRp3238
(dp3239
g61
(dp3240
g81
g82
ssg70
g3234
sg63
(lp3241
S'Cache-Control'
p3242
asbag56
(g77
g58
NtRp3243
(dp3244
g61
(dp3245
g88
g89
ssg70
g3234
sg63
(lp3246
S':'
asbag56
(g77
g58
NtRp3247
(dp3248
g61
(dp3249
sg70
g3234
sg63
(lp3250
g56
(g57
g58
NtRp3251
(dp3252
g61
(dp3253
g69
I4
ssg70
g3247
sg63
(lp3254
S'no-store, no-cache, must-revalidate, post-check=0, pre-check=0'
p3255
asbasbasbag56
(g72
g58
NtRp3256
(dp3257
g61
(dp3258
sg70
g3230
sg63
(lp3259
g56
(g77
g58
NtRp3260
(dp3261
g61
(dp3262
g81
g82
ssg70
g3256
sg63
(lp3263
S'Content-Type'
p3264
asbag56
(g77
g58
NtRp3265
(dp3266
g61
(dp3267
g88
g89
ssg70
g3256
sg63
(lp3268
S':'
asbag56
(g77
g58
NtRp3269
(dp3270
g61
(dp3271
sg70
g3256
sg63
(lp3272
g56
(g57
g58
NtRp3273
(dp3274
g61
(dp3275
g69
I4
ssg70
g3269
sg63
(lp3276
S'text/html; charset=utf-8'
p3277
asbasbasbag56
(g72
g58
NtRp3278
(dp3279
g61
(dp3280
sg70
g3230
sg63
(lp3281
g56
(g77
g58
NtRp3282
(dp3283
g61
(dp3284
g81
g82
ssg70
g3278
sg63
(lp3285
S'Expires'
p3286
asbag56
(g77
g58
NtRp3287
(dp3288
g61
(dp3289
g88
g89
ssg70
g3278
sg63
(lp3290
S':'
asbag56
(g77
g58
NtRp3291
(dp3292
g61
(dp3293
sg70
g3278
sg63
(lp3294
g56
(g57
g58
NtRp3295
(dp3296
g61
(dp3297
g69
I4
ssg70
g3291
sg63
(lp3298
S'Fri, 04 Nov 2011 14:11:54 GMT'
p3299
asbasbasbag56
(g72
g58
NtRp3300
(dp3301
g61
(dp3302
sg70
g3230
sg63
(lp3303
g56
(g77
g58
NtRp3304
(dp3305
g61
(dp3306
g81
g82
ssg70
g3300
sg63
(lp3307
S'Pragma'
p3308
asbag56
(g77
g58
NtRp3309
(dp3310
g61
(dp3311
g88
g89
ssg70
g3300
sg63
(lp3312
S':'
asbag56
(g77
g58
NtRp3313
(dp3314
g61
(dp3315
sg70
g3300
sg63
(lp3316
g56
(g57
g58
NtRp3317
(dp3318
g61
(dp3319
g69
I4
ssg70
g3313
sg63
(lp3320
S'no-cache'
p3321
asbasbasbag56
(g72
g58
NtRp3322
(dp3323
g61
(dp3324
sg70
g3230
sg63
(lp3325
g56
(g77
g58
NtRp3326
(dp3327
g61
(dp3328
g81
g82
ssg70
g3322
sg63
(lp3329
S'X-Powered-By'
p3330
asbag56
(g77
g58
NtRp3331
(dp3332
g61
(dp3333
g88
g89
ssg70
g3322
sg63
(lp3334
S':'
asbag56
(g77
g58
NtRp3335
(dp3336
g61
(dp3337
sg70
g3322
sg63
(lp3338
g56
(g57
g58
NtRp3339
(dp3340
g61
(dp3341
g69
I4
ssg70
g3335
sg63
(lp3342
S'web2py'
p3343
asbasbasbasbasbasbasbag56
(g72
g58
NtRp3344
(dp3345
g61
(dp3346
sg70
g2892
sg63
(lp3347
g56
(g77
g58
NtRp3348
(dp3349
g61
(dp3350
g81
g82
ssg70
g3344
sg63
(lp3351
S'menu'
p3352
asbag56
(g77
g58
NtRp3353
(dp3354
g61
(dp3355
g88
g89
ssg70
g3344
sg63
(lp3356
S':'
asbag56
(g77
g58
NtRp3357
(dp3358
g61
(dp3359
sg70
g3344
sg63
(lp3360
g56
(g57
g58
NtRp3361
(dp3362
g61
(dp3363
g69
I5
ssg70
g3357
sg63
(lp3364
g56
(g65
g58
NtRp3365
(dp3366
g61
(dp3367
g69
I4
ssg70
Nsg63
(lp3368
g56
(g72
g58
NtRp3369
(dp3370
g61
(dp3371
sg70
g3365
sg63
(lp3372
g56
(g77
g58
NtRp3373
(dp3374
g61
(dp3375
sg70
g3369
sg63
(lp3376
g56
(g57
g58
NtRp3377
(dp3378
g61
(dp3379
g69
I4
ssg70
g3373
sg63
(lp3380
g56
(g65
g58
NtRp3381
(dp3382
g61
(dp3383
g69
I3
ssg70
Nsg63
(lp3384
g56
(g72
g58
NtRp3385
(dp3386
g61
(dp3387
sg70
g3381
sg63
(lp3388
g56
(g77
g58
NtRp3389
(dp3390
g61
(dp3391
sg70
g3385
sg63
(lp3392
g56
(g57
g58
NtRp3393
(dp3394
g61
(dp3395
g69
I3
ssg70
g3389
sg63
(lp3396
cgluon.languages
lazyT_unpickle
p3397
(S't\x04\x00\x00\x00Home'
tRp3398
asbasbasbag56
(g72
g58
NtRp3399
(dp3400
g61
(dp3401
sg70
g3381
sg63
(lp3402
g56
(g77
g58
NtRp3403
(dp3404
g61
(dp3405
sg70
g3399
sg63
(lp3406
g56
(g57
g58
NtRp3407
(dp3408
g61
(dp3409
g69
I3
ssg70
g3403
sg63
(lp3410
g99
asbasbasbag56
(g72
g58
NtRp3411
(dp3412
g61
(dp3413
sg70
g3381
sg63
(lp3414
g56
(g77
g58
NtRp3415
(dp3416
g61
(dp3417
sg70
g3411
sg63
(lp3418
g56
(g57
g58
NtRp3419
(dp3420
g61
(dp3421
g69
I3
ssg70
g3415
sg63
(lp3422
S'/init/default/index'
p3423
asbasbasbag56
(g72
g58
NtRp3424
(dp3425
g61
(dp3426
sg70
g3381
sg63
(lp3427
g56
(g77
g58
NtRp3428
(dp3429
g61
(dp3430
sg70
g3424
sg63
(lp3431
g56
(g57
g58
NtRp3432
(dp3433
g61
(dp3434
g69
I3
ssg70
g3428
sg63
(lp3435
g56
(g65
g58
NtRp3436
(dp3437
g61
(dp3438
g69
I2
ssg70
Nsg63
(lp3439
sbasbasbasbasbasbasbasbag56
(g72
g58
NtRp3440
(dp3441
g61
(dp3442
sg70
g3365
sg63
(lp3443
g56
(g77
g58
NtRp3444
(dp3445
g61
(dp3446
sg70
g3440
sg63
(lp3447
g56
(g57
g58
NtRp3448
(dp3449
g61
(dp3450
g69
I4
ssg70
g3444
sg63
(lp3451
g56
(g65
g58
NtRp3452
(dp3453
g61
(dp3454
g69
I3
ssg70
Nsg63
(lp3455
g56
(g72
g58
NtRp3456
(dp3457
g61
(dp3458
sg70
g3452
sg63
(lp3459
g56
(g77
g58
NtRp3460
(dp3461
g61
(dp3462
sg70
g3456
sg63
(lp3463
g56
(g57
g58
NtRp3464
(dp3465
g61
(dp3466
g69
I3
ssg70
g3460
sg63
(lp3467
g3397
(S's\x08\x00\x00\x00This App'
tRp3468
asbasbasbag56
(g72
g58
NtRp3469
(dp3470
g61
(dp3471
sg70
g3452
sg63
(lp3472
g56
(g77
g58
NtRp3473
(dp3474
g61
(dp3475
sg70
g3469
sg63
(lp3476
g56
(g57
g58
NtRp3477
(dp3478
g61
(dp3479
g69
I3
ssg70
g3473
sg63
(lp3480
g99
asbasbasbag56
(g72
g58
NtRp3481
(dp3482
g61
(dp3483
sg70
g3452
sg63
(lp3484
g56
(g77
g58
NtRp3485
(dp3486
g61
(dp3487
sg70
g3481
sg63
(lp3488
g56
(g57
g58
NtRp3489
(dp3490
g61
(dp3491
g69
I3
ssg70
g3485
sg63
(lp3492
S'/admin/default/design/init'
p3493
asbasbasbag56
(g72
g58
NtRp3494
(dp3495
g61
(dp3496
sg70
g3452
sg63
(lp3497
g56
(g77
g58
NtRp3498
(dp3499
g61
(dp3500
sg70
g3494
sg63
(lp3501
g56
(g57
g58
NtRp3502
(dp3503
g61
(dp3504
g69
I3
ssg70
g3498
sg63
(lp3505
g56
(g65
g58
NtRp3506
(dp3507
g61
(dp3508
g69
I2
ssg70
Nsg63
(lp3509
g56
(g72
g58
NtRp3510
(dp3511
g61
(dp3512
sg70
g3506
sg63
(lp3513
g56
(g77
g58
NtRp3514
(dp3515
g61
(dp3516
sg70
g3510
sg63
(lp3517
g56
(g57
g58
NtRp3518
(dp3519
g61
(dp3520
g69
I2
ssg70
g3514
sg63
(lp3521
g56
(g65
g58
NtRp3522
(dp3523
g61
(dp3524
g69
I1
ssg70
Nsg63
(lp3525
g56
(g72
g58
NtRp3526
(dp3527
g61
(dp3528
sg70
g3522
sg63
(lp3529
g56
(g77
g58
NtRp3530
(dp3531
g61
(dp3532
sg70
g3526
sg63
(lp3533
g56
(g57
g58
NtRp3534
(dp3535
g61
(dp3536
g69
I1
ssg70
g3530
sg63
(lp3537
g3397
(S't\n\x00\x00\x00Controller'
tRp3538
asbasbasbag56
(g72
g58
NtRp3539
(dp3540
g61
(dp3541
sg70
g3522
sg63
(lp3542
g56
(g77
g58
NtRp3543
(dp3544
g61
(dp3545
sg70
g3539
sg63
(lp3546
g56
(g57
g58
NtRp3547
(dp3548
g61
(dp3549
g69
I1
ssg70
g3543
sg63
(lp3550
I00
asbasbasbag56
(g72
g58
NtRp3551
(dp3552
g61
(dp3553
sg70
g3522
sg63
(lp3554
g56
(g77
g58
NtRp3555
(dp3556
g61
(dp3557
sg70
g3551
sg63
(lp3558
g56
(g57
g58
NtRp3559
(dp3560
g61
(dp3561
g69
I1
ssg70
g3555
sg63
(lp3562
S'/admin/default/edit/init/controllers/default.py'
p3563
asbasbasbasbasbasbasbag56
(g72
g58
NtRp3564
(dp3565
g61
(dp3566
sg70
g3506
sg63
(lp3567
g56
(g77
g58
NtRp3568
(dp3569
g61
(dp3570
sg70
g3564
sg63
(lp3571
g56
(g57
g58
NtRp3572
(dp3573
g61
(dp3574
g69
I2
ssg70
g3568
sg63
(lp3575
g56
(g65
g58
NtRp3576
(dp3577
g61
(dp3578
g69
I1
ssg70
Nsg63
(lp3579
g56
(g72
g58
NtRp3580
(dp3581
g61
(dp3582
sg70
g3576
sg63
(lp3583
g56
(g77
g58
NtRp3584
(dp3585
g61
(dp3586
sg70
g3580
sg63
(lp3587
g56
(g57
g58
NtRp3588
(dp3589
g61
(dp3590
g69
I1
ssg70
g3584
sg63
(lp3591
g3397
(S't\x04\x00\x00\x00View'
tRp3592
asbasbasbag56
(g72
g58
NtRp3593
(dp3594
g61
(dp3595
sg70
g3576
sg63
(lp3596
g56
(g77
g58
NtRp3597
(dp3598
g61
(dp3599
sg70
g3593
sg63
(lp3600
g56
(g57
g58
NtRp3601
(dp3602
g61
(dp3603
g69
I1
ssg70
g3597
sg63
(lp3604
I00
asbasbasbag56
(g72
g58
NtRp3605
(dp3606
g61
(dp3607
sg70
g3576
sg63
(lp3608
g56
(g77
g58
NtRp3609
(dp3610
g61
(dp3611
sg70
g3605
sg63
(lp3612
g56
(g57
g58
NtRp3613
(dp3614
g61
(dp3615
g69
I1
ssg70
g3609
sg63
(lp3616
S'/admin/default/edit/init/views/default/contact.html'
p3617
asbasbasbasbasbasbasbag56
(g72
g58
NtRp3618
(dp3619
g61
(dp3620
sg70
g3506
sg63
(lp3621
g56
(g77
g58
NtRp3622
(dp3623
g61
(dp3624
sg70
g3618
sg63
(lp3625
g56
(g57
g58
NtRp3626
(dp3627
g61
(dp3628
g69
I2
ssg70
g3622
sg63
(lp3629
g56
(g65
g58
NtRp3630
(dp3631
g61
(dp3632
g69
I1
ssg70
Nsg63
(lp3633
g56
(g72
g58
NtRp3634
(dp3635
g61
(dp3636
sg70
g3630
sg63
(lp3637
g56
(g77
g58
NtRp3638
(dp3639
g61
(dp3640
sg70
g3634
sg63
(lp3641
g56
(g57
g58
NtRp3642
(dp3643
g61
(dp3644
g69
I1
ssg70
g3638
sg63
(lp3645
g3397
(S't\x06\x00\x00\x00Layout'
tRp3646
asbasbasbag56
(g72
g58
NtRp3647
(dp3648
g61
(dp3649
sg70
g3630
sg63
(lp3650
g56
(g77
g58
NtRp3651
(dp3652
g61
(dp3653
sg70
g3647
sg63
(lp3654
g56
(g57
g58
NtRp3655
(dp3656
g61
(dp3657
g69
I1
ssg70
g3651
sg63
(lp3658
I00
asbasbasbag56
(g72
g58
NtRp3659
(dp3660
g61
(dp3661
sg70
g3630
sg63
(lp3662
g56
(g77
g58
NtRp3663
(dp3664
g61
(dp3665
sg70
g3659
sg63
(lp3666
g56
(g57
g58
NtRp3667
(dp3668
g61
(dp3669
g69
I1
ssg70
g3663
sg63
(lp3670
S'/admin/default/edit/init/views/layout.html'
p3671
asbasbasbasbasbasbasbag56
(g72
g58
NtRp3672
(dp3673
g61
(dp3674
sg70
g3506
sg63
(lp3675
g56
(g77
g58
NtRp3676
(dp3677
g61
(dp3678
sg70
g3672
sg63
(lp3679
g56
(g57
g58
NtRp3680
(dp3681
g61
(dp3682
g69
I2
ssg70
g3676
sg63
(lp3683
g56
(g65
g58
NtRp3684
(dp3685
g61
(dp3686
g69
I1
ssg70
Nsg63
(lp3687
g56
(g72
g58
NtRp3688
(dp3689
g61
(dp3690
sg70
g3684
sg63
(lp3691
g56
(g77
g58
NtRp3692
(dp3693
g61
(dp3694
sg70
g3688
sg63
(lp3695
g56
(g57
g58
NtRp3696
(dp3697
g61
(dp3698
g69
I1
ssg70
g3692
sg63
(lp3699
g3397
(S't\n\x00\x00\x00Stylesheet'
tRp3700
asbasbasbag56
(g72
g58
NtRp3701
(dp3702
g61
(dp3703
sg70
g3684
sg63
(lp3704
g56
(g77
g58
NtRp3705
(dp3706
g61
(dp3707
sg70
g3701
sg63
(lp3708
g56
(g57
g58
NtRp3709
(dp3710
g61
(dp3711
g69
I1
ssg70
g3705
sg63
(lp3712
I00
asbasbasbag56
(g72
g58
NtRp3713
(dp3714
g61
(dp3715
sg70
g3684
sg63
(lp3716
g56
(g77
g58
NtRp3717
(dp3718
g61
(dp3719
sg70
g3713
sg63
(lp3720
g56
(g57
g58
NtRp3721
(dp3722
g61
(dp3723
g69
I1
ssg70
g3717
sg63
(lp3724
S'/admin/default/edit/init/static/base.css'
p3725
asbasbasbasbasbasbasbag56
(g72
g58
NtRp3726
(dp3727
g61
(dp3728
sg70
g3506
sg63
(lp3729
g56
(g77
g58
NtRp3730
(dp3731
g61
(dp3732
sg70
g3726
sg63
(lp3733
g56
(g57
g58
NtRp3734
(dp3735
g61
(dp3736
g69
I2
ssg70
g3730
sg63
(lp3737
g56
(g65
g58
NtRp3738
(dp3739
g61
(dp3740
g69
I1
ssg70
Nsg63
(lp3741
g56
(g72
g58
NtRp3742
(dp3743
g61
(dp3744
sg70
g3738
sg63
(lp3745
g56
(g77
g58
NtRp3746
(dp3747
g61
(dp3748
sg70
g3742
sg63
(lp3749
g56
(g57
g58
NtRp3750
(dp3751
g61
(dp3752
g69
I1
ssg70
g3746
sg63
(lp3753
g3397
(S's\x08\x00\x00\x00DB Model'
tRp3754
asbasbasbag56
(g72
g58
NtRp3755
(dp3756
g61
(dp3757
sg70
g3738
sg63
(lp3758
g56
(g77
g58
NtRp3759
(dp3760
g61
(dp3761
sg70
g3755
sg63
(lp3762
g56
(g57
g58
NtRp3763
(dp3764
g61
(dp3765
g69
I1
ssg70
g3759
sg63
(lp3766
I00
asbasbasbag56
(g72
g58
NtRp3767
(dp3768
g61
(dp3769
sg70
g3738
sg63
(lp3770
g56
(g77
g58
NtRp3771
(dp3772
g61
(dp3773
sg70
g3767
sg63
(lp3774
g56
(g57
g58
NtRp3775
(dp3776
g61
(dp3777
g69
I1
ssg70
g3771
sg63
(lp3778
S'/admin/default/edit/init/models/db.py'
p3779
asbasbasbasbasbasbasbag56
(g72
g58
NtRp3780
(dp3781
g61
(dp3782
sg70
g3506
sg63
(lp3783
g56
(g77
g58
NtRp3784
(dp3785
g61
(dp3786
sg70
g3780
sg63
(lp3787
g56
(g57
g58
NtRp3788
(dp3789
g61
(dp3790
g69
I2
ssg70
g3784
sg63
(lp3791
g56
(g65
g58
NtRp3792
(dp3793
g61
(dp3794
g69
I1
ssg70
Nsg63
(lp3795
g56
(g72
g58
NtRp3796
(dp3797
g61
(dp3798
sg70
g3792
sg63
(lp3799
g56
(g77
g58
NtRp3800
(dp3801
g61
(dp3802
sg70
g3796
sg63
(lp3803
g56
(g57
g58
NtRp3804
(dp3805
g61
(dp3806
g69
I1
ssg70
g3800
sg63
(lp3807
g3397
(S's\n\x00\x00\x00Menu Model'
tRp3808
asbasbasbag56
(g72
g58
NtRp3809
(dp3810
g61
(dp3811
sg70
g3792
sg63
(lp3812
g56
(g77
g58
NtRp3813
(dp3814
g61
(dp3815
sg70
g3809
sg63
(lp3816
g56
(g57
g58
NtRp3817
(dp3818
g61
(dp3819
g69
I1
ssg70
g3813
sg63
(lp3820
I00
asbasbasbag56
(g72
g58
NtRp3821
(dp3822
g61
(dp3823
sg70
g3792
sg63
(lp3824
g56
(g77
g58
NtRp3825
(dp3826
g61
(dp3827
sg70
g3821
sg63
(lp3828
g56
(g57
g58
NtRp3829
(dp3830
g61
(dp3831
g69
I1
ssg70
g3825
sg63
(lp3832
S'/admin/default/edit/init/models/menu.py'
p3833
asbasbasbasbasbasbasbag56
(g72
g58
NtRp3834
(dp3835
g61
(dp3836
sg70
g3506
sg63
(lp3837
g56
(g77
g58
NtRp3838
(dp3839
g61
(dp3840
sg70
g3834
sg63
(lp3841
g56
(g57
g58
NtRp3842
(dp3843
g61
(dp3844
g69
I2
ssg70
g3838
sg63
(lp3845
g56
(g65
g58
NtRp3846
(dp3847
g61
(dp3848
g69
I1
ssg70
Nsg63
(lp3849
g56
(g72
g58
NtRp3850
(dp3851
g61
(dp3852
sg70
g3846
sg63
(lp3853
g56
(g77
g58
NtRp3854
(dp3855
g61
(dp3856
sg70
g3850
sg63
(lp3857
g56
(g57
g58
NtRp3858
(dp3859
g61
(dp3860
g69
I1
ssg70
g3854
sg63
(lp3861
g3397
(S't\x08\x00\x00\x00Database'
tRp3862
asbasbasbag56
(g72
g58
NtRp3863
(dp3864
g61
(dp3865
sg70
g3846
sg63
(lp3866
g56
(g77
g58
NtRp3867
(dp3868
g61
(dp3869
sg70
g3863
sg63
(lp3870
g56
(g57
g58
NtRp3871
(dp3872
g61
(dp3873
g69
I1
ssg70
g3867
sg63
(lp3874
I00
asbasbasbag56
(g72
g58
NtRp3875
(dp3876
g61
(dp3877
sg70
g3846
sg63
(lp3878
g56
(g77
g58
NtRp3879
(dp3880
g61
(dp3881
sg70
g3875
sg63
(lp3882
g56
(g57
g58
NtRp3883
(dp3884
g61
(dp3885
g69
I1
ssg70
g3879
sg63
(lp3886
S'/init/appadmin/index'
p3887
asbasbasbasbasbasbasbag56
(g72
g58
NtRp3888
(dp3889
g61
(dp3890
sg70
g3506
sg63
(lp3891
g56
(g77
g58
NtRp3892
(dp3893
g61
(dp3894
sg70
g3888
sg63
(lp3895
g56
(g57
g58
NtRp3896
(dp3897
g61
(dp3898
g69
I2
ssg70
g3892
sg63
(lp3899
g56
(g65
g58
NtRp3900
(dp3901
g61
(dp3902
g69
I1
ssg70
Nsg63
(lp3903
g56
(g72
g58
NtRp3904
(dp3905
g61
(dp3906
sg70
g3900
sg63
(lp3907
g56
(g77
g58
NtRp3908
(dp3909
g61
(dp3910
sg70
g3904
sg63
(lp3911
g56
(g57
g58
NtRp3912
(dp3913
g61
(dp3914
g69
I1
ssg70
g3908
sg63
(lp3915
g3397
(S't\x06\x00\x00\x00Errors'
tRp3916
asbasbasbag56
(g72
g58
NtRp3917
(dp3918
g61
(dp3919
sg70
g3900
sg63
(lp3920
g56
(g77
g58
NtRp3921
(dp3922
g61
(dp3923
sg70
g3917
sg63
(lp3924
g56
(g57
g58
NtRp3925
(dp3926
g61
(dp3927
g69
I1
ssg70
g3921
sg63
(lp3928
I00
asbasbasbag56
(g72
g58
NtRp3929
(dp3930
g61
(dp3931
sg70
g3900
sg63
(lp3932
g56
(g77
g58
NtRp3933
(dp3934
g61
(dp3935
sg70
g3929
sg63
(lp3936
g56
(g57
g58
NtRp3937
(dp3938
g61
(dp3939
g69
I1
ssg70
g3933
sg63
(lp3940
S'/admin/default/errors/init'
p3941
asbasbasbasbasbasbasbag56
(g72
g58
NtRp3942
(dp3943
g61
(dp3944
sg70
g3506
sg63
(lp3945
g56
(g77
g58
NtRp3946
(dp3947
g61
(dp3948
sg70
g3942
sg63
(lp3949
g56
(g57
g58
NtRp3950
(dp3951
g61
(dp3952
g69
I2
ssg70
g3946
sg63
(lp3953
g56
(g65
g58
NtRp3954
(dp3955
g61
(dp3956
g69
I1
ssg70
Nsg63
(lp3957
g56
(g72
g58
NtRp3958
(dp3959
g61
(dp3960
sg70
g3954
sg63
(lp3961
g56
(g77
g58
NtRp3962
(dp3963
g61
(dp3964
sg70
g3958
sg63
(lp3965
g56
(g57
g58
NtRp3966
(dp3967
g61
(dp3968
g69
I1
ssg70
g3962
sg63
(lp3969
g3397
(S't\x05\x00\x00\x00About'
tRp3970
asbasbasbag56
(g72
g58
NtRp3971
(dp3972
g61
(dp3973
sg70
g3954
sg63
(lp3974
g56
(g77
g58
NtRp3975
(dp3976
g61
(dp3977
sg70
g3971
sg63
(lp3978
g56
(g57
g58
NtRp3979
(dp3980
g61
(dp3981
g69
I1
ssg70
g3975
sg63
(lp3982
I00
asbasbasbag56
(g72
g58
NtRp3983
(dp3984
g61
(dp3985
sg70
g3954
sg63
(lp3986
g56
(g77
g58
NtRp3987
(dp3988
g61
(dp3989
sg70
g3983
sg63
(lp3990
g56
(g57
g58
NtRp3991
(dp3992
g61
(dp3993
g69
I1
ssg70
g3987
sg63
(lp3994
S'/admin/default/about/init'
p3995
asbasbasbasbasbasbasbasbasbasbasbasbasbasbasbag56
(g72
g58
NtRp3996
(dp3997
g61
(dp3998
sg70
g3365
sg63
(lp3999
g56
(g77
g58
NtRp4000
(dp4001
g61
(dp4002
sg70
g3996
sg63
(lp4003
g56
(g57
g58
NtRp4004
(dp4005
g61
(dp4006
g69
I4
ssg70
g4000
sg63
(lp4007
g56
(g65
g58
NtRp4008
(dp4009
g61
(dp4010
g69
I3
ssg70
Nsg63
(lp4011
g56
(g72
g58
NtRp4012
(dp4013
g61
(dp4014
sg70
g4008
sg63
(lp4015
g56
(g77
g58
NtRp4016
(dp4017
g61
(dp4018
sg70
g4012
sg63
(lp4019
g56
(g57
g58
NtRp4020
(dp4021
g61
(dp4022
g69
I3
ssg70
g4016
sg63
(lp4023
g3397
(S't\t\x00\x00\x00Resources'
tRp4024
asbasbasbag56
(g72
g58
NtRp4025
(dp4026
g61
(dp4027
sg70
g4008
sg63
(lp4028
g56
(g77
g58
NtRp4029
(dp4030
g61
(dp4031
sg70
g4025
sg63
(lp4032
g56
(g57
g58
NtRp4033
(dp4034
g61
(dp4035
g69
I3
ssg70
g4029
sg63
(lp4036
g99
asbasbasbag56
(g72
g58
NtRp4037
(dp4038
g61
(dp4039
sg70
g4008
sg63
(lp4040
g56
(g77
g58
NtRp4041
(dp4042
g61
(dp4043
sg70
g4037
sg63
(lp4044
g56
(g57
g58
NtRp4045
(dp4046
g61
(dp4047
g69
I3
ssg70
g4041
sg63
(lp4048
S'None'
p4049
asbasbasbag56
(g72
g58
NtRp4050
(dp4051
g61
(dp4052
sg70
g4008
sg63
(lp4053
g56
(g77
g58
NtRp4054
(dp4055
g61
(dp4056
sg70
g4050
sg63
(lp4057
g56
(g57
g58
NtRp4058
(dp4059
g61
(dp4060
g69
I3
ssg70
g4054
sg63
(lp4061
g56
(g65
g58
NtRp4062
(dp4063
g61
(dp4064
g69
I2
ssg70
Nsg63
(lp4065
g56
(g72
g58
NtRp4066
(dp4067
g61
(dp4068
sg70
g4062
sg63
(lp4069
g56
(g77
g58
NtRp4070
(dp4071
g61
(dp4072
sg70
g4066
sg63
(lp4073
g56
(g57
g58
NtRp4074
(dp4075
g61
(dp4076
g69
I2
ssg70
g4070
sg63
(lp4077
g56
(g65
g58
NtRp4078
(dp4079
g61
(dp4080
g69
I1
ssg70
Nsg63
(lp4081
g56
(g72
g58
NtRp4082
(dp4083
g61
(dp4084
sg70
g4078
sg63
(lp4085
g56
(g77
g58
NtRp4086
(dp4087
g61
(dp4088
sg70
g4082
sg63
(lp4089
g56
(g57
g58
NtRp4090
(dp4091
g61
(dp4092
g69
I1
ssg70
g4086
sg63
(lp4093
g3397
(S't\r\x00\x00\x00Documentation'
tRp4094
asbasbasbag56
(g72
g58
NtRp4095
(dp4096
g61
(dp4097
sg70
g4078
sg63
(lp4098
g56
(g77
g58
NtRp4099
(dp4100
g61
(dp4101
sg70
g4095
sg63
(lp4102
g56
(g57
g58
NtRp4103
(dp4104
g61
(dp4105
g69
I1
ssg70
g4099
sg63
(lp4106
I00
asbasbasbag56
(g72
g58
NtRp4107
(dp4108
g61
(dp4109
sg70
g4078
sg63
(lp4110
g56
(g77
g58
NtRp4111
(dp4112
g61
(dp4113
sg70
g4107
sg63
(lp4114
g56
(g57
g58
NtRp4115
(dp4116
g61
(dp4117
g69
I1
ssg70
g4111
sg63
(lp4118
S'http://www.web2py.com/book'
p4119
asbasbasbag56
(g72
g58
NtRp4120
(dp4121
g61
(dp4122
sg70
g4078
sg63
(lp4123
g56
(g77
g58
NtRp4124
(dp4125
g61
(dp4126
sg70
g4120
sg63
(lp4127
g56
(g57
g58
NtRp4128
(dp4129
g61
(dp4130
g69
I1
ssg70
g4124
sg63
(lp4131
(lp4132
(g3397
(S't\x07\x00\x00\x00Preface'
tRp4133
I00
S'http://www.web2py.com/book/default/chapter/00'
p4134
tp4135
a(g3397
(S't\x0c\x00\x00\x00Introduction'
tRp4136
I00
S'http://www.web2py.com/book/default/chapter/01'
p4137
tp4138
a(g3397
(S't\x06\x00\x00\x00Python'
tRp4139
I00
S'http://www.web2py.com/book/default/chapter/02'
p4140
tp4141
a(g3397
(S't\x08\x00\x00\x00Overview'
tRp4142
I00
S'http://www.web2py.com/book/default/chapter/03'
p4143
tp4144
a(g3397
(S's\x08\x00\x00\x00The Core'
tRp4145
I00
S'http://www.web2py.com/book/default/chapter/04'
p4146
tp4147
a(g3397
(S's\t\x00\x00\x00The Views'
tRp4148
I00
S'http://www.web2py.com/book/default/chapter/05'
p4149
tp4150
a(g3397
(S't\x08\x00\x00\x00Database'
tRp4151
I00
S'http://www.web2py.com/book/default/chapter/06'
p4152
tp4153
a(g3397
(S's\x14\x00\x00\x00Forms and Validators'
tRp4154
I00
S'http://www.web2py.com/book/default/chapter/07'
p4155
tp4156
a(g3397
(S's\x0e\x00\x00\x00Access Control'
tRp4157
I00
S'http://www.web2py.com/book/default/chapter/08'
p4158
tp4159
a(g3397
(S't\x08\x00\x00\x00Services'
tRp4160
I00
S'http://www.web2py.com/book/default/chapter/09'
p4161
tp4162
a(g3397
(S's\x0c\x00\x00\x00Ajax Recipes'
tRp4163
I00
S'http://www.web2py.com/book/default/chapter/10'
p4164
tp4165
a(g3397
(S's\x12\x00\x00\x00Deployment Recipes'
tRp4166
I00
S'http://www.web2py.com/book/default/chapter/11'
p4167
tp4168
a(g3397
(S's\r\x00\x00\x00Other Recipes'
tRp4169
I00
S'http://www.web2py.com/book/default/chapter/12'
p4170
tp4171
a(g3397
(S's\r\x00\x00\x00Buy this book'
tRp4172
I00
S'http://stores.lulu.com/web2py'
p4173
tp4174
aasbasbasbasbasbasbasbag56
(g72
g58
NtRp4175
(dp4176
g61
(dp4177
sg70
g4062
sg63
(lp4178
g56
(g77
g58
NtRp4179
(dp4180
g61
(dp4181
sg70
g4175
sg63
(lp4182
g56
(g57
g58
NtRp4183
(dp4184
g61
(dp4185
g69
I2
ssg70
g4179
sg63
(lp4186
g56
(g65
g58
NtRp4187
(dp4188
g61
(dp4189
g69
I1
ssg70
Nsg63
(lp4190
g56
(g72
g58
NtRp4191
(dp4192
g61
(dp4193
sg70
g4187
sg63
(lp4194
g56
(g77
g58
NtRp4195
(dp4196
g61
(dp4197
sg70
g4191
sg63
(lp4198
g56
(g57
g58
NtRp4199
(dp4200
g61
(dp4201
g69
I1
ssg70
g4195
sg63
(lp4202
g3397
(S't\t\x00\x00\x00Community'
tRp4203
asbasbasbag56
(g72
g58
NtRp4204
(dp4205
g61
(dp4206
sg70
g4187
sg63
(lp4207
g56
(g77
g58
NtRp4208
(dp4209
g61
(dp4210
sg70
g4204
sg63
(lp4211
g56
(g57
g58
NtRp4212
(dp4213
g61
(dp4214
g69
I1
ssg70
g4208
sg63
(lp4215
I00
asbasbasbag56
(g72
g58
NtRp4216
(dp4217
g61
(dp4218
sg70
g4187
sg63
(lp4219
g56
(g77
g58
NtRp4220
(dp4221
g61
(dp4222
sg70
g4216
sg63
(lp4223
g56
(g57
g58
NtRp4224
(dp4225
g61
(dp4226
g69
I1
ssg70
g4220
sg63
(lp4227
Nasbasbasbag56
(g72
g58
NtRp4228
(dp4229
g61
(dp4230
sg70
g4187
sg63
(lp4231
g56
(g77
g58
NtRp4232
(dp4233
g61
(dp4234
sg70
g4228
sg63
(lp4235
g56
(g57
g58
NtRp4236
(dp4237
g61
(dp4238
g69
I1
ssg70
g4232
sg63
(lp4239
(lp4240
(g3397
(S't\x06\x00\x00\x00Groups'
tRp4241
I00
S'http://www.web2py.com/examples/default/usergroups'
p4242
tp4243
a(g3397
(S't\x07\x00\x00\x00Twitter'
tRp4244
I00
S'http://twitter.com/web2py'
p4245
tp4246
a(g3397
(S's\t\x00\x00\x00Live chat'
tRp4247
I00
S'http://mibbit.com/?channel=%23web2py&server=irc.mibbit.net'
p4248
tp4249
a(g3397
(S's\n\x00\x00\x00User Voice'
tRp4250
I00
S'http://web2py.uservoice.com/'
p4251
tp4252
aasbasbasbasbasbasbasbag56
(g72
g58
NtRp4253
(dp4254
g61
(dp4255
sg70
g4062
sg63
(lp4256
g56
(g77
g58
NtRp4257
(dp4258
g61
(dp4259
sg70
g4253
sg63
(lp4260
g56
(g57
g58
NtRp4261
(dp4262
g61
(dp4263
g69
I2
ssg70
g4257
sg63
(lp4264
g56
(g65
g58
NtRp4265
(dp4266
g61
(dp4267
g69
I1
ssg70
Nsg63
(lp4268
g56
(g72
g58
NtRp4269
(dp4270
g61
(dp4271
sg70
g4265
sg63
(lp4272
g56
(g77
g58
NtRp4273
(dp4274
g61
(dp4275
sg70
g4269
sg63
(lp4276
g56
(g57
g58
NtRp4277
(dp4278
g61
(dp4279
g69
I1
ssg70
g4273
sg63
(lp4280
g3397
(S't\x06\x00\x00\x00Web2py'
tRp4281
asbasbasbag56
(g72
g58
NtRp4282
(dp4283
g61
(dp4284
sg70
g4265
sg63
(lp4285
g56
(g77
g58
NtRp4286
(dp4287
g61
(dp4288
sg70
g4282
sg63
(lp4289
g56
(g57
g58
NtRp4290
(dp4291
g61
(dp4292
g69
I1
ssg70
g4286
sg63
(lp4293
I00
asbasbasbag56
(g72
g58
NtRp4294
(dp4295
g61
(dp4296
sg70
g4265
sg63
(lp4297
g56
(g77
g58
NtRp4298
(dp4299
g61
(dp4300
sg70
g4294
sg63
(lp4301
g56
(g57
g58
NtRp4302
(dp4303
g61
(dp4304
g69
I1
ssg70
g4298
sg63
(lp4305
S'http://www.web2py.com'
p4306
asbasbasbag56
(g72
g58
NtRp4307
(dp4308
g61
(dp4309
sg70
g4265
sg63
(lp4310
g56
(g77
g58
NtRp4311
(dp4312
g61
(dp4313
sg70
g4307
sg63
(lp4314
g56
(g57
g58
NtRp4315
(dp4316
g61
(dp4317
g69
I1
ssg70
g4311
sg63
(lp4318
(lp4319
(g3397
(S't\x08\x00\x00\x00Download'
tRp4320
I00
S'http://www.web2py.com/examples/default/download'
p4321
tp4322
a(g3397
(S't\x07\x00\x00\x00Support'
tRp4323
I00
S'http://www.web2py.com/examples/default/support'
p4324
tp4325
a(g3397
(S's\x0e\x00\x00\x00Quick Examples'
tRp4326
I00
S'http://web2py.com/examples/default/examples'
p4327
tp4328
a(g3397
(S't\x03\x00\x00\x00FAQ'
tRp4329
I00
S'http://web2py.com/AlterEgo'
p4330
tp4331
a(g3397
(S's\x11\x00\x00\x00Free Applications'
tRp4332
I00
S'http://web2py.com/appliances'
p4333
tp4334
a(g3397
(S't\x07\x00\x00\x00Plugins'
tRp4335
I00
S'http://web2py.com/plugins'
p4336
tp4337
a(g3397
(S't\x07\x00\x00\x00Recipes'
tRp4338
I00
S'http://web2pyslices.com/'
p4339
tp4340
a(g3397
(S't\x04\x00\x00\x00Demo'
tRp4341
I00
S'http://web2py.com/demo_admin'
p4342
tp4343
a(g3397
(S't\x08\x00\x00\x00Semantic'
tRp4344
I00
S'http://web2py.com/semantic'
p4345
tp4346
a(g3397
(S't\x07\x00\x00\x00Layouts'
tRp4347
I00
S'http://web2py.com/layouts'
p4348
tp4349
a(g3397
(S't\x06\x00\x00\x00Videos'
tRp4350
I00
S'http://www.web2py.com/examples/default/videos/'
p4351
tp4352
aasbasbasbasbasbasbasbasbasbasbasbasbasbasbasbasbasbasbasbag56
(g72
g58
NtRp4353
(dp4354
g61
(dp4355
sg70
g2892
sg63
(lp4356
g56
(g77
g58
NtRp4357
(dp4358
g61
(dp4359
g81
g82
ssg70
g4353
sg63
(lp4360
S'meta'
p4361
asbag56
(g77
g58
NtRp4362
(dp4363
g61
(dp4364
g88
g89
ssg70
g4353
sg63
(lp4365
S':'
asbag56
(g77
g58
NtRp4366
(dp4367
g61
(dp4368
sg70
g4353
sg63
(lp4369
g56
(g57
g58
NtRp4370
(dp4371
g61
(dp4372
g69
I5
ssg70
g4366
sg63
(lp4373
g56
(g65
g58
NtRp4374
(dp4375
g61
(dp4376
g69
I4
ssg70
Nsg63
(lp4377
g56
(g72
g58
NtRp4378
(dp4379
g61
(dp4380
sg70
g4374
sg63
(lp4381
g56
(g77
g58
NtRp4382
(dp4383
g61
(dp4384
g81
g82
ssg70
g4378
sg63
(lp4385
S'author'
p4386
asbag56
(g77
g58
NtRp4387
(dp4388
g61
(dp4389
g88
g89
ssg70
g4378
sg63
(lp4390
S':'
asbag56
(g77
g58
NtRp4391
(dp4392
g61
(dp4393
sg70
g4378
sg63
(lp4394
g56
(g57
g58
NtRp4395
(dp4396
g61
(dp4397
g69
I4
ssg70
g4391
sg63
(lp4398
S'Adrian Edwards'
p4399
asbasbasbag56
(g72
g58
NtRp4400
(dp4401
g61
(dp4402
sg70
g4374
sg63
(lp4403
g56
(g77
g58
NtRp4404
(dp4405
g61
(dp4406
g81
g82
ssg70
g4400
sg63
(lp4407
S'copyright'
p4408
asbag56
(g77
g58
NtRp4409
(dp4410
g61
(dp4411
g88
g89
ssg70
g4400
sg63
(lp4412
S':'
asbag56
(g77
g58
NtRp4413
(dp4414
g61
(dp4415
sg70
g4400
sg63
(lp4416
g56
(g57
g58
NtRp4417
(dp4418
g61
(dp4419
g69
I4
ssg70
g4413
sg63
(lp4420
S'Copyright 2011'
p4421
asbasbasbag56
(g72
g58
NtRp4422
(dp4423
g61
(dp4424
sg70
g4374
sg63
(lp4425
g56
(g77
g58
NtRp4426
(dp4427
g61
(dp4428
g81
g82
ssg70
g4422
sg63
(lp4429
S'description'
p4430
asbag56
(g77
g58
NtRp4431
(dp4432
g61
(dp4433
g88
g89
ssg70
g4422
sg63
(lp4434
S':'
asbag56
(g77
g58
NtRp4435
(dp4436
g61
(dp4437
sg70
g4422
sg63
(lp4438
g56
(g57
g58
NtRp4439
(dp4440
g61
(dp4441
g69
I4
ssg70
g4435
sg63
(lp4442
S'Fitness Challenge'
p4443
asbasbasbag56
(g72
g58
NtRp4444
(dp4445
g61
(dp4446
sg70
g4374
sg63
(lp4447
g56
(g77
g58
NtRp4448
(dp4449
g61
(dp4450
g81
g82
ssg70
g4444
sg63
(lp4451
S'generator'
p4452
asbag56
(g77
g58
NtRp4453
(dp4454
g61
(dp4455
g88
g89
ssg70
g4444
sg63
(lp4456
S':'
asbag56
(g77
g58
NtRp4457
(dp4458
g61
(dp4459
sg70
g4444
sg63
(lp4460
g56
(g57
g58
NtRp4461
(dp4462
g61
(dp4463
g69
I4
ssg70
g4457
sg63
(lp4464
S'Web2py Web Framework'
p4465
asbasbasbag56
(g72
g58
NtRp4466
(dp4467
g61
(dp4468
sg70
g4374
sg63
(lp4469
g56
(g77
g58
NtRp4470
(dp4471
g61
(dp4472
g81
g82
ssg70
g4466
sg63
(lp4473
S'keywords'
p4474
asbag56
(g77
g58
NtRp4475
(dp4476
g61
(dp4477
g88
g89
ssg70
g4466
sg63
(lp4478
S':'
asbag56
(g77
g58
NtRp4479
(dp4480
g61
(dp4481
sg70
g4466
sg63
(lp4482
g56
(g57
g58
NtRp4483
(dp4484
g61
(dp4485
g69
I4
ssg70
g4479
sg63
(lp4486
S'web2py, python, framework'
p4487
asbasbasbasbasbasbasbag56
(g72
g58
NtRp4488
(dp4489
g61
(dp4490
sg70
g2892
sg63
(lp4491
g56
(g77
g58
NtRp4492
(dp4493
g61
(dp4494
g81
g82
ssg70
g4488
sg63
(lp4495
S'postprocessing'
p4496
asbag56
(g77
g58
NtRp4497
(dp4498
g61
(dp4499
g88
g89
ssg70
g4488
sg63
(lp4500
S':'
asbag56
(g77
g58
NtRp4501
(dp4502
g61
(dp4503
sg70
g4488
sg63
(lp4504
g56
(g57
g58
NtRp4505
(dp4506
g61
(dp4507
g69
I5
ssg70
g4501
sg63
(lp4508
g56
(g65
g58
NtRp4509
(dp4510
g61
(dp4511
g69
I4
ssg70
Nsg63
(lp4512
sbasbasbasbag56
(g72
g58
NtRp4513
(dp4514
g61
(dp4515
sg70
g2892
sg63
(lp4516
g56
(g77
g58
NtRp4517
(dp4518
g61
(dp4519
g81
g82
ssg70
g4513
sg63
(lp4520
S'session_file'
p4521
asbag56
(g77
g58
NtRp4522
(dp4523
g61
(dp4524
g88
g89
ssg70
g4513
sg63
(lp4525
S':'
asbag56
(g77
g58
NtRp4526
(dp4527
g61
(dp4528
sg70
g4513
sg63
(lp4529
g56
(g57
g58
NtRp4530
(dp4531
g61
(dp4532
g69
I5
ssg70
g4526
sg63
(lp4533
S"<open file 'P:\\Workbench\\DevEnv\\web2py\\applications\\init\\sessions\\127.0.0.1-2ee686ba-d1d2-46bc-bb75-bfad4d4c0c4c', mode 'rb+' at 0x095DBD88>"
p4534
asbasbasbag56
(g72
g58
NtRp4535
(dp4536
g61
(dp4537
sg70
g2892
sg63
(lp4538
g56
(g77
g58
NtRp4539
(dp4540
g61
(dp4541
g81
g82
ssg70
g4535
sg63
(lp4542
S'session_filename'
p4543
asbag56
(g77
g58
NtRp4544
(dp4545
g61
(dp4546
g88
g89
ssg70
g4535
sg63
(lp4547
S':'
asbag56
(g77
g58
NtRp4548
(dp4549
g61
(dp4550
sg70
g4535
sg63
(lp4551
g56
(g57
g58
NtRp4552
(dp4553
g61
(dp4554
g69
I5
ssg70
g4548
sg63
(lp4555
S'P:\\Workbench\\DevEnv\\web2py\\applications\\init\\sessions\\127.0.0.1-2ee686ba-d1d2-46bc-bb75-bfad4d4c0c4c'
p4556
asbasbasbag56
(g72
g58
NtRp4557
(dp4558
g61
(dp4559
sg70
g2892
sg63
(lp4560
g56
(g77
g58
NtRp4561
(dp4562
g61
(dp4563
g81
g82
ssg70
g4557
sg63
(lp4564
S'session_id'
p4565
asbag56
(g77
g58
NtRp4566
(dp4567
g61
(dp4568
g88
g89
ssg70
g4557
sg63
(lp4569
S':'
asbag56
(g77
g58
NtRp4570
(dp4571
g61
(dp4572
sg70
g4557
sg63
(lp4573
g56
(g57
g58
NtRp4574
(dp4575
g61
(dp4576
g69
I5
ssg70
g4570
sg63
(lp4577
S'127.0.0.1-2ee686ba-d1d2-46bc-bb75-bfad4d4c0c4c'
p4578
asbasbasbag56
(g72
g58
NtRp4579
(dp4580
g61
(dp4581
sg70
g2892
sg63
(lp4582
g56
(g77
g58
NtRp4583
(dp4584
g61
(dp4585
g81
g82
ssg70
g4579
sg63
(lp4586
S'session_id_name'
p4587
asbag56
(g77
g58
NtRp4588
(dp4589
g61
(dp4590
g88
g89
ssg70
g4579
sg63
(lp4591
S':'
asbag56
(g77
g58
NtRp4592
(dp4593
g61
(dp4594
sg70
g4579
sg63
(lp4595
g56
(g57
g58
NtRp4596
(dp4597
g61
(dp4598
g69
I5
ssg70
g4592
sg63
(lp4599
g2949
asbasbasbag56
(g72
g58
NtRp4600
(dp4601
g61
(dp4602
sg70
g2892
sg63
(lp4603
g56
(g77
g58
NtRp4604
(dp4605
g61
(dp4606
g81
g82
ssg70
g4600
sg63
(lp4607
S'session_locked'
p4608
asbag56
(g77
g58
NtRp4609
(dp4610
g61
(dp4611
g88
g89
ssg70
g4600
sg63
(lp4612
S':'
asbag56
(g77
g58
NtRp4613
(dp4614
g61
(dp4615
sg70
g4600
sg63
(lp4616
g56
(g57
g58
NtRp4617
(dp4618
g61
(dp4619
g69
I5
ssg70
g4613
sg63
(lp4620
g1493
asbasbasbag56
(g72
g58
NtRp4621
(dp4622
g61
(dp4623
sg70
g2892
sg63
(lp4624
g56
(g77
g58
NtRp4625
(dp4626
g61
(dp4627
g81
g82
ssg70
g4621
sg63
(lp4628
S'session_new'
p4629
asbag56
(g77
g58
NtRp4630
(dp4631
g61
(dp4632
g88
g89
ssg70
g4621
sg63
(lp4633
S':'
asbag56
(g77
g58
NtRp4634
(dp4635
g61
(dp4636
sg70
g4621
sg63
(lp4637
g56
(g57
g58
NtRp4638
(dp4639
g61
(dp4640
g69
I5
ssg70
g4634
sg63
(lp4641
g99
asbasbasbag56
(g72
g58
NtRp4642
(dp4643
g61
(dp4644
sg70
g2892
sg63
(lp4645
g56
(g77
g58
NtRp4646
(dp4647
g61
(dp4648
g81
g82
ssg70
g4642
sg63
(lp4649
S'status'
p4650
asbag56
(g77
g58
NtRp4651
(dp4652
g61
(dp4653
g88
g89
ssg70
g4642
sg63
(lp4654
S':'
asbag56
(g77
g58
NtRp4655
(dp4656
g61
(dp4657
sg70
g4642
sg63
(lp4658
g56
(g57
g58
NtRp4659
(dp4660
g61
(dp4661
g69
I5
ssg70
g4655
sg63
(lp4662
S'200'
p4663
asbasbasbag56
(g72
g58
NtRp4664
(dp4665
g61
(dp4666
sg70
g2892
sg63
(lp4667
g56
(g77
g58
NtRp4668
(dp4669
g61
(dp4670
g81
g82
ssg70
g4664
sg63
(lp4671
S'subtitle'
p4672
asbag56
(g77
g58
NtRp4673
(dp4674
g61
(dp4675
g88
g89
ssg70
g4664
sg63
(lp4676
S':'
asbag56
(g77
g58
NtRp4677
(dp4678
g61
(dp4679
sg70
g4664
sg63
(lp4680
g56
(g57
g58
NtRp4681
(dp4682
g61
(dp4683
g69
I5
ssg70
g4677
sg63
(lp4684
g3397
(S's\r\x00\x00\x00customize me!'
tRp4685
asbasbasbag56
(g72
g58
NtRp4686
(dp4687
g61
(dp4688
sg70
g2892
sg63
(lp4689
g56
(g77
g58
NtRp4690
(dp4691
g61
(dp4692
g81
g82
ssg70
g4686
sg63
(lp4693
S'title'
p4694
asbag56
(g77
g58
NtRp4695
(dp4696
g61
(dp4697
g88
g89
ssg70
g4686
sg63
(lp4698
S':'
asbag56
(g77
g58
NtRp4699
(dp4700
g61
(dp4701
sg70
g4686
sg63
(lp4702
g56
(g57
g58
NtRp4703
(dp4704
g61
(dp4705
g69
I5
ssg70
g4699
sg63
(lp4706
g121
asbasbasbag56
(g72
g58
NtRp4707
(dp4708
g61
(dp4709
sg70
g2892
sg63
(lp4710
g56
(g77
g58
NtRp4711
(dp4712
g61
(dp4713
g81
g82
ssg70
g4707
sg63
(lp4714
g2137
asbag56
(g77
g58
NtRp4715
(dp4716
g61
(dp4717
g88
g89
ssg70
g4707
sg63
(lp4718
S':'
asbag56
(g77
g58
NtRp4719
(dp4720
g61
(dp4721
sg70
g4707
sg63
(lp4722
g56
(g57
g58
NtRp4723
(dp4724
g61
(dp4725
g69
I5
ssg70
g4719
sg63
(lp4726
g2150
asbasbasbag56
(g72
g58
NtRp4727
(dp4728
g61
(dp4729
sg70
g2892
sg63
(lp4730
g56
(g77
g58
NtRp4731
(dp4732
g61
(dp4733
g81
g82
ssg70
g4727
sg63
(lp4734
S'view'
p4735
asbag56
(g77
g58
NtRp4736
(dp4737
g61
(dp4738
g88
g89
ssg70
g4727
sg63
(lp4739
S':'
asbag56
(g77
g58
NtRp4740
(dp4741
g61
(dp4742
sg70
g4727
sg63
(lp4743
g56
(g57
g58
NtRp4744
(dp4745
g61
(dp4746
g69
I5
ssg70
g4740
sg63
(lp4747
S'default/contact.html'
p4748
asbasbasbasbasbsS'locals'
p4749
(dp4750
S'Service'
p4751
S"<class 'gluon.tools.Service'>"
p4752
sS'OBJECT'
p4753
S"<class 'gluon.html.OBJECT'>"
p4754
sS'SQLDB'
p4755
S"<class 'gluon.dal.DAL'>"
p4756
sg2874
S"<Storage {'_auth_next': '/init/default/index', '...sword]': '8e8bbfa6-8aa0-40f5-a921-78c09eb6ca93'}>"
p4757
sS'LINK'
p4758
S"<class 'gluon.html.LINK'>"
p4759
sS'BR'
p4760
S"<class 'gluon.html.BR'>"
p4761
sS'local_import'
p4762
S'<function <lambda>>'
p4763
sS'OPTGROUP'
p4764
S"<class 'gluon.html.OPTGROUP'>"
p4765
sS'PRE'
p4766
S"<class 'gluon.html.PRE'>"
p4767
sS'IS_INT_IN_RANGE'
p4768
S"<class 'gluon.validators.IS_INT_IN_RANGE'>"
p4769
sS'IS_LOWER'
p4770
S"<class 'gluon.validators.IS_LOWER'>"
p4771
sS'IS_STRONG'
p4772
S"<class 'gluon.validators.IS_STRONG'>"
p4773
sS'cache'
p4774
S'<gluon.cache.Cache object>'
p4775
sS'IS_IN_DB'
p4776
S"<class 'gluon.validators.IS_IN_DB'>"
p4777
sS'TAG'
p4778
S'<gluon.html.__TAG__ object>'
p4779
sS'SQLField'
p4780
S"<class 'gluon.dal.Field'>"
p4781
sS'mail'
p4782
S'<gluon.tools.Mail object>'
p4783
sS'BODY'
p4784
S"<class 'gluon.html.BODY'>"
p4785
sS'IS_DATE_IN_RANGE'
p4786
S"<class 'gluon.validators.IS_DATE_IN_RANGE'>"
p4787
sS'TH'
p4788
S"<class 'gluon.html.TH'>"
p4789
sS'URL'
p4790
S'<function URL>'
p4791
sS'__file__'
p4792
S"r'P:\\Workbench\\DevEnv\\web2py\\applications\\init\\views\\default/contact.html'"
p4793
sS'db'
p4794
S"<DAL {'auth_event': <Table {'origin': <gluon.dal...'_id': <gluon.dal.Field object at 0x0912E6F0>}>}>"
p4795
sS'auth'
p4796
S'<gluon.tools.Auth object>'
p4797
sS'P'
S"<class 'gluon.html.P'>"
p4798
sS'TFOOT'
p4799
S"<class 'gluon.html.TFOOT'>"
p4800
sS'XHTML'
p4801
S"<class 'gluon.html.XHTML'>"
p4802
sS'ON'
p4803
g1493
sS'OL'
p4804
S"<class 'gluon.html.OL'>"
p4805
sS'TEXTAREA'
p4806
S"<class 'gluon.html.TEXTAREA'>"
p4807
sS'MENU'
p4808
S"<class 'gluon.html.MENU'>"
p4809
sS'LOAD'
p4810
S'<gluon.compileapp.LoadFactory object>'
p4811
sS'CODE'
p4812
S"<class 'gluon.html.CODE'>"
p4813
sS'HTTP'
p4814
S"<class 'gluon.http.HTTP'>"
p4815
sS'HR'
p4816
S"<class 'gluon.html.HR'>"
p4817
sS'IS_DATETIME'
p4818
S"<class 'gluon.validators.IS_DATETIME'>"
p4819
sS'HEAD'
p4820
S"<class 'gluon.html.HEAD'>"
p4821
sS'LABEL'
p4822
S"<class 'gluon.html.LABEL'>"
p4823
sS'CLEANUP'
p4824
S"<class 'gluon.validators.CLEANUP'>"
p4825
sS'plugins'
p4826
S'<gluon.tools.PluginManager object>'
p4827
sS'SELECT'
p4828
S"<class 'gluon.html.SELECT'>"
p4829
sS'use_janrain'
p4830
S'<function use_janrain>'
p4831
sS'CENTER'
p4832
S"<class 'gluon.html.CENTER'>"
p4833
sS'prettydate'
p4834
S'<function prettydate>'
p4835
sS'Crud'
p4836
S"<class 'gluon.tools.Crud'>"
p4837
sS'Auth'
p4838
S"<class 'gluon.tools.Auth'>"
p4839
sS'__builtins__'
p4840
S"{'ArithmeticError': <type 'exceptions.ArithmeticError'>, 'AssertionError': <type 'exceptions.AssertionError'>, 'AttributeError': <type 'exceptions.AttributeError'>, 'BaseException': <type 'exceptions.BaseException'>, 'BufferError': <type 'exceptions.BufferError'>, 'BytesWarning': <type 'exceptions.BytesWarning'>, 'DeprecationWarning': <type 'exceptions.DeprecationWarning'>, 'EOFError': <type 'exceptions.EOFError'>, 'Ellipsis': Ellipsis, 'EnvironmentError': <type 'exceptions.EnvironmentError'>, ...}"
p4841
sS'HTML'
p4842
S"<class 'gluon.html.HTML'>"
p4843
sS'SQLFORM'
p4844
S"<class 'gluon.sqlhtml.SQLFORM'>"
p4845
sS'EM'
p4846
S"<class 'gluon.html.EM'>"
p4847
sS'redirect'
p4848
S'<function redirect>'
p4849
sS'FIELDSET'
p4850
S"<class 'gluon.html.FIELDSET'>"
p4851
sS'IS_EQUAL_TO'
p4852
S"<class 'gluon.validators.IS_EQUAL_TO'>"
p4853
sS'embed64'
p4854
S'<function embed64>'
p4855
sS'IS_LIST_OF'
p4856
S"<class 'gluon.validators.IS_LIST_OF'>"
p4857
sS'INPUT'
p4858
S"<class 'gluon.html.INPUT'>"
p4859
sS'EMBED'
p4860
S"<class 'gluon.html.EMBED'>"
p4861
sS'_'
S'<function _>'
p4862
sS'FORM'
p4863
S"<class 'gluon.html.FORM'>"
p4864
sS'H2'
p4865
S"<class 'gluon.html.H2'>"
p4866
sS'H3'
p4867
S"<class 'gluon.html.H3'>"
p4868
sS'BUTTON'
p4869
S"<class 'gluon.html.BUTTON'>"
p4870
sS'H1'
p4871
S"<class 'gluon.html.H1'>"
p4872
sS'H6'
p4873
S"<class 'gluon.html.H6'>"
p4874
sS'H4'
p4875
S"<class 'gluon.html.H4'>"
p4876
sS'H5'
p4877
S"<class 'gluon.html.H5'>"
p4878
sS'UL'
p4879
S"<class 'gluon.html.UL'>"
p4880
sS'IS_UPPER'
p4881
S"<class 'gluon.validators.IS_UPPER'>"
p4882
sS'xmlescape'
p4883
S'<function xmlescape>'
p4884
sS'IS_TIME'
p4885
S"<class 'gluon.validators.IS_TIME'>"
p4886
sS'OPTION'
p4887
S"<class 'gluon.html.OPTION'>"
p4888
sS'TITLE'
p4889
S"<class 'gluon.html.TITLE'>"
p4890
sS'CRYPT'
p4891
S"<class 'gluon.validators.CRYPT'>"
p4892
sS'IS_EMPTY_OR'
p4893
S"<class 'gluon.validators.IS_EMPTY_OR'>"
p4894
sS'MARKMIN'
p4895
S"<class 'gluon.html.MARKMIN'>"
p4896
sS'COL'
p4897
S"<class 'gluon.html.COL'>"
p4898
sS'service'
p4899
S'<gluon.tools.Service object>'
p4900
sS'SCRIPT'
p4901
S"<class 'gluon.html.SCRIPT'>"
p4902
sS'TABLE'
p4903
S"<class 'gluon.html.TABLE'>"
p4904
sS'IS_IPV4'
p4905
S"<class 'gluon.validators.IS_IPV4'>"
p4906
sS'IS_LENGTH'
p4907
S"<class 'gluon.validators.IS_LENGTH'>"
p4908
sS'XML'
p4909
S"<class 'gluon.html.XML'>"
p4910
sS'B'
S"<class 'gluon.html.B'>"
p4911
sS'IMG'
p4912
S"<class 'gluon.html.IMG'>"
p4913
sS'SQLTABLE'
p4914
S"<class 'gluon.sqlhtml.SQLTABLE'>"
p4915
sS'IS_MATCH'
p4916
S"<class 'gluon.validators.IS_MATCH'>"
p4917
sS'IS_ALPHANUMERIC'
p4918
S"<class 'gluon.validators.IS_ALPHANUMERIC'>"
p4919
sS'SPAN'
p4920
S"<class 'gluon.html.SPAN'>"
p4921
sS'IS_SLUG'
p4922
S"<class 'gluon.validators.IS_SLUG'>"
p4923
sS'BEAUTIFY'
p4924
S"<class 'gluon.html.BEAUTIFY'>"
p4925
sS'META'
p4926
S"<class 'gluon.html.META'>"
p4927
sS'IS_DATE'
p4928
S"<class 'gluon.validators.IS_DATE'>"
p4929
sS'IS_EMAIL'
p4930
S"<class 'gluon.validators.IS_EMAIL'>"
p4931
sS'IS_NOT_EMPTY'
p4932
S"<class 'gluon.validators.IS_NOT_EMPTY'>"
p4933
sS'IS_FLOAT_IN_RANGE'
p4934
S"<class 'gluon.validators.IS_FLOAT_IN_RANGE'>"
p4935
sS'TBODY'
p4936
S"<class 'gluon.html.TBODY'>"
p4937
sS'CAT'
p4938
S"<class 'gluon.html.CAT'>"
p4939
sS'Field'
p4940
S"<class 'gluon.dal.Field'>"
p4941
sS'DIV'
p4942
S"<class 'gluon.html.DIV'>"
p4943
sS'LEGEND'
p4944
S"<class 'gluon.html.LEGEND'>"
p4945
sS'COLGROUP'
p4946
S"<class 'gluon.html.COLGROUP'>"
p4947
sS'DAL'
p4948
S"<class 'gluon.dal.DAL'>"
p4949
sS'TT'
p4950
S"<class 'gluon.html.TT'>"
p4951
sS'TR'
p4952
S"<class 'gluon.html.TR'>"
p4953
sS'LI'
p4954
S"<class 'gluon.html.LI'>"
p4955
sS'IFRAME'
p4956
S"<class 'gluon.html.IFRAME'>"
p4957
sS'TD'
p4958
S"<class 'gluon.html.TD'>"
p4959
sS'PluginManager'
p4960
S"<class 'gluon.tools.PluginManager'>"
p4961
sS'IS_URL'
p4962
S"<class 'gluon.validators.IS_URL'>"
p4963
sS'A'
S"<class 'gluon.html.A'>"
p4964
sS'STYLE'
p4965
S"<class 'gluon.html.STYLE'>"
p4966
sS'IS_DATETIME_IN_RANGE'
p4967
S"<class 'gluon.validators.IS_DATETIME_IN_RANGE'>"
p4968
sS'IS_IMAGE'
p4969
S"<class 'gluon.validators.IS_IMAGE'>"
p4970
sS'I'
S"<class 'gluon.html.I'>"
p4971
sS'crud'
p4972
S'<gluon.tools.Crud object>'
p4973
sS'IS_NOT_IN_DB'
p4974
S"<class 'gluon.validators.IS_NOT_IN_DB'>"
p4975
sg2887
S"<Storage {'body': <cStringIO.StringO object at 0... at 0x09B74230>, 'view': 'default/contact.html'}>"
p4976
sS'THEAD'
p4977
S"<class 'gluon.html.THEAD'>"
p4978
sS'IS_NULL_OR'
p4979
S"<class 'gluon.validators.IS_EMPTY_OR'>"
p4980
sg55
S"<Storage {'body': <cStringIO.StringO object at 0..._vars': <Storage {}>, 'post_vars': <Storage {}>}>"
p4981
sS'IS_EXPR'
p4982
S"<class 'gluon.validators.IS_EXPR'>"
p4983
sS'T'
S'<gluon.languages.translator object>'
p4984
sS'IS_IN_SET'
p4985
S"<class 'gluon.validators.IS_IN_SET'>"
p4986
sS'IS_UPLOAD_FILENAME'
p4987
S"<class 'gluon.validators.IS_UPLOAD_FILENAME'>"
p4988
sS'IS_DECIMAL_IN_RANGE'
p4989
S"<class 'gluon.validators.IS_DECIMAL_IN_RANGE'>"
p4990
sssS'traceback'
p4991
S'Traceback (most recent call last):\n  File "P:\\Workbench\\DevEnv\\web2py\\gluon\\restricted.py", line 192, in restricted\n    exec ccode in environment\n  File "P:\\Workbench\\DevEnv\\web2py\\applications\\init\\views\\default/contact.html", line 8, in <module>\n    <label for="email">Email: </label> <input class="contactInputText" type="text" id="email" /><br />\nAttributeError: \'NoneType\' object has no attribute \'replace\'\n'
p4992
s.