(dp1
S'output'
p2
S"<type 'exceptions.SyntaxError'> invalid syntax (default/challenge.html, line 37)"
p3
sS'layer'
p4
S'P:\\School\\DePaul\\Projects\\CSC_438\\web2py\\applications\\init\\views\\default/challenge.html'
p5
sS'code'
p6
S'response.write(\'<!DOCTYPE html PUBLIC "-//W3C//DTD XHTML 1.0 Transitional//EN" "http://www.w3.org/TR/xhtml1/DTD/xhtml1-transitional.dtd">\\r\\n<html xmlns="http://www.w3.org/1999/xhtml" xml:lang="en" lang="en">\\r\\n<head>\\r\\n  <meta http-equiv="Content-Type" content="text/html; charset=UTF-8" />\\r\\n    \', escape=False)\n###### include web2py specific js code (jquery, calendar, form stuff)\nresponse.write(\'\\r\\n    \', escape=False)\nresponse.files.insert(0,URL(\'static\',\'js/jquery.js\'))\nresponse.files.insert(1,URL(\'static\',\'css/anytime.css\'))\nresponse.files.insert(2,URL(\'static\',\'js/anytime.js\'))\nresponse.include_meta()\nresponse.include_files()\nresponse.write(\'\\n<script type="text/javascript"><!--\\n    // These variables are used by the web2py_ajax_init function in web2py_ajax.js (which is loaded below).\\n    var w2p_ajax_confirm_message = "\', escape=False)\nresponse.write(T(\'Are you sure you want to delete this object?\'))\nresponse.write(\'";\\n    var w2p_ajax_date_format = "\', escape=False)\nresponse.write(T(\'%Y-%m-%d\'))\nresponse.write(\'";\\n    var w2p_ajax_datetime_format = "\', escape=False)\nresponse.write(T(\'%Y-%m-%d %H:%M:%S\'))\nresponse.write(\'";\\n    //--></script>\\n    <script src="\', escape=False)\nresponse.write(URL(\'static\',\'js/web2py_ajax.js\'))\nresponse.write(\'" type="text/javascript"></script>\\n\', escape=False)\nresponse.write(\'\\r\\n    \\r\\n    <title>Fitness Challenge    </title>\\r\\n  <link rel="stylesheet" media="screen" href="\', escape=False)\nresponse.write(URL(\'static\', \'css/UNd-style.css\'))\nresponse.write(\'" />\\r\\n</head>\\r\\n<body>\\r\\n\\r\\n<div id="header">\\r\\n    <h1 id="site-title">Fitness Challenge</h1>\\r\\n    <h3 id="slogan">Step Up To The Challenge</h3>\\r\\n\\r\\n</div>\\r\\n\\r\\n<div id="top-menu">\\r\\n    \', escape=False)\nresponse.write(\'\\r\\n    <ul>\\r\\n        <li class="top-menu-item"><a href="\', escape=False)\nresponse.write(URL(r=request,f=\'index\'))\nresponse.write(\'">Home</a></li>\\r\\n        <li class="before-selected"></li>\\r\\n        <li class="selected"><a href="#">Challenge</a></li>\\r\\n        <li class="after-selected"></li>\\r\\n        <li class="top-menu-item"><a href="#">Check In</a></li>\\r\\n        <li class="top-menu-item"><a href="\', escape=False)\nresponse.write(URL(r=request,f=\'contact\'))\nresponse.write(\'">Contact</a></li>\\r\\n        <li class="top-menu-item"><a href="#">About</a></li>\\r\\n    </ul>\\r\\n\', escape=False)\nresponse.write(\'\\r\\n    <div id="auth_navbar">\\r\\n        <br/>\\r\\n        \', escape=False)\ntry:\n    response.write(auth.navbar(action=URL(\'default\',\'user\')))\nexcept:pass\nresponse.write(\'</h3>\\r\\n    </div>\\r\\n</div>\\r\\n\\r\\n<div id="wrap-website">\\r\\n    <div id="content">\\r\\n        <div class="post">\\r\\n            <div class="head-post">\\r\\n            \', escape=False)\nresponse.write(\'\\r\\n\\t<h1 class="titlePage">\', escape=False)\nresponse.write(form.name)\nresponse.write(\' \\r\\n\\t\', escape=False)\nif auth.user.id not in form.participants:\n    response.write(\'\\r\\n\\t\\t<input type="button" name="Join" value="Join" onclick="window.location = \', escape=False)\n    response.write(URL(\'edit\', vars=dict(event=form.id))\n    response.write(\'" /> \\r\\n\\t\', escape=False)\n    pass\nresponse.write(\'\\r\\n\\t</h1>\\r\\n\', escape=False)\nresponse.write(\'\\r\\n            <!-- \\r\\n                \', escape=False)\nif request.args(0) != None:\n    response.write(\'\\r\\n                    <h1 class="titlePage">\', escape=False)\n    response.write(T(request.args(0).replace(\'_\',\' \').capitalize()))\n    response.write(\'</h1>\\r\\n                \', escape=False)\nelse:\n    response.write(\'\\r\\n                    <h1 class="titlePage">\', escape=False)\n    response.write(T(request.function.replace(\'_\',\' \').capitalize()))\n    response.write(\'</h1>\\r\\n                \', escape=False)\n    pass\nresponse.write(\'\\r\\n            -->\\r\\n            </div>\\r\\n            <div class="body-post">\\r\\n                \', escape=False)\nresponse.write(\'\\r\\n\', escape=False)\nresponse.write(\'\\r\\n\\r\\n\', escape=False)\nresponse.write(\'\\r\\n\\r\\n\', escape=False)\nresponse.write(\'\\r\\n\\r\\n<table class=\\\'event\\\' width="100%">\\r\\n    <tr>\\r\\n        <td valign="top" width="70%" rowspan="7"><h3> \', escape=False)\nresponse.write(form.description)\nresponse.write(\' </h2></td>\\r\\n        <td width="20%">Start Date: </td>\\r\\n\\t</tr>\\r\\n\\t<tr>\\r\\n        <td width="10%"> \', escape=False)\nresponse.write(form.start_date)\nresponse.write(\'</td>\\r\\n    </tr>\\r\\n    <tr>\\r\\n        <td>End Date: </td>\\r\\n        <td> \', escape=False)\nresponse.write(form.end_date)\nresponse.write(\' </td>\\r\\n    </tr>\\r\\n    <tr>\\r\\n        <td>Status: </td>\\r\\n        <td>\', escape=False)\nresponse.write(form.status)\nresponse.write(\' </td>\\r\\n    </tr>\\r\\n    <tr>\\r\\n        <td>Check In: </td><td> \', escape=False)\nresponse.write(form.check_in)\nresponse.write(\' </td>\\r\\n    </tr>\\r\\n    <tr>\\r\\n        <td>Metric Name: </td><td> \', escape=False)\nresponse.write(form.metric_name)\nresponse.write(\' </td>\\r\\n    </tr>\\r\\n    <tr>\\r\\n        <td># of Partcipants: </td><td>\', escape=False)\nresponse.write(num_users)\nresponse.write(\'</td>\\r\\n    </tr>    \\r\\n</table> \\r\\n<hr>\\r\\n<br>\\r\\n<center><h2> Leaders Board </h2></center>\\r\\n</br>\\r\\n<table>\\r\\n    <th>Name</th>\\r\\n    <th>Entry</th>\\r\\n    <th>Date of Last Entry</th>\\r\\n\\t\', escape=False)\nfor entry in entries:\n    response.write(\'    \\r\\n        <tr>        \\r\\n            <td>\', escape=False)\n    response.write(entry.user.user_name.first_name)\n    response.write(\'</td>\\r\\n            <td>\', escape=False)\n    response.write(entry.value)\n    response.write(\'</td>\\r\\n            <td>\', escape=False)\n    response.write(entry.date_entered)\n    response.write(\'</td>\\r\\n        </tr>\\r\\n    \', escape=False)\n    pass\nresponse.write(\'\\r\\n</table>\\r\\n\\r\\n<br>\\r\\n<hr>\\r\\n\', escape=False)\nresponse.write(\'\\r\\n            </div>\\r\\n        </div>\\r\\n    </div>\\r\\n    <div id="right-menu">\\r\\n        <div class="right-menu-item">\\r\\n            <div class="right-menu-title">\\r\\n                <h3>Links</h3>\\r\\n            </div>\\r\\n            <ul>\\r\\n                <li><a href="\', escape=False)\nresponse.write(URL(r=request,f=\'create\'))\nresponse.write(\'">Create a Challenge</a></li>\\r\\n                <li><a href="\', escape=False)\nresponse.write(URL(r=request,f=\'search\'))\nresponse.write(\'">Search for a Challenge</a></li>\\r\\n            \\t\', escape=False)\nresponse.write(\'\\r\\n\\t\', escape=False)\nif auth.user.id == form.created_by:\n    response.write(\'\\r\\n\\t\\t<li>\', escape=False)\n    response.write(A(\'Edit Challenge\', _href=URL(\'edit\', vars=dict(event=form.id))))\n    response.write(\'</li>\\r\\n\\t\', escape=False)\n    pass\nresponse.write(\'\\r\\n\', escape=False)\nresponse.write(\'\\r\\n            </ul>\\r\\n            <div class="right-menu-bottom"></div>\\r\\n        </div>\\r\\n        \\r\\n    </div>\\r\\n    <div class="clean"></div>\\r\\n</div>\\r\\n\\r\\n<div id="footer">\\r\\n    <p>\\r\\n        UNd Theme - <a href="http://www.florian-hacquebart.eu">florian-hacquebart.eu</a> - <a href="http://validator.w3.org/check?uri=referer">xhtml</a> &amp; <a href="http://jigsaw.w3.org/css-validator/check/referer">css</a> valid\\r\\n    </p>\\r\\n</div>\\r\\n\\r\\n</body>\\r\\n</html>\\r\\n\', escape=False)'
p7
sS'snapshot'
p8
(dp9
S'exception'
p10
(dp11
S'__getslice__'
p12
S"<method-wrapper '__getslice__' of exceptions.SyntaxError object>"
p13
sS'text'
p14
S'\'    response.write(\\\'" /> \\\\r\\\\n\\\\t\\\', escape=False)\\n\''
p15
sS'__str__'
p16
S"<method-wrapper '__str__' of exceptions.SyntaxError object>"
p17
sS'__reduce__'
p18
S'<built-in method __reduce__ of exceptions.SyntaxError object>'
p19
sS'__dict__'
p20
S'{}'
p21
sS'__sizeof__'
p22
S'<built-in method __sizeof__ of exceptions.SyntaxError object>'
p23
sS'__init__'
p24
S"<method-wrapper '__init__' of exceptions.SyntaxError object>"
p25
sS'__setattr__'
p26
S"<method-wrapper '__setattr__' of exceptions.SyntaxError object>"
p27
sS'__reduce_ex__'
p28
S'<built-in method __reduce_ex__ of exceptions.SyntaxError object>'
p29
sS'__new__'
p30
S'<built-in method __new__ of type object>'
p31
sS'__format__'
p32
S'<built-in method __format__ of exceptions.SyntaxError object>'
p33
sS'__class__'
p34
S"<type 'exceptions.SyntaxError'>"
p35
sS'filename'
p36
S"r'P:\\School\\DePaul\\Projects\\CSC_438\\web2py\\applications\\init\\views\\default/challenge.html'"
p37
sS'lineno'
p38
S'37'
p39
sS'msg'
p40
S"'invalid syntax'"
p41
sS'__doc__'
p42
S"'Invalid syntax.'"
p43
sS'__getitem__'
p44
S"<method-wrapper '__getitem__' of exceptions.SyntaxError object>"
p45
sS'__setstate__'
p46
S'<built-in method __setstate__ of exceptions.SyntaxError object>'
p47
sS'__getattribute__'
p48
S"<method-wrapper '__getattribute__' of exceptions.SyntaxError object>"
p49
sS'print_file_and_line'
p50
S'None'
p51
sS'args'
p52
S'(\'invalid syntax\', (r\'P:\\School\\DePaul\\Projects\\CSC_438\\web2py\\applications\\init\\views\\default/challenge.html\', 37, 12, \'    response.write(\\\'" /> \\\\r\\\\n\\\\t\\\', escape=False)\\n\'))'
p53
sS'__subclasshook__'
p54
S'<built-in method __subclasshook__ of type object>'
p55
sS'offset'
p56
S'12'
p57
sS'__unicode__'
p58
S'<built-in method __unicode__ of exceptions.SyntaxError object>'
p59
sS'__delattr__'
p60
S"<method-wrapper '__delattr__' of exceptions.SyntaxError object>"
p61
sS'__repr__'
p62
S"<method-wrapper '__repr__' of exceptions.SyntaxError object>"
p63
sS'__hash__'
p64
S"<method-wrapper '__hash__' of exceptions.SyntaxError object>"
p65
ssS'evalue'
p66
S'invalid syntax (default/challenge.html, line 37)'
p67
sS'request'
p68
ccopy_reg
_reconstructor
p69
(cgluon.html
BEAUTIFY
p70
c__builtin__
object
p71
NtRp72
(dp73
S'attributes'
p74
(dp75
sS'components'
p76
(lp77
g69
(cgluon.html
TABLE
p78
g71
NtRp79
(dp80
g74
(dp81
S'level'
p82
I5
ssS'parent'
p83
Nsg76
(lp84
g69
(cgluon.html
TR
p85
g71
NtRp86
(dp87
g74
(dp88
sg83
g79
sg76
(lp89
g69
(cgluon.html
TD
p90
g71
NtRp91
(dp92
g74
(dp93
S'_style'
p94
S'font-weight:bold;vertical-align:top'
p95
ssg83
g86
sg76
(lp96
S'ajax'
p97
asbag69
(g90
g71
NtRp98
(dp99
g74
(dp100
S'_valign'
p101
S'top'
p102
ssg83
g86
sg76
(lp103
S':'
asbag69
(g90
g71
NtRp104
(dp105
g74
(dp106
sg83
g86
sg76
(lp107
g69
(g70
g71
NtRp108
(dp109
g74
(dp110
g82
I5
ssg83
g104
sg76
(lp111
S'False'
p112
asbasbasbag69
(g85
g71
NtRp113
(dp114
g74
(dp115
sg83
g79
sg76
(lp116
g69
(g90
g71
NtRp117
(dp118
g74
(dp119
g94
g95
ssg83
g113
sg76
(lp120
S'application'
p121
asbag69
(g90
g71
NtRp122
(dp123
g74
(dp124
g101
g102
ssg83
g113
sg76
(lp125
S':'
asbag69
(g90
g71
NtRp126
(dp127
g74
(dp128
sg83
g113
sg76
(lp129
g69
(g70
g71
NtRp130
(dp131
g74
(dp132
g82
I5
ssg83
g126
sg76
(lp133
S'init'
p134
asbasbasbag69
(g85
g71
NtRp135
(dp136
g74
(dp137
sg83
g79
sg76
(lp138
g69
(g90
g71
NtRp139
(dp140
g74
(dp141
g94
g95
ssg83
g135
sg76
(lp142
g52
asbag69
(g90
g71
NtRp143
(dp144
g74
(dp145
g101
g102
ssg83
g135
sg76
(lp146
S':'
asbag69
(g90
g71
NtRp147
(dp148
g74
(dp149
sg83
g135
sg76
(lp150
g69
(g70
g71
NtRp151
(dp152
g74
(dp153
g82
I5
ssg83
g147
sg76
(lp154
g69
(g78
g71
NtRp155
(dp156
g74
(dp157
g82
I4
ssg83
Nsg76
(lp158
sbasbasbasbag69
(g85
g71
NtRp159
(dp160
g74
(dp161
sg83
g79
sg76
(lp162
g69
(g90
g71
NtRp163
(dp164
g74
(dp165
g94
g95
ssg83
g159
sg76
(lp166
S'body'
p167
asbag69
(g90
g71
NtRp168
(dp169
g74
(dp170
g101
g102
ssg83
g159
sg76
(lp171
S':'
asbag69
(g90
g71
NtRp172
(dp173
g74
(dp174
sg83
g159
sg76
(lp175
g69
(g70
g71
NtRp176
(dp177
g74
(dp178
g82
I5
ssg83
g172
sg76
(lp179
S'<cStringIO.StringO object at 0x08378FE0>'
p180
asbasbasbag69
(g85
g71
NtRp181
(dp182
g74
(dp183
sg83
g79
sg76
(lp184
g69
(g90
g71
NtRp185
(dp186
g74
(dp187
g94
g95
ssg83
g181
sg76
(lp188
S'client'
p189
asbag69
(g90
g71
NtRp190
(dp191
g74
(dp192
g101
g102
ssg83
g181
sg76
(lp193
S':'
asbag69
(g90
g71
NtRp194
(dp195
g74
(dp196
sg83
g181
sg76
(lp197
g69
(g70
g71
NtRp198
(dp199
g74
(dp200
g82
I5
ssg83
g194
sg76
(lp201
S'127.0.0.1'
p202
asbasbasbag69
(g85
g71
NtRp203
(dp204
g74
(dp205
sg83
g79
sg76
(lp206
g69
(g90
g71
NtRp207
(dp208
g74
(dp209
g94
g95
ssg83
g203
sg76
(lp210
S'controller'
p211
asbag69
(g90
g71
NtRp212
(dp213
g74
(dp214
g101
g102
ssg83
g203
sg76
(lp215
S':'
asbag69
(g90
g71
NtRp216
(dp217
g74
(dp218
sg83
g203
sg76
(lp219
g69
(g70
g71
NtRp220
(dp221
g74
(dp222
g82
I5
ssg83
g216
sg76
(lp223
S'default'
p224
asbasbasbag69
(g85
g71
NtRp225
(dp226
g74
(dp227
sg83
g79
sg76
(lp228
g69
(g90
g71
NtRp229
(dp230
g74
(dp231
g94
g95
ssg83
g225
sg76
(lp232
S'cookies'
p233
asbag69
(g90
g71
NtRp234
(dp235
g74
(dp236
g101
g102
ssg83
g225
sg76
(lp237
S':'
asbag69
(g90
g71
NtRp238
(dp239
g74
(dp240
sg83
g225
sg76
(lp241
g69
(g70
g71
NtRp242
(dp243
g74
(dp244
g82
I5
ssg83
g238
sg76
(lp245
g69
(g78
g71
NtRp246
(dp247
g74
(dp248
g82
I4
ssg83
Nsg76
(lp249
g69
(g85
g71
NtRp250
(dp251
g74
(dp252
sg83
g246
sg76
(lp253
g69
(g90
g71
NtRp254
(dp255
g74
(dp256
g94
g95
ssg83
g250
sg76
(lp257
S'session_id_admin'
p258
asbag69
(g90
g71
NtRp259
(dp260
g74
(dp261
g101
g102
ssg83
g250
sg76
(lp262
S':'
asbag69
(g90
g71
NtRp263
(dp264
g74
(dp265
sg83
g250
sg76
(lp266
g69
(g70
g71
NtRp267
(dp268
g74
(dp269
g82
I4
ssg83
g263
sg76
(lp270
g69
(g78
g71
NtRp271
(dp272
g74
(dp273
g82
I3
ssg83
Nsg76
(lp274
g69
(g85
g71
NtRp275
(dp276
g74
(dp277
sg83
g271
sg76
(lp278
g69
(g90
g71
NtRp279
(dp280
g74
(dp281
g94
g95
ssg83
g275
sg76
(lp282
S'comment'
p283
asbag69
(g90
g71
NtRp284
(dp285
g74
(dp286
g101
g102
ssg83
g275
sg76
(lp287
S':'
asbag69
(g90
g71
NtRp288
(dp289
g74
(dp290
sg83
g275
sg76
(lp291
g69
(g70
g71
NtRp292
(dp293
g74
(dp294
g82
I3
ssg83
g288
sg76
(lp295
S''
asbasbasbag69
(g85
g71
NtRp296
(dp297
g74
(dp298
sg83
g271
sg76
(lp299
g69
(g90
g71
NtRp300
(dp301
g74
(dp302
g94
g95
ssg83
g296
sg76
(lp303
S'domain'
p304
asbag69
(g90
g71
NtRp305
(dp306
g74
(dp307
g101
g102
ssg83
g296
sg76
(lp308
S':'
asbag69
(g90
g71
NtRp309
(dp310
g74
(dp311
sg83
g296
sg76
(lp312
g69
(g70
g71
NtRp313
(dp314
g74
(dp315
g82
I3
ssg83
g309
sg76
(lp316
S''
asbasbasbag69
(g85
g71
NtRp317
(dp318
g74
(dp319
sg83
g271
sg76
(lp320
g69
(g90
g71
NtRp321
(dp322
g74
(dp323
g94
g95
ssg83
g317
sg76
(lp324
S'expires'
p325
asbag69
(g90
g71
NtRp326
(dp327
g74
(dp328
g101
g102
ssg83
g317
sg76
(lp329
S':'
asbag69
(g90
g71
NtRp330
(dp331
g74
(dp332
sg83
g317
sg76
(lp333
g69
(g70
g71
NtRp334
(dp335
g74
(dp336
g82
I3
ssg83
g330
sg76
(lp337
S''
asbasbasbag69
(g85
g71
NtRp338
(dp339
g74
(dp340
sg83
g271
sg76
(lp341
g69
(g90
g71
NtRp342
(dp343
g74
(dp344
g94
g95
ssg83
g338
sg76
(lp345
S'httponly'
p346
asbag69
(g90
g71
NtRp347
(dp348
g74
(dp349
g101
g102
ssg83
g338
sg76
(lp350
S':'
asbag69
(g90
g71
NtRp351
(dp352
g74
(dp353
sg83
g338
sg76
(lp354
g69
(g70
g71
NtRp355
(dp356
g74
(dp357
g82
I3
ssg83
g351
sg76
(lp358
S''
asbasbasbag69
(g85
g71
NtRp359
(dp360
g74
(dp361
sg83
g271
sg76
(lp362
g69
(g90
g71
NtRp363
(dp364
g74
(dp365
g94
g95
ssg83
g359
sg76
(lp366
S'max-age'
p367
asbag69
(g90
g71
NtRp368
(dp369
g74
(dp370
g101
g102
ssg83
g359
sg76
(lp371
S':'
asbag69
(g90
g71
NtRp372
(dp373
g74
(dp374
sg83
g359
sg76
(lp375
g69
(g70
g71
NtRp376
(dp377
g74
(dp378
g82
I3
ssg83
g372
sg76
(lp379
S''
asbasbasbag69
(g85
g71
NtRp380
(dp381
g74
(dp382
sg83
g271
sg76
(lp383
g69
(g90
g71
NtRp384
(dp385
g74
(dp386
g94
g95
ssg83
g380
sg76
(lp387
S'path'
p388
asbag69
(g90
g71
NtRp389
(dp390
g74
(dp391
g101
g102
ssg83
g380
sg76
(lp392
S':'
asbag69
(g90
g71
NtRp393
(dp394
g74
(dp395
sg83
g380
sg76
(lp396
g69
(g70
g71
NtRp397
(dp398
g74
(dp399
g82
I3
ssg83
g393
sg76
(lp400
S''
asbasbasbag69
(g85
g71
NtRp401
(dp402
g74
(dp403
sg83
g271
sg76
(lp404
g69
(g90
g71
NtRp405
(dp406
g74
(dp407
g94
g95
ssg83
g401
sg76
(lp408
S'secure'
p409
asbag69
(g90
g71
NtRp410
(dp411
g74
(dp412
g101
g102
ssg83
g401
sg76
(lp413
S':'
asbag69
(g90
g71
NtRp414
(dp415
g74
(dp416
sg83
g401
sg76
(lp417
g69
(g70
g71
NtRp418
(dp419
g74
(dp420
g82
I3
ssg83
g414
sg76
(lp421
S''
asbasbasbag69
(g85
g71
NtRp422
(dp423
g74
(dp424
sg83
g271
sg76
(lp425
g69
(g90
g71
NtRp426
(dp427
g74
(dp428
g94
g95
ssg83
g422
sg76
(lp429
S'version'
p430
asbag69
(g90
g71
NtRp431
(dp432
g74
(dp433
g101
g102
ssg83
g422
sg76
(lp434
S':'
asbag69
(g90
g71
NtRp435
(dp436
g74
(dp437
sg83
g422
sg76
(lp438
g69
(g70
g71
NtRp439
(dp440
g74
(dp441
g82
I3
ssg83
g435
sg76
(lp442
S''
asbasbasbasbasbasbasbag69
(g85
g71
NtRp443
(dp444
g74
(dp445
sg83
g246
sg76
(lp446
g69
(g90
g71
NtRp447
(dp448
g74
(dp449
g94
g95
ssg83
g443
sg76
(lp450
S'session_id_init'
p451
asbag69
(g90
g71
NtRp452
(dp453
g74
(dp454
g101
g102
ssg83
g443
sg76
(lp455
S':'
asbag69
(g90
g71
NtRp456
(dp457
g74
(dp458
sg83
g443
sg76
(lp459
g69
(g70
g71
NtRp460
(dp461
g74
(dp462
g82
I4
ssg83
g456
sg76
(lp463
g69
(g78
g71
NtRp464
(dp465
g74
(dp466
g82
I3
ssg83
Nsg76
(lp467
g69
(g85
g71
NtRp468
(dp469
g74
(dp470
sg83
g464
sg76
(lp471
g69
(g90
g71
NtRp472
(dp473
g74
(dp474
g94
g95
ssg83
g468
sg76
(lp475
g283
asbag69
(g90
g71
NtRp476
(dp477
g74
(dp478
g101
g102
ssg83
g468
sg76
(lp479
S':'
asbag69
(g90
g71
NtRp480
(dp481
g74
(dp482
sg83
g468
sg76
(lp483
g69
(g70
g71
NtRp484
(dp485
g74
(dp486
g82
I3
ssg83
g480
sg76
(lp487
S''
asbasbasbag69
(g85
g71
NtRp488
(dp489
g74
(dp490
sg83
g464
sg76
(lp491
g69
(g90
g71
NtRp492
(dp493
g74
(dp494
g94
g95
ssg83
g488
sg76
(lp495
g304
asbag69
(g90
g71
NtRp496
(dp497
g74
(dp498
g101
g102
ssg83
g488
sg76
(lp499
S':'
asbag69
(g90
g71
NtRp500
(dp501
g74
(dp502
sg83
g488
sg76
(lp503
g69
(g70
g71
NtRp504
(dp505
g74
(dp506
g82
I3
ssg83
g500
sg76
(lp507
S''
asbasbasbag69
(g85
g71
NtRp508
(dp509
g74
(dp510
sg83
g464
sg76
(lp511
g69
(g90
g71
NtRp512
(dp513
g74
(dp514
g94
g95
ssg83
g508
sg76
(lp515
g325
asbag69
(g90
g71
NtRp516
(dp517
g74
(dp518
g101
g102
ssg83
g508
sg76
(lp519
S':'
asbag69
(g90
g71
NtRp520
(dp521
g74
(dp522
sg83
g508
sg76
(lp523
g69
(g70
g71
NtRp524
(dp525
g74
(dp526
g82
I3
ssg83
g520
sg76
(lp527
S''
asbasbasbag69
(g85
g71
NtRp528
(dp529
g74
(dp530
sg83
g464
sg76
(lp531
g69
(g90
g71
NtRp532
(dp533
g74
(dp534
g94
g95
ssg83
g528
sg76
(lp535
g346
asbag69
(g90
g71
NtRp536
(dp537
g74
(dp538
g101
g102
ssg83
g528
sg76
(lp539
S':'
asbag69
(g90
g71
NtRp540
(dp541
g74
(dp542
sg83
g528
sg76
(lp543
g69
(g70
g71
NtRp544
(dp545
g74
(dp546
g82
I3
ssg83
g540
sg76
(lp547
S''
asbasbasbag69
(g85
g71
NtRp548
(dp549
g74
(dp550
sg83
g464
sg76
(lp551
g69
(g90
g71
NtRp552
(dp553
g74
(dp554
g94
g95
ssg83
g548
sg76
(lp555
g367
asbag69
(g90
g71
NtRp556
(dp557
g74
(dp558
g101
g102
ssg83
g548
sg76
(lp559
S':'
asbag69
(g90
g71
NtRp560
(dp561
g74
(dp562
sg83
g548
sg76
(lp563
g69
(g70
g71
NtRp564
(dp565
g74
(dp566
g82
I3
ssg83
g560
sg76
(lp567
S''
asbasbasbag69
(g85
g71
NtRp568
(dp569
g74
(dp570
sg83
g464
sg76
(lp571
g69
(g90
g71
NtRp572
(dp573
g74
(dp574
g94
g95
ssg83
g568
sg76
(lp575
g388
asbag69
(g90
g71
NtRp576
(dp577
g74
(dp578
g101
g102
ssg83
g568
sg76
(lp579
S':'
asbag69
(g90
g71
NtRp580
(dp581
g74
(dp582
sg83
g568
sg76
(lp583
g69
(g70
g71
NtRp584
(dp585
g74
(dp586
g82
I3
ssg83
g580
sg76
(lp587
S''
asbasbasbag69
(g85
g71
NtRp588
(dp589
g74
(dp590
sg83
g464
sg76
(lp591
g69
(g90
g71
NtRp592
(dp593
g74
(dp594
g94
g95
ssg83
g588
sg76
(lp595
g409
asbag69
(g90
g71
NtRp596
(dp597
g74
(dp598
g101
g102
ssg83
g588
sg76
(lp599
S':'
asbag69
(g90
g71
NtRp600
(dp601
g74
(dp602
sg83
g588
sg76
(lp603
g69
(g70
g71
NtRp604
(dp605
g74
(dp606
g82
I3
ssg83
g600
sg76
(lp607
S''
asbasbasbag69
(g85
g71
NtRp608
(dp609
g74
(dp610
sg83
g464
sg76
(lp611
g69
(g90
g71
NtRp612
(dp613
g74
(dp614
g94
g95
ssg83
g608
sg76
(lp615
g430
asbag69
(g90
g71
NtRp616
(dp617
g74
(dp618
g101
g102
ssg83
g608
sg76
(lp619
S':'
asbag69
(g90
g71
NtRp620
(dp621
g74
(dp622
sg83
g608
sg76
(lp623
g69
(g70
g71
NtRp624
(dp625
g74
(dp626
g82
I3
ssg83
g620
sg76
(lp627
S''
asbasbasbasbasbasbasbasbasbasbasbag69
(g85
g71
NtRp628
(dp629
g74
(dp630
sg83
g79
sg76
(lp631
g69
(g90
g71
NtRp632
(dp633
g74
(dp634
g94
g95
ssg83
g628
sg76
(lp635
S'env'
p636
asbag69
(g90
g71
NtRp637
(dp638
g74
(dp639
g101
g102
ssg83
g628
sg76
(lp640
S':'
asbag69
(g90
g71
NtRp641
(dp642
g74
(dp643
sg83
g628
sg76
(lp644
g69
(g70
g71
NtRp645
(dp646
g74
(dp647
g82
I5
ssg83
g641
sg76
(lp648
g69
(g78
g71
NtRp649
(dp650
g74
(dp651
g82
I4
ssg83
Nsg76
(lp652
g69
(g85
g71
NtRp653
(dp654
g74
(dp655
sg83
g649
sg76
(lp656
g69
(g90
g71
NtRp657
(dp658
g74
(dp659
g94
g95
ssg83
g653
sg76
(lp660
S'app_folders'
p661
asbag69
(g90
g71
NtRp662
(dp663
g74
(dp664
g101
g102
ssg83
g653
sg76
(lp665
S':'
asbag69
(g90
g71
NtRp666
(dp667
g74
(dp668
sg83
g653
sg76
(lp669
g69
(g70
g71
NtRp670
(dp671
g74
(dp672
g82
I4
ssg83
g666
sg76
(lp673
S"set(['P:\\\\School\\\\DePaul\\\\Projects\\\\CSC_438\\\\web2py\\\\applications\\\\init\\\\', 'P:\\\\School\\\\DePaul\\\\Projects\\\\CSC_438\\\\web2py\\\\applications\\\\admin\\\\'])"
p674
asbasbasbag69
(g85
g71
NtRp675
(dp676
g74
(dp677
sg83
g649
sg76
(lp678
g69
(g90
g71
NtRp679
(dp680
g74
(dp681
g94
g95
ssg83
g675
sg76
(lp682
S'applications_parent'
p683
asbag69
(g90
g71
NtRp684
(dp685
g74
(dp686
g101
g102
ssg83
g675
sg76
(lp687
S':'
asbag69
(g90
g71
NtRp688
(dp689
g74
(dp690
sg83
g675
sg76
(lp691
g69
(g70
g71
NtRp692
(dp693
g74
(dp694
g82
I4
ssg83
g688
sg76
(lp695
S'P:\\School\\DePaul\\Projects\\CSC_438\\web2py'
p696
asbasbasbag69
(g85
g71
NtRp697
(dp698
g74
(dp699
sg83
g649
sg76
(lp700
g69
(g90
g71
NtRp701
(dp702
g74
(dp703
g94
g95
ssg83
g697
sg76
(lp704
S'cmd_args'
p705
asbag69
(g90
g71
NtRp706
(dp707
g74
(dp708
g101
g102
ssg83
g697
sg76
(lp709
S':'
asbag69
(g90
g71
NtRp710
(dp711
g74
(dp712
sg83
g697
sg76
(lp713
g69
(g70
g71
NtRp714
(dp715
g74
(dp716
g82
I4
ssg83
g710
sg76
(lp717
g69
(g78
g71
NtRp718
(dp719
g74
(dp720
g82
I3
ssg83
Nsg76
(lp721
sbasbasbasbag69
(g85
g71
NtRp722
(dp723
g74
(dp724
sg83
g649
sg76
(lp725
g69
(g90
g71
NtRp726
(dp727
g74
(dp728
g94
g95
ssg83
g722
sg76
(lp729
S'cmd_options'
p730
asbag69
(g90
g71
NtRp731
(dp732
g74
(dp733
g101
g102
ssg83
g722
sg76
(lp734
S':'
asbag69
(g90
g71
NtRp735
(dp736
g74
(dp737
sg83
g722
sg76
(lp738
g69
(g70
g71
NtRp739
(dp740
g74
(dp741
g82
I4
ssg83
g735
sg76
(lp742
S"<Values at 0x35b1ee0: {'verbose': False, 'ip': '127.0.0.1', 'shutdown_timeout': 5, 'taskbar': False, 'nocron': False, 'pid_filename': 'httpserver.pid', 'maxthreads': None, 'softcron': False, 'server_name': 'Bishop-PC', 'bpython': False, 'nogui': False, 'port': 8000, 'extcron': False, 'debuglevel': 30, 'test': None, 'folder': 'P:\\\\School\\\\DePaul\\\\Projects\\\\CSC_438\\\\web2py', 'config': '', 'import_models': False, 'winservice': '', 'shell': None, 'run': '', 'log_filename': 'httpserver.log', 'args': [''], 'ssl_ca_certificate': None, 'scheduler': None, 'profiler_filename': None, 'ssl_private_key': '', 'password': '<ask>', 'request_queue_size': 5, 'ssl_certificate': '', 'cronjob': False, 'plain': False, 'quiet': False, 'interfaces': None, 'minthreads': None, 'timeout': 10, 'numthreads': None, 'nobanner': False}>"
p743
asbasbasbag69
(g85
g71
NtRp744
(dp745
g74
(dp746
sg83
g649
sg76
(lp747
g69
(g90
g71
NtRp748
(dp749
g74
(dp750
g94
g95
ssg83
g744
sg76
(lp751
S'db_sessions'
p752
asbag69
(g90
g71
NtRp753
(dp754
g74
(dp755
g101
g102
ssg83
g744
sg76
(lp756
S':'
asbag69
(g90
g71
NtRp757
(dp758
g74
(dp759
sg83
g744
sg76
(lp760
g69
(g70
g71
NtRp761
(dp762
g74
(dp763
g82
I4
ssg83
g757
sg76
(lp764
S'set([])'
p765
asbasbasbag69
(g85
g71
NtRp766
(dp767
g74
(dp768
sg83
g649
sg76
(lp769
g69
(g90
g71
NtRp770
(dp771
g74
(dp772
g94
g95
ssg83
g766
sg76
(lp773
S'debugging'
p774
asbag69
(g90
g71
NtRp775
(dp776
g74
(dp777
g101
g102
ssg83
g766
sg76
(lp778
S':'
asbag69
(g90
g71
NtRp779
(dp780
g74
(dp781
sg83
g766
sg76
(lp782
g69
(g70
g71
NtRp783
(dp784
g74
(dp785
g82
I4
ssg83
g779
sg76
(lp786
g112
asbasbasbag69
(g85
g71
NtRp787
(dp788
g74
(dp789
sg83
g649
sg76
(lp790
g69
(g90
g71
NtRp791
(dp792
g74
(dp793
g94
g95
ssg83
g787
sg76
(lp794
S'gluon_parent'
p795
asbag69
(g90
g71
NtRp796
(dp797
g74
(dp798
g101
g102
ssg83
g787
sg76
(lp799
S':'
asbag69
(g90
g71
NtRp800
(dp801
g74
(dp802
sg83
g787
sg76
(lp803
g69
(g70
g71
NtRp804
(dp805
g74
(dp806
g82
I4
ssg83
g800
sg76
(lp807
S'P:\\School\\DePaul\\Projects\\CSC_438\\web2py'
p808
asbasbasbag69
(g85
g71
NtRp809
(dp810
g74
(dp811
sg83
g649
sg76
(lp812
g69
(g90
g71
NtRp813
(dp814
g74
(dp815
g94
g95
ssg83
g809
sg76
(lp816
S'http_accept'
p817
asbag69
(g90
g71
NtRp818
(dp819
g74
(dp820
g101
g102
ssg83
g809
sg76
(lp821
S':'
asbag69
(g90
g71
NtRp822
(dp823
g74
(dp824
sg83
g809
sg76
(lp825
g69
(g70
g71
NtRp826
(dp827
g74
(dp828
g82
I4
ssg83
g822
sg76
(lp829
S'text/html,application/xhtml+xml,application/xml;q=0.9,*/*;q=0.8'
p830
asbasbasbag69
(g85
g71
NtRp831
(dp832
g74
(dp833
sg83
g649
sg76
(lp834
g69
(g90
g71
NtRp835
(dp836
g74
(dp837
g94
g95
ssg83
g831
sg76
(lp838
S'http_accept_charset'
p839
asbag69
(g90
g71
NtRp840
(dp841
g74
(dp842
g101
g102
ssg83
g831
sg76
(lp843
S':'
asbag69
(g90
g71
NtRp844
(dp845
g74
(dp846
sg83
g831
sg76
(lp847
g69
(g70
g71
NtRp848
(dp849
g74
(dp850
g82
I4
ssg83
g844
sg76
(lp851
S'ISO-8859-1,utf-8;q=0.7,*;q=0.7'
p852
asbasbasbag69
(g85
g71
NtRp853
(dp854
g74
(dp855
sg83
g649
sg76
(lp856
g69
(g90
g71
NtRp857
(dp858
g74
(dp859
g94
g95
ssg83
g853
sg76
(lp860
S'http_accept_encoding'
p861
asbag69
(g90
g71
NtRp862
(dp863
g74
(dp864
g101
g102
ssg83
g853
sg76
(lp865
S':'
asbag69
(g90
g71
NtRp866
(dp867
g74
(dp868
sg83
g853
sg76
(lp869
g69
(g70
g71
NtRp870
(dp871
g74
(dp872
g82
I4
ssg83
g866
sg76
(lp873
S'gzip,deflate'
p874
asbasbasbag69
(g85
g71
NtRp875
(dp876
g74
(dp877
sg83
g649
sg76
(lp878
g69
(g90
g71
NtRp879
(dp880
g74
(dp881
g94
g95
ssg83
g875
sg76
(lp882
S'http_accept_language'
p883
asbag69
(g90
g71
NtRp884
(dp885
g74
(dp886
g101
g102
ssg83
g875
sg76
(lp887
S':'
asbag69
(g90
g71
NtRp888
(dp889
g74
(dp890
sg83
g875
sg76
(lp891
g69
(g70
g71
NtRp892
(dp893
g74
(dp894
g82
I4
ssg83
g888
sg76
(lp895
S'en-us,en;q=0.5'
p896
asbasbasbag69
(g85
g71
NtRp897
(dp898
g74
(dp899
sg83
g649
sg76
(lp900
g69
(g90
g71
NtRp901
(dp902
g74
(dp903
g94
g95
ssg83
g897
sg76
(lp904
S'http_connection'
p905
asbag69
(g90
g71
NtRp906
(dp907
g74
(dp908
g101
g102
ssg83
g897
sg76
(lp909
S':'
asbag69
(g90
g71
NtRp910
(dp911
g74
(dp912
sg83
g897
sg76
(lp913
g69
(g70
g71
NtRp914
(dp915
g74
(dp916
g82
I4
ssg83
g910
sg76
(lp917
S'keep-alive'
p918
asbasbasbag69
(g85
g71
NtRp919
(dp920
g74
(dp921
sg83
g649
sg76
(lp922
g69
(g90
g71
NtRp923
(dp924
g74
(dp925
g94
g95
ssg83
g919
sg76
(lp926
S'http_cookie'
p927
asbag69
(g90
g71
NtRp928
(dp929
g74
(dp930
g101
g102
ssg83
g919
sg76
(lp931
S':'
asbag69
(g90
g71
NtRp932
(dp933
g74
(dp934
sg83
g919
sg76
(lp935
g69
(g70
g71
NtRp936
(dp937
g74
(dp938
g82
I4
ssg83
g932
sg76
(lp939
S'__utma_a2a=4518867300.1350888199.1319331273.1319375111.1319375111.5; session_id_init=127.0.0.1-9cf14084-4033-491f-99b2-106d13fb9973; session_id_admin=127.0.0.1-ca11266a-1e6f-4c85-a03e-d1cb0b2024f8'
p940
asbasbasbag69
(g85
g71
NtRp941
(dp942
g74
(dp943
sg83
g649
sg76
(lp944
g69
(g90
g71
NtRp945
(dp946
g74
(dp947
g94
g95
ssg83
g941
sg76
(lp948
S'http_host'
p949
asbag69
(g90
g71
NtRp950
(dp951
g74
(dp952
g101
g102
ssg83
g941
sg76
(lp953
S':'
asbag69
(g90
g71
NtRp954
(dp955
g74
(dp956
sg83
g941
sg76
(lp957
g69
(g70
g71
NtRp958
(dp959
g74
(dp960
g82
I4
ssg83
g954
sg76
(lp961
S'127.0.0.1:8000'
p962
asbasbasbag69
(g85
g71
NtRp963
(dp964
g74
(dp965
sg83
g649
sg76
(lp966
g69
(g90
g71
NtRp967
(dp968
g74
(dp969
g94
g95
ssg83
g963
sg76
(lp970
S'http_keep_alive'
p971
asbag69
(g90
g71
NtRp972
(dp973
g74
(dp974
g101
g102
ssg83
g963
sg76
(lp975
S':'
asbag69
(g90
g71
NtRp976
(dp977
g74
(dp978
sg83
g963
sg76
(lp979
g69
(g70
g71
NtRp980
(dp981
g74
(dp982
g82
I4
ssg83
g976
sg76
(lp983
S'115'
p984
asbasbasbag69
(g85
g71
NtRp985
(dp986
g74
(dp987
sg83
g649
sg76
(lp988
g69
(g90
g71
NtRp989
(dp990
g74
(dp991
g94
g95
ssg83
g985
sg76
(lp992
S'http_user_agent'
p993
asbag69
(g90
g71
NtRp994
(dp995
g74
(dp996
g101
g102
ssg83
g985
sg76
(lp997
S':'
asbag69
(g90
g71
NtRp998
(dp999
g74
(dp1000
sg83
g985
sg76
(lp1001
g69
(g70
g71
NtRp1002
(dp1003
g74
(dp1004
g82
I4
ssg83
g998
sg76
(lp1005
S'Mozilla/5.0 (Windows; U; Windows NT 6.1; en-US; rv:1.9.2.24) Gecko/20111103 Firefox/3.6.24'
p1006
asbasbasbag69
(g85
g71
NtRp1007
(dp1008
g74
(dp1009
sg83
g649
sg76
(lp1010
g69
(g90
g71
NtRp1011
(dp1012
g74
(dp1013
g94
g95
ssg83
g1007
sg76
(lp1014
S'is_jython'
p1015
asbag69
(g90
g71
NtRp1016
(dp1017
g74
(dp1018
g101
g102
ssg83
g1007
sg76
(lp1019
S':'
asbag69
(g90
g71
NtRp1020
(dp1021
g74
(dp1022
sg83
g1007
sg76
(lp1023
g69
(g70
g71
NtRp1024
(dp1025
g74
(dp1026
g82
I4
ssg83
g1020
sg76
(lp1027
g112
asbasbasbag69
(g85
g71
NtRp1028
(dp1029
g74
(dp1030
sg83
g649
sg76
(lp1031
g69
(g90
g71
NtRp1032
(dp1033
g74
(dp1034
g94
g95
ssg83
g1028
sg76
(lp1035
S'path_info'
p1036
asbag69
(g90
g71
NtRp1037
(dp1038
g74
(dp1039
g101
g102
ssg83
g1028
sg76
(lp1040
S':'
asbag69
(g90
g71
NtRp1041
(dp1042
g74
(dp1043
sg83
g1028
sg76
(lp1044
g69
(g70
g71
NtRp1045
(dp1046
g74
(dp1047
g82
I4
ssg83
g1041
sg76
(lp1048
S'/init/default/challenge'
p1049
asbasbasbag69
(g85
g71
NtRp1050
(dp1051
g74
(dp1052
sg83
g649
sg76
(lp1053
g69
(g90
g71
NtRp1054
(dp1055
g74
(dp1056
g94
g95
ssg83
g1050
sg76
(lp1057
S'query_string'
p1058
asbag69
(g90
g71
NtRp1059
(dp1060
g74
(dp1061
g101
g102
ssg83
g1050
sg76
(lp1062
S':'
asbag69
(g90
g71
NtRp1063
(dp1064
g74
(dp1065
sg83
g1050
sg76
(lp1066
g69
(g70
g71
NtRp1067
(dp1068
g74
(dp1069
g82
I4
ssg83
g1063
sg76
(lp1070
S'event=12'
p1071
asbasbasbag69
(g85
g71
NtRp1072
(dp1073
g74
(dp1074
sg83
g649
sg76
(lp1075
g69
(g90
g71
NtRp1076
(dp1077
g74
(dp1078
g94
g95
ssg83
g1072
sg76
(lp1079
S'remote_addr'
p1080
asbag69
(g90
g71
NtRp1081
(dp1082
g74
(dp1083
g101
g102
ssg83
g1072
sg76
(lp1084
S':'
asbag69
(g90
g71
NtRp1085
(dp1086
g74
(dp1087
sg83
g1072
sg76
(lp1088
g69
(g70
g71
NtRp1089
(dp1090
g74
(dp1091
g82
I4
ssg83
g1085
sg76
(lp1092
g202
asbasbasbag69
(g85
g71
NtRp1093
(dp1094
g74
(dp1095
sg83
g649
sg76
(lp1096
g69
(g90
g71
NtRp1097
(dp1098
g74
(dp1099
g94
g95
ssg83
g1093
sg76
(lp1100
S'remote_port'
p1101
asbag69
(g90
g71
NtRp1102
(dp1103
g74
(dp1104
g101
g102
ssg83
g1093
sg76
(lp1105
S':'
asbag69
(g90
g71
NtRp1106
(dp1107
g74
(dp1108
sg83
g1093
sg76
(lp1109
g69
(g70
g71
NtRp1110
(dp1111
g74
(dp1112
g82
I4
ssg83
g1106
sg76
(lp1113
S'49386'
p1114
asbasbasbag69
(g85
g71
NtRp1115
(dp1116
g74
(dp1117
sg83
g649
sg76
(lp1118
g69
(g90
g71
NtRp1119
(dp1120
g74
(dp1121
g94
g95
ssg83
g1115
sg76
(lp1122
S'request_method'
p1123
asbag69
(g90
g71
NtRp1124
(dp1125
g74
(dp1126
g101
g102
ssg83
g1115
sg76
(lp1127
S':'
asbag69
(g90
g71
NtRp1128
(dp1129
g74
(dp1130
sg83
g1115
sg76
(lp1131
g69
(g70
g71
NtRp1132
(dp1133
g74
(dp1134
g82
I4
ssg83
g1128
sg76
(lp1135
S'GET'
p1136
asbasbasbag69
(g85
g71
NtRp1137
(dp1138
g74
(dp1139
sg83
g649
sg76
(lp1140
g69
(g90
g71
NtRp1141
(dp1142
g74
(dp1143
g94
g95
ssg83
g1137
sg76
(lp1144
S'script_name'
p1145
asbag69
(g90
g71
NtRp1146
(dp1147
g74
(dp1148
g101
g102
ssg83
g1137
sg76
(lp1149
S':'
asbag69
(g90
g71
NtRp1150
(dp1151
g74
(dp1152
sg83
g1137
sg76
(lp1153
g69
(g70
g71
NtRp1154
(dp1155
g74
(dp1156
g82
I4
ssg83
g1150
sg76
(lp1157
S''
asbasbasbag69
(g85
g71
NtRp1158
(dp1159
g74
(dp1160
sg83
g649
sg76
(lp1161
g69
(g90
g71
NtRp1162
(dp1163
g74
(dp1164
g94
g95
ssg83
g1158
sg76
(lp1165
S'server_name'
p1166
asbag69
(g90
g71
NtRp1167
(dp1168
g74
(dp1169
g101
g102
ssg83
g1158
sg76
(lp1170
S':'
asbag69
(g90
g71
NtRp1171
(dp1172
g74
(dp1173
sg83
g1158
sg76
(lp1174
g69
(g70
g71
NtRp1175
(dp1176
g74
(dp1177
g82
I4
ssg83
g1171
sg76
(lp1178
S'Bishop-PC'
p1179
asbasbasbag69
(g85
g71
NtRp1180
(dp1181
g74
(dp1182
sg83
g649
sg76
(lp1183
g69
(g90
g71
NtRp1184
(dp1185
g74
(dp1186
g94
g95
ssg83
g1180
sg76
(lp1187
S'server_port'
p1188
asbag69
(g90
g71
NtRp1189
(dp1190
g74
(dp1191
g101
g102
ssg83
g1180
sg76
(lp1192
S':'
asbag69
(g90
g71
NtRp1193
(dp1194
g74
(dp1195
sg83
g1180
sg76
(lp1196
g69
(g70
g71
NtRp1197
(dp1198
g74
(dp1199
g82
I4
ssg83
g1193
sg76
(lp1200
S'8000'
p1201
asbasbasbag69
(g85
g71
NtRp1202
(dp1203
g74
(dp1204
sg83
g649
sg76
(lp1205
g69
(g90
g71
NtRp1206
(dp1207
g74
(dp1208
g94
g95
ssg83
g1202
sg76
(lp1209
S'server_protocol'
p1210
asbag69
(g90
g71
NtRp1211
(dp1212
g74
(dp1213
g101
g102
ssg83
g1202
sg76
(lp1214
S':'
asbag69
(g90
g71
NtRp1215
(dp1216
g74
(dp1217
sg83
g1202
sg76
(lp1218
g69
(g70
g71
NtRp1219
(dp1220
g74
(dp1221
g82
I4
ssg83
g1215
sg76
(lp1222
S'HTTP/1.1'
p1223
asbasbasbag69
(g85
g71
NtRp1224
(dp1225
g74
(dp1226
sg83
g649
sg76
(lp1227
g69
(g90
g71
NtRp1228
(dp1229
g74
(dp1230
g94
g95
ssg83
g1224
sg76
(lp1231
S'server_software'
p1232
asbag69
(g90
g71
NtRp1233
(dp1234
g74
(dp1235
g101
g102
ssg83
g1224
sg76
(lp1236
S':'
asbag69
(g90
g71
NtRp1237
(dp1238
g74
(dp1239
sg83
g1224
sg76
(lp1240
g69
(g70
g71
NtRp1241
(dp1242
g74
(dp1243
g82
I4
ssg83
g1237
sg76
(lp1244
S'Rocket 1.2.4'
p1245
asbasbasbag69
(g85
g71
NtRp1246
(dp1247
g74
(dp1248
sg83
g649
sg76
(lp1249
g69
(g90
g71
NtRp1250
(dp1251
g74
(dp1252
g94
g95
ssg83
g1246
sg76
(lp1253
S'web2py_crontype'
p1254
asbag69
(g90
g71
NtRp1255
(dp1256
g74
(dp1257
g101
g102
ssg83
g1246
sg76
(lp1258
S':'
asbag69
(g90
g71
NtRp1259
(dp1260
g74
(dp1261
sg83
g1246
sg76
(lp1262
g69
(g70
g71
NtRp1263
(dp1264
g74
(dp1265
g82
I4
ssg83
g1259
sg76
(lp1266
S'hard'
p1267
asbasbasbag69
(g85
g71
NtRp1268
(dp1269
g74
(dp1270
sg83
g649
sg76
(lp1271
g69
(g90
g71
NtRp1272
(dp1273
g74
(dp1274
g94
g95
ssg83
g1268
sg76
(lp1275
S'web2py_path'
p1276
asbag69
(g90
g71
NtRp1277
(dp1278
g74
(dp1279
g101
g102
ssg83
g1268
sg76
(lp1280
S':'
asbag69
(g90
g71
NtRp1281
(dp1282
g74
(dp1283
sg83
g1268
sg76
(lp1284
g69
(g70
g71
NtRp1285
(dp1286
g74
(dp1287
g82
I4
ssg83
g1281
sg76
(lp1288
g696
asbasbasbag69
(g85
g71
NtRp1289
(dp1290
g74
(dp1291
sg83
g649
sg76
(lp1292
g69
(g90
g71
NtRp1293
(dp1294
g74
(dp1295
g94
g95
ssg83
g1289
sg76
(lp1296
S'web2py_version'
p1297
asbag69
(g90
g71
NtRp1298
(dp1299
g74
(dp1300
g101
g102
ssg83
g1289
sg76
(lp1301
S':'
asbag69
(g90
g71
NtRp1302
(dp1303
g74
(dp1304
sg83
g1289
sg76
(lp1305
g69
(g70
g71
NtRp1306
(dp1307
g74
(dp1308
g82
I4
ssg83
g1302
sg76
(lp1309
g69
(g78
g71
NtRp1310
(dp1311
g74
(dp1312
g82
I3
ssg83
Nsg76
(lp1313
g69
(g85
g71
NtRp1314
(dp1315
g74
(dp1316
sg83
g1310
sg76
(lp1317
g69
(g90
g71
NtRp1318
(dp1319
g74
(dp1320
sg83
g1314
sg76
(lp1321
g69
(g70
g71
NtRp1322
(dp1323
g74
(dp1324
g82
I3
ssg83
g1318
sg76
(lp1325
S'1'
asbasbasbag69
(g85
g71
NtRp1326
(dp1327
g74
(dp1328
sg83
g1310
sg76
(lp1329
g69
(g90
g71
NtRp1330
(dp1331
g74
(dp1332
sg83
g1326
sg76
(lp1333
g69
(g70
g71
NtRp1334
(dp1335
g74
(dp1336
g82
I3
ssg83
g1330
sg76
(lp1337
S'99'
p1338
asbasbasbag69
(g85
g71
NtRp1339
(dp1340
g74
(dp1341
sg83
g1310
sg76
(lp1342
g69
(g90
g71
NtRp1343
(dp1344
g74
(dp1345
sg83
g1339
sg76
(lp1346
g69
(g70
g71
NtRp1347
(dp1348
g74
(dp1349
g82
I3
ssg83
g1343
sg76
(lp1350
S'3'
asbasbasbag69
(g85
g71
NtRp1351
(dp1352
g74
(dp1353
sg83
g1310
sg76
(lp1354
g69
(g90
g71
NtRp1355
(dp1356
g74
(dp1357
sg83
g1351
sg76
(lp1358
g69
(g70
g71
NtRp1359
(dp1360
g74
(dp1361
g82
I3
ssg83
g1355
sg76
(lp1362
S'datetime.datetime(2011, 11, 1, 8, 28, 28)'
p1363
asbasbasbag69
(g85
g71
NtRp1364
(dp1365
g74
(dp1366
sg83
g1310
sg76
(lp1367
g69
(g90
g71
NtRp1368
(dp1369
g74
(dp1370
sg83
g1364
sg76
(lp1371
g69
(g70
g71
NtRp1372
(dp1373
g74
(dp1374
g82
I3
ssg83
g1368
sg76
(lp1375
S'dev'
p1376
asbasbasbasbasbasbasbag69
(g85
g71
NtRp1377
(dp1378
g74
(dp1379
sg83
g649
sg76
(lp1380
g69
(g90
g71
NtRp1381
(dp1382
g74
(dp1383
g94
g95
ssg83
g1377
sg76
(lp1384
S'wsgi_errors'
p1385
asbag69
(g90
g71
NtRp1386
(dp1387
g74
(dp1388
g101
g102
ssg83
g1377
sg76
(lp1389
S':'
asbag69
(g90
g71
NtRp1390
(dp1391
g74
(dp1392
sg83
g1377
sg76
(lp1393
g69
(g70
g71
NtRp1394
(dp1395
g74
(dp1396
g82
I4
ssg83
g1390
sg76
(lp1397
S"<open file '<stderr>', mode 'w' at 0x004950D0>"
p1398
asbasbasbag69
(g85
g71
NtRp1399
(dp1400
g74
(dp1401
sg83
g649
sg76
(lp1402
g69
(g90
g71
NtRp1403
(dp1404
g74
(dp1405
g94
g95
ssg83
g1399
sg76
(lp1406
S'wsgi_file_wrapper'
p1407
asbag69
(g90
g71
NtRp1408
(dp1409
g74
(dp1410
g101
g102
ssg83
g1399
sg76
(lp1411
S':'
asbag69
(g90
g71
NtRp1412
(dp1413
g74
(dp1414
sg83
g1399
sg76
(lp1415
g69
(g70
g71
NtRp1416
(dp1417
g74
(dp1418
g82
I4
ssg83
g1412
sg76
(lp1419
S'<class wsgiref.util.FileWrapper at 0x034A8B20>'
p1420
asbasbasbag69
(g85
g71
NtRp1421
(dp1422
g74
(dp1423
sg83
g649
sg76
(lp1424
g69
(g90
g71
NtRp1425
(dp1426
g74
(dp1427
g94
g95
ssg83
g1421
sg76
(lp1428
S'wsgi_input'
p1429
asbag69
(g90
g71
NtRp1430
(dp1431
g74
(dp1432
g101
g102
ssg83
g1421
sg76
(lp1433
S':'
asbag69
(g90
g71
NtRp1434
(dp1435
g74
(dp1436
sg83
g1421
sg76
(lp1437
g69
(g70
g71
NtRp1438
(dp1439
g74
(dp1440
g82
I4
ssg83
g1434
sg76
(lp1441
S'<socket._fileobject object at 0x083A3BF0>'
p1442
asbasbasbag69
(g85
g71
NtRp1443
(dp1444
g74
(dp1445
sg83
g649
sg76
(lp1446
g69
(g90
g71
NtRp1447
(dp1448
g74
(dp1449
g94
g95
ssg83
g1443
sg76
(lp1450
S'wsgi_multiprocess'
p1451
asbag69
(g90
g71
NtRp1452
(dp1453
g74
(dp1454
g101
g102
ssg83
g1443
sg76
(lp1455
S':'
asbag69
(g90
g71
NtRp1456
(dp1457
g74
(dp1458
sg83
g1443
sg76
(lp1459
g69
(g70
g71
NtRp1460
(dp1461
g74
(dp1462
g82
I4
ssg83
g1456
sg76
(lp1463
g112
asbasbasbag69
(g85
g71
NtRp1464
(dp1465
g74
(dp1466
sg83
g649
sg76
(lp1467
g69
(g90
g71
NtRp1468
(dp1469
g74
(dp1470
g94
g95
ssg83
g1464
sg76
(lp1471
S'wsgi_multithread'
p1472
asbag69
(g90
g71
NtRp1473
(dp1474
g74
(dp1475
g101
g102
ssg83
g1464
sg76
(lp1476
S':'
asbag69
(g90
g71
NtRp1477
(dp1478
g74
(dp1479
sg83
g1464
sg76
(lp1480
g69
(g70
g71
NtRp1481
(dp1482
g74
(dp1483
g82
I4
ssg83
g1477
sg76
(lp1484
S'True'
p1485
asbasbasbag69
(g85
g71
NtRp1486
(dp1487
g74
(dp1488
sg83
g649
sg76
(lp1489
g69
(g90
g71
NtRp1490
(dp1491
g74
(dp1492
g94
g95
ssg83
g1486
sg76
(lp1493
S'wsgi_run_once'
p1494
asbag69
(g90
g71
NtRp1495
(dp1496
g74
(dp1497
g101
g102
ssg83
g1486
sg76
(lp1498
S':'
asbag69
(g90
g71
NtRp1499
(dp1500
g74
(dp1501
sg83
g1486
sg76
(lp1502
g69
(g70
g71
NtRp1503
(dp1504
g74
(dp1505
g82
I4
ssg83
g1499
sg76
(lp1506
g112
asbasbasbag69
(g85
g71
NtRp1507
(dp1508
g74
(dp1509
sg83
g649
sg76
(lp1510
g69
(g90
g71
NtRp1511
(dp1512
g74
(dp1513
g94
g95
ssg83
g1507
sg76
(lp1514
S'wsgi_url_scheme'
p1515
asbag69
(g90
g71
NtRp1516
(dp1517
g74
(dp1518
g101
g102
ssg83
g1507
sg76
(lp1519
S':'
asbag69
(g90
g71
NtRp1520
(dp1521
g74
(dp1522
sg83
g1507
sg76
(lp1523
g69
(g70
g71
NtRp1524
(dp1525
g74
(dp1526
g82
I4
ssg83
g1520
sg76
(lp1527
S'http'
p1528
asbasbasbag69
(g85
g71
NtRp1529
(dp1530
g74
(dp1531
sg83
g649
sg76
(lp1532
g69
(g90
g71
NtRp1533
(dp1534
g74
(dp1535
g94
g95
ssg83
g1529
sg76
(lp1536
S'wsgi_version'
p1537
asbag69
(g90
g71
NtRp1538
(dp1539
g74
(dp1540
g101
g102
ssg83
g1529
sg76
(lp1541
S':'
asbag69
(g90
g71
NtRp1542
(dp1543
g74
(dp1544
sg83
g1529
sg76
(lp1545
g69
(g70
g71
NtRp1546
(dp1547
g74
(dp1548
g82
I4
ssg83
g1542
sg76
(lp1549
g69
(g78
g71
NtRp1550
(dp1551
g74
(dp1552
g82
I3
ssg83
Nsg76
(lp1553
g69
(g85
g71
NtRp1554
(dp1555
g74
(dp1556
sg83
g1550
sg76
(lp1557
g69
(g90
g71
NtRp1558
(dp1559
g74
(dp1560
sg83
g1554
sg76
(lp1561
g69
(g70
g71
NtRp1562
(dp1563
g74
(dp1564
g82
I3
ssg83
g1558
sg76
(lp1565
S'1'
asbasbasbag69
(g85
g71
NtRp1566
(dp1567
g74
(dp1568
sg83
g1550
sg76
(lp1569
g69
(g90
g71
NtRp1570
(dp1571
g74
(dp1572
sg83
g1566
sg76
(lp1573
g69
(g70
g71
NtRp1574
(dp1575
g74
(dp1576
g82
I3
ssg83
g1570
sg76
(lp1577
S'0'
asbasbasbasbasbasbasbasbasbasbasbag69
(g85
g71
NtRp1578
(dp1579
g74
(dp1580
sg83
g79
sg76
(lp1581
g69
(g90
g71
NtRp1582
(dp1583
g74
(dp1584
g94
g95
ssg83
g1578
sg76
(lp1585
S'extension'
p1586
asbag69
(g90
g71
NtRp1587
(dp1588
g74
(dp1589
g101
g102
ssg83
g1578
sg76
(lp1590
S':'
asbag69
(g90
g71
NtRp1591
(dp1592
g74
(dp1593
sg83
g1578
sg76
(lp1594
g69
(g70
g71
NtRp1595
(dp1596
g74
(dp1597
g82
I5
ssg83
g1591
sg76
(lp1598
S'html'
p1599
asbasbasbag69
(g85
g71
NtRp1600
(dp1601
g74
(dp1602
sg83
g79
sg76
(lp1603
g69
(g90
g71
NtRp1604
(dp1605
g74
(dp1606
g94
g95
ssg83
g1600
sg76
(lp1607
S'folder'
p1608
asbag69
(g90
g71
NtRp1609
(dp1610
g74
(dp1611
g101
g102
ssg83
g1600
sg76
(lp1612
S':'
asbag69
(g90
g71
NtRp1613
(dp1614
g74
(dp1615
sg83
g1600
sg76
(lp1616
g69
(g70
g71
NtRp1617
(dp1618
g74
(dp1619
g82
I5
ssg83
g1613
sg76
(lp1620
S'P:\\School\\DePaul\\Projects\\CSC_438\\web2py\\applications\\init\\'
p1621
asbasbasbag69
(g85
g71
NtRp1622
(dp1623
g74
(dp1624
sg83
g79
sg76
(lp1625
g69
(g90
g71
NtRp1626
(dp1627
g74
(dp1628
g94
g95
ssg83
g1622
sg76
(lp1629
S'function'
p1630
asbag69
(g90
g71
NtRp1631
(dp1632
g74
(dp1633
g101
g102
ssg83
g1622
sg76
(lp1634
S':'
asbag69
(g90
g71
NtRp1635
(dp1636
g74
(dp1637
sg83
g1622
sg76
(lp1638
g69
(g70
g71
NtRp1639
(dp1640
g74
(dp1641
g82
I5
ssg83
g1635
sg76
(lp1642
S'challenge'
p1643
asbasbasbag69
(g85
g71
NtRp1644
(dp1645
g74
(dp1646
sg83
g79
sg76
(lp1647
g69
(g90
g71
NtRp1648
(dp1649
g74
(dp1650
g94
g95
ssg83
g1644
sg76
(lp1651
S'get_vars'
p1652
asbag69
(g90
g71
NtRp1653
(dp1654
g74
(dp1655
g101
g102
ssg83
g1644
sg76
(lp1656
S':'
asbag69
(g90
g71
NtRp1657
(dp1658
g74
(dp1659
sg83
g1644
sg76
(lp1660
g69
(g70
g71
NtRp1661
(dp1662
g74
(dp1663
g82
I5
ssg83
g1657
sg76
(lp1664
g69
(g78
g71
NtRp1665
(dp1666
g74
(dp1667
g82
I4
ssg83
Nsg76
(lp1668
g69
(g85
g71
NtRp1669
(dp1670
g74
(dp1671
sg83
g1665
sg76
(lp1672
g69
(g90
g71
NtRp1673
(dp1674
g74
(dp1675
g94
g95
ssg83
g1669
sg76
(lp1676
S'event'
p1677
asbag69
(g90
g71
NtRp1678
(dp1679
g74
(dp1680
g101
g102
ssg83
g1669
sg76
(lp1681
S':'
asbag69
(g90
g71
NtRp1682
(dp1683
g74
(dp1684
sg83
g1669
sg76
(lp1685
g69
(g70
g71
NtRp1686
(dp1687
g74
(dp1688
g82
I4
ssg83
g1682
sg76
(lp1689
S'12'
p1690
asbasbasbasbasbasbasbag69
(g85
g71
NtRp1691
(dp1692
g74
(dp1693
sg83
g79
sg76
(lp1694
g69
(g90
g71
NtRp1695
(dp1696
g74
(dp1697
g94
g95
ssg83
g1691
sg76
(lp1698
S'global_settings'
p1699
asbag69
(g90
g71
NtRp1700
(dp1701
g74
(dp1702
g101
g102
ssg83
g1691
sg76
(lp1703
S':'
asbag69
(g90
g71
NtRp1704
(dp1705
g74
(dp1706
sg83
g1691
sg76
(lp1707
g69
(g70
g71
NtRp1708
(dp1709
g74
(dp1710
g82
I5
ssg83
g1704
sg76
(lp1711
g69
(g78
g71
NtRp1712
(dp1713
g74
(dp1714
g82
I4
ssg83
Nsg76
(lp1715
g69
(g85
g71
NtRp1716
(dp1717
g74
(dp1718
sg83
g1712
sg76
(lp1719
g69
(g90
g71
NtRp1720
(dp1721
g74
(dp1722
g94
g95
ssg83
g1716
sg76
(lp1723
g661
asbag69
(g90
g71
NtRp1724
(dp1725
g74
(dp1726
g101
g102
ssg83
g1716
sg76
(lp1727
S':'
asbag69
(g90
g71
NtRp1728
(dp1729
g74
(dp1730
sg83
g1716
sg76
(lp1731
g69
(g70
g71
NtRp1732
(dp1733
g74
(dp1734
g82
I4
ssg83
g1728
sg76
(lp1735
S"set(['P:\\\\School\\\\DePaul\\\\Projects\\\\CSC_438\\\\web2py\\\\applications\\\\init\\\\', 'P:\\\\School\\\\DePaul\\\\Projects\\\\CSC_438\\\\web2py\\\\applications\\\\admin\\\\'])"
p1736
asbasbasbag69
(g85
g71
NtRp1737
(dp1738
g74
(dp1739
sg83
g1712
sg76
(lp1740
g69
(g90
g71
NtRp1741
(dp1742
g74
(dp1743
g94
g95
ssg83
g1737
sg76
(lp1744
g683
asbag69
(g90
g71
NtRp1745
(dp1746
g74
(dp1747
g101
g102
ssg83
g1737
sg76
(lp1748
S':'
asbag69
(g90
g71
NtRp1749
(dp1750
g74
(dp1751
sg83
g1737
sg76
(lp1752
g69
(g70
g71
NtRp1753
(dp1754
g74
(dp1755
g82
I4
ssg83
g1749
sg76
(lp1756
g696
asbasbasbag69
(g85
g71
NtRp1757
(dp1758
g74
(dp1759
sg83
g1712
sg76
(lp1760
g69
(g90
g71
NtRp1761
(dp1762
g74
(dp1763
g94
g95
ssg83
g1757
sg76
(lp1764
g705
asbag69
(g90
g71
NtRp1765
(dp1766
g74
(dp1767
g101
g102
ssg83
g1757
sg76
(lp1768
S':'
asbag69
(g90
g71
NtRp1769
(dp1770
g74
(dp1771
sg83
g1757
sg76
(lp1772
g69
(g70
g71
NtRp1773
(dp1774
g74
(dp1775
g82
I4
ssg83
g1769
sg76
(lp1776
g69
(g78
g71
NtRp1777
(dp1778
g74
(dp1779
g82
I3
ssg83
Nsg76
(lp1780
sbasbasbasbag69
(g85
g71
NtRp1781
(dp1782
g74
(dp1783
sg83
g1712
sg76
(lp1784
g69
(g90
g71
NtRp1785
(dp1786
g74
(dp1787
g94
g95
ssg83
g1781
sg76
(lp1788
g730
asbag69
(g90
g71
NtRp1789
(dp1790
g74
(dp1791
g101
g102
ssg83
g1781
sg76
(lp1792
S':'
asbag69
(g90
g71
NtRp1793
(dp1794
g74
(dp1795
sg83
g1781
sg76
(lp1796
g69
(g70
g71
NtRp1797
(dp1798
g74
(dp1799
g82
I4
ssg83
g1793
sg76
(lp1800
S"<Values at 0x35b1ee0: {'verbose': False, 'ip': '127.0.0.1', 'shutdown_timeout': 5, 'taskbar': False, 'nocron': False, 'pid_filename': 'httpserver.pid', 'maxthreads': None, 'softcron': False, 'server_name': 'Bishop-PC', 'bpython': False, 'nogui': False, 'port': 8000, 'extcron': False, 'debuglevel': 30, 'test': None, 'folder': 'P:\\\\School\\\\DePaul\\\\Projects\\\\CSC_438\\\\web2py', 'config': '', 'import_models': False, 'winservice': '', 'shell': None, 'run': '', 'log_filename': 'httpserver.log', 'args': [''], 'ssl_ca_certificate': None, 'scheduler': None, 'profiler_filename': None, 'ssl_private_key': '', 'password': '<ask>', 'request_queue_size': 5, 'ssl_certificate': '', 'cronjob': False, 'plain': False, 'quiet': False, 'interfaces': None, 'minthreads': None, 'timeout': 10, 'numthreads': None, 'nobanner': False}>"
p1801
asbasbasbag69
(g85
g71
NtRp1802
(dp1803
g74
(dp1804
sg83
g1712
sg76
(lp1805
g69
(g90
g71
NtRp1806
(dp1807
g74
(dp1808
g94
g95
ssg83
g1802
sg76
(lp1809
g752
asbag69
(g90
g71
NtRp1810
(dp1811
g74
(dp1812
g101
g102
ssg83
g1802
sg76
(lp1813
S':'
asbag69
(g90
g71
NtRp1814
(dp1815
g74
(dp1816
sg83
g1802
sg76
(lp1817
g69
(g70
g71
NtRp1818
(dp1819
g74
(dp1820
g82
I4
ssg83
g1814
sg76
(lp1821
S'set([])'
p1822
asbasbasbag69
(g85
g71
NtRp1823
(dp1824
g74
(dp1825
sg83
g1712
sg76
(lp1826
g69
(g90
g71
NtRp1827
(dp1828
g74
(dp1829
g94
g95
ssg83
g1823
sg76
(lp1830
g774
asbag69
(g90
g71
NtRp1831
(dp1832
g74
(dp1833
g101
g102
ssg83
g1823
sg76
(lp1834
S':'
asbag69
(g90
g71
NtRp1835
(dp1836
g74
(dp1837
sg83
g1823
sg76
(lp1838
g69
(g70
g71
NtRp1839
(dp1840
g74
(dp1841
g82
I4
ssg83
g1835
sg76
(lp1842
g112
asbasbasbag69
(g85
g71
NtRp1843
(dp1844
g74
(dp1845
sg83
g1712
sg76
(lp1846
g69
(g90
g71
NtRp1847
(dp1848
g74
(dp1849
g94
g95
ssg83
g1843
sg76
(lp1850
g795
asbag69
(g90
g71
NtRp1851
(dp1852
g74
(dp1853
g101
g102
ssg83
g1843
sg76
(lp1854
S':'
asbag69
(g90
g71
NtRp1855
(dp1856
g74
(dp1857
sg83
g1843
sg76
(lp1858
g69
(g70
g71
NtRp1859
(dp1860
g74
(dp1861
g82
I4
ssg83
g1855
sg76
(lp1862
g808
asbasbasbag69
(g85
g71
NtRp1863
(dp1864
g74
(dp1865
sg83
g1712
sg76
(lp1866
g69
(g90
g71
NtRp1867
(dp1868
g74
(dp1869
g94
g95
ssg83
g1863
sg76
(lp1870
g1015
asbag69
(g90
g71
NtRp1871
(dp1872
g74
(dp1873
g101
g102
ssg83
g1863
sg76
(lp1874
S':'
asbag69
(g90
g71
NtRp1875
(dp1876
g74
(dp1877
sg83
g1863
sg76
(lp1878
g69
(g70
g71
NtRp1879
(dp1880
g74
(dp1881
g82
I4
ssg83
g1875
sg76
(lp1882
g112
asbasbasbag69
(g85
g71
NtRp1883
(dp1884
g74
(dp1885
sg83
g1712
sg76
(lp1886
g69
(g90
g71
NtRp1887
(dp1888
g74
(dp1889
g94
g95
ssg83
g1883
sg76
(lp1890
g1254
asbag69
(g90
g71
NtRp1891
(dp1892
g74
(dp1893
g101
g102
ssg83
g1883
sg76
(lp1894
S':'
asbag69
(g90
g71
NtRp1895
(dp1896
g74
(dp1897
sg83
g1883
sg76
(lp1898
g69
(g70
g71
NtRp1899
(dp1900
g74
(dp1901
g82
I4
ssg83
g1895
sg76
(lp1902
g1267
asbasbasbag69
(g85
g71
NtRp1903
(dp1904
g74
(dp1905
sg83
g1712
sg76
(lp1906
g69
(g90
g71
NtRp1907
(dp1908
g74
(dp1909
g94
g95
ssg83
g1903
sg76
(lp1910
g1297
asbag69
(g90
g71
NtRp1911
(dp1912
g74
(dp1913
g101
g102
ssg83
g1903
sg76
(lp1914
S':'
asbag69
(g90
g71
NtRp1915
(dp1916
g74
(dp1917
sg83
g1903
sg76
(lp1918
g69
(g70
g71
NtRp1919
(dp1920
g74
(dp1921
g82
I4
ssg83
g1915
sg76
(lp1922
g69
(g78
g71
NtRp1923
(dp1924
g74
(dp1925
g82
I3
ssg83
Nsg76
(lp1926
g69
(g85
g71
NtRp1927
(dp1928
g74
(dp1929
sg83
g1923
sg76
(lp1930
g69
(g90
g71
NtRp1931
(dp1932
g74
(dp1933
sg83
g1927
sg76
(lp1934
g69
(g70
g71
NtRp1935
(dp1936
g74
(dp1937
g82
I3
ssg83
g1931
sg76
(lp1938
S'1'
asbasbasbag69
(g85
g71
NtRp1939
(dp1940
g74
(dp1941
sg83
g1923
sg76
(lp1942
g69
(g90
g71
NtRp1943
(dp1944
g74
(dp1945
sg83
g1939
sg76
(lp1946
g69
(g70
g71
NtRp1947
(dp1948
g74
(dp1949
g82
I3
ssg83
g1943
sg76
(lp1950
S'99'
p1951
asbasbasbag69
(g85
g71
NtRp1952
(dp1953
g74
(dp1954
sg83
g1923
sg76
(lp1955
g69
(g90
g71
NtRp1956
(dp1957
g74
(dp1958
sg83
g1952
sg76
(lp1959
g69
(g70
g71
NtRp1960
(dp1961
g74
(dp1962
g82
I3
ssg83
g1956
sg76
(lp1963
S'3'
asbasbasbag69
(g85
g71
NtRp1964
(dp1965
g74
(dp1966
sg83
g1923
sg76
(lp1967
g69
(g90
g71
NtRp1968
(dp1969
g74
(dp1970
sg83
g1964
sg76
(lp1971
g69
(g70
g71
NtRp1972
(dp1973
g74
(dp1974
g82
I3
ssg83
g1968
sg76
(lp1975
S'datetime.datetime(2011, 11, 1, 8, 28, 28)'
p1976
asbasbasbag69
(g85
g71
NtRp1977
(dp1978
g74
(dp1979
sg83
g1923
sg76
(lp1980
g69
(g90
g71
NtRp1981
(dp1982
g74
(dp1983
sg83
g1977
sg76
(lp1984
g69
(g70
g71
NtRp1985
(dp1986
g74
(dp1987
g82
I3
ssg83
g1981
sg76
(lp1988
g1376
asbasbasbasbasbasbasbasbasbasbasbag69
(g85
g71
NtRp1989
(dp1990
g74
(dp1991
sg83
g79
sg76
(lp1992
g69
(g90
g71
NtRp1993
(dp1994
g74
(dp1995
g94
g95
ssg83
g1989
sg76
(lp1996
S'is_https'
p1997
asbag69
(g90
g71
NtRp1998
(dp1999
g74
(dp2000
g101
g102
ssg83
g1989
sg76
(lp2001
S':'
asbag69
(g90
g71
NtRp2002
(dp2003
g74
(dp2004
sg83
g1989
sg76
(lp2005
g69
(g70
g71
NtRp2006
(dp2007
g74
(dp2008
g82
I5
ssg83
g2002
sg76
(lp2009
g112
asbasbasbag69
(g85
g71
NtRp2010
(dp2011
g74
(dp2012
sg83
g79
sg76
(lp2013
g69
(g90
g71
NtRp2014
(dp2015
g74
(dp2016
g94
g95
ssg83
g2010
sg76
(lp2017
S'is_local'
p2018
asbag69
(g90
g71
NtRp2019
(dp2020
g74
(dp2021
g101
g102
ssg83
g2010
sg76
(lp2022
S':'
asbag69
(g90
g71
NtRp2023
(dp2024
g74
(dp2025
sg83
g2010
sg76
(lp2026
g69
(g70
g71
NtRp2027
(dp2028
g74
(dp2029
g82
I5
ssg83
g2023
sg76
(lp2030
g1485
asbasbasbag69
(g85
g71
NtRp2031
(dp2032
g74
(dp2033
sg83
g79
sg76
(lp2034
g69
(g90
g71
NtRp2035
(dp2036
g74
(dp2037
g94
g95
ssg83
g2031
sg76
(lp2038
S'is_restful'
p2039
asbag69
(g90
g71
NtRp2040
(dp2041
g74
(dp2042
g101
g102
ssg83
g2031
sg76
(lp2043
S':'
asbag69
(g90
g71
NtRp2044
(dp2045
g74
(dp2046
sg83
g2031
sg76
(lp2047
g69
(g70
g71
NtRp2048
(dp2049
g74
(dp2050
g82
I5
ssg83
g2044
sg76
(lp2051
g112
asbasbasbag69
(g85
g71
NtRp2052
(dp2053
g74
(dp2054
sg83
g79
sg76
(lp2055
g69
(g90
g71
NtRp2056
(dp2057
g74
(dp2058
g94
g95
ssg83
g2052
sg76
(lp2059
S'now'
p2060
asbag69
(g90
g71
NtRp2061
(dp2062
g74
(dp2063
g101
g102
ssg83
g2052
sg76
(lp2064
S':'
asbag69
(g90
g71
NtRp2065
(dp2066
g74
(dp2067
sg83
g2052
sg76
(lp2068
g69
(g70
g71
NtRp2069
(dp2070
g74
(dp2071
g82
I5
ssg83
g2065
sg76
(lp2072
S'datetime.datetime(2011, 11, 19, 23, 58, 44, 711000)'
p2073
asbasbasbag69
(g85
g71
NtRp2074
(dp2075
g74
(dp2076
sg83
g79
sg76
(lp2077
g69
(g90
g71
NtRp2078
(dp2079
g74
(dp2080
g94
g95
ssg83
g2074
sg76
(lp2081
S'post_vars'
p2082
asbag69
(g90
g71
NtRp2083
(dp2084
g74
(dp2085
g101
g102
ssg83
g2074
sg76
(lp2086
S':'
asbag69
(g90
g71
NtRp2087
(dp2088
g74
(dp2089
sg83
g2074
sg76
(lp2090
g69
(g70
g71
NtRp2091
(dp2092
g74
(dp2093
g82
I5
ssg83
g2087
sg76
(lp2094
g69
(g78
g71
NtRp2095
(dp2096
g74
(dp2097
g82
I4
ssg83
Nsg76
(lp2098
sbasbasbasbag69
(g85
g71
NtRp2099
(dp2100
g74
(dp2101
sg83
g79
sg76
(lp2102
g69
(g90
g71
NtRp2103
(dp2104
g74
(dp2105
g94
g95
ssg83
g2099
sg76
(lp2106
S'url'
p2107
asbag69
(g90
g71
NtRp2108
(dp2109
g74
(dp2110
g101
g102
ssg83
g2099
sg76
(lp2111
S':'
asbag69
(g90
g71
NtRp2112
(dp2113
g74
(dp2114
sg83
g2099
sg76
(lp2115
g69
(g70
g71
NtRp2116
(dp2117
g74
(dp2118
g82
I5
ssg83
g2112
sg76
(lp2119
S'/init/default/challenge'
p2120
asbasbasbag69
(g85
g71
NtRp2121
(dp2122
g74
(dp2123
sg83
g79
sg76
(lp2124
g69
(g90
g71
NtRp2125
(dp2126
g74
(dp2127
g94
g95
ssg83
g2121
sg76
(lp2128
S'utcnow'
p2129
asbag69
(g90
g71
NtRp2130
(dp2131
g74
(dp2132
g101
g102
ssg83
g2121
sg76
(lp2133
S':'
asbag69
(g90
g71
NtRp2134
(dp2135
g74
(dp2136
sg83
g2121
sg76
(lp2137
g69
(g70
g71
NtRp2138
(dp2139
g74
(dp2140
g82
I5
ssg83
g2134
sg76
(lp2141
S'datetime.datetime(2011, 11, 20, 4, 58, 44, 711000)'
p2142
asbasbasbag69
(g85
g71
NtRp2143
(dp2144
g74
(dp2145
sg83
g79
sg76
(lp2146
g69
(g90
g71
NtRp2147
(dp2148
g74
(dp2149
g94
g95
ssg83
g2143
sg76
(lp2150
S'uuid'
p2151
asbag69
(g90
g71
NtRp2152
(dp2153
g74
(dp2154
g101
g102
ssg83
g2143
sg76
(lp2155
S':'
asbag69
(g90
g71
NtRp2156
(dp2157
g74
(dp2158
sg83
g2143
sg76
(lp2159
g69
(g70
g71
NtRp2160
(dp2161
g74
(dp2162
g82
I5
ssg83
g2156
sg76
(lp2163
S'init/127.0.0.1.2011-11-19.23-58-44.ab4a1a28-e9a8-4fae-9c54-f020514e416d'
p2164
asbasbasbag69
(g85
g71
NtRp2165
(dp2166
g74
(dp2167
sg83
g79
sg76
(lp2168
g69
(g90
g71
NtRp2169
(dp2170
g74
(dp2171
g94
g95
ssg83
g2165
sg76
(lp2172
S'vars'
p2173
asbag69
(g90
g71
NtRp2174
(dp2175
g74
(dp2176
g101
g102
ssg83
g2165
sg76
(lp2177
S':'
asbag69
(g90
g71
NtRp2178
(dp2179
g74
(dp2180
sg83
g2165
sg76
(lp2181
g69
(g70
g71
NtRp2182
(dp2183
g74
(dp2184
g82
I5
ssg83
g2178
sg76
(lp2185
g69
(g78
g71
NtRp2186
(dp2187
g74
(dp2188
g82
I4
ssg83
Nsg76
(lp2189
g69
(g85
g71
NtRp2190
(dp2191
g74
(dp2192
sg83
g2186
sg76
(lp2193
g69
(g90
g71
NtRp2194
(dp2195
g74
(dp2196
g94
g95
ssg83
g2190
sg76
(lp2197
g1677
asbag69
(g90
g71
NtRp2198
(dp2199
g74
(dp2200
g101
g102
ssg83
g2190
sg76
(lp2201
S':'
asbag69
(g90
g71
NtRp2202
(dp2203
g74
(dp2204
sg83
g2190
sg76
(lp2205
g69
(g70
g71
NtRp2206
(dp2207
g74
(dp2208
g82
I4
ssg83
g2202
sg76
(lp2209
g1690
asbasbasbasbasbasbasbag69
(g85
g71
NtRp2210
(dp2211
g74
(dp2212
sg83
g79
sg76
(lp2213
g69
(g90
g71
NtRp2214
(dp2215
g74
(dp2216
g94
g95
ssg83
g2210
sg76
(lp2217
S'wsgi'
p2218
asbag69
(g90
g71
NtRp2219
(dp2220
g74
(dp2221
g101
g102
ssg83
g2210
sg76
(lp2222
S':'
asbag69
(g90
g71
NtRp2223
(dp2224
g74
(dp2225
sg83
g2210
sg76
(lp2226
g69
(g70
g71
NtRp2227
(dp2228
g74
(dp2229
g82
I5
ssg83
g2223
sg76
(lp2230
g69
(g78
g71
NtRp2231
(dp2232
g74
(dp2233
g82
I4
ssg83
Nsg76
(lp2234
g69
(g85
g71
NtRp2235
(dp2236
g74
(dp2237
sg83
g2231
sg76
(lp2238
g69
(g90
g71
NtRp2239
(dp2240
g74
(dp2241
g94
g95
ssg83
g2235
sg76
(lp2242
S'environ'
p2243
asbag69
(g90
g71
NtRp2244
(dp2245
g74
(dp2246
g101
g102
ssg83
g2235
sg76
(lp2247
S':'
asbag69
(g90
g71
NtRp2248
(dp2249
g74
(dp2250
sg83
g2235
sg76
(lp2251
g69
(g70
g71
NtRp2252
(dp2253
g74
(dp2254
g82
I4
ssg83
g2248
sg76
(lp2255
g69
(g78
g71
NtRp2256
(dp2257
g74
(dp2258
g82
I3
ssg83
Nsg76
(lp2259
g69
(g85
g71
NtRp2260
(dp2261
g74
(dp2262
sg83
g2256
sg76
(lp2263
g69
(g90
g71
NtRp2264
(dp2265
g74
(dp2266
g94
g95
ssg83
g2260
sg76
(lp2267
S'HTTP_ACCEPT'
p2268
asbag69
(g90
g71
NtRp2269
(dp2270
g74
(dp2271
g101
g102
ssg83
g2260
sg76
(lp2272
S':'
asbag69
(g90
g71
NtRp2273
(dp2274
g74
(dp2275
sg83
g2260
sg76
(lp2276
g69
(g70
g71
NtRp2277
(dp2278
g74
(dp2279
g82
I3
ssg83
g2273
sg76
(lp2280
g830
asbasbasbag69
(g85
g71
NtRp2281
(dp2282
g74
(dp2283
sg83
g2256
sg76
(lp2284
g69
(g90
g71
NtRp2285
(dp2286
g74
(dp2287
g94
g95
ssg83
g2281
sg76
(lp2288
S'HTTP_ACCEPT_CHARSET'
p2289
asbag69
(g90
g71
NtRp2290
(dp2291
g74
(dp2292
g101
g102
ssg83
g2281
sg76
(lp2293
S':'
asbag69
(g90
g71
NtRp2294
(dp2295
g74
(dp2296
sg83
g2281
sg76
(lp2297
g69
(g70
g71
NtRp2298
(dp2299
g74
(dp2300
g82
I3
ssg83
g2294
sg76
(lp2301
g852
asbasbasbag69
(g85
g71
NtRp2302
(dp2303
g74
(dp2304
sg83
g2256
sg76
(lp2305
g69
(g90
g71
NtRp2306
(dp2307
g74
(dp2308
g94
g95
ssg83
g2302
sg76
(lp2309
S'HTTP_ACCEPT_ENCODING'
p2310
asbag69
(g90
g71
NtRp2311
(dp2312
g74
(dp2313
g101
g102
ssg83
g2302
sg76
(lp2314
S':'
asbag69
(g90
g71
NtRp2315
(dp2316
g74
(dp2317
sg83
g2302
sg76
(lp2318
g69
(g70
g71
NtRp2319
(dp2320
g74
(dp2321
g82
I3
ssg83
g2315
sg76
(lp2322
g874
asbasbasbag69
(g85
g71
NtRp2323
(dp2324
g74
(dp2325
sg83
g2256
sg76
(lp2326
g69
(g90
g71
NtRp2327
(dp2328
g74
(dp2329
g94
g95
ssg83
g2323
sg76
(lp2330
S'HTTP_ACCEPT_LANGUAGE'
p2331
asbag69
(g90
g71
NtRp2332
(dp2333
g74
(dp2334
g101
g102
ssg83
g2323
sg76
(lp2335
S':'
asbag69
(g90
g71
NtRp2336
(dp2337
g74
(dp2338
sg83
g2323
sg76
(lp2339
g69
(g70
g71
NtRp2340
(dp2341
g74
(dp2342
g82
I3
ssg83
g2336
sg76
(lp2343
g896
asbasbasbag69
(g85
g71
NtRp2344
(dp2345
g74
(dp2346
sg83
g2256
sg76
(lp2347
g69
(g90
g71
NtRp2348
(dp2349
g74
(dp2350
g94
g95
ssg83
g2344
sg76
(lp2351
S'HTTP_CONNECTION'
p2352
asbag69
(g90
g71
NtRp2353
(dp2354
g74
(dp2355
g101
g102
ssg83
g2344
sg76
(lp2356
S':'
asbag69
(g90
g71
NtRp2357
(dp2358
g74
(dp2359
sg83
g2344
sg76
(lp2360
g69
(g70
g71
NtRp2361
(dp2362
g74
(dp2363
g82
I3
ssg83
g2357
sg76
(lp2364
g918
asbasbasbag69
(g85
g71
NtRp2365
(dp2366
g74
(dp2367
sg83
g2256
sg76
(lp2368
g69
(g90
g71
NtRp2369
(dp2370
g74
(dp2371
g94
g95
ssg83
g2365
sg76
(lp2372
S'HTTP_COOKIE'
p2373
asbag69
(g90
g71
NtRp2374
(dp2375
g74
(dp2376
g101
g102
ssg83
g2365
sg76
(lp2377
S':'
asbag69
(g90
g71
NtRp2378
(dp2379
g74
(dp2380
sg83
g2365
sg76
(lp2381
g69
(g70
g71
NtRp2382
(dp2383
g74
(dp2384
g82
I3
ssg83
g2378
sg76
(lp2385
g940
asbasbasbag69
(g85
g71
NtRp2386
(dp2387
g74
(dp2388
sg83
g2256
sg76
(lp2389
g69
(g90
g71
NtRp2390
(dp2391
g74
(dp2392
g94
g95
ssg83
g2386
sg76
(lp2393
S'HTTP_HOST'
p2394
asbag69
(g90
g71
NtRp2395
(dp2396
g74
(dp2397
g101
g102
ssg83
g2386
sg76
(lp2398
S':'
asbag69
(g90
g71
NtRp2399
(dp2400
g74
(dp2401
sg83
g2386
sg76
(lp2402
g69
(g70
g71
NtRp2403
(dp2404
g74
(dp2405
g82
I3
ssg83
g2399
sg76
(lp2406
g962
asbasbasbag69
(g85
g71
NtRp2407
(dp2408
g74
(dp2409
sg83
g2256
sg76
(lp2410
g69
(g90
g71
NtRp2411
(dp2412
g74
(dp2413
g94
g95
ssg83
g2407
sg76
(lp2414
S'HTTP_KEEP_ALIVE'
p2415
asbag69
(g90
g71
NtRp2416
(dp2417
g74
(dp2418
g101
g102
ssg83
g2407
sg76
(lp2419
S':'
asbag69
(g90
g71
NtRp2420
(dp2421
g74
(dp2422
sg83
g2407
sg76
(lp2423
g69
(g70
g71
NtRp2424
(dp2425
g74
(dp2426
g82
I3
ssg83
g2420
sg76
(lp2427
g984
asbasbasbag69
(g85
g71
NtRp2428
(dp2429
g74
(dp2430
sg83
g2256
sg76
(lp2431
g69
(g90
g71
NtRp2432
(dp2433
g74
(dp2434
g94
g95
ssg83
g2428
sg76
(lp2435
S'HTTP_USER_AGENT'
p2436
asbag69
(g90
g71
NtRp2437
(dp2438
g74
(dp2439
g101
g102
ssg83
g2428
sg76
(lp2440
S':'
asbag69
(g90
g71
NtRp2441
(dp2442
g74
(dp2443
sg83
g2428
sg76
(lp2444
g69
(g70
g71
NtRp2445
(dp2446
g74
(dp2447
g82
I3
ssg83
g2441
sg76
(lp2448
g1006
asbasbasbag69
(g85
g71
NtRp2449
(dp2450
g74
(dp2451
sg83
g2256
sg76
(lp2452
g69
(g90
g71
NtRp2453
(dp2454
g74
(dp2455
g94
g95
ssg83
g2449
sg76
(lp2456
S'PATH_INFO'
p2457
asbag69
(g90
g71
NtRp2458
(dp2459
g74
(dp2460
g101
g102
ssg83
g2449
sg76
(lp2461
S':'
asbag69
(g90
g71
NtRp2462
(dp2463
g74
(dp2464
sg83
g2449
sg76
(lp2465
g69
(g70
g71
NtRp2466
(dp2467
g74
(dp2468
g82
I3
ssg83
g2462
sg76
(lp2469
g1049
asbasbasbag69
(g85
g71
NtRp2470
(dp2471
g74
(dp2472
sg83
g2256
sg76
(lp2473
g69
(g90
g71
NtRp2474
(dp2475
g74
(dp2476
g94
g95
ssg83
g2470
sg76
(lp2477
S'QUERY_STRING'
p2478
asbag69
(g90
g71
NtRp2479
(dp2480
g74
(dp2481
g101
g102
ssg83
g2470
sg76
(lp2482
S':'
asbag69
(g90
g71
NtRp2483
(dp2484
g74
(dp2485
sg83
g2470
sg76
(lp2486
g69
(g70
g71
NtRp2487
(dp2488
g74
(dp2489
g82
I3
ssg83
g2483
sg76
(lp2490
g1071
asbasbasbag69
(g85
g71
NtRp2491
(dp2492
g74
(dp2493
sg83
g2256
sg76
(lp2494
g69
(g90
g71
NtRp2495
(dp2496
g74
(dp2497
g94
g95
ssg83
g2491
sg76
(lp2498
S'REMOTE_ADDR'
p2499
asbag69
(g90
g71
NtRp2500
(dp2501
g74
(dp2502
g101
g102
ssg83
g2491
sg76
(lp2503
S':'
asbag69
(g90
g71
NtRp2504
(dp2505
g74
(dp2506
sg83
g2491
sg76
(lp2507
g69
(g70
g71
NtRp2508
(dp2509
g74
(dp2510
g82
I3
ssg83
g2504
sg76
(lp2511
g202
asbasbasbag69
(g85
g71
NtRp2512
(dp2513
g74
(dp2514
sg83
g2256
sg76
(lp2515
g69
(g90
g71
NtRp2516
(dp2517
g74
(dp2518
g94
g95
ssg83
g2512
sg76
(lp2519
S'REMOTE_PORT'
p2520
asbag69
(g90
g71
NtRp2521
(dp2522
g74
(dp2523
g101
g102
ssg83
g2512
sg76
(lp2524
S':'
asbag69
(g90
g71
NtRp2525
(dp2526
g74
(dp2527
sg83
g2512
sg76
(lp2528
g69
(g70
g71
NtRp2529
(dp2530
g74
(dp2531
g82
I3
ssg83
g2525
sg76
(lp2532
g1114
asbasbasbag69
(g85
g71
NtRp2533
(dp2534
g74
(dp2535
sg83
g2256
sg76
(lp2536
g69
(g90
g71
NtRp2537
(dp2538
g74
(dp2539
g94
g95
ssg83
g2533
sg76
(lp2540
S'REQUEST_METHOD'
p2541
asbag69
(g90
g71
NtRp2542
(dp2543
g74
(dp2544
g101
g102
ssg83
g2533
sg76
(lp2545
S':'
asbag69
(g90
g71
NtRp2546
(dp2547
g74
(dp2548
sg83
g2533
sg76
(lp2549
g69
(g70
g71
NtRp2550
(dp2551
g74
(dp2552
g82
I3
ssg83
g2546
sg76
(lp2553
g1136
asbasbasbag69
(g85
g71
NtRp2554
(dp2555
g74
(dp2556
sg83
g2256
sg76
(lp2557
g69
(g90
g71
NtRp2558
(dp2559
g74
(dp2560
g94
g95
ssg83
g2554
sg76
(lp2561
S'SCRIPT_NAME'
p2562
asbag69
(g90
g71
NtRp2563
(dp2564
g74
(dp2565
g101
g102
ssg83
g2554
sg76
(lp2566
S':'
asbag69
(g90
g71
NtRp2567
(dp2568
g74
(dp2569
sg83
g2554
sg76
(lp2570
g69
(g70
g71
NtRp2571
(dp2572
g74
(dp2573
g82
I3
ssg83
g2567
sg76
(lp2574
S''
asbasbasbag69
(g85
g71
NtRp2575
(dp2576
g74
(dp2577
sg83
g2256
sg76
(lp2578
g69
(g90
g71
NtRp2579
(dp2580
g74
(dp2581
g94
g95
ssg83
g2575
sg76
(lp2582
S'SERVER_NAME'
p2583
asbag69
(g90
g71
NtRp2584
(dp2585
g74
(dp2586
g101
g102
ssg83
g2575
sg76
(lp2587
S':'
asbag69
(g90
g71
NtRp2588
(dp2589
g74
(dp2590
sg83
g2575
sg76
(lp2591
g69
(g70
g71
NtRp2592
(dp2593
g74
(dp2594
g82
I3
ssg83
g2588
sg76
(lp2595
g1179
asbasbasbag69
(g85
g71
NtRp2596
(dp2597
g74
(dp2598
sg83
g2256
sg76
(lp2599
g69
(g90
g71
NtRp2600
(dp2601
g74
(dp2602
g94
g95
ssg83
g2596
sg76
(lp2603
S'SERVER_PORT'
p2604
asbag69
(g90
g71
NtRp2605
(dp2606
g74
(dp2607
g101
g102
ssg83
g2596
sg76
(lp2608
S':'
asbag69
(g90
g71
NtRp2609
(dp2610
g74
(dp2611
sg83
g2596
sg76
(lp2612
g69
(g70
g71
NtRp2613
(dp2614
g74
(dp2615
g82
I3
ssg83
g2609
sg76
(lp2616
g1201
asbasbasbag69
(g85
g71
NtRp2617
(dp2618
g74
(dp2619
sg83
g2256
sg76
(lp2620
g69
(g90
g71
NtRp2621
(dp2622
g74
(dp2623
g94
g95
ssg83
g2617
sg76
(lp2624
S'SERVER_PROTOCOL'
p2625
asbag69
(g90
g71
NtRp2626
(dp2627
g74
(dp2628
g101
g102
ssg83
g2617
sg76
(lp2629
S':'
asbag69
(g90
g71
NtRp2630
(dp2631
g74
(dp2632
sg83
g2617
sg76
(lp2633
g69
(g70
g71
NtRp2634
(dp2635
g74
(dp2636
g82
I3
ssg83
g2630
sg76
(lp2637
g1223
asbasbasbag69
(g85
g71
NtRp2638
(dp2639
g74
(dp2640
sg83
g2256
sg76
(lp2641
g69
(g90
g71
NtRp2642
(dp2643
g74
(dp2644
g94
g95
ssg83
g2638
sg76
(lp2645
S'SERVER_SOFTWARE'
p2646
asbag69
(g90
g71
NtRp2647
(dp2648
g74
(dp2649
g101
g102
ssg83
g2638
sg76
(lp2650
S':'
asbag69
(g90
g71
NtRp2651
(dp2652
g74
(dp2653
sg83
g2638
sg76
(lp2654
g69
(g70
g71
NtRp2655
(dp2656
g74
(dp2657
g82
I3
ssg83
g2651
sg76
(lp2658
g1245
asbasbasbag69
(g85
g71
NtRp2659
(dp2660
g74
(dp2661
sg83
g2256
sg76
(lp2662
g69
(g90
g71
NtRp2663
(dp2664
g74
(dp2665
g94
g95
ssg83
g2659
sg76
(lp2666
S'wsgi.errors'
p2667
asbag69
(g90
g71
NtRp2668
(dp2669
g74
(dp2670
g101
g102
ssg83
g2659
sg76
(lp2671
S':'
asbag69
(g90
g71
NtRp2672
(dp2673
g74
(dp2674
sg83
g2659
sg76
(lp2675
g69
(g70
g71
NtRp2676
(dp2677
g74
(dp2678
g82
I3
ssg83
g2672
sg76
(lp2679
S"<open file '<stderr>', mode 'w' at 0x004950D0>"
p2680
asbasbasbag69
(g85
g71
NtRp2681
(dp2682
g74
(dp2683
sg83
g2256
sg76
(lp2684
g69
(g90
g71
NtRp2685
(dp2686
g74
(dp2687
g94
g95
ssg83
g2681
sg76
(lp2688
S'wsgi.file_wrapper'
p2689
asbag69
(g90
g71
NtRp2690
(dp2691
g74
(dp2692
g101
g102
ssg83
g2681
sg76
(lp2693
S':'
asbag69
(g90
g71
NtRp2694
(dp2695
g74
(dp2696
sg83
g2681
sg76
(lp2697
g69
(g70
g71
NtRp2698
(dp2699
g74
(dp2700
g82
I3
ssg83
g2694
sg76
(lp2701
S'<class wsgiref.util.FileWrapper at 0x034A8B20>'
p2702
asbasbasbag69
(g85
g71
NtRp2703
(dp2704
g74
(dp2705
sg83
g2256
sg76
(lp2706
g69
(g90
g71
NtRp2707
(dp2708
g74
(dp2709
g94
g95
ssg83
g2703
sg76
(lp2710
S'wsgi.input'
p2711
asbag69
(g90
g71
NtRp2712
(dp2713
g74
(dp2714
g101
g102
ssg83
g2703
sg76
(lp2715
S':'
asbag69
(g90
g71
NtRp2716
(dp2717
g74
(dp2718
sg83
g2703
sg76
(lp2719
g69
(g70
g71
NtRp2720
(dp2721
g74
(dp2722
g82
I3
ssg83
g2716
sg76
(lp2723
S'<cStringIO.StringO object at 0x08378FE0>'
p2724
asbasbasbag69
(g85
g71
NtRp2725
(dp2726
g74
(dp2727
sg83
g2256
sg76
(lp2728
g69
(g90
g71
NtRp2729
(dp2730
g74
(dp2731
g94
g95
ssg83
g2725
sg76
(lp2732
S'wsgi.multiprocess'
p2733
asbag69
(g90
g71
NtRp2734
(dp2735
g74
(dp2736
g101
g102
ssg83
g2725
sg76
(lp2737
S':'
asbag69
(g90
g71
NtRp2738
(dp2739
g74
(dp2740
sg83
g2725
sg76
(lp2741
g69
(g70
g71
NtRp2742
(dp2743
g74
(dp2744
g82
I3
ssg83
g2738
sg76
(lp2745
g112
asbasbasbag69
(g85
g71
NtRp2746
(dp2747
g74
(dp2748
sg83
g2256
sg76
(lp2749
g69
(g90
g71
NtRp2750
(dp2751
g74
(dp2752
g94
g95
ssg83
g2746
sg76
(lp2753
S'wsgi.multithread'
p2754
asbag69
(g90
g71
NtRp2755
(dp2756
g74
(dp2757
g101
g102
ssg83
g2746
sg76
(lp2758
S':'
asbag69
(g90
g71
NtRp2759
(dp2760
g74
(dp2761
sg83
g2746
sg76
(lp2762
g69
(g70
g71
NtRp2763
(dp2764
g74
(dp2765
g82
I3
ssg83
g2759
sg76
(lp2766
g1485
asbasbasbag69
(g85
g71
NtRp2767
(dp2768
g74
(dp2769
sg83
g2256
sg76
(lp2770
g69
(g90
g71
NtRp2771
(dp2772
g74
(dp2773
g94
g95
ssg83
g2767
sg76
(lp2774
S'wsgi.run_once'
p2775
asbag69
(g90
g71
NtRp2776
(dp2777
g74
(dp2778
g101
g102
ssg83
g2767
sg76
(lp2779
S':'
asbag69
(g90
g71
NtRp2780
(dp2781
g74
(dp2782
sg83
g2767
sg76
(lp2783
g69
(g70
g71
NtRp2784
(dp2785
g74
(dp2786
g82
I3
ssg83
g2780
sg76
(lp2787
g112
asbasbasbag69
(g85
g71
NtRp2788
(dp2789
g74
(dp2790
sg83
g2256
sg76
(lp2791
g69
(g90
g71
NtRp2792
(dp2793
g74
(dp2794
g94
g95
ssg83
g2788
sg76
(lp2795
S'wsgi.url_scheme'
p2796
asbag69
(g90
g71
NtRp2797
(dp2798
g74
(dp2799
g101
g102
ssg83
g2788
sg76
(lp2800
S':'
asbag69
(g90
g71
NtRp2801
(dp2802
g74
(dp2803
sg83
g2788
sg76
(lp2804
g69
(g70
g71
NtRp2805
(dp2806
g74
(dp2807
g82
I3
ssg83
g2801
sg76
(lp2808
g1528
asbasbasbag69
(g85
g71
NtRp2809
(dp2810
g74
(dp2811
sg83
g2256
sg76
(lp2812
g69
(g90
g71
NtRp2813
(dp2814
g74
(dp2815
g94
g95
ssg83
g2809
sg76
(lp2816
S'wsgi.version'
p2817
asbag69
(g90
g71
NtRp2818
(dp2819
g74
(dp2820
g101
g102
ssg83
g2809
sg76
(lp2821
S':'
asbag69
(g90
g71
NtRp2822
(dp2823
g74
(dp2824
sg83
g2809
sg76
(lp2825
g69
(g70
g71
NtRp2826
(dp2827
g74
(dp2828
g82
I3
ssg83
g2822
sg76
(lp2829
S'1'
asbasbasbasbasbasbasbasbasbasbasbasbasbsS'frames'
p2830
(lp2831
(dp2832
S'file'
p2833
S'P:\\School\\DePaul\\Projects\\CSC_438\\web2py\\gluon\\restricted.py'
p2834
sS'dump'
p2835
(dp2836
S'code'
p2837
S'\'response.write(\\\'<!DOCTYPE html PUBLIC "-//W3C//D...iv>\\\\r\\\\n\\\\r\\\\n</body>\\\\r\\\\n</html>\\\\r\\\\n\\\', escape=False)\''
p2838
sS'layer'
p2839
S"r'P:\\School\\DePaul\\Projects\\CSC_438\\web2py\\applications\\init\\views\\default/challenge.html'"
p2840
sS'global compile2'
p2841
S'<function compile2>'
p2842
sS'ccode'
p2843
S'undefined'
p2844
ssS'lnum'
p2845
I203
sS'lines'
p2846
(dp2847
I198
S"    environment['__file__'] = layer"
p2848
sI199
S'    try:'
p2849
sI200
S'        if type(code) == types.CodeType:'
p2850
sI201
S'            ccode = code'
p2851
sI202
S'        else:'
p2852
sI203
S'            ccode = compile2(code,layer)'
p2853
sI204
S'        exec ccode in environment'
p2854
sI205
S'    except HTTP:'
p2855
sI206
S'        raise'
p2856
sI207
S'    except RestrictedError:'
p2857
ssS'call'
p2858
S'(code=\'response.write(\\\'<!DOCTYPE html PUBLIC "-//W3C//D...iv>\\\\r\\\\n\\\\r\\\\n</body>\\\\r\\\\n</html>\\\\r\\\\n\\\', escape=False)\', environment={\'A\': <class \'gluon.html.A\'>, \'Auth\': <class \'gluon.tools.Auth\'>, \'B\': <class \'gluon.html.B\'>, \'BEAUTIFY\': <class \'gluon.html.BEAUTIFY\'>, \'BODY\': <class \'gluon.html.BODY\'>, \'BR\': <class \'gluon.html.BR\'>, \'BUTTON\': <class \'gluon.html.BUTTON\'>, \'CAT\': <class \'gluon.html.CAT\'>, \'CENTER\': <class \'gluon.html.CENTER\'>, \'CLEANUP\': <class \'gluon.validators.CLEANUP\'>, ...}, layer=r\'P:\\School\\DePaul\\Projects\\CSC_438\\web2py\\applications\\init\\views\\default/challenge.html\')'
p2859
sS'func'
p2860
S'restricted'
p2861
sa(dp2862
g2833
S'P:\\School\\DePaul\\Projects\\CSC_438\\web2py\\gluon\\restricted.py'
p2863
sg2835
(dp2864
S'builtincompile'
p2865
S'<built-in function compile>'
p2866
sS'code'
p2867
S'\'response.write(\\\'<!DOCTYPE html PUBLIC "-//W3C//D...iv>\\\\r\\\\n\\\\r\\\\n</body>\\\\r\\\\n</html>\\\\r\\\\n\\\', escape=False)\''
p2868
sS'code.rstrip'
p2869
S'<built-in method rstrip of str object>'
p2870
sS').replace'
p2871
g2844
sS'layer'
p2872
S"r'P:\\School\\DePaul\\Projects\\CSC_438\\web2py\\applications\\init\\views\\default/challenge.html'"
p2873
ssg2845
I189
sg2846
(dp2874
I192
S'    """'
p2875
sI193
S'    runs code in environment and returns the output. if an exception occurs'
p2876
sI184
S''
sI185
S'def compile2(code,layer):'
p2877
sI186
S'    """'
p2878
sI187
S"    The +'\\n' is necessary else compile fails when code ends in a comment."
p2879
sI188
S'    """'
p2880
sI189
S"    return compile(code.rstrip().replace('\\r\\n','\\n')+'\\n', layer, 'exec')"
p2881
sI190
S''
sI191
S"def restricted(code, environment=None, layer='Unknown'):"
p2882
ssg2858
S'(code=\'response.write(\\\'<!DOCTYPE html PUBLIC "-//W3C//D...iv>\\\\r\\\\n\\\\r\\\\n</body>\\\\r\\\\n</html>\\\\r\\\\n\\\', escape=False)\', layer=r\'P:\\School\\DePaul\\Projects\\CSC_438\\web2py\\applications\\init\\views\\default/challenge.html\')'
p2883
sg2860
S'compile2'
p2884
sasS'pyver'
p2885
S'Python 2.7.2: P:\\Workbench\\DevEnv\\Python27\\python.exe'
p2886
sS'session'
p2887
g69
(g70
g71
NtRp2888
(dp2889
g74
(dp2890
sg76
(lp2891
g69
(g78
g71
NtRp2892
(dp2893
g74
(dp2894
g82
I5
ssg83
Nsg76
(lp2895
g69
(g85
g71
NtRp2896
(dp2897
g74
(dp2898
sg83
g2892
sg76
(lp2899
g69
(g90
g71
NtRp2900
(dp2901
g74
(dp2902
g94
g95
ssg83
g2896
sg76
(lp2903
S'auth'
p2904
asbag69
(g90
g71
NtRp2905
(dp2906
g74
(dp2907
g101
g102
ssg83
g2896
sg76
(lp2908
S':'
asbag69
(g90
g71
NtRp2909
(dp2910
g74
(dp2911
sg83
g2896
sg76
(lp2912
g69
(g70
g71
NtRp2913
(dp2914
g74
(dp2915
g82
I5
ssg83
g2909
sg76
(lp2916
g69
(g78
g71
NtRp2917
(dp2918
g74
(dp2919
g82
I4
ssg83
Nsg76
(lp2920
g69
(g85
g71
NtRp2921
(dp2922
g74
(dp2923
sg83
g2917
sg76
(lp2924
g69
(g90
g71
NtRp2925
(dp2926
g74
(dp2927
g94
g95
ssg83
g2921
sg76
(lp2928
S'expiration'
p2929
asbag69
(g90
g71
NtRp2930
(dp2931
g74
(dp2932
g101
g102
ssg83
g2921
sg76
(lp2933
S':'
asbag69
(g90
g71
NtRp2934
(dp2935
g74
(dp2936
sg83
g2921
sg76
(lp2937
g69
(g70
g71
NtRp2938
(dp2939
g74
(dp2940
g82
I4
ssg83
g2934
sg76
(lp2941
S'2592000'
p2942
asbasbasbag69
(g85
g71
NtRp2943
(dp2944
g74
(dp2945
sg83
g2917
sg76
(lp2946
g69
(g90
g71
NtRp2947
(dp2948
g74
(dp2949
g94
g95
ssg83
g2943
sg76
(lp2950
S'hmac_key'
p2951
asbag69
(g90
g71
NtRp2952
(dp2953
g74
(dp2954
g101
g102
ssg83
g2943
sg76
(lp2955
S':'
asbag69
(g90
g71
NtRp2956
(dp2957
g74
(dp2958
sg83
g2943
sg76
(lp2959
g69
(g70
g71
NtRp2960
(dp2961
g74
(dp2962
g82
I4
ssg83
g2956
sg76
(lp2963
S'935798e3-2107-4a47-9859-16e1e0c4d221'
p2964
asbasbasbag69
(g85
g71
NtRp2965
(dp2966
g74
(dp2967
sg83
g2917
sg76
(lp2968
g69
(g90
g71
NtRp2969
(dp2970
g74
(dp2971
g94
g95
ssg83
g2965
sg76
(lp2972
S'last_visit'
p2973
asbag69
(g90
g71
NtRp2974
(dp2975
g74
(dp2976
g101
g102
ssg83
g2965
sg76
(lp2977
S':'
asbag69
(g90
g71
NtRp2978
(dp2979
g74
(dp2980
sg83
g2965
sg76
(lp2981
g69
(g70
g71
NtRp2982
(dp2983
g74
(dp2984
g82
I4
ssg83
g2978
sg76
(lp2985
S'datetime.datetime(2011, 11, 19, 23, 45, 7, 201000)'
p2986
asbasbasbag69
(g85
g71
NtRp2987
(dp2988
g74
(dp2989
sg83
g2917
sg76
(lp2990
g69
(g90
g71
NtRp2991
(dp2992
g74
(dp2993
g94
g95
ssg83
g2987
sg76
(lp2994
S'remember'
p2995
asbag69
(g90
g71
NtRp2996
(dp2997
g74
(dp2998
g101
g102
ssg83
g2987
sg76
(lp2999
S':'
asbag69
(g90
g71
NtRp3000
(dp3001
g74
(dp3002
sg83
g2987
sg76
(lp3003
g69
(g70
g71
NtRp3004
(dp3005
g74
(dp3006
g82
I4
ssg83
g3000
sg76
(lp3007
g112
asbasbasbag69
(g85
g71
NtRp3008
(dp3009
g74
(dp3010
sg83
g2917
sg76
(lp3011
g69
(g90
g71
NtRp3012
(dp3013
g74
(dp3014
g94
g95
ssg83
g3008
sg76
(lp3015
S'user'
p3016
asbag69
(g90
g71
NtRp3017
(dp3018
g74
(dp3019
g101
g102
ssg83
g3008
sg76
(lp3020
S':'
asbag69
(g90
g71
NtRp3021
(dp3022
g74
(dp3023
sg83
g3008
sg76
(lp3024
g69
(g70
g71
NtRp3025
(dp3026
g74
(dp3027
g82
I4
ssg83
g3021
sg76
(lp3028
g69
(g78
g71
NtRp3029
(dp3030
g74
(dp3031
g82
I3
ssg83
Nsg76
(lp3032
g69
(g85
g71
NtRp3033
(dp3034
g74
(dp3035
sg83
g3029
sg76
(lp3036
g69
(g90
g71
NtRp3037
(dp3038
g74
(dp3039
g94
g95
ssg83
g3033
sg76
(lp3040
S'birthday'
p3041
asbag69
(g90
g71
NtRp3042
(dp3043
g74
(dp3044
g101
g102
ssg83
g3033
sg76
(lp3045
S':'
asbag69
(g90
g71
NtRp3046
(dp3047
g74
(dp3048
sg83
g3033
sg76
(lp3049
g69
(g70
g71
NtRp3050
(dp3051
g74
(dp3052
g82
I3
ssg83
g3046
sg76
(lp3053
S'datetime.date(2011, 11, 27)'
p3054
asbasbasbag69
(g85
g71
NtRp3055
(dp3056
g74
(dp3057
sg83
g3029
sg76
(lp3058
g69
(g90
g71
NtRp3059
(dp3060
g74
(dp3061
g94
g95
ssg83
g3055
sg76
(lp3062
S'challenges'
p3063
asbag69
(g90
g71
NtRp3064
(dp3065
g74
(dp3066
g101
g102
ssg83
g3055
sg76
(lp3067
S':'
asbag69
(g90
g71
NtRp3068
(dp3069
g74
(dp3070
sg83
g3055
sg76
(lp3071
g69
(g70
g71
NtRp3072
(dp3073
g74
(dp3074
g82
I3
ssg83
g3068
sg76
(lp3075
g69
(g78
g71
NtRp3076
(dp3077
g74
(dp3078
g82
I2
ssg83
Nsg76
(lp3079
sbasbasbasbag69
(g85
g71
NtRp3080
(dp3081
g74
(dp3082
sg83
g3029
sg76
(lp3083
g69
(g90
g71
NtRp3084
(dp3085
g74
(dp3086
g94
g95
ssg83
g3080
sg76
(lp3087
S'current_weight'
p3088
asbag69
(g90
g71
NtRp3089
(dp3090
g74
(dp3091
g101
g102
ssg83
g3080
sg76
(lp3092
S':'
asbag69
(g90
g71
NtRp3093
(dp3094
g74
(dp3095
sg83
g3080
sg76
(lp3096
g69
(g70
g71
NtRp3097
(dp3098
g74
(dp3099
g82
I3
ssg83
g3093
sg76
(lp3100
S'215'
p3101
asbasbasbag69
(g85
g71
NtRp3102
(dp3103
g74
(dp3104
sg83
g3029
sg76
(lp3105
g69
(g90
g71
NtRp3106
(dp3107
g74
(dp3108
g94
g95
ssg83
g3102
sg76
(lp3109
S'email'
p3110
asbag69
(g90
g71
NtRp3111
(dp3112
g74
(dp3113
g101
g102
ssg83
g3102
sg76
(lp3114
S':'
asbag69
(g90
g71
NtRp3115
(dp3116
g74
(dp3117
sg83
g3102
sg76
(lp3118
g69
(g70
g71
NtRp3119
(dp3120
g74
(dp3121
g82
I3
ssg83
g3115
sg76
(lp3122
S'sarah@test.com'
p3123
asbasbasbag69
(g85
g71
NtRp3124
(dp3125
g74
(dp3126
sg83
g3029
sg76
(lp3127
g69
(g90
g71
NtRp3128
(dp3129
g74
(dp3130
g94
g95
ssg83
g3124
sg76
(lp3131
S'first_name'
p3132
asbag69
(g90
g71
NtRp3133
(dp3134
g74
(dp3135
g101
g102
ssg83
g3124
sg76
(lp3136
S':'
asbag69
(g90
g71
NtRp3137
(dp3138
g74
(dp3139
sg83
g3124
sg76
(lp3140
g69
(g70
g71
NtRp3141
(dp3142
g74
(dp3143
g82
I3
ssg83
g3137
sg76
(lp3144
S'Sarah'
p3145
asbasbasbag69
(g85
g71
NtRp3146
(dp3147
g74
(dp3148
sg83
g3029
sg76
(lp3149
g69
(g90
g71
NtRp3150
(dp3151
g74
(dp3152
g94
g95
ssg83
g3146
sg76
(lp3153
S'gender'
p3154
asbag69
(g90
g71
NtRp3155
(dp3156
g74
(dp3157
g101
g102
ssg83
g3146
sg76
(lp3158
S':'
asbag69
(g90
g71
NtRp3159
(dp3160
g74
(dp3161
sg83
g3146
sg76
(lp3162
g69
(g70
g71
NtRp3163
(dp3164
g74
(dp3165
g82
I3
ssg83
g3159
sg76
(lp3166
S'Female'
p3167
asbasbasbag69
(g85
g71
NtRp3168
(dp3169
g74
(dp3170
sg83
g3029
sg76
(lp3171
g69
(g90
g71
NtRp3172
(dp3173
g74
(dp3174
g94
g95
ssg83
g3168
sg76
(lp3175
S'height'
p3176
asbag69
(g90
g71
NtRp3177
(dp3178
g74
(dp3179
g101
g102
ssg83
g3168
sg76
(lp3180
S':'
asbag69
(g90
g71
NtRp3181
(dp3182
g74
(dp3183
sg83
g3168
sg76
(lp3184
g69
(g70
g71
NtRp3185
(dp3186
g74
(dp3187
g82
I3
ssg83
g3181
sg76
(lp3188
S'72'
p3189
asbasbasbag69
(g85
g71
NtRp3190
(dp3191
g74
(dp3192
sg83
g3029
sg76
(lp3193
g69
(g90
g71
NtRp3194
(dp3195
g74
(dp3196
g94
g95
ssg83
g3190
sg76
(lp3197
S'id'
p3198
asbag69
(g90
g71
NtRp3199
(dp3200
g74
(dp3201
g101
g102
ssg83
g3190
sg76
(lp3202
S':'
asbag69
(g90
g71
NtRp3203
(dp3204
g74
(dp3205
sg83
g3190
sg76
(lp3206
g69
(g70
g71
NtRp3207
(dp3208
g74
(dp3209
g82
I3
ssg83
g3203
sg76
(lp3210
S'8'
asbasbasbag69
(g85
g71
NtRp3211
(dp3212
g74
(dp3213
sg83
g3029
sg76
(lp3214
g69
(g90
g71
NtRp3215
(dp3216
g74
(dp3217
g94
g95
ssg83
g3211
sg76
(lp3218
S'image'
p3219
asbag69
(g90
g71
NtRp3220
(dp3221
g74
(dp3222
g101
g102
ssg83
g3211
sg76
(lp3223
S':'
asbag69
(g90
g71
NtRp3224
(dp3225
g74
(dp3226
sg83
g3211
sg76
(lp3227
g69
(g70
g71
NtRp3228
(dp3229
g74
(dp3230
g82
I3
ssg83
g3224
sg76
(lp3231
S''
asbasbasbag69
(g85
g71
NtRp3232
(dp3233
g74
(dp3234
sg83
g3029
sg76
(lp3235
g69
(g90
g71
NtRp3236
(dp3237
g74
(dp3238
g94
g95
ssg83
g3232
sg76
(lp3239
S'last_name'
p3240
asbag69
(g90
g71
NtRp3241
(dp3242
g74
(dp3243
g101
g102
ssg83
g3232
sg76
(lp3244
S':'
asbag69
(g90
g71
NtRp3245
(dp3246
g74
(dp3247
sg83
g3232
sg76
(lp3248
g69
(g70
g71
NtRp3249
(dp3250
g74
(dp3251
g82
I3
ssg83
g3245
sg76
(lp3252
S'Edwards'
p3253
asbasbasbag69
(g85
g71
NtRp3254
(dp3255
g74
(dp3256
sg83
g3029
sg76
(lp3257
g69
(g90
g71
NtRp3258
(dp3259
g74
(dp3260
g94
g95
ssg83
g3254
sg76
(lp3261
S'password'
p3262
asbag69
(g90
g71
NtRp3263
(dp3264
g74
(dp3265
g101
g102
ssg83
g3254
sg76
(lp3266
S':'
asbag69
(g90
g71
NtRp3267
(dp3268
g74
(dp3269
sg83
g3254
sg76
(lp3270
g69
(g70
g71
NtRp3271
(dp3272
g74
(dp3273
g82
I3
ssg83
g3267
sg76
(lp3274
S'12923092f4d9e86e56018b9cdd790947'
p3275
asbasbasbag69
(g85
g71
NtRp3276
(dp3277
g74
(dp3278
sg83
g3029
sg76
(lp3279
g69
(g90
g71
NtRp3280
(dp3281
g74
(dp3282
g94
g95
ssg83
g3276
sg76
(lp3283
S'registration_id'
p3284
asbag69
(g90
g71
NtRp3285
(dp3286
g74
(dp3287
g101
g102
ssg83
g3276
sg76
(lp3288
S':'
asbag69
(g90
g71
NtRp3289
(dp3290
g74
(dp3291
sg83
g3276
sg76
(lp3292
g69
(g70
g71
NtRp3293
(dp3294
g74
(dp3295
g82
I3
ssg83
g3289
sg76
(lp3296
S''
asbasbasbag69
(g85
g71
NtRp3297
(dp3298
g74
(dp3299
sg83
g3029
sg76
(lp3300
g69
(g90
g71
NtRp3301
(dp3302
g74
(dp3303
g94
g95
ssg83
g3297
sg76
(lp3304
S'registration_key'
p3305
asbag69
(g90
g71
NtRp3306
(dp3307
g74
(dp3308
g101
g102
ssg83
g3297
sg76
(lp3309
S':'
asbag69
(g90
g71
NtRp3310
(dp3311
g74
(dp3312
sg83
g3297
sg76
(lp3313
g69
(g70
g71
NtRp3314
(dp3315
g74
(dp3316
g82
I3
ssg83
g3310
sg76
(lp3317
S''
asbasbasbag69
(g85
g71
NtRp3318
(dp3319
g74
(dp3320
sg83
g3029
sg76
(lp3321
g69
(g90
g71
NtRp3322
(dp3323
g74
(dp3324
g94
g95
ssg83
g3318
sg76
(lp3325
S'reset_password_key'
p3326
asbag69
(g90
g71
NtRp3327
(dp3328
g74
(dp3329
g101
g102
ssg83
g3318
sg76
(lp3330
S':'
asbag69
(g90
g71
NtRp3331
(dp3332
g74
(dp3333
sg83
g3318
sg76
(lp3334
g69
(g70
g71
NtRp3335
(dp3336
g74
(dp3337
g82
I3
ssg83
g3331
sg76
(lp3338
S''
asbasbasbasbasbasbasbasbasbasbasbag69
(g85
g71
NtRp3339
(dp3340
g74
(dp3341
sg83
g2892
sg76
(lp3342
g69
(g90
g71
NtRp3343
(dp3344
g74
(dp3345
g94
g95
ssg83
g3339
sg76
(lp3346
S'last_query'
p3347
asbag69
(g90
g71
NtRp3348
(dp3349
g74
(dp3350
g101
g102
ssg83
g3339
sg76
(lp3351
S':'
asbag69
(g90
g71
NtRp3352
(dp3353
g74
(dp3354
sg83
g3339
sg76
(lp3355
g69
(g70
g71
NtRp3356
(dp3357
g74
(dp3358
g82
I5
ssg83
g3352
sg76
(lp3359
S'db.events.id>0'
p3360
asbasbasbasbasbsS'etype'
p3361
S"<type 'exceptions.SyntaxError'>"
p3362
sS'date'
p3363
S'Sat Nov 19 23:58:44 2011'
p3364
sS'response'
p3365
g69
(g70
g71
NtRp3366
(dp3367
g74
(dp3368
sg76
(lp3369
g69
(g78
g71
NtRp3370
(dp3371
g74
(dp3372
g82
I5
ssg83
Nsg76
(lp3373
g69
(g85
g71
NtRp3374
(dp3375
g74
(dp3376
sg83
g3370
sg76
(lp3377
g69
(g90
g71
NtRp3378
(dp3379
g74
(dp3380
g94
g95
ssg83
g3374
sg76
(lp3381
g167
asbag69
(g90
g71
NtRp3382
(dp3383
g74
(dp3384
g101
g102
ssg83
g3374
sg76
(lp3385
S':'
asbag69
(g90
g71
NtRp3386
(dp3387
g74
(dp3388
sg83
g3374
sg76
(lp3389
g69
(g70
g71
NtRp3390
(dp3391
g74
(dp3392
g82
I5
ssg83
g3386
sg76
(lp3393
S'<cStringIO.StringO object at 0x08039380>'
p3394
asbasbasbag69
(g85
g71
NtRp3395
(dp3396
g74
(dp3397
sg83
g3370
sg76
(lp3398
g69
(g90
g71
NtRp3399
(dp3400
g74
(dp3401
g94
g95
ssg83
g3395
sg76
(lp3402
g233
asbag69
(g90
g71
NtRp3403
(dp3404
g74
(dp3405
g101
g102
ssg83
g3395
sg76
(lp3406
S':'
asbag69
(g90
g71
NtRp3407
(dp3408
g74
(dp3409
sg83
g3395
sg76
(lp3410
g69
(g70
g71
NtRp3411
(dp3412
g74
(dp3413
g82
I5
ssg83
g3407
sg76
(lp3414
g69
(g78
g71
NtRp3415
(dp3416
g74
(dp3417
g82
I4
ssg83
Nsg76
(lp3418
g69
(g85
g71
NtRp3419
(dp3420
g74
(dp3421
sg83
g3415
sg76
(lp3422
g69
(g90
g71
NtRp3423
(dp3424
g74
(dp3425
g94
g95
ssg83
g3419
sg76
(lp3426
S'session_id_init'
p3427
asbag69
(g90
g71
NtRp3428
(dp3429
g74
(dp3430
g101
g102
ssg83
g3419
sg76
(lp3431
S':'
asbag69
(g90
g71
NtRp3432
(dp3433
g74
(dp3434
sg83
g3419
sg76
(lp3435
g69
(g70
g71
NtRp3436
(dp3437
g74
(dp3438
g82
I4
ssg83
g3432
sg76
(lp3439
g69
(g78
g71
NtRp3440
(dp3441
g74
(dp3442
g82
I3
ssg83
Nsg76
(lp3443
g69
(g85
g71
NtRp3444
(dp3445
g74
(dp3446
sg83
g3440
sg76
(lp3447
g69
(g90
g71
NtRp3448
(dp3449
g74
(dp3450
g94
g95
ssg83
g3444
sg76
(lp3451
g283
asbag69
(g90
g71
NtRp3452
(dp3453
g74
(dp3454
g101
g102
ssg83
g3444
sg76
(lp3455
S':'
asbag69
(g90
g71
NtRp3456
(dp3457
g74
(dp3458
sg83
g3444
sg76
(lp3459
g69
(g70
g71
NtRp3460
(dp3461
g74
(dp3462
g82
I3
ssg83
g3456
sg76
(lp3463
S''
asbasbasbag69
(g85
g71
NtRp3464
(dp3465
g74
(dp3466
sg83
g3440
sg76
(lp3467
g69
(g90
g71
NtRp3468
(dp3469
g74
(dp3470
g94
g95
ssg83
g3464
sg76
(lp3471
g304
asbag69
(g90
g71
NtRp3472
(dp3473
g74
(dp3474
g101
g102
ssg83
g3464
sg76
(lp3475
S':'
asbag69
(g90
g71
NtRp3476
(dp3477
g74
(dp3478
sg83
g3464
sg76
(lp3479
g69
(g70
g71
NtRp3480
(dp3481
g74
(dp3482
g82
I3
ssg83
g3476
sg76
(lp3483
S''
asbasbasbag69
(g85
g71
NtRp3484
(dp3485
g74
(dp3486
sg83
g3440
sg76
(lp3487
g69
(g90
g71
NtRp3488
(dp3489
g74
(dp3490
g94
g95
ssg83
g3484
sg76
(lp3491
g325
asbag69
(g90
g71
NtRp3492
(dp3493
g74
(dp3494
g101
g102
ssg83
g3484
sg76
(lp3495
S':'
asbag69
(g90
g71
NtRp3496
(dp3497
g74
(dp3498
sg83
g3484
sg76
(lp3499
g69
(g70
g71
NtRp3500
(dp3501
g74
(dp3502
g82
I3
ssg83
g3496
sg76
(lp3503
S''
asbasbasbag69
(g85
g71
NtRp3504
(dp3505
g74
(dp3506
sg83
g3440
sg76
(lp3507
g69
(g90
g71
NtRp3508
(dp3509
g74
(dp3510
g94
g95
ssg83
g3504
sg76
(lp3511
g346
asbag69
(g90
g71
NtRp3512
(dp3513
g74
(dp3514
g101
g102
ssg83
g3504
sg76
(lp3515
S':'
asbag69
(g90
g71
NtRp3516
(dp3517
g74
(dp3518
sg83
g3504
sg76
(lp3519
g69
(g70
g71
NtRp3520
(dp3521
g74
(dp3522
g82
I3
ssg83
g3516
sg76
(lp3523
S''
asbasbasbag69
(g85
g71
NtRp3524
(dp3525
g74
(dp3526
sg83
g3440
sg76
(lp3527
g69
(g90
g71
NtRp3528
(dp3529
g74
(dp3530
g94
g95
ssg83
g3524
sg76
(lp3531
g367
asbag69
(g90
g71
NtRp3532
(dp3533
g74
(dp3534
g101
g102
ssg83
g3524
sg76
(lp3535
S':'
asbag69
(g90
g71
NtRp3536
(dp3537
g74
(dp3538
sg83
g3524
sg76
(lp3539
g69
(g70
g71
NtRp3540
(dp3541
g74
(dp3542
g82
I3
ssg83
g3536
sg76
(lp3543
S''
asbasbasbag69
(g85
g71
NtRp3544
(dp3545
g74
(dp3546
sg83
g3440
sg76
(lp3547
g69
(g90
g71
NtRp3548
(dp3549
g74
(dp3550
g94
g95
ssg83
g3544
sg76
(lp3551
g388
asbag69
(g90
g71
NtRp3552
(dp3553
g74
(dp3554
g101
g102
ssg83
g3544
sg76
(lp3555
S':'
asbag69
(g90
g71
NtRp3556
(dp3557
g74
(dp3558
sg83
g3544
sg76
(lp3559
g69
(g70
g71
NtRp3560
(dp3561
g74
(dp3562
g82
I3
ssg83
g3556
sg76
(lp3563
S'/'
asbasbasbag69
(g85
g71
NtRp3564
(dp3565
g74
(dp3566
sg83
g3440
sg76
(lp3567
g69
(g90
g71
NtRp3568
(dp3569
g74
(dp3570
g94
g95
ssg83
g3564
sg76
(lp3571
g409
asbag69
(g90
g71
NtRp3572
(dp3573
g74
(dp3574
g101
g102
ssg83
g3564
sg76
(lp3575
S':'
asbag69
(g90
g71
NtRp3576
(dp3577
g74
(dp3578
sg83
g3564
sg76
(lp3579
g69
(g70
g71
NtRp3580
(dp3581
g74
(dp3582
g82
I3
ssg83
g3576
sg76
(lp3583
S''
asbasbasbag69
(g85
g71
NtRp3584
(dp3585
g74
(dp3586
sg83
g3440
sg76
(lp3587
g69
(g90
g71
NtRp3588
(dp3589
g74
(dp3590
g94
g95
ssg83
g3584
sg76
(lp3591
g430
asbag69
(g90
g71
NtRp3592
(dp3593
g74
(dp3594
g101
g102
ssg83
g3584
sg76
(lp3595
S':'
asbag69
(g90
g71
NtRp3596
(dp3597
g74
(dp3598
sg83
g3584
sg76
(lp3599
g69
(g70
g71
NtRp3600
(dp3601
g74
(dp3602
g82
I3
ssg83
g3596
sg76
(lp3603
S''
asbasbasbasbasbasbasbasbasbasbasbag69
(g85
g71
NtRp3604
(dp3605
g74
(dp3606
sg83
g3370
sg76
(lp3607
g69
(g90
g71
NtRp3608
(dp3609
g74
(dp3610
g94
g95
ssg83
g3604
sg76
(lp3611
S'files'
p3612
asbag69
(g90
g71
NtRp3613
(dp3614
g74
(dp3615
g101
g102
ssg83
g3604
sg76
(lp3616
S':'
asbag69
(g90
g71
NtRp3617
(dp3618
g74
(dp3619
sg83
g3604
sg76
(lp3620
g69
(g70
g71
NtRp3621
(dp3622
g74
(dp3623
g82
I5
ssg83
g3617
sg76
(lp3624
g69
(g78
g71
NtRp3625
(dp3626
g74
(dp3627
g82
I4
ssg83
Nsg76
(lp3628
sbasbasbasbag69
(g85
g71
NtRp3629
(dp3630
g74
(dp3631
sg83
g3370
sg76
(lp3632
g69
(g90
g71
NtRp3633
(dp3634
g74
(dp3635
g94
g95
ssg83
g3629
sg76
(lp3636
S'flash'
p3637
asbag69
(g90
g71
NtRp3638
(dp3639
g74
(dp3640
g101
g102
ssg83
g3629
sg76
(lp3641
S':'
asbag69
(g90
g71
NtRp3642
(dp3643
g74
(dp3644
sg83
g3629
sg76
(lp3645
g69
(g70
g71
NtRp3646
(dp3647
g74
(dp3648
g82
I5
ssg83
g3642
sg76
(lp3649
S''
asbasbasbag69
(g85
g71
NtRp3650
(dp3651
g74
(dp3652
sg83
g3370
sg76
(lp3653
g69
(g90
g71
NtRp3654
(dp3655
g74
(dp3656
g94
g95
ssg83
g3650
sg76
(lp3657
S'generic_patterns'
p3658
asbag69
(g90
g71
NtRp3659
(dp3660
g74
(dp3661
g101
g102
ssg83
g3650
sg76
(lp3662
S':'
asbag69
(g90
g71
NtRp3663
(dp3664
g74
(dp3665
sg83
g3650
sg76
(lp3666
g69
(g70
g71
NtRp3667
(dp3668
g74
(dp3669
g82
I5
ssg83
g3663
sg76
(lp3670
g69
(g78
g71
NtRp3671
(dp3672
g74
(dp3673
g82
I4
ssg83
Nsg76
(lp3674
g69
(g85
g71
NtRp3675
(dp3676
g74
(dp3677
sg83
g3671
sg76
(lp3678
g69
(g90
g71
NtRp3679
(dp3680
g74
(dp3681
sg83
g3675
sg76
(lp3682
g69
(g70
g71
NtRp3683
(dp3684
g74
(dp3685
g82
I4
ssg83
g3679
sg76
(lp3686
S'*'
asbasbasbasbasbasbasbag69
(g85
g71
NtRp3687
(dp3688
g74
(dp3689
sg83
g3370
sg76
(lp3690
g69
(g90
g71
NtRp3691
(dp3692
g74
(dp3693
g94
g95
ssg83
g3687
sg76
(lp3694
S'headers'
p3695
asbag69
(g90
g71
NtRp3696
(dp3697
g74
(dp3698
g101
g102
ssg83
g3687
sg76
(lp3699
S':'
asbag69
(g90
g71
NtRp3700
(dp3701
g74
(dp3702
sg83
g3687
sg76
(lp3703
g69
(g70
g71
NtRp3704
(dp3705
g74
(dp3706
g82
I5
ssg83
g3700
sg76
(lp3707
g69
(g78
g71
NtRp3708
(dp3709
g74
(dp3710
g82
I4
ssg83
Nsg76
(lp3711
g69
(g85
g71
NtRp3712
(dp3713
g74
(dp3714
sg83
g3708
sg76
(lp3715
g69
(g90
g71
NtRp3716
(dp3717
g74
(dp3718
g94
g95
ssg83
g3712
sg76
(lp3719
S'Cache-Control'
p3720
asbag69
(g90
g71
NtRp3721
(dp3722
g74
(dp3723
g101
g102
ssg83
g3712
sg76
(lp3724
S':'
asbag69
(g90
g71
NtRp3725
(dp3726
g74
(dp3727
sg83
g3712
sg76
(lp3728
g69
(g70
g71
NtRp3729
(dp3730
g74
(dp3731
g82
I4
ssg83
g3725
sg76
(lp3732
S'no-store, no-cache, must-revalidate, post-check=0, pre-check=0'
p3733
asbasbasbag69
(g85
g71
NtRp3734
(dp3735
g74
(dp3736
sg83
g3708
sg76
(lp3737
g69
(g90
g71
NtRp3738
(dp3739
g74
(dp3740
g94
g95
ssg83
g3734
sg76
(lp3741
S'Content-Type'
p3742
asbag69
(g90
g71
NtRp3743
(dp3744
g74
(dp3745
g101
g102
ssg83
g3734
sg76
(lp3746
S':'
asbag69
(g90
g71
NtRp3747
(dp3748
g74
(dp3749
sg83
g3734
sg76
(lp3750
g69
(g70
g71
NtRp3751
(dp3752
g74
(dp3753
g82
I4
ssg83
g3747
sg76
(lp3754
S'text/html; charset=utf-8'
p3755
asbasbasbag69
(g85
g71
NtRp3756
(dp3757
g74
(dp3758
sg83
g3708
sg76
(lp3759
g69
(g90
g71
NtRp3760
(dp3761
g74
(dp3762
g94
g95
ssg83
g3756
sg76
(lp3763
S'Expires'
p3764
asbag69
(g90
g71
NtRp3765
(dp3766
g74
(dp3767
g101
g102
ssg83
g3756
sg76
(lp3768
S':'
asbag69
(g90
g71
NtRp3769
(dp3770
g74
(dp3771
sg83
g3756
sg76
(lp3772
g69
(g70
g71
NtRp3773
(dp3774
g74
(dp3775
g82
I4
ssg83
g3769
sg76
(lp3776
S'Sun, 20 Nov 2011 04:58:44 GMT'
p3777
asbasbasbag69
(g85
g71
NtRp3778
(dp3779
g74
(dp3780
sg83
g3708
sg76
(lp3781
g69
(g90
g71
NtRp3782
(dp3783
g74
(dp3784
g94
g95
ssg83
g3778
sg76
(lp3785
S'Pragma'
p3786
asbag69
(g90
g71
NtRp3787
(dp3788
g74
(dp3789
g101
g102
ssg83
g3778
sg76
(lp3790
S':'
asbag69
(g90
g71
NtRp3791
(dp3792
g74
(dp3793
sg83
g3778
sg76
(lp3794
g69
(g70
g71
NtRp3795
(dp3796
g74
(dp3797
g82
I4
ssg83
g3791
sg76
(lp3798
S'no-cache'
p3799
asbasbasbag69
(g85
g71
NtRp3800
(dp3801
g74
(dp3802
sg83
g3708
sg76
(lp3803
g69
(g90
g71
NtRp3804
(dp3805
g74
(dp3806
g94
g95
ssg83
g3800
sg76
(lp3807
S'X-Powered-By'
p3808
asbag69
(g90
g71
NtRp3809
(dp3810
g74
(dp3811
g101
g102
ssg83
g3800
sg76
(lp3812
S':'
asbag69
(g90
g71
NtRp3813
(dp3814
g74
(dp3815
sg83
g3800
sg76
(lp3816
g69
(g70
g71
NtRp3817
(dp3818
g74
(dp3819
g82
I4
ssg83
g3813
sg76
(lp3820
S'web2py'
p3821
asbasbasbasbasbasbasbag69
(g85
g71
NtRp3822
(dp3823
g74
(dp3824
sg83
g3370
sg76
(lp3825
g69
(g90
g71
NtRp3826
(dp3827
g74
(dp3828
g94
g95
ssg83
g3822
sg76
(lp3829
S'menu'
p3830
asbag69
(g90
g71
NtRp3831
(dp3832
g74
(dp3833
g101
g102
ssg83
g3822
sg76
(lp3834
S':'
asbag69
(g90
g71
NtRp3835
(dp3836
g74
(dp3837
sg83
g3822
sg76
(lp3838
g69
(g70
g71
NtRp3839
(dp3840
g74
(dp3841
g82
I5
ssg83
g3835
sg76
(lp3842
g69
(g78
g71
NtRp3843
(dp3844
g74
(dp3845
g82
I4
ssg83
Nsg76
(lp3846
g69
(g85
g71
NtRp3847
(dp3848
g74
(dp3849
sg83
g3843
sg76
(lp3850
g69
(g90
g71
NtRp3851
(dp3852
g74
(dp3853
sg83
g3847
sg76
(lp3854
g69
(g70
g71
NtRp3855
(dp3856
g74
(dp3857
g82
I4
ssg83
g3851
sg76
(lp3858
g69
(g78
g71
NtRp3859
(dp3860
g74
(dp3861
g82
I3
ssg83
Nsg76
(lp3862
g69
(g85
g71
NtRp3863
(dp3864
g74
(dp3865
sg83
g3859
sg76
(lp3866
g69
(g90
g71
NtRp3867
(dp3868
g74
(dp3869
sg83
g3863
sg76
(lp3870
g69
(g70
g71
NtRp3871
(dp3872
g74
(dp3873
g82
I3
ssg83
g3867
sg76
(lp3874
cgluon.languages
lazyT_unpickle
p3875
(S't\x04\x00\x00\x00Home'
tRp3876
asbasbasbag69
(g85
g71
NtRp3877
(dp3878
g74
(dp3879
sg83
g3859
sg76
(lp3880
g69
(g90
g71
NtRp3881
(dp3882
g74
(dp3883
sg83
g3877
sg76
(lp3884
g69
(g70
g71
NtRp3885
(dp3886
g74
(dp3887
g82
I3
ssg83
g3881
sg76
(lp3888
g112
asbasbasbag69
(g85
g71
NtRp3889
(dp3890
g74
(dp3891
sg83
g3859
sg76
(lp3892
g69
(g90
g71
NtRp3893
(dp3894
g74
(dp3895
sg83
g3889
sg76
(lp3896
g69
(g70
g71
NtRp3897
(dp3898
g74
(dp3899
g82
I3
ssg83
g3893
sg76
(lp3900
S'/init/default/index'
p3901
asbasbasbag69
(g85
g71
NtRp3902
(dp3903
g74
(dp3904
sg83
g3859
sg76
(lp3905
g69
(g90
g71
NtRp3906
(dp3907
g74
(dp3908
sg83
g3902
sg76
(lp3909
g69
(g70
g71
NtRp3910
(dp3911
g74
(dp3912
g82
I3
ssg83
g3906
sg76
(lp3913
g69
(g78
g71
NtRp3914
(dp3915
g74
(dp3916
g82
I2
ssg83
Nsg76
(lp3917
sbasbasbasbasbasbasbasbag69
(g85
g71
NtRp3918
(dp3919
g74
(dp3920
sg83
g3843
sg76
(lp3921
g69
(g90
g71
NtRp3922
(dp3923
g74
(dp3924
sg83
g3918
sg76
(lp3925
g69
(g70
g71
NtRp3926
(dp3927
g74
(dp3928
g82
I4
ssg83
g3922
sg76
(lp3929
g69
(g78
g71
NtRp3930
(dp3931
g74
(dp3932
g82
I3
ssg83
Nsg76
(lp3933
g69
(g85
g71
NtRp3934
(dp3935
g74
(dp3936
sg83
g3930
sg76
(lp3937
g69
(g90
g71
NtRp3938
(dp3939
g74
(dp3940
sg83
g3934
sg76
(lp3941
g69
(g70
g71
NtRp3942
(dp3943
g74
(dp3944
g82
I3
ssg83
g3938
sg76
(lp3945
g3875
(S's\x08\x00\x00\x00This App'
tRp3946
asbasbasbag69
(g85
g71
NtRp3947
(dp3948
g74
(dp3949
sg83
g3930
sg76
(lp3950
g69
(g90
g71
NtRp3951
(dp3952
g74
(dp3953
sg83
g3947
sg76
(lp3954
g69
(g70
g71
NtRp3955
(dp3956
g74
(dp3957
g82
I3
ssg83
g3951
sg76
(lp3958
g112
asbasbasbag69
(g85
g71
NtRp3959
(dp3960
g74
(dp3961
sg83
g3930
sg76
(lp3962
g69
(g90
g71
NtRp3963
(dp3964
g74
(dp3965
sg83
g3959
sg76
(lp3966
g69
(g70
g71
NtRp3967
(dp3968
g74
(dp3969
g82
I3
ssg83
g3963
sg76
(lp3970
S'/admin/default/design/init'
p3971
asbasbasbag69
(g85
g71
NtRp3972
(dp3973
g74
(dp3974
sg83
g3930
sg76
(lp3975
g69
(g90
g71
NtRp3976
(dp3977
g74
(dp3978
sg83
g3972
sg76
(lp3979
g69
(g70
g71
NtRp3980
(dp3981
g74
(dp3982
g82
I3
ssg83
g3976
sg76
(lp3983
g69
(g78
g71
NtRp3984
(dp3985
g74
(dp3986
g82
I2
ssg83
Nsg76
(lp3987
g69
(g85
g71
NtRp3988
(dp3989
g74
(dp3990
sg83
g3984
sg76
(lp3991
g69
(g90
g71
NtRp3992
(dp3993
g74
(dp3994
sg83
g3988
sg76
(lp3995
g69
(g70
g71
NtRp3996
(dp3997
g74
(dp3998
g82
I2
ssg83
g3992
sg76
(lp3999
g69
(g78
g71
NtRp4000
(dp4001
g74
(dp4002
g82
I1
ssg83
Nsg76
(lp4003
g69
(g85
g71
NtRp4004
(dp4005
g74
(dp4006
sg83
g4000
sg76
(lp4007
g69
(g90
g71
NtRp4008
(dp4009
g74
(dp4010
sg83
g4004
sg76
(lp4011
g69
(g70
g71
NtRp4012
(dp4013
g74
(dp4014
g82
I1
ssg83
g4008
sg76
(lp4015
g3875
(S't\n\x00\x00\x00Controller'
tRp4016
asbasbasbag69
(g85
g71
NtRp4017
(dp4018
g74
(dp4019
sg83
g4000
sg76
(lp4020
g69
(g90
g71
NtRp4021
(dp4022
g74
(dp4023
sg83
g4017
sg76
(lp4024
g69
(g70
g71
NtRp4025
(dp4026
g74
(dp4027
g82
I1
ssg83
g4021
sg76
(lp4028
I00
asbasbasbag69
(g85
g71
NtRp4029
(dp4030
g74
(dp4031
sg83
g4000
sg76
(lp4032
g69
(g90
g71
NtRp4033
(dp4034
g74
(dp4035
sg83
g4029
sg76
(lp4036
g69
(g70
g71
NtRp4037
(dp4038
g74
(dp4039
g82
I1
ssg83
g4033
sg76
(lp4040
S'/admin/default/edit/init/controllers/default.py'
p4041
asbasbasbasbasbasbasbag69
(g85
g71
NtRp4042
(dp4043
g74
(dp4044
sg83
g3984
sg76
(lp4045
g69
(g90
g71
NtRp4046
(dp4047
g74
(dp4048
sg83
g4042
sg76
(lp4049
g69
(g70
g71
NtRp4050
(dp4051
g74
(dp4052
g82
I2
ssg83
g4046
sg76
(lp4053
g69
(g78
g71
NtRp4054
(dp4055
g74
(dp4056
g82
I1
ssg83
Nsg76
(lp4057
g69
(g85
g71
NtRp4058
(dp4059
g74
(dp4060
sg83
g4054
sg76
(lp4061
g69
(g90
g71
NtRp4062
(dp4063
g74
(dp4064
sg83
g4058
sg76
(lp4065
g69
(g70
g71
NtRp4066
(dp4067
g74
(dp4068
g82
I1
ssg83
g4062
sg76
(lp4069
g3875
(S't\x04\x00\x00\x00View'
tRp4070
asbasbasbag69
(g85
g71
NtRp4071
(dp4072
g74
(dp4073
sg83
g4054
sg76
(lp4074
g69
(g90
g71
NtRp4075
(dp4076
g74
(dp4077
sg83
g4071
sg76
(lp4078
g69
(g70
g71
NtRp4079
(dp4080
g74
(dp4081
g82
I1
ssg83
g4075
sg76
(lp4082
I00
asbasbasbag69
(g85
g71
NtRp4083
(dp4084
g74
(dp4085
sg83
g4054
sg76
(lp4086
g69
(g90
g71
NtRp4087
(dp4088
g74
(dp4089
sg83
g4083
sg76
(lp4090
g69
(g70
g71
NtRp4091
(dp4092
g74
(dp4093
g82
I1
ssg83
g4087
sg76
(lp4094
S'/admin/default/edit/init/views/default/challenge.html'
p4095
asbasbasbasbasbasbasbag69
(g85
g71
NtRp4096
(dp4097
g74
(dp4098
sg83
g3984
sg76
(lp4099
g69
(g90
g71
NtRp4100
(dp4101
g74
(dp4102
sg83
g4096
sg76
(lp4103
g69
(g70
g71
NtRp4104
(dp4105
g74
(dp4106
g82
I2
ssg83
g4100
sg76
(lp4107
g69
(g78
g71
NtRp4108
(dp4109
g74
(dp4110
g82
I1
ssg83
Nsg76
(lp4111
g69
(g85
g71
NtRp4112
(dp4113
g74
(dp4114
sg83
g4108
sg76
(lp4115
g69
(g90
g71
NtRp4116
(dp4117
g74
(dp4118
sg83
g4112
sg76
(lp4119
g69
(g70
g71
NtRp4120
(dp4121
g74
(dp4122
g82
I1
ssg83
g4116
sg76
(lp4123
g3875
(S't\x06\x00\x00\x00Layout'
tRp4124
asbasbasbag69
(g85
g71
NtRp4125
(dp4126
g74
(dp4127
sg83
g4108
sg76
(lp4128
g69
(g90
g71
NtRp4129
(dp4130
g74
(dp4131
sg83
g4125
sg76
(lp4132
g69
(g70
g71
NtRp4133
(dp4134
g74
(dp4135
g82
I1
ssg83
g4129
sg76
(lp4136
I00
asbasbasbag69
(g85
g71
NtRp4137
(dp4138
g74
(dp4139
sg83
g4108
sg76
(lp4140
g69
(g90
g71
NtRp4141
(dp4142
g74
(dp4143
sg83
g4137
sg76
(lp4144
g69
(g70
g71
NtRp4145
(dp4146
g74
(dp4147
g82
I1
ssg83
g4141
sg76
(lp4148
S'/admin/default/edit/init/views/layout.html'
p4149
asbasbasbasbasbasbasbag69
(g85
g71
NtRp4150
(dp4151
g74
(dp4152
sg83
g3984
sg76
(lp4153
g69
(g90
g71
NtRp4154
(dp4155
g74
(dp4156
sg83
g4150
sg76
(lp4157
g69
(g70
g71
NtRp4158
(dp4159
g74
(dp4160
g82
I2
ssg83
g4154
sg76
(lp4161
g69
(g78
g71
NtRp4162
(dp4163
g74
(dp4164
g82
I1
ssg83
Nsg76
(lp4165
g69
(g85
g71
NtRp4166
(dp4167
g74
(dp4168
sg83
g4162
sg76
(lp4169
g69
(g90
g71
NtRp4170
(dp4171
g74
(dp4172
sg83
g4166
sg76
(lp4173
g69
(g70
g71
NtRp4174
(dp4175
g74
(dp4176
g82
I1
ssg83
g4170
sg76
(lp4177
g3875
(S't\n\x00\x00\x00Stylesheet'
tRp4178
asbasbasbag69
(g85
g71
NtRp4179
(dp4180
g74
(dp4181
sg83
g4162
sg76
(lp4182
g69
(g90
g71
NtRp4183
(dp4184
g74
(dp4185
sg83
g4179
sg76
(lp4186
g69
(g70
g71
NtRp4187
(dp4188
g74
(dp4189
g82
I1
ssg83
g4183
sg76
(lp4190
I00
asbasbasbag69
(g85
g71
NtRp4191
(dp4192
g74
(dp4193
sg83
g4162
sg76
(lp4194
g69
(g90
g71
NtRp4195
(dp4196
g74
(dp4197
sg83
g4191
sg76
(lp4198
g69
(g70
g71
NtRp4199
(dp4200
g74
(dp4201
g82
I1
ssg83
g4195
sg76
(lp4202
S'/admin/default/edit/init/static/base.css'
p4203
asbasbasbasbasbasbasbag69
(g85
g71
NtRp4204
(dp4205
g74
(dp4206
sg83
g3984
sg76
(lp4207
g69
(g90
g71
NtRp4208
(dp4209
g74
(dp4210
sg83
g4204
sg76
(lp4211
g69
(g70
g71
NtRp4212
(dp4213
g74
(dp4214
g82
I2
ssg83
g4208
sg76
(lp4215
g69
(g78
g71
NtRp4216
(dp4217
g74
(dp4218
g82
I1
ssg83
Nsg76
(lp4219
g69
(g85
g71
NtRp4220
(dp4221
g74
(dp4222
sg83
g4216
sg76
(lp4223
g69
(g90
g71
NtRp4224
(dp4225
g74
(dp4226
sg83
g4220
sg76
(lp4227
g69
(g70
g71
NtRp4228
(dp4229
g74
(dp4230
g82
I1
ssg83
g4224
sg76
(lp4231
g3875
(S's\x08\x00\x00\x00DB Model'
tRp4232
asbasbasbag69
(g85
g71
NtRp4233
(dp4234
g74
(dp4235
sg83
g4216
sg76
(lp4236
g69
(g90
g71
NtRp4237
(dp4238
g74
(dp4239
sg83
g4233
sg76
(lp4240
g69
(g70
g71
NtRp4241
(dp4242
g74
(dp4243
g82
I1
ssg83
g4237
sg76
(lp4244
I00
asbasbasbag69
(g85
g71
NtRp4245
(dp4246
g74
(dp4247
sg83
g4216
sg76
(lp4248
g69
(g90
g71
NtRp4249
(dp4250
g74
(dp4251
sg83
g4245
sg76
(lp4252
g69
(g70
g71
NtRp4253
(dp4254
g74
(dp4255
g82
I1
ssg83
g4249
sg76
(lp4256
S'/admin/default/edit/init/models/db.py'
p4257
asbasbasbasbasbasbasbag69
(g85
g71
NtRp4258
(dp4259
g74
(dp4260
sg83
g3984
sg76
(lp4261
g69
(g90
g71
NtRp4262
(dp4263
g74
(dp4264
sg83
g4258
sg76
(lp4265
g69
(g70
g71
NtRp4266
(dp4267
g74
(dp4268
g82
I2
ssg83
g4262
sg76
(lp4269
g69
(g78
g71
NtRp4270
(dp4271
g74
(dp4272
g82
I1
ssg83
Nsg76
(lp4273
g69
(g85
g71
NtRp4274
(dp4275
g74
(dp4276
sg83
g4270
sg76
(lp4277
g69
(g90
g71
NtRp4278
(dp4279
g74
(dp4280
sg83
g4274
sg76
(lp4281
g69
(g70
g71
NtRp4282
(dp4283
g74
(dp4284
g82
I1
ssg83
g4278
sg76
(lp4285
g3875
(S's\n\x00\x00\x00Menu Model'
tRp4286
asbasbasbag69
(g85
g71
NtRp4287
(dp4288
g74
(dp4289
sg83
g4270
sg76
(lp4290
g69
(g90
g71
NtRp4291
(dp4292
g74
(dp4293
sg83
g4287
sg76
(lp4294
g69
(g70
g71
NtRp4295
(dp4296
g74
(dp4297
g82
I1
ssg83
g4291
sg76
(lp4298
I00
asbasbasbag69
(g85
g71
NtRp4299
(dp4300
g74
(dp4301
sg83
g4270
sg76
(lp4302
g69
(g90
g71
NtRp4303
(dp4304
g74
(dp4305
sg83
g4299
sg76
(lp4306
g69
(g70
g71
NtRp4307
(dp4308
g74
(dp4309
g82
I1
ssg83
g4303
sg76
(lp4310
S'/admin/default/edit/init/models/menu.py'
p4311
asbasbasbasbasbasbasbag69
(g85
g71
NtRp4312
(dp4313
g74
(dp4314
sg83
g3984
sg76
(lp4315
g69
(g90
g71
NtRp4316
(dp4317
g74
(dp4318
sg83
g4312
sg76
(lp4319
g69
(g70
g71
NtRp4320
(dp4321
g74
(dp4322
g82
I2
ssg83
g4316
sg76
(lp4323
g69
(g78
g71
NtRp4324
(dp4325
g74
(dp4326
g82
I1
ssg83
Nsg76
(lp4327
g69
(g85
g71
NtRp4328
(dp4329
g74
(dp4330
sg83
g4324
sg76
(lp4331
g69
(g90
g71
NtRp4332
(dp4333
g74
(dp4334
sg83
g4328
sg76
(lp4335
g69
(g70
g71
NtRp4336
(dp4337
g74
(dp4338
g82
I1
ssg83
g4332
sg76
(lp4339
g3875
(S't\x08\x00\x00\x00Database'
tRp4340
asbasbasbag69
(g85
g71
NtRp4341
(dp4342
g74
(dp4343
sg83
g4324
sg76
(lp4344
g69
(g90
g71
NtRp4345
(dp4346
g74
(dp4347
sg83
g4341
sg76
(lp4348
g69
(g70
g71
NtRp4349
(dp4350
g74
(dp4351
g82
I1
ssg83
g4345
sg76
(lp4352
I00
asbasbasbag69
(g85
g71
NtRp4353
(dp4354
g74
(dp4355
sg83
g4324
sg76
(lp4356
g69
(g90
g71
NtRp4357
(dp4358
g74
(dp4359
sg83
g4353
sg76
(lp4360
g69
(g70
g71
NtRp4361
(dp4362
g74
(dp4363
g82
I1
ssg83
g4357
sg76
(lp4364
S'/init/appadmin/index'
p4365
asbasbasbasbasbasbasbag69
(g85
g71
NtRp4366
(dp4367
g74
(dp4368
sg83
g3984
sg76
(lp4369
g69
(g90
g71
NtRp4370
(dp4371
g74
(dp4372
sg83
g4366
sg76
(lp4373
g69
(g70
g71
NtRp4374
(dp4375
g74
(dp4376
g82
I2
ssg83
g4370
sg76
(lp4377
g69
(g78
g71
NtRp4378
(dp4379
g74
(dp4380
g82
I1
ssg83
Nsg76
(lp4381
g69
(g85
g71
NtRp4382
(dp4383
g74
(dp4384
sg83
g4378
sg76
(lp4385
g69
(g90
g71
NtRp4386
(dp4387
g74
(dp4388
sg83
g4382
sg76
(lp4389
g69
(g70
g71
NtRp4390
(dp4391
g74
(dp4392
g82
I1
ssg83
g4386
sg76
(lp4393
g3875
(S't\x06\x00\x00\x00Errors'
tRp4394
asbasbasbag69
(g85
g71
NtRp4395
(dp4396
g74
(dp4397
sg83
g4378
sg76
(lp4398
g69
(g90
g71
NtRp4399
(dp4400
g74
(dp4401
sg83
g4395
sg76
(lp4402
g69
(g70
g71
NtRp4403
(dp4404
g74
(dp4405
g82
I1
ssg83
g4399
sg76
(lp4406
I00
asbasbasbag69
(g85
g71
NtRp4407
(dp4408
g74
(dp4409
sg83
g4378
sg76
(lp4410
g69
(g90
g71
NtRp4411
(dp4412
g74
(dp4413
sg83
g4407
sg76
(lp4414
g69
(g70
g71
NtRp4415
(dp4416
g74
(dp4417
g82
I1
ssg83
g4411
sg76
(lp4418
S'/admin/default/errors/init'
p4419
asbasbasbasbasbasbasbag69
(g85
g71
NtRp4420
(dp4421
g74
(dp4422
sg83
g3984
sg76
(lp4423
g69
(g90
g71
NtRp4424
(dp4425
g74
(dp4426
sg83
g4420
sg76
(lp4427
g69
(g70
g71
NtRp4428
(dp4429
g74
(dp4430
g82
I2
ssg83
g4424
sg76
(lp4431
g69
(g78
g71
NtRp4432
(dp4433
g74
(dp4434
g82
I1
ssg83
Nsg76
(lp4435
g69
(g85
g71
NtRp4436
(dp4437
g74
(dp4438
sg83
g4432
sg76
(lp4439
g69
(g90
g71
NtRp4440
(dp4441
g74
(dp4442
sg83
g4436
sg76
(lp4443
g69
(g70
g71
NtRp4444
(dp4445
g74
(dp4446
g82
I1
ssg83
g4440
sg76
(lp4447
g3875
(S't\x05\x00\x00\x00About'
tRp4448
asbasbasbag69
(g85
g71
NtRp4449
(dp4450
g74
(dp4451
sg83
g4432
sg76
(lp4452
g69
(g90
g71
NtRp4453
(dp4454
g74
(dp4455
sg83
g4449
sg76
(lp4456
g69
(g70
g71
NtRp4457
(dp4458
g74
(dp4459
g82
I1
ssg83
g4453
sg76
(lp4460
I00
asbasbasbag69
(g85
g71
NtRp4461
(dp4462
g74
(dp4463
sg83
g4432
sg76
(lp4464
g69
(g90
g71
NtRp4465
(dp4466
g74
(dp4467
sg83
g4461
sg76
(lp4468
g69
(g70
g71
NtRp4469
(dp4470
g74
(dp4471
g82
I1
ssg83
g4465
sg76
(lp4472
S'/admin/default/about/init'
p4473
asbasbasbasbasbasbasbasbasbasbasbasbasbasbasbag69
(g85
g71
NtRp4474
(dp4475
g74
(dp4476
sg83
g3843
sg76
(lp4477
g69
(g90
g71
NtRp4478
(dp4479
g74
(dp4480
sg83
g4474
sg76
(lp4481
g69
(g70
g71
NtRp4482
(dp4483
g74
(dp4484
g82
I4
ssg83
g4478
sg76
(lp4485
g69
(g78
g71
NtRp4486
(dp4487
g74
(dp4488
g82
I3
ssg83
Nsg76
(lp4489
g69
(g85
g71
NtRp4490
(dp4491
g74
(dp4492
sg83
g4486
sg76
(lp4493
g69
(g90
g71
NtRp4494
(dp4495
g74
(dp4496
sg83
g4490
sg76
(lp4497
g69
(g70
g71
NtRp4498
(dp4499
g74
(dp4500
g82
I3
ssg83
g4494
sg76
(lp4501
g3875
(S't\t\x00\x00\x00Resources'
tRp4502
asbasbasbag69
(g85
g71
NtRp4503
(dp4504
g74
(dp4505
sg83
g4486
sg76
(lp4506
g69
(g90
g71
NtRp4507
(dp4508
g74
(dp4509
sg83
g4503
sg76
(lp4510
g69
(g70
g71
NtRp4511
(dp4512
g74
(dp4513
g82
I3
ssg83
g4507
sg76
(lp4514
g112
asbasbasbag69
(g85
g71
NtRp4515
(dp4516
g74
(dp4517
sg83
g4486
sg76
(lp4518
g69
(g90
g71
NtRp4519
(dp4520
g74
(dp4521
sg83
g4515
sg76
(lp4522
g69
(g70
g71
NtRp4523
(dp4524
g74
(dp4525
g82
I3
ssg83
g4519
sg76
(lp4526
S'None'
p4527
asbasbasbag69
(g85
g71
NtRp4528
(dp4529
g74
(dp4530
sg83
g4486
sg76
(lp4531
g69
(g90
g71
NtRp4532
(dp4533
g74
(dp4534
sg83
g4528
sg76
(lp4535
g69
(g70
g71
NtRp4536
(dp4537
g74
(dp4538
g82
I3
ssg83
g4532
sg76
(lp4539
g69
(g78
g71
NtRp4540
(dp4541
g74
(dp4542
g82
I2
ssg83
Nsg76
(lp4543
g69
(g85
g71
NtRp4544
(dp4545
g74
(dp4546
sg83
g4540
sg76
(lp4547
g69
(g90
g71
NtRp4548
(dp4549
g74
(dp4550
sg83
g4544
sg76
(lp4551
g69
(g70
g71
NtRp4552
(dp4553
g74
(dp4554
g82
I2
ssg83
g4548
sg76
(lp4555
g69
(g78
g71
NtRp4556
(dp4557
g74
(dp4558
g82
I1
ssg83
Nsg76
(lp4559
g69
(g85
g71
NtRp4560
(dp4561
g74
(dp4562
sg83
g4556
sg76
(lp4563
g69
(g90
g71
NtRp4564
(dp4565
g74
(dp4566
sg83
g4560
sg76
(lp4567
g69
(g70
g71
NtRp4568
(dp4569
g74
(dp4570
g82
I1
ssg83
g4564
sg76
(lp4571
g3875
(S't\r\x00\x00\x00Documentation'
tRp4572
asbasbasbag69
(g85
g71
NtRp4573
(dp4574
g74
(dp4575
sg83
g4556
sg76
(lp4576
g69
(g90
g71
NtRp4577
(dp4578
g74
(dp4579
sg83
g4573
sg76
(lp4580
g69
(g70
g71
NtRp4581
(dp4582
g74
(dp4583
g82
I1
ssg83
g4577
sg76
(lp4584
I00
asbasbasbag69
(g85
g71
NtRp4585
(dp4586
g74
(dp4587
sg83
g4556
sg76
(lp4588
g69
(g90
g71
NtRp4589
(dp4590
g74
(dp4591
sg83
g4585
sg76
(lp4592
g69
(g70
g71
NtRp4593
(dp4594
g74
(dp4595
g82
I1
ssg83
g4589
sg76
(lp4596
S'http://www.web2py.com/book'
p4597
asbasbasbag69
(g85
g71
NtRp4598
(dp4599
g74
(dp4600
sg83
g4556
sg76
(lp4601
g69
(g90
g71
NtRp4602
(dp4603
g74
(dp4604
sg83
g4598
sg76
(lp4605
g69
(g70
g71
NtRp4606
(dp4607
g74
(dp4608
g82
I1
ssg83
g4602
sg76
(lp4609
(lp4610
(g3875
(S't\x07\x00\x00\x00Preface'
tRp4611
I00
S'http://www.web2py.com/book/default/chapter/00'
p4612
tp4613
a(g3875
(S't\x0c\x00\x00\x00Introduction'
tRp4614
I00
S'http://www.web2py.com/book/default/chapter/01'
p4615
tp4616
a(g3875
(S't\x06\x00\x00\x00Python'
tRp4617
I00
S'http://www.web2py.com/book/default/chapter/02'
p4618
tp4619
a(g3875
(S't\x08\x00\x00\x00Overview'
tRp4620
I00
S'http://www.web2py.com/book/default/chapter/03'
p4621
tp4622
a(g3875
(S's\x08\x00\x00\x00The Core'
tRp4623
I00
S'http://www.web2py.com/book/default/chapter/04'
p4624
tp4625
a(g3875
(S's\t\x00\x00\x00The Views'
tRp4626
I00
S'http://www.web2py.com/book/default/chapter/05'
p4627
tp4628
a(g3875
(S't\x08\x00\x00\x00Database'
tRp4629
I00
S'http://www.web2py.com/book/default/chapter/06'
p4630
tp4631
a(g3875
(S's\x14\x00\x00\x00Forms and Validators'
tRp4632
I00
S'http://www.web2py.com/book/default/chapter/07'
p4633
tp4634
a(g3875
(S's\x0e\x00\x00\x00Access Control'
tRp4635
I00
S'http://www.web2py.com/book/default/chapter/08'
p4636
tp4637
a(g3875
(S't\x08\x00\x00\x00Services'
tRp4638
I00
S'http://www.web2py.com/book/default/chapter/09'
p4639
tp4640
a(g3875
(S's\x0c\x00\x00\x00Ajax Recipes'
tRp4641
I00
S'http://www.web2py.com/book/default/chapter/10'
p4642
tp4643
a(g3875
(S's\x12\x00\x00\x00Deployment Recipes'
tRp4644
I00
S'http://www.web2py.com/book/default/chapter/11'
p4645
tp4646
a(g3875
(S's\r\x00\x00\x00Other Recipes'
tRp4647
I00
S'http://www.web2py.com/book/default/chapter/12'
p4648
tp4649
a(g3875
(S's\r\x00\x00\x00Buy this book'
tRp4650
I00
S'http://stores.lulu.com/web2py'
p4651
tp4652
aasbasbasbasbasbasbasbag69
(g85
g71
NtRp4653
(dp4654
g74
(dp4655
sg83
g4540
sg76
(lp4656
g69
(g90
g71
NtRp4657
(dp4658
g74
(dp4659
sg83
g4653
sg76
(lp4660
g69
(g70
g71
NtRp4661
(dp4662
g74
(dp4663
g82
I2
ssg83
g4657
sg76
(lp4664
g69
(g78
g71
NtRp4665
(dp4666
g74
(dp4667
g82
I1
ssg83
Nsg76
(lp4668
g69
(g85
g71
NtRp4669
(dp4670
g74
(dp4671
sg83
g4665
sg76
(lp4672
g69
(g90
g71
NtRp4673
(dp4674
g74
(dp4675
sg83
g4669
sg76
(lp4676
g69
(g70
g71
NtRp4677
(dp4678
g74
(dp4679
g82
I1
ssg83
g4673
sg76
(lp4680
g3875
(S't\t\x00\x00\x00Community'
tRp4681
asbasbasbag69
(g85
g71
NtRp4682
(dp4683
g74
(dp4684
sg83
g4665
sg76
(lp4685
g69
(g90
g71
NtRp4686
(dp4687
g74
(dp4688
sg83
g4682
sg76
(lp4689
g69
(g70
g71
NtRp4690
(dp4691
g74
(dp4692
g82
I1
ssg83
g4686
sg76
(lp4693
I00
asbasbasbag69
(g85
g71
NtRp4694
(dp4695
g74
(dp4696
sg83
g4665
sg76
(lp4697
g69
(g90
g71
NtRp4698
(dp4699
g74
(dp4700
sg83
g4694
sg76
(lp4701
g69
(g70
g71
NtRp4702
(dp4703
g74
(dp4704
g82
I1
ssg83
g4698
sg76
(lp4705
Nasbasbasbag69
(g85
g71
NtRp4706
(dp4707
g74
(dp4708
sg83
g4665
sg76
(lp4709
g69
(g90
g71
NtRp4710
(dp4711
g74
(dp4712
sg83
g4706
sg76
(lp4713
g69
(g70
g71
NtRp4714
(dp4715
g74
(dp4716
g82
I1
ssg83
g4710
sg76
(lp4717
(lp4718
(g3875
(S't\x06\x00\x00\x00Groups'
tRp4719
I00
S'http://www.web2py.com/examples/default/usergroups'
p4720
tp4721
a(g3875
(S't\x07\x00\x00\x00Twitter'
tRp4722
I00
S'http://twitter.com/web2py'
p4723
tp4724
a(g3875
(S's\t\x00\x00\x00Live chat'
tRp4725
I00
S'http://mibbit.com/?channel=%23web2py&server=irc.mibbit.net'
p4726
tp4727
a(g3875
(S's\n\x00\x00\x00User Voice'
tRp4728
I00
S'http://web2py.uservoice.com/'
p4729
tp4730
aasbasbasbasbasbasbasbag69
(g85
g71
NtRp4731
(dp4732
g74
(dp4733
sg83
g4540
sg76
(lp4734
g69
(g90
g71
NtRp4735
(dp4736
g74
(dp4737
sg83
g4731
sg76
(lp4738
g69
(g70
g71
NtRp4739
(dp4740
g74
(dp4741
g82
I2
ssg83
g4735
sg76
(lp4742
g69
(g78
g71
NtRp4743
(dp4744
g74
(dp4745
g82
I1
ssg83
Nsg76
(lp4746
g69
(g85
g71
NtRp4747
(dp4748
g74
(dp4749
sg83
g4743
sg76
(lp4750
g69
(g90
g71
NtRp4751
(dp4752
g74
(dp4753
sg83
g4747
sg76
(lp4754
g69
(g70
g71
NtRp4755
(dp4756
g74
(dp4757
g82
I1
ssg83
g4751
sg76
(lp4758
g3875
(S't\x06\x00\x00\x00Web2py'
tRp4759
asbasbasbag69
(g85
g71
NtRp4760
(dp4761
g74
(dp4762
sg83
g4743
sg76
(lp4763
g69
(g90
g71
NtRp4764
(dp4765
g74
(dp4766
sg83
g4760
sg76
(lp4767
g69
(g70
g71
NtRp4768
(dp4769
g74
(dp4770
g82
I1
ssg83
g4764
sg76
(lp4771
I00
asbasbasbag69
(g85
g71
NtRp4772
(dp4773
g74
(dp4774
sg83
g4743
sg76
(lp4775
g69
(g90
g71
NtRp4776
(dp4777
g74
(dp4778
sg83
g4772
sg76
(lp4779
g69
(g70
g71
NtRp4780
(dp4781
g74
(dp4782
g82
I1
ssg83
g4776
sg76
(lp4783
S'http://www.web2py.com'
p4784
asbasbasbag69
(g85
g71
NtRp4785
(dp4786
g74
(dp4787
sg83
g4743
sg76
(lp4788
g69
(g90
g71
NtRp4789
(dp4790
g74
(dp4791
sg83
g4785
sg76
(lp4792
g69
(g70
g71
NtRp4793
(dp4794
g74
(dp4795
g82
I1
ssg83
g4789
sg76
(lp4796
(lp4797
(g3875
(S't\x08\x00\x00\x00Download'
tRp4798
I00
S'http://www.web2py.com/examples/default/download'
p4799
tp4800
a(g3875
(S't\x07\x00\x00\x00Support'
tRp4801
I00
S'http://www.web2py.com/examples/default/support'
p4802
tp4803
a(g3875
(S's\x0e\x00\x00\x00Quick Examples'
tRp4804
I00
S'http://web2py.com/examples/default/examples'
p4805
tp4806
a(g3875
(S't\x03\x00\x00\x00FAQ'
tRp4807
I00
S'http://web2py.com/AlterEgo'
p4808
tp4809
a(g3875
(S's\x11\x00\x00\x00Free Applications'
tRp4810
I00
S'http://web2py.com/appliances'
p4811
tp4812
a(g3875
(S't\x07\x00\x00\x00Plugins'
tRp4813
I00
S'http://web2py.com/plugins'
p4814
tp4815
a(g3875
(S't\x07\x00\x00\x00Recipes'
tRp4816
I00
S'http://web2pyslices.com/'
p4817
tp4818
a(g3875
(S't\x04\x00\x00\x00Demo'
tRp4819
I00
S'http://web2py.com/demo_admin'
p4820
tp4821
a(g3875
(S't\x08\x00\x00\x00Semantic'
tRp4822
I00
S'http://web2py.com/semantic'
p4823
tp4824
a(g3875
(S't\x07\x00\x00\x00Layouts'
tRp4825
I00
S'http://web2py.com/layouts'
p4826
tp4827
a(g3875
(S't\x06\x00\x00\x00Videos'
tRp4828
I00
S'http://www.web2py.com/examples/default/videos/'
p4829
tp4830
aasbasbasbasbasbasbasbasbasbasbasbasbasbasbasbasbasbasbasbag69
(g85
g71
NtRp4831
(dp4832
g74
(dp4833
sg83
g3370
sg76
(lp4834
g69
(g90
g71
NtRp4835
(dp4836
g74
(dp4837
g94
g95
ssg83
g4831
sg76
(lp4838
S'meta'
p4839
asbag69
(g90
g71
NtRp4840
(dp4841
g74
(dp4842
g101
g102
ssg83
g4831
sg76
(lp4843
S':'
asbag69
(g90
g71
NtRp4844
(dp4845
g74
(dp4846
sg83
g4831
sg76
(lp4847
g69
(g70
g71
NtRp4848
(dp4849
g74
(dp4850
g82
I5
ssg83
g4844
sg76
(lp4851
g69
(g78
g71
NtRp4852
(dp4853
g74
(dp4854
g82
I4
ssg83
Nsg76
(lp4855
g69
(g85
g71
NtRp4856
(dp4857
g74
(dp4858
sg83
g4852
sg76
(lp4859
g69
(g90
g71
NtRp4860
(dp4861
g74
(dp4862
g94
g95
ssg83
g4856
sg76
(lp4863
S'author'
p4864
asbag69
(g90
g71
NtRp4865
(dp4866
g74
(dp4867
g101
g102
ssg83
g4856
sg76
(lp4868
S':'
asbag69
(g90
g71
NtRp4869
(dp4870
g74
(dp4871
sg83
g4856
sg76
(lp4872
g69
(g70
g71
NtRp4873
(dp4874
g74
(dp4875
g82
I4
ssg83
g4869
sg76
(lp4876
S'Adrian Edwards'
p4877
asbasbasbag69
(g85
g71
NtRp4878
(dp4879
g74
(dp4880
sg83
g4852
sg76
(lp4881
g69
(g90
g71
NtRp4882
(dp4883
g74
(dp4884
g94
g95
ssg83
g4878
sg76
(lp4885
S'copyright'
p4886
asbag69
(g90
g71
NtRp4887
(dp4888
g74
(dp4889
g101
g102
ssg83
g4878
sg76
(lp4890
S':'
asbag69
(g90
g71
NtRp4891
(dp4892
g74
(dp4893
sg83
g4878
sg76
(lp4894
g69
(g70
g71
NtRp4895
(dp4896
g74
(dp4897
g82
I4
ssg83
g4891
sg76
(lp4898
S'Copyright 2011'
p4899
asbasbasbag69
(g85
g71
NtRp4900
(dp4901
g74
(dp4902
sg83
g4852
sg76
(lp4903
g69
(g90
g71
NtRp4904
(dp4905
g74
(dp4906
g94
g95
ssg83
g4900
sg76
(lp4907
S'description'
p4908
asbag69
(g90
g71
NtRp4909
(dp4910
g74
(dp4911
g101
g102
ssg83
g4900
sg76
(lp4912
S':'
asbag69
(g90
g71
NtRp4913
(dp4914
g74
(dp4915
sg83
g4900
sg76
(lp4916
g69
(g70
g71
NtRp4917
(dp4918
g74
(dp4919
g82
I4
ssg83
g4913
sg76
(lp4920
S'Fitness Challenge'
p4921
asbasbasbag69
(g85
g71
NtRp4922
(dp4923
g74
(dp4924
sg83
g4852
sg76
(lp4925
g69
(g90
g71
NtRp4926
(dp4927
g74
(dp4928
g94
g95
ssg83
g4922
sg76
(lp4929
S'generator'
p4930
asbag69
(g90
g71
NtRp4931
(dp4932
g74
(dp4933
g101
g102
ssg83
g4922
sg76
(lp4934
S':'
asbag69
(g90
g71
NtRp4935
(dp4936
g74
(dp4937
sg83
g4922
sg76
(lp4938
g69
(g70
g71
NtRp4939
(dp4940
g74
(dp4941
g82
I4
ssg83
g4935
sg76
(lp4942
S'Web2py Web Framework'
p4943
asbasbasbag69
(g85
g71
NtRp4944
(dp4945
g74
(dp4946
sg83
g4852
sg76
(lp4947
g69
(g90
g71
NtRp4948
(dp4949
g74
(dp4950
g94
g95
ssg83
g4944
sg76
(lp4951
S'keywords'
p4952
asbag69
(g90
g71
NtRp4953
(dp4954
g74
(dp4955
g101
g102
ssg83
g4944
sg76
(lp4956
S':'
asbag69
(g90
g71
NtRp4957
(dp4958
g74
(dp4959
sg83
g4944
sg76
(lp4960
g69
(g70
g71
NtRp4961
(dp4962
g74
(dp4963
g82
I4
ssg83
g4957
sg76
(lp4964
S'web2py, python, framework'
p4965
asbasbasbasbasbasbasbag69
(g85
g71
NtRp4966
(dp4967
g74
(dp4968
sg83
g3370
sg76
(lp4969
g69
(g90
g71
NtRp4970
(dp4971
g74
(dp4972
g94
g95
ssg83
g4966
sg76
(lp4973
S'postprocessing'
p4974
asbag69
(g90
g71
NtRp4975
(dp4976
g74
(dp4977
g101
g102
ssg83
g4966
sg76
(lp4978
S':'
asbag69
(g90
g71
NtRp4979
(dp4980
g74
(dp4981
sg83
g4966
sg76
(lp4982
g69
(g70
g71
NtRp4983
(dp4984
g74
(dp4985
g82
I5
ssg83
g4979
sg76
(lp4986
g69
(g78
g71
NtRp4987
(dp4988
g74
(dp4989
g82
I4
ssg83
Nsg76
(lp4990
sbasbasbasbag69
(g85
g71
NtRp4991
(dp4992
g74
(dp4993
sg83
g3370
sg76
(lp4994
g69
(g90
g71
NtRp4995
(dp4996
g74
(dp4997
g94
g95
ssg83
g4991
sg76
(lp4998
S'session_file'
p4999
asbag69
(g90
g71
NtRp5000
(dp5001
g74
(dp5002
g101
g102
ssg83
g4991
sg76
(lp5003
S':'
asbag69
(g90
g71
NtRp5004
(dp5005
g74
(dp5006
sg83
g4991
sg76
(lp5007
g69
(g70
g71
NtRp5008
(dp5009
g74
(dp5010
g82
I5
ssg83
g5004
sg76
(lp5011
S"<open file 'P:\\School\\DePaul\\Projects\\CSC_438\\web2py\\applications\\init\\sessions\\127.0.0.1-9cf14084-4033-491f-99b2-106d13fb9973', mode 'rb+' at 0x08393A18>"
p5012
asbasbasbag69
(g85
g71
NtRp5013
(dp5014
g74
(dp5015
sg83
g3370
sg76
(lp5016
g69
(g90
g71
NtRp5017
(dp5018
g74
(dp5019
g94
g95
ssg83
g5013
sg76
(lp5020
S'session_filename'
p5021
asbag69
(g90
g71
NtRp5022
(dp5023
g74
(dp5024
g101
g102
ssg83
g5013
sg76
(lp5025
S':'
asbag69
(g90
g71
NtRp5026
(dp5027
g74
(dp5028
sg83
g5013
sg76
(lp5029
g69
(g70
g71
NtRp5030
(dp5031
g74
(dp5032
g82
I5
ssg83
g5026
sg76
(lp5033
S'P:\\School\\DePaul\\Projects\\CSC_438\\web2py\\applications\\init\\sessions\\127.0.0.1-9cf14084-4033-491f-99b2-106d13fb9973'
p5034
asbasbasbag69
(g85
g71
NtRp5035
(dp5036
g74
(dp5037
sg83
g3370
sg76
(lp5038
g69
(g90
g71
NtRp5039
(dp5040
g74
(dp5041
g94
g95
ssg83
g5035
sg76
(lp5042
S'session_id'
p5043
asbag69
(g90
g71
NtRp5044
(dp5045
g74
(dp5046
g101
g102
ssg83
g5035
sg76
(lp5047
S':'
asbag69
(g90
g71
NtRp5048
(dp5049
g74
(dp5050
sg83
g5035
sg76
(lp5051
g69
(g70
g71
NtRp5052
(dp5053
g74
(dp5054
g82
I5
ssg83
g5048
sg76
(lp5055
S'127.0.0.1-9cf14084-4033-491f-99b2-106d13fb9973'
p5056
asbasbasbag69
(g85
g71
NtRp5057
(dp5058
g74
(dp5059
sg83
g3370
sg76
(lp5060
g69
(g90
g71
NtRp5061
(dp5062
g74
(dp5063
g94
g95
ssg83
g5057
sg76
(lp5064
S'session_id_name'
p5065
asbag69
(g90
g71
NtRp5066
(dp5067
g74
(dp5068
g101
g102
ssg83
g5057
sg76
(lp5069
S':'
asbag69
(g90
g71
NtRp5070
(dp5071
g74
(dp5072
sg83
g5057
sg76
(lp5073
g69
(g70
g71
NtRp5074
(dp5075
g74
(dp5076
g82
I5
ssg83
g5070
sg76
(lp5077
g3427
asbasbasbag69
(g85
g71
NtRp5078
(dp5079
g74
(dp5080
sg83
g3370
sg76
(lp5081
g69
(g90
g71
NtRp5082
(dp5083
g74
(dp5084
g94
g95
ssg83
g5078
sg76
(lp5085
S'session_locked'
p5086
asbag69
(g90
g71
NtRp5087
(dp5088
g74
(dp5089
g101
g102
ssg83
g5078
sg76
(lp5090
S':'
asbag69
(g90
g71
NtRp5091
(dp5092
g74
(dp5093
sg83
g5078
sg76
(lp5094
g69
(g70
g71
NtRp5095
(dp5096
g74
(dp5097
g82
I5
ssg83
g5091
sg76
(lp5098
g1485
asbasbasbag69
(g85
g71
NtRp5099
(dp5100
g74
(dp5101
sg83
g3370
sg76
(lp5102
g69
(g90
g71
NtRp5103
(dp5104
g74
(dp5105
g94
g95
ssg83
g5099
sg76
(lp5106
S'session_new'
p5107
asbag69
(g90
g71
NtRp5108
(dp5109
g74
(dp5110
g101
g102
ssg83
g5099
sg76
(lp5111
S':'
asbag69
(g90
g71
NtRp5112
(dp5113
g74
(dp5114
sg83
g5099
sg76
(lp5115
g69
(g70
g71
NtRp5116
(dp5117
g74
(dp5118
g82
I5
ssg83
g5112
sg76
(lp5119
g112
asbasbasbag69
(g85
g71
NtRp5120
(dp5121
g74
(dp5122
sg83
g3370
sg76
(lp5123
g69
(g90
g71
NtRp5124
(dp5125
g74
(dp5126
g94
g95
ssg83
g5120
sg76
(lp5127
S'status'
p5128
asbag69
(g90
g71
NtRp5129
(dp5130
g74
(dp5131
g101
g102
ssg83
g5120
sg76
(lp5132
S':'
asbag69
(g90
g71
NtRp5133
(dp5134
g74
(dp5135
sg83
g5120
sg76
(lp5136
g69
(g70
g71
NtRp5137
(dp5138
g74
(dp5139
g82
I5
ssg83
g5133
sg76
(lp5140
S'200'
p5141
asbasbasbag69
(g85
g71
NtRp5142
(dp5143
g74
(dp5144
sg83
g3370
sg76
(lp5145
g69
(g90
g71
NtRp5146
(dp5147
g74
(dp5148
g94
g95
ssg83
g5142
sg76
(lp5149
S'subtitle'
p5150
asbag69
(g90
g71
NtRp5151
(dp5152
g74
(dp5153
g101
g102
ssg83
g5142
sg76
(lp5154
S':'
asbag69
(g90
g71
NtRp5155
(dp5156
g74
(dp5157
sg83
g5142
sg76
(lp5158
g69
(g70
g71
NtRp5159
(dp5160
g74
(dp5161
g82
I5
ssg83
g5155
sg76
(lp5162
g3875
(S's\r\x00\x00\x00customize me!'
tRp5163
asbasbasbag69
(g85
g71
NtRp5164
(dp5165
g74
(dp5166
sg83
g3370
sg76
(lp5167
g69
(g90
g71
NtRp5168
(dp5169
g74
(dp5170
g94
g95
ssg83
g5164
sg76
(lp5171
S'title'
p5172
asbag69
(g90
g71
NtRp5173
(dp5174
g74
(dp5175
g101
g102
ssg83
g5164
sg76
(lp5176
S':'
asbag69
(g90
g71
NtRp5177
(dp5178
g74
(dp5179
sg83
g5164
sg76
(lp5180
g69
(g70
g71
NtRp5181
(dp5182
g74
(dp5183
g82
I5
ssg83
g5177
sg76
(lp5184
g134
asbasbasbag69
(g85
g71
NtRp5185
(dp5186
g74
(dp5187
sg83
g3370
sg76
(lp5188
g69
(g90
g71
NtRp5189
(dp5190
g74
(dp5191
g94
g95
ssg83
g5185
sg76
(lp5192
g2151
asbag69
(g90
g71
NtRp5193
(dp5194
g74
(dp5195
g101
g102
ssg83
g5185
sg76
(lp5196
S':'
asbag69
(g90
g71
NtRp5197
(dp5198
g74
(dp5199
sg83
g5185
sg76
(lp5200
g69
(g70
g71
NtRp5201
(dp5202
g74
(dp5203
g82
I5
ssg83
g5197
sg76
(lp5204
g2164
asbasbasbag69
(g85
g71
NtRp5205
(dp5206
g74
(dp5207
sg83
g3370
sg76
(lp5208
g69
(g90
g71
NtRp5209
(dp5210
g74
(dp5211
g94
g95
ssg83
g5205
sg76
(lp5212
S'view'
p5213
asbag69
(g90
g71
NtRp5214
(dp5215
g74
(dp5216
g101
g102
ssg83
g5205
sg76
(lp5217
S':'
asbag69
(g90
g71
NtRp5218
(dp5219
g74
(dp5220
sg83
g5205
sg76
(lp5221
g69
(g70
g71
NtRp5222
(dp5223
g74
(dp5224
g82
I5
ssg83
g5218
sg76
(lp5225
S'default/challenge.html'
p5226
asbasbasbasbasbsS'locals'
p5227
(dp5228
g4
S"r'P:\\School\\DePaul\\Projects\\CSC_438\\web2py\\applications\\init\\views\\default/challenge.html'"
p5229
sg6
S'\'response.write(\\\'<!DOCTYPE html PUBLIC "-//W3C//D...iv>\\\\r\\\\n\\\\r\\\\n</body>\\\\r\\\\n</html>\\\\r\\\\n\\\', escape=False)\''
p5230
sssS'traceback'
p5231
S'Traceback (most recent call last):\n  File "P:\\School\\DePaul\\Projects\\CSC_438\\web2py\\gluon\\restricted.py", line 203, in restricted\n    ccode = compile2(code,layer)\n  File "P:\\School\\DePaul\\Projects\\CSC_438\\web2py\\gluon\\restricted.py", line 189, in compile2\n    return compile(code.rstrip().replace(\'\\r\\n\',\'\\n\')+\'\\n\', layer, \'exec\')\n  File "P:\\School\\DePaul\\Projects\\CSC_438\\web2py\\applications\\init\\views\\default/challenge.html", line 37\n    response.write(\'" /> \\r\\n\\t\', escape=False)\n           ^\nSyntaxError: invalid syntax\n'
p5232
s.