(dp1
S'output'
p2
S''
sS'layer'
p3
S'P:\\Workbench\\DevEnv\\web2py\\applications\\init\\controllers/default.py'
p4
sS'code'
p5
S'# -*- coding: utf-8 -*-\n# this file is released under public domain and you can use without limitations\n\n#########################################################################\n## This is a samples controller\n## - index is the default action of any application\n## - user is required for authentication and authorization\n## - download is for downloading files uploaded in the db (does streaming)\n## - call exposes all registered services (none by default)\n#########################################################################\n\ndef index():\n\n    ## if user is already logged in, redirect to the user home page.\n    if auth.user:\n        redirect(URL(r=request, f=\'home\'))  \n    else:\n        redirect(URL(r=request, f=\'user\'))\n        \n    return dict()\n\ndef user():\n    """\n    exposes:\n    http://..../[app]/default/user/login\n    http://..../[app]/default/user/logout\n    http://..../[app]/default/user/register\n    http://..../[app]/default/user/profile\n    http://..../[app]/default/user/retrieve_password\n    http://..../[app]/default/user/change_password\n    use @auth.requires_login()\n        @auth.requires_membership(\'group name\')\n        @auth.requires_permission(\'read\',\'table name\',record_id)\n    to decorate functions that need access control\n    """\n\n    return dict(form=auth())\n\n## Users home page.\n@auth.requires_login()\ndef home():\n    \n    return dict(request=request())\n    \ndef contact():\n\n    return dict()\n\ndef download():\n    """\n    allows downloading of uploaded files\n    http://..../[app]/default/download/[filename]\n    """\n    return response.download(request,db)\n\n\ndef call():\n    """\n    exposes services. for example:\n    http://..../[app]/default/call/jsonrpc\n    decorate with @services.jsonrpc the functions to expose\n    supports xml, json, xmlrpc, jsonrpc, amfrpc, rss, csv\n    """\n    return service()\n\n\n@auth.requires_signature()\ndef data():\n    """\n    http://..../[app]/default/data/tables\n    http://..../[app]/default/data/create/[table]\n    http://..../[app]/default/data/read/[table]/[id]\n    http://..../[app]/default/data/update/[table]/[id]\n    http://..../[app]/default/data/delete/[table]/[id]\n    http://..../[app]/default/data/select/[table]\n    http://..../[app]/default/data/search/[table]\n    but URLs bust be signed, i.e. linked with\n      A(\'table\',_href=URL(\'data/tables\',user_signature=True))\n    or with the signed load operator\n      LOAD(\'default\',\'data.load\',args=\'tables\',ajax=True,user_signature=True)\n    """\n    return dict(form=crud())\n\nresponse._vars=response._caller(home)\n'
p6
sS'snapshot'
p7
(dp8
S'exception'
p9
(dp10
S'__hash__'
p11
S"<method-wrapper '__hash__' of exceptions.TypeError object>"
p12
sS'__setattr__'
p13
S"<method-wrapper '__setattr__' of exceptions.TypeError object>"
p14
sS'__reduce_ex__'
p15
S'<built-in method __reduce_ex__ of exceptions.TypeError object>'
p16
sS'__getslice__'
p17
S"<method-wrapper '__getslice__' of exceptions.TypeError object>"
p18
sS'__getitem__'
p19
S"<method-wrapper '__getitem__' of exceptions.TypeError object>"
p20
sS'__setstate__'
p21
S'<built-in method __setstate__ of exceptions.TypeError object>'
p22
sS'__reduce__'
p23
S'<built-in method __reduce__ of exceptions.TypeError object>'
p24
sS'__str__'
p25
S"<method-wrapper '__str__' of exceptions.TypeError object>"
p26
sS'__format__'
p27
S'<built-in method __format__ of exceptions.TypeError object>'
p28
sS'__getattribute__'
p29
S"<method-wrapper '__getattribute__' of exceptions.TypeError object>"
p30
sS'__class__'
p31
S"<type 'exceptions.TypeError'>"
p32
sS'__unicode__'
p33
S'<built-in method __unicode__ of exceptions.TypeError object>'
p34
sS'__delattr__'
p35
S"<method-wrapper '__delattr__' of exceptions.TypeError object>"
p36
sS'__subclasshook__'
p37
S'<built-in method __subclasshook__ of type object>'
p38
sS'__repr__'
p39
S"<method-wrapper '__repr__' of exceptions.TypeError object>"
p40
sS'args'
p41
S'("\'Request\' object is not callable",)'
p42
sS'__dict__'
p43
S'{}'
p44
sS'__sizeof__'
p45
S'<built-in method __sizeof__ of exceptions.TypeError object>'
p46
sS'__doc__'
p47
S"'Inappropriate argument type.'"
p48
sS'__init__'
p49
S"<method-wrapper '__init__' of exceptions.TypeError object>"
p50
sS'__new__'
p51
S'<built-in method __new__ of type object>'
p52
ssS'evalue'
p53
S"'Request' object is not callable"
p54
sS'request'
p55
ccopy_reg
_reconstructor
p56
(cgluon.html
BEAUTIFY
p57
c__builtin__
object
p58
NtRp59
(dp60
S'attributes'
p61
(dp62
sS'components'
p63
(lp64
g56
(cgluon.html
TABLE
p65
g58
NtRp66
(dp67
g61
(dp68
S'level'
p69
I5
ssS'parent'
p70
Nsg63
(lp71
g56
(cgluon.html
TR
p72
g58
NtRp73
(dp74
g61
(dp75
sg70
g66
sg63
(lp76
g56
(cgluon.html
TD
p77
g58
NtRp78
(dp79
g61
(dp80
S'_style'
p81
S'font-weight:bold;vertical-align:top'
p82
ssg70
g73
sg63
(lp83
S'ajax'
p84
asbag56
(g77
g58
NtRp85
(dp86
g61
(dp87
S'_valign'
p88
S'top'
p89
ssg70
g73
sg63
(lp90
S':'
asbag56
(g77
g58
NtRp91
(dp92
g61
(dp93
sg70
g73
sg63
(lp94
g56
(g57
g58
NtRp95
(dp96
g61
(dp97
g69
I5
ssg70
g91
sg63
(lp98
S'False'
p99
asbasbasbag56
(g72
g58
NtRp100
(dp101
g61
(dp102
sg70
g66
sg63
(lp103
g56
(g77
g58
NtRp104
(dp105
g61
(dp106
g81
g82
ssg70
g100
sg63
(lp107
S'application'
p108
asbag56
(g77
g58
NtRp109
(dp110
g61
(dp111
g88
g89
ssg70
g100
sg63
(lp112
S':'
asbag56
(g77
g58
NtRp113
(dp114
g61
(dp115
sg70
g100
sg63
(lp116
g56
(g57
g58
NtRp117
(dp118
g61
(dp119
g69
I5
ssg70
g113
sg63
(lp120
S'init'
p121
asbasbasbag56
(g72
g58
NtRp122
(dp123
g61
(dp124
sg70
g66
sg63
(lp125
g56
(g77
g58
NtRp126
(dp127
g61
(dp128
g81
g82
ssg70
g122
sg63
(lp129
g41
asbag56
(g77
g58
NtRp130
(dp131
g61
(dp132
g88
g89
ssg70
g122
sg63
(lp133
S':'
asbag56
(g77
g58
NtRp134
(dp135
g61
(dp136
sg70
g122
sg63
(lp137
g56
(g57
g58
NtRp138
(dp139
g61
(dp140
g69
I5
ssg70
g134
sg63
(lp141
g56
(g65
g58
NtRp142
(dp143
g61
(dp144
g69
I4
ssg70
Nsg63
(lp145
g56
(g72
g58
NtRp146
(dp147
g61
(dp148
sg70
g142
sg63
(lp149
g56
(g77
g58
NtRp150
(dp151
g61
(dp152
sg70
g146
sg63
(lp153
g56
(g57
g58
NtRp154
(dp155
g61
(dp156
g69
I4
ssg70
g150
sg63
(lp157
S'login'
p158
asbasbasbasbasbasbasbag56
(g72
g58
NtRp159
(dp160
g61
(dp161
sg70
g66
sg63
(lp162
g56
(g77
g58
NtRp163
(dp164
g61
(dp165
g81
g82
ssg70
g159
sg63
(lp166
S'body'
p167
asbag56
(g77
g58
NtRp168
(dp169
g61
(dp170
g88
g89
ssg70
g159
sg63
(lp171
S':'
asbag56
(g77
g58
NtRp172
(dp173
g61
(dp174
sg70
g159
sg63
(lp175
g56
(g57
g58
NtRp176
(dp177
g61
(dp178
g69
I5
ssg70
g172
sg63
(lp179
S'<cStringIO.StringO object at 0x097EF4E0>'
p180
asbasbasbag56
(g72
g58
NtRp181
(dp182
g61
(dp183
sg70
g66
sg63
(lp184
g56
(g77
g58
NtRp185
(dp186
g61
(dp187
g81
g82
ssg70
g181
sg63
(lp188
S'client'
p189
asbag56
(g77
g58
NtRp190
(dp191
g61
(dp192
g88
g89
ssg70
g181
sg63
(lp193
S':'
asbag56
(g77
g58
NtRp194
(dp195
g61
(dp196
sg70
g181
sg63
(lp197
g56
(g57
g58
NtRp198
(dp199
g61
(dp200
g69
I5
ssg70
g194
sg63
(lp201
S'127.0.0.1'
p202
asbasbasbag56
(g72
g58
NtRp203
(dp204
g61
(dp205
sg70
g66
sg63
(lp206
g56
(g77
g58
NtRp207
(dp208
g61
(dp209
g81
g82
ssg70
g203
sg63
(lp210
S'controller'
p211
asbag56
(g77
g58
NtRp212
(dp213
g61
(dp214
g88
g89
ssg70
g203
sg63
(lp215
S':'
asbag56
(g77
g58
NtRp216
(dp217
g61
(dp218
sg70
g203
sg63
(lp219
g56
(g57
g58
NtRp220
(dp221
g61
(dp222
g69
I5
ssg70
g216
sg63
(lp223
S'default'
p224
asbasbasbag56
(g72
g58
NtRp225
(dp226
g61
(dp227
sg70
g66
sg63
(lp228
g56
(g77
g58
NtRp229
(dp230
g61
(dp231
g81
g82
ssg70
g225
sg63
(lp232
S'cookies'
p233
asbag56
(g77
g58
NtRp234
(dp235
g61
(dp236
g88
g89
ssg70
g225
sg63
(lp237
S':'
asbag56
(g77
g58
NtRp238
(dp239
g61
(dp240
sg70
g225
sg63
(lp241
g56
(g57
g58
NtRp242
(dp243
g61
(dp244
g69
I5
ssg70
g238
sg63
(lp245
g56
(g65
g58
NtRp246
(dp247
g61
(dp248
g69
I4
ssg70
Nsg63
(lp249
g56
(g72
g58
NtRp250
(dp251
g61
(dp252
sg70
g246
sg63
(lp253
g56
(g77
g58
NtRp254
(dp255
g61
(dp256
g81
g82
ssg70
g250
sg63
(lp257
S'session_id_admin'
p258
asbag56
(g77
g58
NtRp259
(dp260
g61
(dp261
g88
g89
ssg70
g250
sg63
(lp262
S':'
asbag56
(g77
g58
NtRp263
(dp264
g61
(dp265
sg70
g250
sg63
(lp266
g56
(g57
g58
NtRp267
(dp268
g61
(dp269
g69
I4
ssg70
g263
sg63
(lp270
g56
(g65
g58
NtRp271
(dp272
g61
(dp273
g69
I3
ssg70
Nsg63
(lp274
g56
(g72
g58
NtRp275
(dp276
g61
(dp277
sg70
g271
sg63
(lp278
g56
(g77
g58
NtRp279
(dp280
g61
(dp281
g81
g82
ssg70
g275
sg63
(lp282
S'comment'
p283
asbag56
(g77
g58
NtRp284
(dp285
g61
(dp286
g88
g89
ssg70
g275
sg63
(lp287
S':'
asbag56
(g77
g58
NtRp288
(dp289
g61
(dp290
sg70
g275
sg63
(lp291
g56
(g57
g58
NtRp292
(dp293
g61
(dp294
g69
I3
ssg70
g288
sg63
(lp295
S''
asbasbasbag56
(g72
g58
NtRp296
(dp297
g61
(dp298
sg70
g271
sg63
(lp299
g56
(g77
g58
NtRp300
(dp301
g61
(dp302
g81
g82
ssg70
g296
sg63
(lp303
S'domain'
p304
asbag56
(g77
g58
NtRp305
(dp306
g61
(dp307
g88
g89
ssg70
g296
sg63
(lp308
S':'
asbag56
(g77
g58
NtRp309
(dp310
g61
(dp311
sg70
g296
sg63
(lp312
g56
(g57
g58
NtRp313
(dp314
g61
(dp315
g69
I3
ssg70
g309
sg63
(lp316
S''
asbasbasbag56
(g72
g58
NtRp317
(dp318
g61
(dp319
sg70
g271
sg63
(lp320
g56
(g77
g58
NtRp321
(dp322
g61
(dp323
g81
g82
ssg70
g317
sg63
(lp324
S'expires'
p325
asbag56
(g77
g58
NtRp326
(dp327
g61
(dp328
g88
g89
ssg70
g317
sg63
(lp329
S':'
asbag56
(g77
g58
NtRp330
(dp331
g61
(dp332
sg70
g317
sg63
(lp333
g56
(g57
g58
NtRp334
(dp335
g61
(dp336
g69
I3
ssg70
g330
sg63
(lp337
S''
asbasbasbag56
(g72
g58
NtRp338
(dp339
g61
(dp340
sg70
g271
sg63
(lp341
g56
(g77
g58
NtRp342
(dp343
g61
(dp344
g81
g82
ssg70
g338
sg63
(lp345
S'httponly'
p346
asbag56
(g77
g58
NtRp347
(dp348
g61
(dp349
g88
g89
ssg70
g338
sg63
(lp350
S':'
asbag56
(g77
g58
NtRp351
(dp352
g61
(dp353
sg70
g338
sg63
(lp354
g56
(g57
g58
NtRp355
(dp356
g61
(dp357
g69
I3
ssg70
g351
sg63
(lp358
S''
asbasbasbag56
(g72
g58
NtRp359
(dp360
g61
(dp361
sg70
g271
sg63
(lp362
g56
(g77
g58
NtRp363
(dp364
g61
(dp365
g81
g82
ssg70
g359
sg63
(lp366
S'max-age'
p367
asbag56
(g77
g58
NtRp368
(dp369
g61
(dp370
g88
g89
ssg70
g359
sg63
(lp371
S':'
asbag56
(g77
g58
NtRp372
(dp373
g61
(dp374
sg70
g359
sg63
(lp375
g56
(g57
g58
NtRp376
(dp377
g61
(dp378
g69
I3
ssg70
g372
sg63
(lp379
S''
asbasbasbag56
(g72
g58
NtRp380
(dp381
g61
(dp382
sg70
g271
sg63
(lp383
g56
(g77
g58
NtRp384
(dp385
g61
(dp386
g81
g82
ssg70
g380
sg63
(lp387
S'path'
p388
asbag56
(g77
g58
NtRp389
(dp390
g61
(dp391
g88
g89
ssg70
g380
sg63
(lp392
S':'
asbag56
(g77
g58
NtRp393
(dp394
g61
(dp395
sg70
g380
sg63
(lp396
g56
(g57
g58
NtRp397
(dp398
g61
(dp399
g69
I3
ssg70
g393
sg63
(lp400
S''
asbasbasbag56
(g72
g58
NtRp401
(dp402
g61
(dp403
sg70
g271
sg63
(lp404
g56
(g77
g58
NtRp405
(dp406
g61
(dp407
g81
g82
ssg70
g401
sg63
(lp408
S'secure'
p409
asbag56
(g77
g58
NtRp410
(dp411
g61
(dp412
g88
g89
ssg70
g401
sg63
(lp413
S':'
asbag56
(g77
g58
NtRp414
(dp415
g61
(dp416
sg70
g401
sg63
(lp417
g56
(g57
g58
NtRp418
(dp419
g61
(dp420
g69
I3
ssg70
g414
sg63
(lp421
S''
asbasbasbag56
(g72
g58
NtRp422
(dp423
g61
(dp424
sg70
g271
sg63
(lp425
g56
(g77
g58
NtRp426
(dp427
g61
(dp428
g81
g82
ssg70
g422
sg63
(lp429
S'version'
p430
asbag56
(g77
g58
NtRp431
(dp432
g61
(dp433
g88
g89
ssg70
g422
sg63
(lp434
S':'
asbag56
(g77
g58
NtRp435
(dp436
g61
(dp437
sg70
g422
sg63
(lp438
g56
(g57
g58
NtRp439
(dp440
g61
(dp441
g69
I3
ssg70
g435
sg63
(lp442
S''
asbasbasbasbasbasbasbag56
(g72
g58
NtRp443
(dp444
g61
(dp445
sg70
g246
sg63
(lp446
g56
(g77
g58
NtRp447
(dp448
g61
(dp449
g81
g82
ssg70
g443
sg63
(lp450
S'session_id_init'
p451
asbag56
(g77
g58
NtRp452
(dp453
g61
(dp454
g88
g89
ssg70
g443
sg63
(lp455
S':'
asbag56
(g77
g58
NtRp456
(dp457
g61
(dp458
sg70
g443
sg63
(lp459
g56
(g57
g58
NtRp460
(dp461
g61
(dp462
g69
I4
ssg70
g456
sg63
(lp463
g56
(g65
g58
NtRp464
(dp465
g61
(dp466
g69
I3
ssg70
Nsg63
(lp467
g56
(g72
g58
NtRp468
(dp469
g61
(dp470
sg70
g464
sg63
(lp471
g56
(g77
g58
NtRp472
(dp473
g61
(dp474
g81
g82
ssg70
g468
sg63
(lp475
g283
asbag56
(g77
g58
NtRp476
(dp477
g61
(dp478
g88
g89
ssg70
g468
sg63
(lp479
S':'
asbag56
(g77
g58
NtRp480
(dp481
g61
(dp482
sg70
g468
sg63
(lp483
g56
(g57
g58
NtRp484
(dp485
g61
(dp486
g69
I3
ssg70
g480
sg63
(lp487
S''
asbasbasbag56
(g72
g58
NtRp488
(dp489
g61
(dp490
sg70
g464
sg63
(lp491
g56
(g77
g58
NtRp492
(dp493
g61
(dp494
g81
g82
ssg70
g488
sg63
(lp495
g304
asbag56
(g77
g58
NtRp496
(dp497
g61
(dp498
g88
g89
ssg70
g488
sg63
(lp499
S':'
asbag56
(g77
g58
NtRp500
(dp501
g61
(dp502
sg70
g488
sg63
(lp503
g56
(g57
g58
NtRp504
(dp505
g61
(dp506
g69
I3
ssg70
g500
sg63
(lp507
S''
asbasbasbag56
(g72
g58
NtRp508
(dp509
g61
(dp510
sg70
g464
sg63
(lp511
g56
(g77
g58
NtRp512
(dp513
g61
(dp514
g81
g82
ssg70
g508
sg63
(lp515
g325
asbag56
(g77
g58
NtRp516
(dp517
g61
(dp518
g88
g89
ssg70
g508
sg63
(lp519
S':'
asbag56
(g77
g58
NtRp520
(dp521
g61
(dp522
sg70
g508
sg63
(lp523
g56
(g57
g58
NtRp524
(dp525
g61
(dp526
g69
I3
ssg70
g520
sg63
(lp527
S''
asbasbasbag56
(g72
g58
NtRp528
(dp529
g61
(dp530
sg70
g464
sg63
(lp531
g56
(g77
g58
NtRp532
(dp533
g61
(dp534
g81
g82
ssg70
g528
sg63
(lp535
g346
asbag56
(g77
g58
NtRp536
(dp537
g61
(dp538
g88
g89
ssg70
g528
sg63
(lp539
S':'
asbag56
(g77
g58
NtRp540
(dp541
g61
(dp542
sg70
g528
sg63
(lp543
g56
(g57
g58
NtRp544
(dp545
g61
(dp546
g69
I3
ssg70
g540
sg63
(lp547
S''
asbasbasbag56
(g72
g58
NtRp548
(dp549
g61
(dp550
sg70
g464
sg63
(lp551
g56
(g77
g58
NtRp552
(dp553
g61
(dp554
g81
g82
ssg70
g548
sg63
(lp555
g367
asbag56
(g77
g58
NtRp556
(dp557
g61
(dp558
g88
g89
ssg70
g548
sg63
(lp559
S':'
asbag56
(g77
g58
NtRp560
(dp561
g61
(dp562
sg70
g548
sg63
(lp563
g56
(g57
g58
NtRp564
(dp565
g61
(dp566
g69
I3
ssg70
g560
sg63
(lp567
S''
asbasbasbag56
(g72
g58
NtRp568
(dp569
g61
(dp570
sg70
g464
sg63
(lp571
g56
(g77
g58
NtRp572
(dp573
g61
(dp574
g81
g82
ssg70
g568
sg63
(lp575
g388
asbag56
(g77
g58
NtRp576
(dp577
g61
(dp578
g88
g89
ssg70
g568
sg63
(lp579
S':'
asbag56
(g77
g58
NtRp580
(dp581
g61
(dp582
sg70
g568
sg63
(lp583
g56
(g57
g58
NtRp584
(dp585
g61
(dp586
g69
I3
ssg70
g580
sg63
(lp587
S''
asbasbasbag56
(g72
g58
NtRp588
(dp589
g61
(dp590
sg70
g464
sg63
(lp591
g56
(g77
g58
NtRp592
(dp593
g61
(dp594
g81
g82
ssg70
g588
sg63
(lp595
g409
asbag56
(g77
g58
NtRp596
(dp597
g61
(dp598
g88
g89
ssg70
g588
sg63
(lp599
S':'
asbag56
(g77
g58
NtRp600
(dp601
g61
(dp602
sg70
g588
sg63
(lp603
g56
(g57
g58
NtRp604
(dp605
g61
(dp606
g69
I3
ssg70
g600
sg63
(lp607
S''
asbasbasbag56
(g72
g58
NtRp608
(dp609
g61
(dp610
sg70
g464
sg63
(lp611
g56
(g77
g58
NtRp612
(dp613
g61
(dp614
g81
g82
ssg70
g608
sg63
(lp615
g430
asbag56
(g77
g58
NtRp616
(dp617
g61
(dp618
g88
g89
ssg70
g608
sg63
(lp619
S':'
asbag56
(g77
g58
NtRp620
(dp621
g61
(dp622
sg70
g608
sg63
(lp623
g56
(g57
g58
NtRp624
(dp625
g61
(dp626
g69
I3
ssg70
g620
sg63
(lp627
S''
asbasbasbasbasbasbasbasbasbasbasbag56
(g72
g58
NtRp628
(dp629
g61
(dp630
sg70
g66
sg63
(lp631
g56
(g77
g58
NtRp632
(dp633
g61
(dp634
g81
g82
ssg70
g628
sg63
(lp635
S'env'
p636
asbag56
(g77
g58
NtRp637
(dp638
g61
(dp639
g88
g89
ssg70
g628
sg63
(lp640
S':'
asbag56
(g77
g58
NtRp641
(dp642
g61
(dp643
sg70
g628
sg63
(lp644
g56
(g57
g58
NtRp645
(dp646
g61
(dp647
g69
I5
ssg70
g641
sg63
(lp648
g56
(g65
g58
NtRp649
(dp650
g61
(dp651
g69
I4
ssg70
Nsg63
(lp652
g56
(g72
g58
NtRp653
(dp654
g61
(dp655
sg70
g649
sg63
(lp656
g56
(g77
g58
NtRp657
(dp658
g61
(dp659
g81
g82
ssg70
g653
sg63
(lp660
S'app_folders'
p661
asbag56
(g77
g58
NtRp662
(dp663
g61
(dp664
g88
g89
ssg70
g653
sg63
(lp665
S':'
asbag56
(g77
g58
NtRp666
(dp667
g61
(dp668
sg70
g653
sg63
(lp669
g56
(g57
g58
NtRp670
(dp671
g61
(dp672
g69
I4
ssg70
g666
sg63
(lp673
S"set(['P:\\\\Workbench\\\\DevEnv\\\\web2py\\\\applications\\\\init\\\\', 'P:\\\\Workbench\\\\DevEnv\\\\web2py\\\\applications\\\\admin\\\\'])"
p674
asbasbasbag56
(g72
g58
NtRp675
(dp676
g61
(dp677
sg70
g649
sg63
(lp678
g56
(g77
g58
NtRp679
(dp680
g61
(dp681
g81
g82
ssg70
g675
sg63
(lp682
S'applications_parent'
p683
asbag56
(g77
g58
NtRp684
(dp685
g61
(dp686
g88
g89
ssg70
g675
sg63
(lp687
S':'
asbag56
(g77
g58
NtRp688
(dp689
g61
(dp690
sg70
g675
sg63
(lp691
g56
(g57
g58
NtRp692
(dp693
g61
(dp694
g69
I4
ssg70
g688
sg63
(lp695
S'P:\\Workbench\\DevEnv\\web2py'
p696
asbasbasbag56
(g72
g58
NtRp697
(dp698
g61
(dp699
sg70
g649
sg63
(lp700
g56
(g77
g58
NtRp701
(dp702
g61
(dp703
g81
g82
ssg70
g697
sg63
(lp704
S'cmd_args'
p705
asbag56
(g77
g58
NtRp706
(dp707
g61
(dp708
g88
g89
ssg70
g697
sg63
(lp709
S':'
asbag56
(g77
g58
NtRp710
(dp711
g61
(dp712
sg70
g697
sg63
(lp713
g56
(g57
g58
NtRp714
(dp715
g61
(dp716
g69
I4
ssg70
g710
sg63
(lp717
g56
(g65
g58
NtRp718
(dp719
g61
(dp720
g69
I3
ssg70
Nsg63
(lp721
sbasbasbasbag56
(g72
g58
NtRp722
(dp723
g61
(dp724
sg70
g649
sg63
(lp725
g56
(g77
g58
NtRp726
(dp727
g61
(dp728
g81
g82
ssg70
g722
sg63
(lp729
S'cmd_options'
p730
asbag56
(g77
g58
NtRp731
(dp732
g61
(dp733
g88
g89
ssg70
g722
sg63
(lp734
S':'
asbag56
(g77
g58
NtRp735
(dp736
g61
(dp737
sg70
g722
sg63
(lp738
g56
(g57
g58
NtRp739
(dp740
g61
(dp741
g69
I4
ssg70
g735
sg63
(lp742
S"<Values at 0x2fbd418: {'verbose': False, 'ip': '127.0.0.1', 'shutdown_timeout': 5, 'taskbar': False, 'nocron': False, 'pid_filename': 'httpserver.pid', 'maxthreads': None, 'softcron': False, 'server_name': 'Bishop-PC', 'bpython': False, 'nogui': False, 'port': 8000, 'extcron': False, 'debuglevel': 30, 'test': None, 'folder': 'P:\\\\Workbench\\\\DevEnv\\\\web2py', 'config': '', 'import_models': False, 'winservice': '', 'shell': None, 'run': '', 'log_filename': 'httpserver.log', 'args': [''], 'ssl_ca_certificate': None, 'scheduler': None, 'profiler_filename': None, 'ssl_private_key': '', 'password': '<ask>', 'request_queue_size': 5, 'ssl_certificate': '', 'cronjob': False, 'plain': False, 'quiet': False, 'interfaces': None, 'minthreads': None, 'timeout': 10, 'numthreads': None, 'nobanner': False}>"
p743
asbasbasbag56
(g72
g58
NtRp744
(dp745
g61
(dp746
sg70
g649
sg63
(lp747
g56
(g77
g58
NtRp748
(dp749
g61
(dp750
g81
g82
ssg70
g744
sg63
(lp751
S'db_sessions'
p752
asbag56
(g77
g58
NtRp753
(dp754
g61
(dp755
g88
g89
ssg70
g744
sg63
(lp756
S':'
asbag56
(g77
g58
NtRp757
(dp758
g61
(dp759
sg70
g744
sg63
(lp760
g56
(g57
g58
NtRp761
(dp762
g61
(dp763
g69
I4
ssg70
g757
sg63
(lp764
S'set([])'
p765
asbasbasbag56
(g72
g58
NtRp766
(dp767
g61
(dp768
sg70
g649
sg63
(lp769
g56
(g77
g58
NtRp770
(dp771
g61
(dp772
g81
g82
ssg70
g766
sg63
(lp773
S'debugging'
p774
asbag56
(g77
g58
NtRp775
(dp776
g61
(dp777
g88
g89
ssg70
g766
sg63
(lp778
S':'
asbag56
(g77
g58
NtRp779
(dp780
g61
(dp781
sg70
g766
sg63
(lp782
g56
(g57
g58
NtRp783
(dp784
g61
(dp785
g69
I4
ssg70
g779
sg63
(lp786
g99
asbasbasbag56
(g72
g58
NtRp787
(dp788
g61
(dp789
sg70
g649
sg63
(lp790
g56
(g77
g58
NtRp791
(dp792
g61
(dp793
g81
g82
ssg70
g787
sg63
(lp794
S'gluon_parent'
p795
asbag56
(g77
g58
NtRp796
(dp797
g61
(dp798
g88
g89
ssg70
g787
sg63
(lp799
S':'
asbag56
(g77
g58
NtRp800
(dp801
g61
(dp802
sg70
g787
sg63
(lp803
g56
(g57
g58
NtRp804
(dp805
g61
(dp806
g69
I4
ssg70
g800
sg63
(lp807
S'P:\\Workbench\\DevEnv\\web2py'
p808
asbasbasbag56
(g72
g58
NtRp809
(dp810
g61
(dp811
sg70
g649
sg63
(lp812
g56
(g77
g58
NtRp813
(dp814
g61
(dp815
g81
g82
ssg70
g809
sg63
(lp816
S'http_accept'
p817
asbag56
(g77
g58
NtRp818
(dp819
g61
(dp820
g88
g89
ssg70
g809
sg63
(lp821
S':'
asbag56
(g77
g58
NtRp822
(dp823
g61
(dp824
sg70
g809
sg63
(lp825
g56
(g57
g58
NtRp826
(dp827
g61
(dp828
g69
I4
ssg70
g822
sg63
(lp829
S'text/html,application/xhtml+xml,application/xml;q=0.9,*/*;q=0.8'
p830
asbasbasbag56
(g72
g58
NtRp831
(dp832
g61
(dp833
sg70
g649
sg63
(lp834
g56
(g77
g58
NtRp835
(dp836
g61
(dp837
g81
g82
ssg70
g831
sg63
(lp838
S'http_accept_charset'
p839
asbag56
(g77
g58
NtRp840
(dp841
g61
(dp842
g88
g89
ssg70
g831
sg63
(lp843
S':'
asbag56
(g77
g58
NtRp844
(dp845
g61
(dp846
sg70
g831
sg63
(lp847
g56
(g57
g58
NtRp848
(dp849
g61
(dp850
g69
I4
ssg70
g844
sg63
(lp851
S'ISO-8859-1,utf-8;q=0.7,*;q=0.7'
p852
asbasbasbag56
(g72
g58
NtRp853
(dp854
g61
(dp855
sg70
g649
sg63
(lp856
g56
(g77
g58
NtRp857
(dp858
g61
(dp859
g81
g82
ssg70
g853
sg63
(lp860
S'http_accept_encoding'
p861
asbag56
(g77
g58
NtRp862
(dp863
g61
(dp864
g88
g89
ssg70
g853
sg63
(lp865
S':'
asbag56
(g77
g58
NtRp866
(dp867
g61
(dp868
sg70
g853
sg63
(lp869
g56
(g57
g58
NtRp870
(dp871
g61
(dp872
g69
I4
ssg70
g866
sg63
(lp873
S'gzip,deflate'
p874
asbasbasbag56
(g72
g58
NtRp875
(dp876
g61
(dp877
sg70
g649
sg63
(lp878
g56
(g77
g58
NtRp879
(dp880
g61
(dp881
g81
g82
ssg70
g875
sg63
(lp882
S'http_accept_language'
p883
asbag56
(g77
g58
NtRp884
(dp885
g61
(dp886
g88
g89
ssg70
g875
sg63
(lp887
S':'
asbag56
(g77
g58
NtRp888
(dp889
g61
(dp890
sg70
g875
sg63
(lp891
g56
(g57
g58
NtRp892
(dp893
g61
(dp894
g69
I4
ssg70
g888
sg63
(lp895
S'en-us,en;q=0.5'
p896
asbasbasbag56
(g72
g58
NtRp897
(dp898
g61
(dp899
sg70
g649
sg63
(lp900
g56
(g77
g58
NtRp901
(dp902
g61
(dp903
g81
g82
ssg70
g897
sg63
(lp904
S'http_cache_control'
p905
asbag56
(g77
g58
NtRp906
(dp907
g61
(dp908
g88
g89
ssg70
g897
sg63
(lp909
S':'
asbag56
(g77
g58
NtRp910
(dp911
g61
(dp912
sg70
g897
sg63
(lp913
g56
(g57
g58
NtRp914
(dp915
g61
(dp916
g69
I4
ssg70
g910
sg63
(lp917
S'max-age=0'
p918
asbasbasbag56
(g72
g58
NtRp919
(dp920
g61
(dp921
sg70
g649
sg63
(lp922
g56
(g77
g58
NtRp923
(dp924
g61
(dp925
g81
g82
ssg70
g919
sg63
(lp926
S'http_connection'
p927
asbag56
(g77
g58
NtRp928
(dp929
g61
(dp930
g88
g89
ssg70
g919
sg63
(lp931
S':'
asbag56
(g77
g58
NtRp932
(dp933
g61
(dp934
sg70
g919
sg63
(lp935
g56
(g57
g58
NtRp936
(dp937
g61
(dp938
g69
I4
ssg70
g932
sg63
(lp939
S'keep-alive'
p940
asbasbasbag56
(g72
g58
NtRp941
(dp942
g61
(dp943
sg70
g649
sg63
(lp944
g56
(g77
g58
NtRp945
(dp946
g61
(dp947
g81
g82
ssg70
g941
sg63
(lp948
S'http_cookie'
p949
asbag56
(g77
g58
NtRp950
(dp951
g61
(dp952
g88
g89
ssg70
g941
sg63
(lp953
S':'
asbag56
(g77
g58
NtRp954
(dp955
g61
(dp956
sg70
g941
sg63
(lp957
g56
(g57
g58
NtRp958
(dp959
g61
(dp960
g69
I4
ssg70
g954
sg63
(lp961
S'__utma_a2a=4518867300.1350888199.1319331273.1319375111.1319375111.5; session_id_init=127.0.0.1-2ee686ba-d1d2-46bc-bb75-bfad4d4c0c4c; session_id_admin=127.0.0.1-4acedcf7-4701-4781-9fc5-dd6d7a0a4bf5'
p962
asbasbasbag56
(g72
g58
NtRp963
(dp964
g61
(dp965
sg70
g649
sg63
(lp966
g56
(g77
g58
NtRp967
(dp968
g61
(dp969
g81
g82
ssg70
g963
sg63
(lp970
S'http_host'
p971
asbag56
(g77
g58
NtRp972
(dp973
g61
(dp974
g88
g89
ssg70
g963
sg63
(lp975
S':'
asbag56
(g77
g58
NtRp976
(dp977
g61
(dp978
sg70
g963
sg63
(lp979
g56
(g57
g58
NtRp980
(dp981
g61
(dp982
g69
I4
ssg70
g976
sg63
(lp983
S'127.0.0.1:8000'
p984
asbasbasbag56
(g72
g58
NtRp985
(dp986
g61
(dp987
sg70
g649
sg63
(lp988
g56
(g77
g58
NtRp989
(dp990
g61
(dp991
g81
g82
ssg70
g985
sg63
(lp992
S'http_keep_alive'
p993
asbag56
(g77
g58
NtRp994
(dp995
g61
(dp996
g88
g89
ssg70
g985
sg63
(lp997
S':'
asbag56
(g77
g58
NtRp998
(dp999
g61
(dp1000
sg70
g985
sg63
(lp1001
g56
(g57
g58
NtRp1002
(dp1003
g61
(dp1004
g69
I4
ssg70
g998
sg63
(lp1005
S'115'
p1006
asbasbasbag56
(g72
g58
NtRp1007
(dp1008
g61
(dp1009
sg70
g649
sg63
(lp1010
g56
(g77
g58
NtRp1011
(dp1012
g61
(dp1013
g81
g82
ssg70
g1007
sg63
(lp1014
S'http_user_agent'
p1015
asbag56
(g77
g58
NtRp1016
(dp1017
g61
(dp1018
g88
g89
ssg70
g1007
sg63
(lp1019
S':'
asbag56
(g77
g58
NtRp1020
(dp1021
g61
(dp1022
sg70
g1007
sg63
(lp1023
g56
(g57
g58
NtRp1024
(dp1025
g61
(dp1026
g69
I4
ssg70
g1020
sg63
(lp1027
S'Mozilla/5.0 (Windows; U; Windows NT 6.1; en-US; rv:1.9.2.23) Gecko/20110920 Firefox/3.6.23'
p1028
asbasbasbag56
(g72
g58
NtRp1029
(dp1030
g61
(dp1031
sg70
g649
sg63
(lp1032
g56
(g77
g58
NtRp1033
(dp1034
g61
(dp1035
g81
g82
ssg70
g1029
sg63
(lp1036
S'is_jython'
p1037
asbag56
(g77
g58
NtRp1038
(dp1039
g61
(dp1040
g88
g89
ssg70
g1029
sg63
(lp1041
S':'
asbag56
(g77
g58
NtRp1042
(dp1043
g61
(dp1044
sg70
g1029
sg63
(lp1045
g56
(g57
g58
NtRp1046
(dp1047
g61
(dp1048
g69
I4
ssg70
g1042
sg63
(lp1049
g99
asbasbasbag56
(g72
g58
NtRp1050
(dp1051
g61
(dp1052
sg70
g649
sg63
(lp1053
g56
(g77
g58
NtRp1054
(dp1055
g61
(dp1056
g81
g82
ssg70
g1050
sg63
(lp1057
S'path_info'
p1058
asbag56
(g77
g58
NtRp1059
(dp1060
g61
(dp1061
g88
g89
ssg70
g1050
sg63
(lp1062
S':'
asbag56
(g77
g58
NtRp1063
(dp1064
g61
(dp1065
sg70
g1050
sg63
(lp1066
g56
(g57
g58
NtRp1067
(dp1068
g61
(dp1069
g69
I4
ssg70
g1063
sg63
(lp1070
S'/init/default/home/login'
p1071
asbasbasbag56
(g72
g58
NtRp1072
(dp1073
g61
(dp1074
sg70
g649
sg63
(lp1075
g56
(g77
g58
NtRp1076
(dp1077
g61
(dp1078
g81
g82
ssg70
g1072
sg63
(lp1079
S'query_string'
p1080
asbag56
(g77
g58
NtRp1081
(dp1082
g61
(dp1083
g88
g89
ssg70
g1072
sg63
(lp1084
S':'
asbag56
(g77
g58
NtRp1085
(dp1086
g61
(dp1087
sg70
g1072
sg63
(lp1088
g56
(g57
g58
NtRp1089
(dp1090
g61
(dp1091
g69
I4
ssg70
g1085
sg63
(lp1092
S''
asbasbasbag56
(g72
g58
NtRp1093
(dp1094
g61
(dp1095
sg70
g649
sg63
(lp1096
g56
(g77
g58
NtRp1097
(dp1098
g61
(dp1099
g81
g82
ssg70
g1093
sg63
(lp1100
S'remote_addr'
p1101
asbag56
(g77
g58
NtRp1102
(dp1103
g61
(dp1104
g88
g89
ssg70
g1093
sg63
(lp1105
S':'
asbag56
(g77
g58
NtRp1106
(dp1107
g61
(dp1108
sg70
g1093
sg63
(lp1109
g56
(g57
g58
NtRp1110
(dp1111
g61
(dp1112
g69
I4
ssg70
g1106
sg63
(lp1113
g202
asbasbasbag56
(g72
g58
NtRp1114
(dp1115
g61
(dp1116
sg70
g649
sg63
(lp1117
g56
(g77
g58
NtRp1118
(dp1119
g61
(dp1120
g81
g82
ssg70
g1114
sg63
(lp1121
S'remote_port'
p1122
asbag56
(g77
g58
NtRp1123
(dp1124
g61
(dp1125
g88
g89
ssg70
g1114
sg63
(lp1126
S':'
asbag56
(g77
g58
NtRp1127
(dp1128
g61
(dp1129
sg70
g1114
sg63
(lp1130
g56
(g57
g58
NtRp1131
(dp1132
g61
(dp1133
g69
I4
ssg70
g1127
sg63
(lp1134
S'56866'
p1135
asbasbasbag56
(g72
g58
NtRp1136
(dp1137
g61
(dp1138
sg70
g649
sg63
(lp1139
g56
(g77
g58
NtRp1140
(dp1141
g61
(dp1142
g81
g82
ssg70
g1136
sg63
(lp1143
S'request_method'
p1144
asbag56
(g77
g58
NtRp1145
(dp1146
g61
(dp1147
g88
g89
ssg70
g1136
sg63
(lp1148
S':'
asbag56
(g77
g58
NtRp1149
(dp1150
g61
(dp1151
sg70
g1136
sg63
(lp1152
g56
(g57
g58
NtRp1153
(dp1154
g61
(dp1155
g69
I4
ssg70
g1149
sg63
(lp1156
S'GET'
p1157
asbasbasbag56
(g72
g58
NtRp1158
(dp1159
g61
(dp1160
sg70
g649
sg63
(lp1161
g56
(g77
g58
NtRp1162
(dp1163
g61
(dp1164
g81
g82
ssg70
g1158
sg63
(lp1165
S'script_name'
p1166
asbag56
(g77
g58
NtRp1167
(dp1168
g61
(dp1169
g88
g89
ssg70
g1158
sg63
(lp1170
S':'
asbag56
(g77
g58
NtRp1171
(dp1172
g61
(dp1173
sg70
g1158
sg63
(lp1174
g56
(g57
g58
NtRp1175
(dp1176
g61
(dp1177
g69
I4
ssg70
g1171
sg63
(lp1178
S''
asbasbasbag56
(g72
g58
NtRp1179
(dp1180
g61
(dp1181
sg70
g649
sg63
(lp1182
g56
(g77
g58
NtRp1183
(dp1184
g61
(dp1185
g81
g82
ssg70
g1179
sg63
(lp1186
S'server_name'
p1187
asbag56
(g77
g58
NtRp1188
(dp1189
g61
(dp1190
g88
g89
ssg70
g1179
sg63
(lp1191
S':'
asbag56
(g77
g58
NtRp1192
(dp1193
g61
(dp1194
sg70
g1179
sg63
(lp1195
g56
(g57
g58
NtRp1196
(dp1197
g61
(dp1198
g69
I4
ssg70
g1192
sg63
(lp1199
S'Bishop-PC'
p1200
asbasbasbag56
(g72
g58
NtRp1201
(dp1202
g61
(dp1203
sg70
g649
sg63
(lp1204
g56
(g77
g58
NtRp1205
(dp1206
g61
(dp1207
g81
g82
ssg70
g1201
sg63
(lp1208
S'server_port'
p1209
asbag56
(g77
g58
NtRp1210
(dp1211
g61
(dp1212
g88
g89
ssg70
g1201
sg63
(lp1213
S':'
asbag56
(g77
g58
NtRp1214
(dp1215
g61
(dp1216
sg70
g1201
sg63
(lp1217
g56
(g57
g58
NtRp1218
(dp1219
g61
(dp1220
g69
I4
ssg70
g1214
sg63
(lp1221
S'8000'
p1222
asbasbasbag56
(g72
g58
NtRp1223
(dp1224
g61
(dp1225
sg70
g649
sg63
(lp1226
g56
(g77
g58
NtRp1227
(dp1228
g61
(dp1229
g81
g82
ssg70
g1223
sg63
(lp1230
S'server_protocol'
p1231
asbag56
(g77
g58
NtRp1232
(dp1233
g61
(dp1234
g88
g89
ssg70
g1223
sg63
(lp1235
S':'
asbag56
(g77
g58
NtRp1236
(dp1237
g61
(dp1238
sg70
g1223
sg63
(lp1239
g56
(g57
g58
NtRp1240
(dp1241
g61
(dp1242
g69
I4
ssg70
g1236
sg63
(lp1243
S'HTTP/1.1'
p1244
asbasbasbag56
(g72
g58
NtRp1245
(dp1246
g61
(dp1247
sg70
g649
sg63
(lp1248
g56
(g77
g58
NtRp1249
(dp1250
g61
(dp1251
g81
g82
ssg70
g1245
sg63
(lp1252
S'server_software'
p1253
asbag56
(g77
g58
NtRp1254
(dp1255
g61
(dp1256
g88
g89
ssg70
g1245
sg63
(lp1257
S':'
asbag56
(g77
g58
NtRp1258
(dp1259
g61
(dp1260
sg70
g1245
sg63
(lp1261
g56
(g57
g58
NtRp1262
(dp1263
g61
(dp1264
g69
I4
ssg70
g1258
sg63
(lp1265
S'Rocket 1.2.4'
p1266
asbasbasbag56
(g72
g58
NtRp1267
(dp1268
g61
(dp1269
sg70
g649
sg63
(lp1270
g56
(g77
g58
NtRp1271
(dp1272
g61
(dp1273
g81
g82
ssg70
g1267
sg63
(lp1274
S'web2py_crontype'
p1275
asbag56
(g77
g58
NtRp1276
(dp1277
g61
(dp1278
g88
g89
ssg70
g1267
sg63
(lp1279
S':'
asbag56
(g77
g58
NtRp1280
(dp1281
g61
(dp1282
sg70
g1267
sg63
(lp1283
g56
(g57
g58
NtRp1284
(dp1285
g61
(dp1286
g69
I4
ssg70
g1280
sg63
(lp1287
S'hard'
p1288
asbasbasbag56
(g72
g58
NtRp1289
(dp1290
g61
(dp1291
sg70
g649
sg63
(lp1292
g56
(g77
g58
NtRp1293
(dp1294
g61
(dp1295
g81
g82
ssg70
g1289
sg63
(lp1296
S'web2py_path'
p1297
asbag56
(g77
g58
NtRp1298
(dp1299
g61
(dp1300
g88
g89
ssg70
g1289
sg63
(lp1301
S':'
asbag56
(g77
g58
NtRp1302
(dp1303
g61
(dp1304
sg70
g1289
sg63
(lp1305
g56
(g57
g58
NtRp1306
(dp1307
g61
(dp1308
g69
I4
ssg70
g1302
sg63
(lp1309
g696
asbasbasbag56
(g72
g58
NtRp1310
(dp1311
g61
(dp1312
sg70
g649
sg63
(lp1313
g56
(g77
g58
NtRp1314
(dp1315
g61
(dp1316
g81
g82
ssg70
g1310
sg63
(lp1317
S'web2py_version'
p1318
asbag56
(g77
g58
NtRp1319
(dp1320
g61
(dp1321
g88
g89
ssg70
g1310
sg63
(lp1322
S':'
asbag56
(g77
g58
NtRp1323
(dp1324
g61
(dp1325
sg70
g1310
sg63
(lp1326
g56
(g57
g58
NtRp1327
(dp1328
g61
(dp1329
g69
I4
ssg70
g1323
sg63
(lp1330
g56
(g65
g58
NtRp1331
(dp1332
g61
(dp1333
g69
I3
ssg70
Nsg63
(lp1334
g56
(g72
g58
NtRp1335
(dp1336
g61
(dp1337
sg70
g1331
sg63
(lp1338
g56
(g77
g58
NtRp1339
(dp1340
g61
(dp1341
sg70
g1335
sg63
(lp1342
g56
(g57
g58
NtRp1343
(dp1344
g61
(dp1345
g69
I3
ssg70
g1339
sg63
(lp1346
S'1'
asbasbasbag56
(g72
g58
NtRp1347
(dp1348
g61
(dp1349
sg70
g1331
sg63
(lp1350
g56
(g77
g58
NtRp1351
(dp1352
g61
(dp1353
sg70
g1347
sg63
(lp1354
g56
(g57
g58
NtRp1355
(dp1356
g61
(dp1357
g69
I3
ssg70
g1351
sg63
(lp1358
S'99'
p1359
asbasbasbag56
(g72
g58
NtRp1360
(dp1361
g61
(dp1362
sg70
g1331
sg63
(lp1363
g56
(g77
g58
NtRp1364
(dp1365
g61
(dp1366
sg70
g1360
sg63
(lp1367
g56
(g57
g58
NtRp1368
(dp1369
g61
(dp1370
g69
I3
ssg70
g1364
sg63
(lp1371
S'3'
asbasbasbag56
(g72
g58
NtRp1372
(dp1373
g61
(dp1374
sg70
g1331
sg63
(lp1375
g56
(g77
g58
NtRp1376
(dp1377
g61
(dp1378
sg70
g1372
sg63
(lp1379
g56
(g57
g58
NtRp1380
(dp1381
g61
(dp1382
g69
I3
ssg70
g1376
sg63
(lp1383
S'datetime.datetime(2011, 10, 24, 21, 42, 42)'
p1384
asbasbasbag56
(g72
g58
NtRp1385
(dp1386
g61
(dp1387
sg70
g1331
sg63
(lp1388
g56
(g77
g58
NtRp1389
(dp1390
g61
(dp1391
sg70
g1385
sg63
(lp1392
g56
(g57
g58
NtRp1393
(dp1394
g61
(dp1395
g69
I3
ssg70
g1389
sg63
(lp1396
S'dev'
p1397
asbasbasbasbasbasbasbag56
(g72
g58
NtRp1398
(dp1399
g61
(dp1400
sg70
g649
sg63
(lp1401
g56
(g77
g58
NtRp1402
(dp1403
g61
(dp1404
g81
g82
ssg70
g1398
sg63
(lp1405
S'wsgi_errors'
p1406
asbag56
(g77
g58
NtRp1407
(dp1408
g61
(dp1409
g88
g89
ssg70
g1398
sg63
(lp1410
S':'
asbag56
(g77
g58
NtRp1411
(dp1412
g61
(dp1413
sg70
g1398
sg63
(lp1414
g56
(g57
g58
NtRp1415
(dp1416
g61
(dp1417
g69
I4
ssg70
g1411
sg63
(lp1418
S"<open file '<stderr>', mode 'w' at 0x01DC50D0>"
p1419
asbasbasbag56
(g72
g58
NtRp1420
(dp1421
g61
(dp1422
sg70
g649
sg63
(lp1423
g56
(g77
g58
NtRp1424
(dp1425
g61
(dp1426
g81
g82
ssg70
g1420
sg63
(lp1427
S'wsgi_file_wrapper'
p1428
asbag56
(g77
g58
NtRp1429
(dp1430
g61
(dp1431
g88
g89
ssg70
g1420
sg63
(lp1432
S':'
asbag56
(g77
g58
NtRp1433
(dp1434
g61
(dp1435
sg70
g1420
sg63
(lp1436
g56
(g57
g58
NtRp1437
(dp1438
g61
(dp1439
g69
I4
ssg70
g1433
sg63
(lp1440
S'<class wsgiref.util.FileWrapper at 0x02D07AB0>'
p1441
asbasbasbag56
(g72
g58
NtRp1442
(dp1443
g61
(dp1444
sg70
g649
sg63
(lp1445
g56
(g77
g58
NtRp1446
(dp1447
g61
(dp1448
g81
g82
ssg70
g1442
sg63
(lp1449
S'wsgi_input'
p1450
asbag56
(g77
g58
NtRp1451
(dp1452
g61
(dp1453
g88
g89
ssg70
g1442
sg63
(lp1454
S':'
asbag56
(g77
g58
NtRp1455
(dp1456
g61
(dp1457
sg70
g1442
sg63
(lp1458
g56
(g57
g58
NtRp1459
(dp1460
g61
(dp1461
g69
I4
ssg70
g1455
sg63
(lp1462
S'<socket._fileobject object at 0x09810330>'
p1463
asbasbasbag56
(g72
g58
NtRp1464
(dp1465
g61
(dp1466
sg70
g649
sg63
(lp1467
g56
(g77
g58
NtRp1468
(dp1469
g61
(dp1470
g81
g82
ssg70
g1464
sg63
(lp1471
S'wsgi_multiprocess'
p1472
asbag56
(g77
g58
NtRp1473
(dp1474
g61
(dp1475
g88
g89
ssg70
g1464
sg63
(lp1476
S':'
asbag56
(g77
g58
NtRp1477
(dp1478
g61
(dp1479
sg70
g1464
sg63
(lp1480
g56
(g57
g58
NtRp1481
(dp1482
g61
(dp1483
g69
I4
ssg70
g1477
sg63
(lp1484
g99
asbasbasbag56
(g72
g58
NtRp1485
(dp1486
g61
(dp1487
sg70
g649
sg63
(lp1488
g56
(g77
g58
NtRp1489
(dp1490
g61
(dp1491
g81
g82
ssg70
g1485
sg63
(lp1492
S'wsgi_multithread'
p1493
asbag56
(g77
g58
NtRp1494
(dp1495
g61
(dp1496
g88
g89
ssg70
g1485
sg63
(lp1497
S':'
asbag56
(g77
g58
NtRp1498
(dp1499
g61
(dp1500
sg70
g1485
sg63
(lp1501
g56
(g57
g58
NtRp1502
(dp1503
g61
(dp1504
g69
I4
ssg70
g1498
sg63
(lp1505
S'True'
p1506
asbasbasbag56
(g72
g58
NtRp1507
(dp1508
g61
(dp1509
sg70
g649
sg63
(lp1510
g56
(g77
g58
NtRp1511
(dp1512
g61
(dp1513
g81
g82
ssg70
g1507
sg63
(lp1514
S'wsgi_run_once'
p1515
asbag56
(g77
g58
NtRp1516
(dp1517
g61
(dp1518
g88
g89
ssg70
g1507
sg63
(lp1519
S':'
asbag56
(g77
g58
NtRp1520
(dp1521
g61
(dp1522
sg70
g1507
sg63
(lp1523
g56
(g57
g58
NtRp1524
(dp1525
g61
(dp1526
g69
I4
ssg70
g1520
sg63
(lp1527
g99
asbasbasbag56
(g72
g58
NtRp1528
(dp1529
g61
(dp1530
sg70
g649
sg63
(lp1531
g56
(g77
g58
NtRp1532
(dp1533
g61
(dp1534
g81
g82
ssg70
g1528
sg63
(lp1535
S'wsgi_url_scheme'
p1536
asbag56
(g77
g58
NtRp1537
(dp1538
g61
(dp1539
g88
g89
ssg70
g1528
sg63
(lp1540
S':'
asbag56
(g77
g58
NtRp1541
(dp1542
g61
(dp1543
sg70
g1528
sg63
(lp1544
g56
(g57
g58
NtRp1545
(dp1546
g61
(dp1547
g69
I4
ssg70
g1541
sg63
(lp1548
S'http'
p1549
asbasbasbag56
(g72
g58
NtRp1550
(dp1551
g61
(dp1552
sg70
g649
sg63
(lp1553
g56
(g77
g58
NtRp1554
(dp1555
g61
(dp1556
g81
g82
ssg70
g1550
sg63
(lp1557
S'wsgi_version'
p1558
asbag56
(g77
g58
NtRp1559
(dp1560
g61
(dp1561
g88
g89
ssg70
g1550
sg63
(lp1562
S':'
asbag56
(g77
g58
NtRp1563
(dp1564
g61
(dp1565
sg70
g1550
sg63
(lp1566
g56
(g57
g58
NtRp1567
(dp1568
g61
(dp1569
g69
I4
ssg70
g1563
sg63
(lp1570
g56
(g65
g58
NtRp1571
(dp1572
g61
(dp1573
g69
I3
ssg70
Nsg63
(lp1574
g56
(g72
g58
NtRp1575
(dp1576
g61
(dp1577
sg70
g1571
sg63
(lp1578
g56
(g77
g58
NtRp1579
(dp1580
g61
(dp1581
sg70
g1575
sg63
(lp1582
g56
(g57
g58
NtRp1583
(dp1584
g61
(dp1585
g69
I3
ssg70
g1579
sg63
(lp1586
S'1'
asbasbasbag56
(g72
g58
NtRp1587
(dp1588
g61
(dp1589
sg70
g1571
sg63
(lp1590
g56
(g77
g58
NtRp1591
(dp1592
g61
(dp1593
sg70
g1587
sg63
(lp1594
g56
(g57
g58
NtRp1595
(dp1596
g61
(dp1597
g69
I3
ssg70
g1591
sg63
(lp1598
S'0'
asbasbasbasbasbasbasbasbasbasbasbag56
(g72
g58
NtRp1599
(dp1600
g61
(dp1601
sg70
g66
sg63
(lp1602
g56
(g77
g58
NtRp1603
(dp1604
g61
(dp1605
g81
g82
ssg70
g1599
sg63
(lp1606
S'extension'
p1607
asbag56
(g77
g58
NtRp1608
(dp1609
g61
(dp1610
g88
g89
ssg70
g1599
sg63
(lp1611
S':'
asbag56
(g77
g58
NtRp1612
(dp1613
g61
(dp1614
sg70
g1599
sg63
(lp1615
g56
(g57
g58
NtRp1616
(dp1617
g61
(dp1618
g69
I5
ssg70
g1612
sg63
(lp1619
S'html'
p1620
asbasbasbag56
(g72
g58
NtRp1621
(dp1622
g61
(dp1623
sg70
g66
sg63
(lp1624
g56
(g77
g58
NtRp1625
(dp1626
g61
(dp1627
g81
g82
ssg70
g1621
sg63
(lp1628
S'folder'
p1629
asbag56
(g77
g58
NtRp1630
(dp1631
g61
(dp1632
g88
g89
ssg70
g1621
sg63
(lp1633
S':'
asbag56
(g77
g58
NtRp1634
(dp1635
g61
(dp1636
sg70
g1621
sg63
(lp1637
g56
(g57
g58
NtRp1638
(dp1639
g61
(dp1640
g69
I5
ssg70
g1634
sg63
(lp1641
S'P:\\Workbench\\DevEnv\\web2py\\applications\\init\\'
p1642
asbasbasbag56
(g72
g58
NtRp1643
(dp1644
g61
(dp1645
sg70
g66
sg63
(lp1646
g56
(g77
g58
NtRp1647
(dp1648
g61
(dp1649
g81
g82
ssg70
g1643
sg63
(lp1650
S'function'
p1651
asbag56
(g77
g58
NtRp1652
(dp1653
g61
(dp1654
g88
g89
ssg70
g1643
sg63
(lp1655
S':'
asbag56
(g77
g58
NtRp1656
(dp1657
g61
(dp1658
sg70
g1643
sg63
(lp1659
g56
(g57
g58
NtRp1660
(dp1661
g61
(dp1662
g69
I5
ssg70
g1656
sg63
(lp1663
S'home'
p1664
asbasbasbag56
(g72
g58
NtRp1665
(dp1666
g61
(dp1667
sg70
g66
sg63
(lp1668
g56
(g77
g58
NtRp1669
(dp1670
g61
(dp1671
g81
g82
ssg70
g1665
sg63
(lp1672
S'get_vars'
p1673
asbag56
(g77
g58
NtRp1674
(dp1675
g61
(dp1676
g88
g89
ssg70
g1665
sg63
(lp1677
S':'
asbag56
(g77
g58
NtRp1678
(dp1679
g61
(dp1680
sg70
g1665
sg63
(lp1681
g56
(g57
g58
NtRp1682
(dp1683
g61
(dp1684
g69
I5
ssg70
g1678
sg63
(lp1685
g56
(g65
g58
NtRp1686
(dp1687
g61
(dp1688
g69
I4
ssg70
Nsg63
(lp1689
sbasbasbasbag56
(g72
g58
NtRp1690
(dp1691
g61
(dp1692
sg70
g66
sg63
(lp1693
g56
(g77
g58
NtRp1694
(dp1695
g61
(dp1696
g81
g82
ssg70
g1690
sg63
(lp1697
S'global_settings'
p1698
asbag56
(g77
g58
NtRp1699
(dp1700
g61
(dp1701
g88
g89
ssg70
g1690
sg63
(lp1702
S':'
asbag56
(g77
g58
NtRp1703
(dp1704
g61
(dp1705
sg70
g1690
sg63
(lp1706
g56
(g57
g58
NtRp1707
(dp1708
g61
(dp1709
g69
I5
ssg70
g1703
sg63
(lp1710
g56
(g65
g58
NtRp1711
(dp1712
g61
(dp1713
g69
I4
ssg70
Nsg63
(lp1714
g56
(g72
g58
NtRp1715
(dp1716
g61
(dp1717
sg70
g1711
sg63
(lp1718
g56
(g77
g58
NtRp1719
(dp1720
g61
(dp1721
g81
g82
ssg70
g1715
sg63
(lp1722
g661
asbag56
(g77
g58
NtRp1723
(dp1724
g61
(dp1725
g88
g89
ssg70
g1715
sg63
(lp1726
S':'
asbag56
(g77
g58
NtRp1727
(dp1728
g61
(dp1729
sg70
g1715
sg63
(lp1730
g56
(g57
g58
NtRp1731
(dp1732
g61
(dp1733
g69
I4
ssg70
g1727
sg63
(lp1734
S"set(['P:\\\\Workbench\\\\DevEnv\\\\web2py\\\\applications\\\\init\\\\', 'P:\\\\Workbench\\\\DevEnv\\\\web2py\\\\applications\\\\admin\\\\'])"
p1735
asbasbasbag56
(g72
g58
NtRp1736
(dp1737
g61
(dp1738
sg70
g1711
sg63
(lp1739
g56
(g77
g58
NtRp1740
(dp1741
g61
(dp1742
g81
g82
ssg70
g1736
sg63
(lp1743
g683
asbag56
(g77
g58
NtRp1744
(dp1745
g61
(dp1746
g88
g89
ssg70
g1736
sg63
(lp1747
S':'
asbag56
(g77
g58
NtRp1748
(dp1749
g61
(dp1750
sg70
g1736
sg63
(lp1751
g56
(g57
g58
NtRp1752
(dp1753
g61
(dp1754
g69
I4
ssg70
g1748
sg63
(lp1755
g696
asbasbasbag56
(g72
g58
NtRp1756
(dp1757
g61
(dp1758
sg70
g1711
sg63
(lp1759
g56
(g77
g58
NtRp1760
(dp1761
g61
(dp1762
g81
g82
ssg70
g1756
sg63
(lp1763
g705
asbag56
(g77
g58
NtRp1764
(dp1765
g61
(dp1766
g88
g89
ssg70
g1756
sg63
(lp1767
S':'
asbag56
(g77
g58
NtRp1768
(dp1769
g61
(dp1770
sg70
g1756
sg63
(lp1771
g56
(g57
g58
NtRp1772
(dp1773
g61
(dp1774
g69
I4
ssg70
g1768
sg63
(lp1775
g56
(g65
g58
NtRp1776
(dp1777
g61
(dp1778
g69
I3
ssg70
Nsg63
(lp1779
sbasbasbasbag56
(g72
g58
NtRp1780
(dp1781
g61
(dp1782
sg70
g1711
sg63
(lp1783
g56
(g77
g58
NtRp1784
(dp1785
g61
(dp1786
g81
g82
ssg70
g1780
sg63
(lp1787
g730
asbag56
(g77
g58
NtRp1788
(dp1789
g61
(dp1790
g88
g89
ssg70
g1780
sg63
(lp1791
S':'
asbag56
(g77
g58
NtRp1792
(dp1793
g61
(dp1794
sg70
g1780
sg63
(lp1795
g56
(g57
g58
NtRp1796
(dp1797
g61
(dp1798
g69
I4
ssg70
g1792
sg63
(lp1799
S"<Values at 0x2fbd418: {'verbose': False, 'ip': '127.0.0.1', 'shutdown_timeout': 5, 'taskbar': False, 'nocron': False, 'pid_filename': 'httpserver.pid', 'maxthreads': None, 'softcron': False, 'server_name': 'Bishop-PC', 'bpython': False, 'nogui': False, 'port': 8000, 'extcron': False, 'debuglevel': 30, 'test': None, 'folder': 'P:\\\\Workbench\\\\DevEnv\\\\web2py', 'config': '', 'import_models': False, 'winservice': '', 'shell': None, 'run': '', 'log_filename': 'httpserver.log', 'args': [''], 'ssl_ca_certificate': None, 'scheduler': None, 'profiler_filename': None, 'ssl_private_key': '', 'password': '<ask>', 'request_queue_size': 5, 'ssl_certificate': '', 'cronjob': False, 'plain': False, 'quiet': False, 'interfaces': None, 'minthreads': None, 'timeout': 10, 'numthreads': None, 'nobanner': False}>"
p1800
asbasbasbag56
(g72
g58
NtRp1801
(dp1802
g61
(dp1803
sg70
g1711
sg63
(lp1804
g56
(g77
g58
NtRp1805
(dp1806
g61
(dp1807
g81
g82
ssg70
g1801
sg63
(lp1808
g752
asbag56
(g77
g58
NtRp1809
(dp1810
g61
(dp1811
g88
g89
ssg70
g1801
sg63
(lp1812
S':'
asbag56
(g77
g58
NtRp1813
(dp1814
g61
(dp1815
sg70
g1801
sg63
(lp1816
g56
(g57
g58
NtRp1817
(dp1818
g61
(dp1819
g69
I4
ssg70
g1813
sg63
(lp1820
S'set([])'
p1821
asbasbasbag56
(g72
g58
NtRp1822
(dp1823
g61
(dp1824
sg70
g1711
sg63
(lp1825
g56
(g77
g58
NtRp1826
(dp1827
g61
(dp1828
g81
g82
ssg70
g1822
sg63
(lp1829
g774
asbag56
(g77
g58
NtRp1830
(dp1831
g61
(dp1832
g88
g89
ssg70
g1822
sg63
(lp1833
S':'
asbag56
(g77
g58
NtRp1834
(dp1835
g61
(dp1836
sg70
g1822
sg63
(lp1837
g56
(g57
g58
NtRp1838
(dp1839
g61
(dp1840
g69
I4
ssg70
g1834
sg63
(lp1841
g99
asbasbasbag56
(g72
g58
NtRp1842
(dp1843
g61
(dp1844
sg70
g1711
sg63
(lp1845
g56
(g77
g58
NtRp1846
(dp1847
g61
(dp1848
g81
g82
ssg70
g1842
sg63
(lp1849
g795
asbag56
(g77
g58
NtRp1850
(dp1851
g61
(dp1852
g88
g89
ssg70
g1842
sg63
(lp1853
S':'
asbag56
(g77
g58
NtRp1854
(dp1855
g61
(dp1856
sg70
g1842
sg63
(lp1857
g56
(g57
g58
NtRp1858
(dp1859
g61
(dp1860
g69
I4
ssg70
g1854
sg63
(lp1861
g808
asbasbasbag56
(g72
g58
NtRp1862
(dp1863
g61
(dp1864
sg70
g1711
sg63
(lp1865
g56
(g77
g58
NtRp1866
(dp1867
g61
(dp1868
g81
g82
ssg70
g1862
sg63
(lp1869
g1037
asbag56
(g77
g58
NtRp1870
(dp1871
g61
(dp1872
g88
g89
ssg70
g1862
sg63
(lp1873
S':'
asbag56
(g77
g58
NtRp1874
(dp1875
g61
(dp1876
sg70
g1862
sg63
(lp1877
g56
(g57
g58
NtRp1878
(dp1879
g61
(dp1880
g69
I4
ssg70
g1874
sg63
(lp1881
g99
asbasbasbag56
(g72
g58
NtRp1882
(dp1883
g61
(dp1884
sg70
g1711
sg63
(lp1885
g56
(g77
g58
NtRp1886
(dp1887
g61
(dp1888
g81
g82
ssg70
g1882
sg63
(lp1889
g1275
asbag56
(g77
g58
NtRp1890
(dp1891
g61
(dp1892
g88
g89
ssg70
g1882
sg63
(lp1893
S':'
asbag56
(g77
g58
NtRp1894
(dp1895
g61
(dp1896
sg70
g1882
sg63
(lp1897
g56
(g57
g58
NtRp1898
(dp1899
g61
(dp1900
g69
I4
ssg70
g1894
sg63
(lp1901
g1288
asbasbasbag56
(g72
g58
NtRp1902
(dp1903
g61
(dp1904
sg70
g1711
sg63
(lp1905
g56
(g77
g58
NtRp1906
(dp1907
g61
(dp1908
g81
g82
ssg70
g1902
sg63
(lp1909
g1318
asbag56
(g77
g58
NtRp1910
(dp1911
g61
(dp1912
g88
g89
ssg70
g1902
sg63
(lp1913
S':'
asbag56
(g77
g58
NtRp1914
(dp1915
g61
(dp1916
sg70
g1902
sg63
(lp1917
g56
(g57
g58
NtRp1918
(dp1919
g61
(dp1920
g69
I4
ssg70
g1914
sg63
(lp1921
g56
(g65
g58
NtRp1922
(dp1923
g61
(dp1924
g69
I3
ssg70
Nsg63
(lp1925
g56
(g72
g58
NtRp1926
(dp1927
g61
(dp1928
sg70
g1922
sg63
(lp1929
g56
(g77
g58
NtRp1930
(dp1931
g61
(dp1932
sg70
g1926
sg63
(lp1933
g56
(g57
g58
NtRp1934
(dp1935
g61
(dp1936
g69
I3
ssg70
g1930
sg63
(lp1937
S'1'
asbasbasbag56
(g72
g58
NtRp1938
(dp1939
g61
(dp1940
sg70
g1922
sg63
(lp1941
g56
(g77
g58
NtRp1942
(dp1943
g61
(dp1944
sg70
g1938
sg63
(lp1945
g56
(g57
g58
NtRp1946
(dp1947
g61
(dp1948
g69
I3
ssg70
g1942
sg63
(lp1949
S'99'
p1950
asbasbasbag56
(g72
g58
NtRp1951
(dp1952
g61
(dp1953
sg70
g1922
sg63
(lp1954
g56
(g77
g58
NtRp1955
(dp1956
g61
(dp1957
sg70
g1951
sg63
(lp1958
g56
(g57
g58
NtRp1959
(dp1960
g61
(dp1961
g69
I3
ssg70
g1955
sg63
(lp1962
S'3'
asbasbasbag56
(g72
g58
NtRp1963
(dp1964
g61
(dp1965
sg70
g1922
sg63
(lp1966
g56
(g77
g58
NtRp1967
(dp1968
g61
(dp1969
sg70
g1963
sg63
(lp1970
g56
(g57
g58
NtRp1971
(dp1972
g61
(dp1973
g69
I3
ssg70
g1967
sg63
(lp1974
S'datetime.datetime(2011, 10, 24, 21, 42, 42)'
p1975
asbasbasbag56
(g72
g58
NtRp1976
(dp1977
g61
(dp1978
sg70
g1922
sg63
(lp1979
g56
(g77
g58
NtRp1980
(dp1981
g61
(dp1982
sg70
g1976
sg63
(lp1983
g56
(g57
g58
NtRp1984
(dp1985
g61
(dp1986
g69
I3
ssg70
g1980
sg63
(lp1987
g1397
asbasbasbasbasbasbasbasbasbasbasbag56
(g72
g58
NtRp1988
(dp1989
g61
(dp1990
sg70
g66
sg63
(lp1991
g56
(g77
g58
NtRp1992
(dp1993
g61
(dp1994
g81
g82
ssg70
g1988
sg63
(lp1995
S'is_https'
p1996
asbag56
(g77
g58
NtRp1997
(dp1998
g61
(dp1999
g88
g89
ssg70
g1988
sg63
(lp2000
S':'
asbag56
(g77
g58
NtRp2001
(dp2002
g61
(dp2003
sg70
g1988
sg63
(lp2004
g56
(g57
g58
NtRp2005
(dp2006
g61
(dp2007
g69
I5
ssg70
g2001
sg63
(lp2008
g99
asbasbasbag56
(g72
g58
NtRp2009
(dp2010
g61
(dp2011
sg70
g66
sg63
(lp2012
g56
(g77
g58
NtRp2013
(dp2014
g61
(dp2015
g81
g82
ssg70
g2009
sg63
(lp2016
S'is_local'
p2017
asbag56
(g77
g58
NtRp2018
(dp2019
g61
(dp2020
g88
g89
ssg70
g2009
sg63
(lp2021
S':'
asbag56
(g77
g58
NtRp2022
(dp2023
g61
(dp2024
sg70
g2009
sg63
(lp2025
g56
(g57
g58
NtRp2026
(dp2027
g61
(dp2028
g69
I5
ssg70
g2022
sg63
(lp2029
g1506
asbasbasbag56
(g72
g58
NtRp2030
(dp2031
g61
(dp2032
sg70
g66
sg63
(lp2033
g56
(g77
g58
NtRp2034
(dp2035
g61
(dp2036
g81
g82
ssg70
g2030
sg63
(lp2037
S'is_restful'
p2038
asbag56
(g77
g58
NtRp2039
(dp2040
g61
(dp2041
g88
g89
ssg70
g2030
sg63
(lp2042
S':'
asbag56
(g77
g58
NtRp2043
(dp2044
g61
(dp2045
sg70
g2030
sg63
(lp2046
g56
(g57
g58
NtRp2047
(dp2048
g61
(dp2049
g69
I5
ssg70
g2043
sg63
(lp2050
g99
asbasbasbag56
(g72
g58
NtRp2051
(dp2052
g61
(dp2053
sg70
g66
sg63
(lp2054
g56
(g77
g58
NtRp2055
(dp2056
g61
(dp2057
g81
g82
ssg70
g2051
sg63
(lp2058
S'now'
p2059
asbag56
(g77
g58
NtRp2060
(dp2061
g61
(dp2062
g88
g89
ssg70
g2051
sg63
(lp2063
S':'
asbag56
(g77
g58
NtRp2064
(dp2065
g61
(dp2066
sg70
g2051
sg63
(lp2067
g56
(g57
g58
NtRp2068
(dp2069
g61
(dp2070
g69
I5
ssg70
g2064
sg63
(lp2071
S'datetime.datetime(2011, 11, 4, 12, 14, 56, 197000)'
p2072
asbasbasbag56
(g72
g58
NtRp2073
(dp2074
g61
(dp2075
sg70
g66
sg63
(lp2076
g56
(g77
g58
NtRp2077
(dp2078
g61
(dp2079
g81
g82
ssg70
g2073
sg63
(lp2080
S'post_vars'
p2081
asbag56
(g77
g58
NtRp2082
(dp2083
g61
(dp2084
g88
g89
ssg70
g2073
sg63
(lp2085
S':'
asbag56
(g77
g58
NtRp2086
(dp2087
g61
(dp2088
sg70
g2073
sg63
(lp2089
g56
(g57
g58
NtRp2090
(dp2091
g61
(dp2092
g69
I5
ssg70
g2086
sg63
(lp2093
g56
(g65
g58
NtRp2094
(dp2095
g61
(dp2096
g69
I4
ssg70
Nsg63
(lp2097
sbasbasbasbag56
(g72
g58
NtRp2098
(dp2099
g61
(dp2100
sg70
g66
sg63
(lp2101
g56
(g77
g58
NtRp2102
(dp2103
g61
(dp2104
g81
g82
ssg70
g2098
sg63
(lp2105
S'raw_args'
p2106
asbag56
(g77
g58
NtRp2107
(dp2108
g61
(dp2109
g88
g89
ssg70
g2098
sg63
(lp2110
S':'
asbag56
(g77
g58
NtRp2111
(dp2112
g61
(dp2113
sg70
g2098
sg63
(lp2114
g56
(g57
g58
NtRp2115
(dp2116
g61
(dp2117
g69
I5
ssg70
g2111
sg63
(lp2118
g158
asbasbasbag56
(g72
g58
NtRp2119
(dp2120
g61
(dp2121
sg70
g66
sg63
(lp2122
g56
(g77
g58
NtRp2123
(dp2124
g61
(dp2125
g81
g82
ssg70
g2119
sg63
(lp2126
S'url'
p2127
asbag56
(g77
g58
NtRp2128
(dp2129
g61
(dp2130
g88
g89
ssg70
g2119
sg63
(lp2131
S':'
asbag56
(g77
g58
NtRp2132
(dp2133
g61
(dp2134
sg70
g2119
sg63
(lp2135
g56
(g57
g58
NtRp2136
(dp2137
g61
(dp2138
g69
I5
ssg70
g2132
sg63
(lp2139
S'/init/default/home/login'
p2140
asbasbasbag56
(g72
g58
NtRp2141
(dp2142
g61
(dp2143
sg70
g66
sg63
(lp2144
g56
(g77
g58
NtRp2145
(dp2146
g61
(dp2147
g81
g82
ssg70
g2141
sg63
(lp2148
S'utcnow'
p2149
asbag56
(g77
g58
NtRp2150
(dp2151
g61
(dp2152
g88
g89
ssg70
g2141
sg63
(lp2153
S':'
asbag56
(g77
g58
NtRp2154
(dp2155
g61
(dp2156
sg70
g2141
sg63
(lp2157
g56
(g57
g58
NtRp2158
(dp2159
g61
(dp2160
g69
I5
ssg70
g2154
sg63
(lp2161
S'datetime.datetime(2011, 11, 4, 16, 14, 56, 197000)'
p2162
asbasbasbag56
(g72
g58
NtRp2163
(dp2164
g61
(dp2165
sg70
g66
sg63
(lp2166
g56
(g77
g58
NtRp2167
(dp2168
g61
(dp2169
g81
g82
ssg70
g2163
sg63
(lp2170
S'uuid'
p2171
asbag56
(g77
g58
NtRp2172
(dp2173
g61
(dp2174
g88
g89
ssg70
g2163
sg63
(lp2175
S':'
asbag56
(g77
g58
NtRp2176
(dp2177
g61
(dp2178
sg70
g2163
sg63
(lp2179
g56
(g57
g58
NtRp2180
(dp2181
g61
(dp2182
g69
I5
ssg70
g2176
sg63
(lp2183
S'init/127.0.0.1.2011-11-04.12-14-56.ed41231a-2927-419f-ad9a-1c0f7ab6a1ae'
p2184
asbasbasbag56
(g72
g58
NtRp2185
(dp2186
g61
(dp2187
sg70
g66
sg63
(lp2188
g56
(g77
g58
NtRp2189
(dp2190
g61
(dp2191
g81
g82
ssg70
g2185
sg63
(lp2192
S'vars'
p2193
asbag56
(g77
g58
NtRp2194
(dp2195
g61
(dp2196
g88
g89
ssg70
g2185
sg63
(lp2197
S':'
asbag56
(g77
g58
NtRp2198
(dp2199
g61
(dp2200
sg70
g2185
sg63
(lp2201
g56
(g57
g58
NtRp2202
(dp2203
g61
(dp2204
g69
I5
ssg70
g2198
sg63
(lp2205
g56
(g65
g58
NtRp2206
(dp2207
g61
(dp2208
g69
I4
ssg70
Nsg63
(lp2209
sbasbasbasbag56
(g72
g58
NtRp2210
(dp2211
g61
(dp2212
sg70
g66
sg63
(lp2213
g56
(g77
g58
NtRp2214
(dp2215
g61
(dp2216
g81
g82
ssg70
g2210
sg63
(lp2217
S'wsgi'
p2218
asbag56
(g77
g58
NtRp2219
(dp2220
g61
(dp2221
g88
g89
ssg70
g2210
sg63
(lp2222
S':'
asbag56
(g77
g58
NtRp2223
(dp2224
g61
(dp2225
sg70
g2210
sg63
(lp2226
g56
(g57
g58
NtRp2227
(dp2228
g61
(dp2229
g69
I5
ssg70
g2223
sg63
(lp2230
g56
(g65
g58
NtRp2231
(dp2232
g61
(dp2233
g69
I4
ssg70
Nsg63
(lp2234
g56
(g72
g58
NtRp2235
(dp2236
g61
(dp2237
sg70
g2231
sg63
(lp2238
g56
(g77
g58
NtRp2239
(dp2240
g61
(dp2241
g81
g82
ssg70
g2235
sg63
(lp2242
S'environ'
p2243
asbag56
(g77
g58
NtRp2244
(dp2245
g61
(dp2246
g88
g89
ssg70
g2235
sg63
(lp2247
S':'
asbag56
(g77
g58
NtRp2248
(dp2249
g61
(dp2250
sg70
g2235
sg63
(lp2251
g56
(g57
g58
NtRp2252
(dp2253
g61
(dp2254
g69
I4
ssg70
g2248
sg63
(lp2255
g56
(g65
g58
NtRp2256
(dp2257
g61
(dp2258
g69
I3
ssg70
Nsg63
(lp2259
g56
(g72
g58
NtRp2260
(dp2261
g61
(dp2262
sg70
g2256
sg63
(lp2263
g56
(g77
g58
NtRp2264
(dp2265
g61
(dp2266
g81
g82
ssg70
g2260
sg63
(lp2267
S'HTTP_ACCEPT'
p2268
asbag56
(g77
g58
NtRp2269
(dp2270
g61
(dp2271
g88
g89
ssg70
g2260
sg63
(lp2272
S':'
asbag56
(g77
g58
NtRp2273
(dp2274
g61
(dp2275
sg70
g2260
sg63
(lp2276
g56
(g57
g58
NtRp2277
(dp2278
g61
(dp2279
g69
I3
ssg70
g2273
sg63
(lp2280
g830
asbasbasbag56
(g72
g58
NtRp2281
(dp2282
g61
(dp2283
sg70
g2256
sg63
(lp2284
g56
(g77
g58
NtRp2285
(dp2286
g61
(dp2287
g81
g82
ssg70
g2281
sg63
(lp2288
S'HTTP_ACCEPT_CHARSET'
p2289
asbag56
(g77
g58
NtRp2290
(dp2291
g61
(dp2292
g88
g89
ssg70
g2281
sg63
(lp2293
S':'
asbag56
(g77
g58
NtRp2294
(dp2295
g61
(dp2296
sg70
g2281
sg63
(lp2297
g56
(g57
g58
NtRp2298
(dp2299
g61
(dp2300
g69
I3
ssg70
g2294
sg63
(lp2301
g852
asbasbasbag56
(g72
g58
NtRp2302
(dp2303
g61
(dp2304
sg70
g2256
sg63
(lp2305
g56
(g77
g58
NtRp2306
(dp2307
g61
(dp2308
g81
g82
ssg70
g2302
sg63
(lp2309
S'HTTP_ACCEPT_ENCODING'
p2310
asbag56
(g77
g58
NtRp2311
(dp2312
g61
(dp2313
g88
g89
ssg70
g2302
sg63
(lp2314
S':'
asbag56
(g77
g58
NtRp2315
(dp2316
g61
(dp2317
sg70
g2302
sg63
(lp2318
g56
(g57
g58
NtRp2319
(dp2320
g61
(dp2321
g69
I3
ssg70
g2315
sg63
(lp2322
g874
asbasbasbag56
(g72
g58
NtRp2323
(dp2324
g61
(dp2325
sg70
g2256
sg63
(lp2326
g56
(g77
g58
NtRp2327
(dp2328
g61
(dp2329
g81
g82
ssg70
g2323
sg63
(lp2330
S'HTTP_ACCEPT_LANGUAGE'
p2331
asbag56
(g77
g58
NtRp2332
(dp2333
g61
(dp2334
g88
g89
ssg70
g2323
sg63
(lp2335
S':'
asbag56
(g77
g58
NtRp2336
(dp2337
g61
(dp2338
sg70
g2323
sg63
(lp2339
g56
(g57
g58
NtRp2340
(dp2341
g61
(dp2342
g69
I3
ssg70
g2336
sg63
(lp2343
g896
asbasbasbag56
(g72
g58
NtRp2344
(dp2345
g61
(dp2346
sg70
g2256
sg63
(lp2347
g56
(g77
g58
NtRp2348
(dp2349
g61
(dp2350
g81
g82
ssg70
g2344
sg63
(lp2351
S'HTTP_CACHE_CONTROL'
p2352
asbag56
(g77
g58
NtRp2353
(dp2354
g61
(dp2355
g88
g89
ssg70
g2344
sg63
(lp2356
S':'
asbag56
(g77
g58
NtRp2357
(dp2358
g61
(dp2359
sg70
g2344
sg63
(lp2360
g56
(g57
g58
NtRp2361
(dp2362
g61
(dp2363
g69
I3
ssg70
g2357
sg63
(lp2364
g918
asbasbasbag56
(g72
g58
NtRp2365
(dp2366
g61
(dp2367
sg70
g2256
sg63
(lp2368
g56
(g77
g58
NtRp2369
(dp2370
g61
(dp2371
g81
g82
ssg70
g2365
sg63
(lp2372
S'HTTP_CONNECTION'
p2373
asbag56
(g77
g58
NtRp2374
(dp2375
g61
(dp2376
g88
g89
ssg70
g2365
sg63
(lp2377
S':'
asbag56
(g77
g58
NtRp2378
(dp2379
g61
(dp2380
sg70
g2365
sg63
(lp2381
g56
(g57
g58
NtRp2382
(dp2383
g61
(dp2384
g69
I3
ssg70
g2378
sg63
(lp2385
g940
asbasbasbag56
(g72
g58
NtRp2386
(dp2387
g61
(dp2388
sg70
g2256
sg63
(lp2389
g56
(g77
g58
NtRp2390
(dp2391
g61
(dp2392
g81
g82
ssg70
g2386
sg63
(lp2393
S'HTTP_COOKIE'
p2394
asbag56
(g77
g58
NtRp2395
(dp2396
g61
(dp2397
g88
g89
ssg70
g2386
sg63
(lp2398
S':'
asbag56
(g77
g58
NtRp2399
(dp2400
g61
(dp2401
sg70
g2386
sg63
(lp2402
g56
(g57
g58
NtRp2403
(dp2404
g61
(dp2405
g69
I3
ssg70
g2399
sg63
(lp2406
g962
asbasbasbag56
(g72
g58
NtRp2407
(dp2408
g61
(dp2409
sg70
g2256
sg63
(lp2410
g56
(g77
g58
NtRp2411
(dp2412
g61
(dp2413
g81
g82
ssg70
g2407
sg63
(lp2414
S'HTTP_HOST'
p2415
asbag56
(g77
g58
NtRp2416
(dp2417
g61
(dp2418
g88
g89
ssg70
g2407
sg63
(lp2419
S':'
asbag56
(g77
g58
NtRp2420
(dp2421
g61
(dp2422
sg70
g2407
sg63
(lp2423
g56
(g57
g58
NtRp2424
(dp2425
g61
(dp2426
g69
I3
ssg70
g2420
sg63
(lp2427
g984
asbasbasbag56
(g72
g58
NtRp2428
(dp2429
g61
(dp2430
sg70
g2256
sg63
(lp2431
g56
(g77
g58
NtRp2432
(dp2433
g61
(dp2434
g81
g82
ssg70
g2428
sg63
(lp2435
S'HTTP_KEEP_ALIVE'
p2436
asbag56
(g77
g58
NtRp2437
(dp2438
g61
(dp2439
g88
g89
ssg70
g2428
sg63
(lp2440
S':'
asbag56
(g77
g58
NtRp2441
(dp2442
g61
(dp2443
sg70
g2428
sg63
(lp2444
g56
(g57
g58
NtRp2445
(dp2446
g61
(dp2447
g69
I3
ssg70
g2441
sg63
(lp2448
g1006
asbasbasbag56
(g72
g58
NtRp2449
(dp2450
g61
(dp2451
sg70
g2256
sg63
(lp2452
g56
(g77
g58
NtRp2453
(dp2454
g61
(dp2455
g81
g82
ssg70
g2449
sg63
(lp2456
S'HTTP_USER_AGENT'
p2457
asbag56
(g77
g58
NtRp2458
(dp2459
g61
(dp2460
g88
g89
ssg70
g2449
sg63
(lp2461
S':'
asbag56
(g77
g58
NtRp2462
(dp2463
g61
(dp2464
sg70
g2449
sg63
(lp2465
g56
(g57
g58
NtRp2466
(dp2467
g61
(dp2468
g69
I3
ssg70
g2462
sg63
(lp2469
g1028
asbasbasbag56
(g72
g58
NtRp2470
(dp2471
g61
(dp2472
sg70
g2256
sg63
(lp2473
g56
(g77
g58
NtRp2474
(dp2475
g61
(dp2476
g81
g82
ssg70
g2470
sg63
(lp2477
S'PATH_INFO'
p2478
asbag56
(g77
g58
NtRp2479
(dp2480
g61
(dp2481
g88
g89
ssg70
g2470
sg63
(lp2482
S':'
asbag56
(g77
g58
NtRp2483
(dp2484
g61
(dp2485
sg70
g2470
sg63
(lp2486
g56
(g57
g58
NtRp2487
(dp2488
g61
(dp2489
g69
I3
ssg70
g2483
sg63
(lp2490
g1071
asbasbasbag56
(g72
g58
NtRp2491
(dp2492
g61
(dp2493
sg70
g2256
sg63
(lp2494
g56
(g77
g58
NtRp2495
(dp2496
g61
(dp2497
g81
g82
ssg70
g2491
sg63
(lp2498
S'QUERY_STRING'
p2499
asbag56
(g77
g58
NtRp2500
(dp2501
g61
(dp2502
g88
g89
ssg70
g2491
sg63
(lp2503
S':'
asbag56
(g77
g58
NtRp2504
(dp2505
g61
(dp2506
sg70
g2491
sg63
(lp2507
g56
(g57
g58
NtRp2508
(dp2509
g61
(dp2510
g69
I3
ssg70
g2504
sg63
(lp2511
S''
asbasbasbag56
(g72
g58
NtRp2512
(dp2513
g61
(dp2514
sg70
g2256
sg63
(lp2515
g56
(g77
g58
NtRp2516
(dp2517
g61
(dp2518
g81
g82
ssg70
g2512
sg63
(lp2519
S'REMOTE_ADDR'
p2520
asbag56
(g77
g58
NtRp2521
(dp2522
g61
(dp2523
g88
g89
ssg70
g2512
sg63
(lp2524
S':'
asbag56
(g77
g58
NtRp2525
(dp2526
g61
(dp2527
sg70
g2512
sg63
(lp2528
g56
(g57
g58
NtRp2529
(dp2530
g61
(dp2531
g69
I3
ssg70
g2525
sg63
(lp2532
g202
asbasbasbag56
(g72
g58
NtRp2533
(dp2534
g61
(dp2535
sg70
g2256
sg63
(lp2536
g56
(g77
g58
NtRp2537
(dp2538
g61
(dp2539
g81
g82
ssg70
g2533
sg63
(lp2540
S'REMOTE_PORT'
p2541
asbag56
(g77
g58
NtRp2542
(dp2543
g61
(dp2544
g88
g89
ssg70
g2533
sg63
(lp2545
S':'
asbag56
(g77
g58
NtRp2546
(dp2547
g61
(dp2548
sg70
g2533
sg63
(lp2549
g56
(g57
g58
NtRp2550
(dp2551
g61
(dp2552
g69
I3
ssg70
g2546
sg63
(lp2553
g1135
asbasbasbag56
(g72
g58
NtRp2554
(dp2555
g61
(dp2556
sg70
g2256
sg63
(lp2557
g56
(g77
g58
NtRp2558
(dp2559
g61
(dp2560
g81
g82
ssg70
g2554
sg63
(lp2561
S'REQUEST_METHOD'
p2562
asbag56
(g77
g58
NtRp2563
(dp2564
g61
(dp2565
g88
g89
ssg70
g2554
sg63
(lp2566
S':'
asbag56
(g77
g58
NtRp2567
(dp2568
g61
(dp2569
sg70
g2554
sg63
(lp2570
g56
(g57
g58
NtRp2571
(dp2572
g61
(dp2573
g69
I3
ssg70
g2567
sg63
(lp2574
g1157
asbasbasbag56
(g72
g58
NtRp2575
(dp2576
g61
(dp2577
sg70
g2256
sg63
(lp2578
g56
(g77
g58
NtRp2579
(dp2580
g61
(dp2581
g81
g82
ssg70
g2575
sg63
(lp2582
S'SCRIPT_NAME'
p2583
asbag56
(g77
g58
NtRp2584
(dp2585
g61
(dp2586
g88
g89
ssg70
g2575
sg63
(lp2587
S':'
asbag56
(g77
g58
NtRp2588
(dp2589
g61
(dp2590
sg70
g2575
sg63
(lp2591
g56
(g57
g58
NtRp2592
(dp2593
g61
(dp2594
g69
I3
ssg70
g2588
sg63
(lp2595
S''
asbasbasbag56
(g72
g58
NtRp2596
(dp2597
g61
(dp2598
sg70
g2256
sg63
(lp2599
g56
(g77
g58
NtRp2600
(dp2601
g61
(dp2602
g81
g82
ssg70
g2596
sg63
(lp2603
S'SERVER_NAME'
p2604
asbag56
(g77
g58
NtRp2605
(dp2606
g61
(dp2607
g88
g89
ssg70
g2596
sg63
(lp2608
S':'
asbag56
(g77
g58
NtRp2609
(dp2610
g61
(dp2611
sg70
g2596
sg63
(lp2612
g56
(g57
g58
NtRp2613
(dp2614
g61
(dp2615
g69
I3
ssg70
g2609
sg63
(lp2616
g1200
asbasbasbag56
(g72
g58
NtRp2617
(dp2618
g61
(dp2619
sg70
g2256
sg63
(lp2620
g56
(g77
g58
NtRp2621
(dp2622
g61
(dp2623
g81
g82
ssg70
g2617
sg63
(lp2624
S'SERVER_PORT'
p2625
asbag56
(g77
g58
NtRp2626
(dp2627
g61
(dp2628
g88
g89
ssg70
g2617
sg63
(lp2629
S':'
asbag56
(g77
g58
NtRp2630
(dp2631
g61
(dp2632
sg70
g2617
sg63
(lp2633
g56
(g57
g58
NtRp2634
(dp2635
g61
(dp2636
g69
I3
ssg70
g2630
sg63
(lp2637
g1222
asbasbasbag56
(g72
g58
NtRp2638
(dp2639
g61
(dp2640
sg70
g2256
sg63
(lp2641
g56
(g77
g58
NtRp2642
(dp2643
g61
(dp2644
g81
g82
ssg70
g2638
sg63
(lp2645
S'SERVER_PROTOCOL'
p2646
asbag56
(g77
g58
NtRp2647
(dp2648
g61
(dp2649
g88
g89
ssg70
g2638
sg63
(lp2650
S':'
asbag56
(g77
g58
NtRp2651
(dp2652
g61
(dp2653
sg70
g2638
sg63
(lp2654
g56
(g57
g58
NtRp2655
(dp2656
g61
(dp2657
g69
I3
ssg70
g2651
sg63
(lp2658
g1244
asbasbasbag56
(g72
g58
NtRp2659
(dp2660
g61
(dp2661
sg70
g2256
sg63
(lp2662
g56
(g77
g58
NtRp2663
(dp2664
g61
(dp2665
g81
g82
ssg70
g2659
sg63
(lp2666
S'SERVER_SOFTWARE'
p2667
asbag56
(g77
g58
NtRp2668
(dp2669
g61
(dp2670
g88
g89
ssg70
g2659
sg63
(lp2671
S':'
asbag56
(g77
g58
NtRp2672
(dp2673
g61
(dp2674
sg70
g2659
sg63
(lp2675
g56
(g57
g58
NtRp2676
(dp2677
g61
(dp2678
g69
I3
ssg70
g2672
sg63
(lp2679
g1266
asbasbasbag56
(g72
g58
NtRp2680
(dp2681
g61
(dp2682
sg70
g2256
sg63
(lp2683
g56
(g77
g58
NtRp2684
(dp2685
g61
(dp2686
g81
g82
ssg70
g2680
sg63
(lp2687
S'wsgi.errors'
p2688
asbag56
(g77
g58
NtRp2689
(dp2690
g61
(dp2691
g88
g89
ssg70
g2680
sg63
(lp2692
S':'
asbag56
(g77
g58
NtRp2693
(dp2694
g61
(dp2695
sg70
g2680
sg63
(lp2696
g56
(g57
g58
NtRp2697
(dp2698
g61
(dp2699
g69
I3
ssg70
g2693
sg63
(lp2700
S"<open file '<stderr>', mode 'w' at 0x01DC50D0>"
p2701
asbasbasbag56
(g72
g58
NtRp2702
(dp2703
g61
(dp2704
sg70
g2256
sg63
(lp2705
g56
(g77
g58
NtRp2706
(dp2707
g61
(dp2708
g81
g82
ssg70
g2702
sg63
(lp2709
S'wsgi.file_wrapper'
p2710
asbag56
(g77
g58
NtRp2711
(dp2712
g61
(dp2713
g88
g89
ssg70
g2702
sg63
(lp2714
S':'
asbag56
(g77
g58
NtRp2715
(dp2716
g61
(dp2717
sg70
g2702
sg63
(lp2718
g56
(g57
g58
NtRp2719
(dp2720
g61
(dp2721
g69
I3
ssg70
g2715
sg63
(lp2722
S'<class wsgiref.util.FileWrapper at 0x02D07AB0>'
p2723
asbasbasbag56
(g72
g58
NtRp2724
(dp2725
g61
(dp2726
sg70
g2256
sg63
(lp2727
g56
(g77
g58
NtRp2728
(dp2729
g61
(dp2730
g81
g82
ssg70
g2724
sg63
(lp2731
S'wsgi.input'
p2732
asbag56
(g77
g58
NtRp2733
(dp2734
g61
(dp2735
g88
g89
ssg70
g2724
sg63
(lp2736
S':'
asbag56
(g77
g58
NtRp2737
(dp2738
g61
(dp2739
sg70
g2724
sg63
(lp2740
g56
(g57
g58
NtRp2741
(dp2742
g61
(dp2743
g69
I3
ssg70
g2737
sg63
(lp2744
S'<cStringIO.StringO object at 0x097EF4E0>'
p2745
asbasbasbag56
(g72
g58
NtRp2746
(dp2747
g61
(dp2748
sg70
g2256
sg63
(lp2749
g56
(g77
g58
NtRp2750
(dp2751
g61
(dp2752
g81
g82
ssg70
g2746
sg63
(lp2753
S'wsgi.multiprocess'
p2754
asbag56
(g77
g58
NtRp2755
(dp2756
g61
(dp2757
g88
g89
ssg70
g2746
sg63
(lp2758
S':'
asbag56
(g77
g58
NtRp2759
(dp2760
g61
(dp2761
sg70
g2746
sg63
(lp2762
g56
(g57
g58
NtRp2763
(dp2764
g61
(dp2765
g69
I3
ssg70
g2759
sg63
(lp2766
g99
asbasbasbag56
(g72
g58
NtRp2767
(dp2768
g61
(dp2769
sg70
g2256
sg63
(lp2770
g56
(g77
g58
NtRp2771
(dp2772
g61
(dp2773
g81
g82
ssg70
g2767
sg63
(lp2774
S'wsgi.multithread'
p2775
asbag56
(g77
g58
NtRp2776
(dp2777
g61
(dp2778
g88
g89
ssg70
g2767
sg63
(lp2779
S':'
asbag56
(g77
g58
NtRp2780
(dp2781
g61
(dp2782
sg70
g2767
sg63
(lp2783
g56
(g57
g58
NtRp2784
(dp2785
g61
(dp2786
g69
I3
ssg70
g2780
sg63
(lp2787
g1506
asbasbasbag56
(g72
g58
NtRp2788
(dp2789
g61
(dp2790
sg70
g2256
sg63
(lp2791
g56
(g77
g58
NtRp2792
(dp2793
g61
(dp2794
g81
g82
ssg70
g2788
sg63
(lp2795
S'wsgi.run_once'
p2796
asbag56
(g77
g58
NtRp2797
(dp2798
g61
(dp2799
g88
g89
ssg70
g2788
sg63
(lp2800
S':'
asbag56
(g77
g58
NtRp2801
(dp2802
g61
(dp2803
sg70
g2788
sg63
(lp2804
g56
(g57
g58
NtRp2805
(dp2806
g61
(dp2807
g69
I3
ssg70
g2801
sg63
(lp2808
g99
asbasbasbag56
(g72
g58
NtRp2809
(dp2810
g61
(dp2811
sg70
g2256
sg63
(lp2812
g56
(g77
g58
NtRp2813
(dp2814
g61
(dp2815
g81
g82
ssg70
g2809
sg63
(lp2816
S'wsgi.url_scheme'
p2817
asbag56
(g77
g58
NtRp2818
(dp2819
g61
(dp2820
g88
g89
ssg70
g2809
sg63
(lp2821
S':'
asbag56
(g77
g58
NtRp2822
(dp2823
g61
(dp2824
sg70
g2809
sg63
(lp2825
g56
(g57
g58
NtRp2826
(dp2827
g61
(dp2828
g69
I3
ssg70
g2822
sg63
(lp2829
g1549
asbasbasbag56
(g72
g58
NtRp2830
(dp2831
g61
(dp2832
sg70
g2256
sg63
(lp2833
g56
(g77
g58
NtRp2834
(dp2835
g61
(dp2836
g81
g82
ssg70
g2830
sg63
(lp2837
S'wsgi.version'
p2838
asbag56
(g77
g58
NtRp2839
(dp2840
g61
(dp2841
g88
g89
ssg70
g2830
sg63
(lp2842
S':'
asbag56
(g77
g58
NtRp2843
(dp2844
g61
(dp2845
sg70
g2830
sg63
(lp2846
g56
(g57
g58
NtRp2847
(dp2848
g61
(dp2849
g69
I3
ssg70
g2843
sg63
(lp2850
S'1'
asbasbasbasbasbasbasbasbasbasbasbasbasbsS'frames'
p2851
(lp2852
(dp2853
S'file'
p2854
S'P:\\Workbench\\DevEnv\\web2py\\gluon\\restricted.py'
p2855
sS'dump'
p2856
(dp2857
S'environment'
p2858
S"{'A': <class 'gluon.html.A'>, 'Auth': <class 'gluon.tools.Auth'>, 'B': <class 'gluon.html.B'>, 'BEAUTIFY': <class 'gluon.html.BEAUTIFY'>, 'BODY': <class 'gluon.html.BODY'>, 'BR': <class 'gluon.html.BR'>, 'BUTTON': <class 'gluon.html.BUTTON'>, 'CAT': <class 'gluon.html.CAT'>, 'CENTER': <class 'gluon.html.CENTER'>, 'CLEANUP': <class 'gluon.validators.CLEANUP'>, ...}"
p2859
sS'ccode'
p2860
S'<code object <module> at 034934E8, file "P:\\Work...plications\\init\\controllers/default.py", line 12>'
p2861
ssS'lnum'
p2862
I192
sS'lines'
p2863
(dp2864
I192
S'        exec ccode in environment'
p2865
sI193
S'    except HTTP:'
p2866
sI194
S'        raise'
p2867
sI195
S'    except Exception:'
p2868
sI196
S'        # XXX Show exception in Wing IDE if running in debugger'
p2869
sI187
S'    try:'
p2870
sI188
S'        if type(code) == types.CodeType:'
p2871
sI189
S'            ccode = code'
p2872
sI190
S'        else:'
p2873
sI191
S'            ccode = compile2(code,layer)'
p2874
ssS'call'
p2875
S"(code='# -*- coding: utf-8 -*-\\n# this file is released ...m=crud())\\n\\nresponse._vars=response._caller(home)\\n', environment={'A': <class 'gluon.html.A'>, 'Auth': <class 'gluon.tools.Auth'>, 'B': <class 'gluon.html.B'>, 'BEAUTIFY': <class 'gluon.html.BEAUTIFY'>, 'BODY': <class 'gluon.html.BODY'>, 'BR': <class 'gluon.html.BR'>, 'BUTTON': <class 'gluon.html.BUTTON'>, 'CAT': <class 'gluon.html.CAT'>, 'CENTER': <class 'gluon.html.CENTER'>, 'CLEANUP': <class 'gluon.validators.CLEANUP'>, ...}, layer=r'P:\\Workbench\\DevEnv\\web2py\\applications\\init\\controllers/default.py')"
p2876
sS'func'
p2877
S'restricted'
p2878
sa(dp2879
g2854
S'P:\\Workbench\\DevEnv\\web2py\\applications\\init\\controllers\\default.py'
p2880
sg2856
(dp2881
S'crud'
p2882
S'<gluon.tools.Crud object>'
p2883
sS'form'
p2884
S'undefined'
p2885
sS'builtindict'
p2886
S"<type 'dict'>"
p2887
ssg2862
I84
sg2863
(dp2888
I73
S'    http://..../[app]/default/data/update/[table]/[id]'
p2889
sI74
S'    http://..../[app]/default/data/delete/[table]/[id]'
p2890
sI75
S'    http://..../[app]/default/data/select/[table]'
p2891
sI76
S'    http://..../[app]/default/data/search/[table]'
p2892
sI77
S'    but URLs bust be signed, i.e. linked with'
p2893
sI78
S"      A('table',_href=URL('data/tables',user_signature=True))"
p2894
sI79
S'    or with the signed load operator'
p2895
sI80
S"      LOAD('default','data.load',args='tables',ajax=True,user_signature=True)"
p2896
sI81
S'    """'
p2897
sI82
S'    return dict(form=crud())'
p2898
ssg2875
S'()'
p2899
sg2877
S'<module>'
p2900
sa(dp2901
g2854
S'P:\\Workbench\\DevEnv\\web2py\\gluon\\globals.py'
p2902
sg2856
(dp2903
S'self'
p2904
g2885
sS'f'
S'<function home>'
p2905
ssg2862
I149
sg2863
(dp2906
I144
S'        self.meta = Storage()      # used by web2py_ajax.html'
p2907
sI145
S'        self.menu = []             # used by the default view layout'
p2908
sI146
S'        self.files = []            # used by web2py_ajax.html'
p2909
sI147
S'        self.generic_patterns = [] # patterns to allow generic views'
p2910
sI148
S'        self._vars = None'
p2911
sI149
S'        self._caller = lambda f: f()'
p2912
sI150
S'        self._view_environment = None'
p2913
sI151
S'        self._custom_commit = None'
p2914
sI152
S'        self._custom_rollback = None'
p2915
sI153
S''
ssg2875
S'(f=<function home>)'
p2916
sg2877
S'<lambda>'
p2917
sa(dp2918
g2854
S'P:\\Workbench\\DevEnv\\web2py\\gluon\\tools.py'
p2919
sg2856
(dp2920
S'action'
p2921
S'<function home>'
p2922
sS'a'
S'()'
p2923
sS'b'
g44
ssg2862
I2473
sg2863
(dp2924
I2468
S"                            '?_next='+urllib.quote(next))"
p2925
sI2469
S'                if not condition and not (condition and callable(condition) and condition()):'
p2926
sI2470
S'                    current.session.flash = self.messages.access_denied'
p2927
sI2471
S'                    return call_or_redirect('
p2928
sI2472
S'                        self.settings.on_failed_authorization)'
p2929
sI2473
S'                return action(*a, **b)'
p2930
sI2474
S'            f.__doc__ = action.__doc__'
p2931
sI2475
S'            f.__name__ = action.__name__'
p2932
sI2476
S'            f.__dict__.update(action.__dict__)'
p2933
sI2477
S'            return f'
p2934
ssg2875
S'(*a=(), **b={})'
p2935
sg2877
S'f'
sa(dp2936
g2854
S'P:\\Workbench\\DevEnv\\web2py\\applications\\init\\controllers\\default.py'
p2937
sg2856
(dp2938
S'global home'
p2939
S'<function home>'
p2940
ssg2862
I43
sg2863
(dp2941
I38
S''
sI39
S'## Users home page.'
p2942
sI40
S'@auth.requires_login()'
p2943
sI41
S'def home():'
p2944
sI42
S''
sI43
S'    return dict(request=request())'
p2945
sI44
S''
sI45
S'def contact():'
p2946
sI46
S''
sI47
S'    return dict()'
p2947
ssg2875
S'()'
p2948
sg2877
S'home'
p2949
sasS'pyver'
p2950
S'Python 2.7.2: P:\\Workbench\\DevEnv\\Python27\\python.exe'
p2951
sS'session'
p2952
g56
(g57
g58
NtRp2953
(dp2954
g61
(dp2955
sg63
(lp2956
g56
(g65
g58
NtRp2957
(dp2958
g61
(dp2959
g69
I5
ssg70
Nsg63
(lp2960
g56
(g72
g58
NtRp2961
(dp2962
g61
(dp2963
sg70
g2957
sg63
(lp2964
g56
(g77
g58
NtRp2965
(dp2966
g61
(dp2967
g81
g82
ssg70
g2961
sg63
(lp2968
S'auth'
p2969
asbag56
(g77
g58
NtRp2970
(dp2971
g61
(dp2972
g88
g89
ssg70
g2961
sg63
(lp2973
S':'
asbag56
(g77
g58
NtRp2974
(dp2975
g61
(dp2976
sg70
g2961
sg63
(lp2977
g56
(g57
g58
NtRp2978
(dp2979
g61
(dp2980
g69
I5
ssg70
g2974
sg63
(lp2981
g56
(g65
g58
NtRp2982
(dp2983
g61
(dp2984
g69
I4
ssg70
Nsg63
(lp2985
g56
(g72
g58
NtRp2986
(dp2987
g61
(dp2988
sg70
g2982
sg63
(lp2989
g56
(g77
g58
NtRp2990
(dp2991
g61
(dp2992
g81
g82
ssg70
g2986
sg63
(lp2993
S'expiration'
p2994
asbag56
(g77
g58
NtRp2995
(dp2996
g61
(dp2997
g88
g89
ssg70
g2986
sg63
(lp2998
S':'
asbag56
(g77
g58
NtRp2999
(dp3000
g61
(dp3001
sg70
g2986
sg63
(lp3002
g56
(g57
g58
NtRp3003
(dp3004
g61
(dp3005
g69
I4
ssg70
g2999
sg63
(lp3006
S'3600'
p3007
asbasbasbag56
(g72
g58
NtRp3008
(dp3009
g61
(dp3010
sg70
g2982
sg63
(lp3011
g56
(g77
g58
NtRp3012
(dp3013
g61
(dp3014
g81
g82
ssg70
g3008
sg63
(lp3015
S'hmac_key'
p3016
asbag56
(g77
g58
NtRp3017
(dp3018
g61
(dp3019
g88
g89
ssg70
g3008
sg63
(lp3020
S':'
asbag56
(g77
g58
NtRp3021
(dp3022
g61
(dp3023
sg70
g3008
sg63
(lp3024
g56
(g57
g58
NtRp3025
(dp3026
g61
(dp3027
g69
I4
ssg70
g3021
sg63
(lp3028
S'd02d35f5-ca31-4d7d-ab9a-8fb5ea988a02'
p3029
asbasbasbag56
(g72
g58
NtRp3030
(dp3031
g61
(dp3032
sg70
g2982
sg63
(lp3033
g56
(g77
g58
NtRp3034
(dp3035
g61
(dp3036
g81
g82
ssg70
g3030
sg63
(lp3037
S'last_visit'
p3038
asbag56
(g77
g58
NtRp3039
(dp3040
g61
(dp3041
g88
g89
ssg70
g3030
sg63
(lp3042
S':'
asbag56
(g77
g58
NtRp3043
(dp3044
g61
(dp3045
sg70
g3030
sg63
(lp3046
g56
(g57
g58
NtRp3047
(dp3048
g61
(dp3049
g69
I4
ssg70
g3043
sg63
(lp3050
S'datetime.datetime(2011, 11, 4, 12, 11, 21, 355000)'
p3051
asbasbasbag56
(g72
g58
NtRp3052
(dp3053
g61
(dp3054
sg70
g2982
sg63
(lp3055
g56
(g77
g58
NtRp3056
(dp3057
g61
(dp3058
g81
g82
ssg70
g3052
sg63
(lp3059
S'user'
p3060
asbag56
(g77
g58
NtRp3061
(dp3062
g61
(dp3063
g88
g89
ssg70
g3052
sg63
(lp3064
S':'
asbag56
(g77
g58
NtRp3065
(dp3066
g61
(dp3067
sg70
g3052
sg63
(lp3068
g56
(g57
g58
NtRp3069
(dp3070
g61
(dp3071
g69
I4
ssg70
g3065
sg63
(lp3072
g56
(g65
g58
NtRp3073
(dp3074
g61
(dp3075
g69
I3
ssg70
Nsg63
(lp3076
g56
(g72
g58
NtRp3077
(dp3078
g61
(dp3079
sg70
g3073
sg63
(lp3080
g56
(g77
g58
NtRp3081
(dp3082
g61
(dp3083
g81
g82
ssg70
g3077
sg63
(lp3084
S'birthday'
p3085
asbag56
(g77
g58
NtRp3086
(dp3087
g61
(dp3088
g88
g89
ssg70
g3077
sg63
(lp3089
S':'
asbag56
(g77
g58
NtRp3090
(dp3091
g61
(dp3092
sg70
g3077
sg63
(lp3093
g56
(g57
g58
NtRp3094
(dp3095
g61
(dp3096
g69
I3
ssg70
g3090
sg63
(lp3097
S'datetime.date(2011, 11, 2)'
p3098
asbasbasbag56
(g72
g58
NtRp3099
(dp3100
g61
(dp3101
sg70
g3073
sg63
(lp3102
g56
(g77
g58
NtRp3103
(dp3104
g61
(dp3105
g81
g82
ssg70
g3099
sg63
(lp3106
S'current_weight'
p3107
asbag56
(g77
g58
NtRp3108
(dp3109
g61
(dp3110
g88
g89
ssg70
g3099
sg63
(lp3111
S':'
asbag56
(g77
g58
NtRp3112
(dp3113
g61
(dp3114
sg70
g3099
sg63
(lp3115
g56
(g57
g58
NtRp3116
(dp3117
g61
(dp3118
g69
I3
ssg70
g3112
sg63
(lp3119
S'200'
p3120
asbasbasbag56
(g72
g58
NtRp3121
(dp3122
g61
(dp3123
sg70
g3073
sg63
(lp3124
g56
(g77
g58
NtRp3125
(dp3126
g61
(dp3127
g81
g82
ssg70
g3121
sg63
(lp3128
S'email'
p3129
asbag56
(g77
g58
NtRp3130
(dp3131
g61
(dp3132
g88
g89
ssg70
g3121
sg63
(lp3133
S':'
asbag56
(g77
g58
NtRp3134
(dp3135
g61
(dp3136
sg70
g3121
sg63
(lp3137
g56
(g57
g58
NtRp3138
(dp3139
g61
(dp3140
g69
I3
ssg70
g3134
sg63
(lp3141
S'test@test.com'
p3142
asbasbasbag56
(g72
g58
NtRp3143
(dp3144
g61
(dp3145
sg70
g3073
sg63
(lp3146
g56
(g77
g58
NtRp3147
(dp3148
g61
(dp3149
g81
g82
ssg70
g3143
sg63
(lp3150
S'first_name'
p3151
asbag56
(g77
g58
NtRp3152
(dp3153
g61
(dp3154
g88
g89
ssg70
g3143
sg63
(lp3155
S':'
asbag56
(g77
g58
NtRp3156
(dp3157
g61
(dp3158
sg70
g3143
sg63
(lp3159
g56
(g57
g58
NtRp3160
(dp3161
g61
(dp3162
g69
I3
ssg70
g3156
sg63
(lp3163
S'test'
p3164
asbasbasbag56
(g72
g58
NtRp3165
(dp3166
g61
(dp3167
sg70
g3073
sg63
(lp3168
g56
(g77
g58
NtRp3169
(dp3170
g61
(dp3171
g81
g82
ssg70
g3165
sg63
(lp3172
S'gender'
p3173
asbag56
(g77
g58
NtRp3174
(dp3175
g61
(dp3176
g88
g89
ssg70
g3165
sg63
(lp3177
S':'
asbag56
(g77
g58
NtRp3178
(dp3179
g61
(dp3180
sg70
g3165
sg63
(lp3181
g56
(g57
g58
NtRp3182
(dp3183
g61
(dp3184
g69
I3
ssg70
g3178
sg63
(lp3185
S'Male'
p3186
asbasbasbag56
(g72
g58
NtRp3187
(dp3188
g61
(dp3189
sg70
g3073
sg63
(lp3190
g56
(g77
g58
NtRp3191
(dp3192
g61
(dp3193
g81
g82
ssg70
g3187
sg63
(lp3194
S'height'
p3195
asbag56
(g77
g58
NtRp3196
(dp3197
g61
(dp3198
g88
g89
ssg70
g3187
sg63
(lp3199
S':'
asbag56
(g77
g58
NtRp3200
(dp3201
g61
(dp3202
sg70
g3187
sg63
(lp3203
g56
(g57
g58
NtRp3204
(dp3205
g61
(dp3206
g69
I3
ssg70
g3200
sg63
(lp3207
S'72'
p3208
asbasbasbag56
(g72
g58
NtRp3209
(dp3210
g61
(dp3211
sg70
g3073
sg63
(lp3212
g56
(g77
g58
NtRp3213
(dp3214
g61
(dp3215
g81
g82
ssg70
g3209
sg63
(lp3216
S'id'
p3217
asbag56
(g77
g58
NtRp3218
(dp3219
g61
(dp3220
g88
g89
ssg70
g3209
sg63
(lp3221
S':'
asbag56
(g77
g58
NtRp3222
(dp3223
g61
(dp3224
sg70
g3209
sg63
(lp3225
g56
(g57
g58
NtRp3226
(dp3227
g61
(dp3228
g69
I3
ssg70
g3222
sg63
(lp3229
S'1'
asbasbasbag56
(g72
g58
NtRp3230
(dp3231
g61
(dp3232
sg70
g3073
sg63
(lp3233
g56
(g77
g58
NtRp3234
(dp3235
g61
(dp3236
g81
g82
ssg70
g3230
sg63
(lp3237
S'last_name'
p3238
asbag56
(g77
g58
NtRp3239
(dp3240
g61
(dp3241
g88
g89
ssg70
g3230
sg63
(lp3242
S':'
asbag56
(g77
g58
NtRp3243
(dp3244
g61
(dp3245
sg70
g3230
sg63
(lp3246
g56
(g57
g58
NtRp3247
(dp3248
g61
(dp3249
g69
I3
ssg70
g3243
sg63
(lp3250
S'test'
p3251
asbasbasbag56
(g72
g58
NtRp3252
(dp3253
g61
(dp3254
sg70
g3073
sg63
(lp3255
g56
(g77
g58
NtRp3256
(dp3257
g61
(dp3258
g81
g82
ssg70
g3252
sg63
(lp3259
S'password'
p3260
asbag56
(g77
g58
NtRp3261
(dp3262
g61
(dp3263
g88
g89
ssg70
g3252
sg63
(lp3264
S':'
asbag56
(g77
g58
NtRp3265
(dp3266
g61
(dp3267
sg70
g3252
sg63
(lp3268
g56
(g57
g58
NtRp3269
(dp3270
g61
(dp3271
g69
I3
ssg70
g3265
sg63
(lp3272
S'12923092f4d9e86e56018b9cdd790947'
p3273
asbasbasbag56
(g72
g58
NtRp3274
(dp3275
g61
(dp3276
sg70
g3073
sg63
(lp3277
g56
(g77
g58
NtRp3278
(dp3279
g61
(dp3280
g81
g82
ssg70
g3274
sg63
(lp3281
S'registration_id'
p3282
asbag56
(g77
g58
NtRp3283
(dp3284
g61
(dp3285
g88
g89
ssg70
g3274
sg63
(lp3286
S':'
asbag56
(g77
g58
NtRp3287
(dp3288
g61
(dp3289
sg70
g3274
sg63
(lp3290
g56
(g57
g58
NtRp3291
(dp3292
g61
(dp3293
g69
I3
ssg70
g3287
sg63
(lp3294
S''
asbasbasbag56
(g72
g58
NtRp3295
(dp3296
g61
(dp3297
sg70
g3073
sg63
(lp3298
g56
(g77
g58
NtRp3299
(dp3300
g61
(dp3301
g81
g82
ssg70
g3295
sg63
(lp3302
S'registration_key'
p3303
asbag56
(g77
g58
NtRp3304
(dp3305
g61
(dp3306
g88
g89
ssg70
g3295
sg63
(lp3307
S':'
asbag56
(g77
g58
NtRp3308
(dp3309
g61
(dp3310
sg70
g3295
sg63
(lp3311
g56
(g57
g58
NtRp3312
(dp3313
g61
(dp3314
g69
I3
ssg70
g3308
sg63
(lp3315
S''
asbasbasbag56
(g72
g58
NtRp3316
(dp3317
g61
(dp3318
sg70
g3073
sg63
(lp3319
g56
(g77
g58
NtRp3320
(dp3321
g61
(dp3322
g81
g82
ssg70
g3316
sg63
(lp3323
S'reset_password_key'
p3324
asbag56
(g77
g58
NtRp3325
(dp3326
g61
(dp3327
g88
g89
ssg70
g3316
sg63
(lp3328
S':'
asbag56
(g77
g58
NtRp3329
(dp3330
g61
(dp3331
sg70
g3316
sg63
(lp3332
g56
(g57
g58
NtRp3333
(dp3334
g61
(dp3335
g69
I3
ssg70
g3329
sg63
(lp3336
S''
asbasbasbasbasbasbasbasbasbasbasbasbasbsS'etype'
p3337
S"<type 'exceptions.TypeError'>"
p3338
sS'date'
p3339
S'Fri Nov 04 12:14:56 2011'
p3340
sS'response'
p3341
g56
(g57
g58
NtRp3342
(dp3343
g61
(dp3344
sg63
(lp3345
g56
(g65
g58
NtRp3346
(dp3347
g61
(dp3348
g69
I5
ssg70
Nsg63
(lp3349
g56
(g72
g58
NtRp3350
(dp3351
g61
(dp3352
sg70
g3346
sg63
(lp3353
g56
(g77
g58
NtRp3354
(dp3355
g61
(dp3356
g81
g82
ssg70
g3350
sg63
(lp3357
g167
asbag56
(g77
g58
NtRp3358
(dp3359
g61
(dp3360
g88
g89
ssg70
g3350
sg63
(lp3361
S':'
asbag56
(g77
g58
NtRp3362
(dp3363
g61
(dp3364
sg70
g3350
sg63
(lp3365
g56
(g57
g58
NtRp3366
(dp3367
g61
(dp3368
g69
I5
ssg70
g3362
sg63
(lp3369
S'<cStringIO.StringO object at 0x09757E20>'
p3370
asbasbasbag56
(g72
g58
NtRp3371
(dp3372
g61
(dp3373
sg70
g3346
sg63
(lp3374
g56
(g77
g58
NtRp3375
(dp3376
g61
(dp3377
g81
g82
ssg70
g3371
sg63
(lp3378
g233
asbag56
(g77
g58
NtRp3379
(dp3380
g61
(dp3381
g88
g89
ssg70
g3371
sg63
(lp3382
S':'
asbag56
(g77
g58
NtRp3383
(dp3384
g61
(dp3385
sg70
g3371
sg63
(lp3386
g56
(g57
g58
NtRp3387
(dp3388
g61
(dp3389
g69
I5
ssg70
g3383
sg63
(lp3390
g56
(g65
g58
NtRp3391
(dp3392
g61
(dp3393
g69
I4
ssg70
Nsg63
(lp3394
g56
(g72
g58
NtRp3395
(dp3396
g61
(dp3397
sg70
g3391
sg63
(lp3398
g56
(g77
g58
NtRp3399
(dp3400
g61
(dp3401
g81
g82
ssg70
g3395
sg63
(lp3402
S'session_id_init'
p3403
asbag56
(g77
g58
NtRp3404
(dp3405
g61
(dp3406
g88
g89
ssg70
g3395
sg63
(lp3407
S':'
asbag56
(g77
g58
NtRp3408
(dp3409
g61
(dp3410
sg70
g3395
sg63
(lp3411
g56
(g57
g58
NtRp3412
(dp3413
g61
(dp3414
g69
I4
ssg70
g3408
sg63
(lp3415
g56
(g65
g58
NtRp3416
(dp3417
g61
(dp3418
g69
I3
ssg70
Nsg63
(lp3419
g56
(g72
g58
NtRp3420
(dp3421
g61
(dp3422
sg70
g3416
sg63
(lp3423
g56
(g77
g58
NtRp3424
(dp3425
g61
(dp3426
g81
g82
ssg70
g3420
sg63
(lp3427
g283
asbag56
(g77
g58
NtRp3428
(dp3429
g61
(dp3430
g88
g89
ssg70
g3420
sg63
(lp3431
S':'
asbag56
(g77
g58
NtRp3432
(dp3433
g61
(dp3434
sg70
g3420
sg63
(lp3435
g56
(g57
g58
NtRp3436
(dp3437
g61
(dp3438
g69
I3
ssg70
g3432
sg63
(lp3439
S''
asbasbasbag56
(g72
g58
NtRp3440
(dp3441
g61
(dp3442
sg70
g3416
sg63
(lp3443
g56
(g77
g58
NtRp3444
(dp3445
g61
(dp3446
g81
g82
ssg70
g3440
sg63
(lp3447
g304
asbag56
(g77
g58
NtRp3448
(dp3449
g61
(dp3450
g88
g89
ssg70
g3440
sg63
(lp3451
S':'
asbag56
(g77
g58
NtRp3452
(dp3453
g61
(dp3454
sg70
g3440
sg63
(lp3455
g56
(g57
g58
NtRp3456
(dp3457
g61
(dp3458
g69
I3
ssg70
g3452
sg63
(lp3459
S''
asbasbasbag56
(g72
g58
NtRp3460
(dp3461
g61
(dp3462
sg70
g3416
sg63
(lp3463
g56
(g77
g58
NtRp3464
(dp3465
g61
(dp3466
g81
g82
ssg70
g3460
sg63
(lp3467
g325
asbag56
(g77
g58
NtRp3468
(dp3469
g61
(dp3470
g88
g89
ssg70
g3460
sg63
(lp3471
S':'
asbag56
(g77
g58
NtRp3472
(dp3473
g61
(dp3474
sg70
g3460
sg63
(lp3475
g56
(g57
g58
NtRp3476
(dp3477
g61
(dp3478
g69
I3
ssg70
g3472
sg63
(lp3479
S''
asbasbasbag56
(g72
g58
NtRp3480
(dp3481
g61
(dp3482
sg70
g3416
sg63
(lp3483
g56
(g77
g58
NtRp3484
(dp3485
g61
(dp3486
g81
g82
ssg70
g3480
sg63
(lp3487
g346
asbag56
(g77
g58
NtRp3488
(dp3489
g61
(dp3490
g88
g89
ssg70
g3480
sg63
(lp3491
S':'
asbag56
(g77
g58
NtRp3492
(dp3493
g61
(dp3494
sg70
g3480
sg63
(lp3495
g56
(g57
g58
NtRp3496
(dp3497
g61
(dp3498
g69
I3
ssg70
g3492
sg63
(lp3499
S''
asbasbasbag56
(g72
g58
NtRp3500
(dp3501
g61
(dp3502
sg70
g3416
sg63
(lp3503
g56
(g77
g58
NtRp3504
(dp3505
g61
(dp3506
g81
g82
ssg70
g3500
sg63
(lp3507
g367
asbag56
(g77
g58
NtRp3508
(dp3509
g61
(dp3510
g88
g89
ssg70
g3500
sg63
(lp3511
S':'
asbag56
(g77
g58
NtRp3512
(dp3513
g61
(dp3514
sg70
g3500
sg63
(lp3515
g56
(g57
g58
NtRp3516
(dp3517
g61
(dp3518
g69
I3
ssg70
g3512
sg63
(lp3519
S''
asbasbasbag56
(g72
g58
NtRp3520
(dp3521
g61
(dp3522
sg70
g3416
sg63
(lp3523
g56
(g77
g58
NtRp3524
(dp3525
g61
(dp3526
g81
g82
ssg70
g3520
sg63
(lp3527
g388
asbag56
(g77
g58
NtRp3528
(dp3529
g61
(dp3530
g88
g89
ssg70
g3520
sg63
(lp3531
S':'
asbag56
(g77
g58
NtRp3532
(dp3533
g61
(dp3534
sg70
g3520
sg63
(lp3535
g56
(g57
g58
NtRp3536
(dp3537
g61
(dp3538
g69
I3
ssg70
g3532
sg63
(lp3539
S'/'
asbasbasbag56
(g72
g58
NtRp3540
(dp3541
g61
(dp3542
sg70
g3416
sg63
(lp3543
g56
(g77
g58
NtRp3544
(dp3545
g61
(dp3546
g81
g82
ssg70
g3540
sg63
(lp3547
g409
asbag56
(g77
g58
NtRp3548
(dp3549
g61
(dp3550
g88
g89
ssg70
g3540
sg63
(lp3551
S':'
asbag56
(g77
g58
NtRp3552
(dp3553
g61
(dp3554
sg70
g3540
sg63
(lp3555
g56
(g57
g58
NtRp3556
(dp3557
g61
(dp3558
g69
I3
ssg70
g3552
sg63
(lp3559
S''
asbasbasbag56
(g72
g58
NtRp3560
(dp3561
g61
(dp3562
sg70
g3416
sg63
(lp3563
g56
(g77
g58
NtRp3564
(dp3565
g61
(dp3566
g81
g82
ssg70
g3560
sg63
(lp3567
g430
asbag56
(g77
g58
NtRp3568
(dp3569
g61
(dp3570
g88
g89
ssg70
g3560
sg63
(lp3571
S':'
asbag56
(g77
g58
NtRp3572
(dp3573
g61
(dp3574
sg70
g3560
sg63
(lp3575
g56
(g57
g58
NtRp3576
(dp3577
g61
(dp3578
g69
I3
ssg70
g3572
sg63
(lp3579
S''
asbasbasbasbasbasbasbasbasbasbasbag56
(g72
g58
NtRp3580
(dp3581
g61
(dp3582
sg70
g3346
sg63
(lp3583
g56
(g77
g58
NtRp3584
(dp3585
g61
(dp3586
g81
g82
ssg70
g3580
sg63
(lp3587
S'files'
p3588
asbag56
(g77
g58
NtRp3589
(dp3590
g61
(dp3591
g88
g89
ssg70
g3580
sg63
(lp3592
S':'
asbag56
(g77
g58
NtRp3593
(dp3594
g61
(dp3595
sg70
g3580
sg63
(lp3596
g56
(g57
g58
NtRp3597
(dp3598
g61
(dp3599
g69
I5
ssg70
g3593
sg63
(lp3600
g56
(g65
g58
NtRp3601
(dp3602
g61
(dp3603
g69
I4
ssg70
Nsg63
(lp3604
sbasbasbasbag56
(g72
g58
NtRp3605
(dp3606
g61
(dp3607
sg70
g3346
sg63
(lp3608
g56
(g77
g58
NtRp3609
(dp3610
g61
(dp3611
g81
g82
ssg70
g3605
sg63
(lp3612
S'flash'
p3613
asbag56
(g77
g58
NtRp3614
(dp3615
g61
(dp3616
g88
g89
ssg70
g3605
sg63
(lp3617
S':'
asbag56
(g77
g58
NtRp3618
(dp3619
g61
(dp3620
sg70
g3605
sg63
(lp3621
g56
(g57
g58
NtRp3622
(dp3623
g61
(dp3624
g69
I5
ssg70
g3618
sg63
(lp3625
S''
asbasbasbag56
(g72
g58
NtRp3626
(dp3627
g61
(dp3628
sg70
g3346
sg63
(lp3629
g56
(g77
g58
NtRp3630
(dp3631
g61
(dp3632
g81
g82
ssg70
g3626
sg63
(lp3633
S'generic_patterns'
p3634
asbag56
(g77
g58
NtRp3635
(dp3636
g61
(dp3637
g88
g89
ssg70
g3626
sg63
(lp3638
S':'
asbag56
(g77
g58
NtRp3639
(dp3640
g61
(dp3641
sg70
g3626
sg63
(lp3642
g56
(g57
g58
NtRp3643
(dp3644
g61
(dp3645
g69
I5
ssg70
g3639
sg63
(lp3646
g56
(g65
g58
NtRp3647
(dp3648
g61
(dp3649
g69
I4
ssg70
Nsg63
(lp3650
g56
(g72
g58
NtRp3651
(dp3652
g61
(dp3653
sg70
g3647
sg63
(lp3654
g56
(g77
g58
NtRp3655
(dp3656
g61
(dp3657
sg70
g3651
sg63
(lp3658
g56
(g57
g58
NtRp3659
(dp3660
g61
(dp3661
g69
I4
ssg70
g3655
sg63
(lp3662
S'*'
asbasbasbasbasbasbasbag56
(g72
g58
NtRp3663
(dp3664
g61
(dp3665
sg70
g3346
sg63
(lp3666
g56
(g77
g58
NtRp3667
(dp3668
g61
(dp3669
g81
g82
ssg70
g3663
sg63
(lp3670
S'headers'
p3671
asbag56
(g77
g58
NtRp3672
(dp3673
g61
(dp3674
g88
g89
ssg70
g3663
sg63
(lp3675
S':'
asbag56
(g77
g58
NtRp3676
(dp3677
g61
(dp3678
sg70
g3663
sg63
(lp3679
g56
(g57
g58
NtRp3680
(dp3681
g61
(dp3682
g69
I5
ssg70
g3676
sg63
(lp3683
g56
(g65
g58
NtRp3684
(dp3685
g61
(dp3686
g69
I4
ssg70
Nsg63
(lp3687
g56
(g72
g58
NtRp3688
(dp3689
g61
(dp3690
sg70
g3684
sg63
(lp3691
g56
(g77
g58
NtRp3692
(dp3693
g61
(dp3694
g81
g82
ssg70
g3688
sg63
(lp3695
S'Cache-Control'
p3696
asbag56
(g77
g58
NtRp3697
(dp3698
g61
(dp3699
g88
g89
ssg70
g3688
sg63
(lp3700
S':'
asbag56
(g77
g58
NtRp3701
(dp3702
g61
(dp3703
sg70
g3688
sg63
(lp3704
g56
(g57
g58
NtRp3705
(dp3706
g61
(dp3707
g69
I4
ssg70
g3701
sg63
(lp3708
S'no-store, no-cache, must-revalidate, post-check=0, pre-check=0'
p3709
asbasbasbag56
(g72
g58
NtRp3710
(dp3711
g61
(dp3712
sg70
g3684
sg63
(lp3713
g56
(g77
g58
NtRp3714
(dp3715
g61
(dp3716
g81
g82
ssg70
g3710
sg63
(lp3717
S'Content-Type'
p3718
asbag56
(g77
g58
NtRp3719
(dp3720
g61
(dp3721
g88
g89
ssg70
g3710
sg63
(lp3722
S':'
asbag56
(g77
g58
NtRp3723
(dp3724
g61
(dp3725
sg70
g3710
sg63
(lp3726
g56
(g57
g58
NtRp3727
(dp3728
g61
(dp3729
g69
I4
ssg70
g3723
sg63
(lp3730
S'text/html; charset=utf-8'
p3731
asbasbasbag56
(g72
g58
NtRp3732
(dp3733
g61
(dp3734
sg70
g3684
sg63
(lp3735
g56
(g77
g58
NtRp3736
(dp3737
g61
(dp3738
g81
g82
ssg70
g3732
sg63
(lp3739
S'Expires'
p3740
asbag56
(g77
g58
NtRp3741
(dp3742
g61
(dp3743
g88
g89
ssg70
g3732
sg63
(lp3744
S':'
asbag56
(g77
g58
NtRp3745
(dp3746
g61
(dp3747
sg70
g3732
sg63
(lp3748
g56
(g57
g58
NtRp3749
(dp3750
g61
(dp3751
g69
I4
ssg70
g3745
sg63
(lp3752
S'Fri, 04 Nov 2011 16:14:56 GMT'
p3753
asbasbasbag56
(g72
g58
NtRp3754
(dp3755
g61
(dp3756
sg70
g3684
sg63
(lp3757
g56
(g77
g58
NtRp3758
(dp3759
g61
(dp3760
g81
g82
ssg70
g3754
sg63
(lp3761
S'Pragma'
p3762
asbag56
(g77
g58
NtRp3763
(dp3764
g61
(dp3765
g88
g89
ssg70
g3754
sg63
(lp3766
S':'
asbag56
(g77
g58
NtRp3767
(dp3768
g61
(dp3769
sg70
g3754
sg63
(lp3770
g56
(g57
g58
NtRp3771
(dp3772
g61
(dp3773
g69
I4
ssg70
g3767
sg63
(lp3774
S'no-cache'
p3775
asbasbasbag56
(g72
g58
NtRp3776
(dp3777
g61
(dp3778
sg70
g3684
sg63
(lp3779
g56
(g77
g58
NtRp3780
(dp3781
g61
(dp3782
g81
g82
ssg70
g3776
sg63
(lp3783
S'X-Powered-By'
p3784
asbag56
(g77
g58
NtRp3785
(dp3786
g61
(dp3787
g88
g89
ssg70
g3776
sg63
(lp3788
S':'
asbag56
(g77
g58
NtRp3789
(dp3790
g61
(dp3791
sg70
g3776
sg63
(lp3792
g56
(g57
g58
NtRp3793
(dp3794
g61
(dp3795
g69
I4
ssg70
g3789
sg63
(lp3796
S'web2py'
p3797
asbasbasbasbasbasbasbag56
(g72
g58
NtRp3798
(dp3799
g61
(dp3800
sg70
g3346
sg63
(lp3801
g56
(g77
g58
NtRp3802
(dp3803
g61
(dp3804
g81
g82
ssg70
g3798
sg63
(lp3805
S'menu'
p3806
asbag56
(g77
g58
NtRp3807
(dp3808
g61
(dp3809
g88
g89
ssg70
g3798
sg63
(lp3810
S':'
asbag56
(g77
g58
NtRp3811
(dp3812
g61
(dp3813
sg70
g3798
sg63
(lp3814
g56
(g57
g58
NtRp3815
(dp3816
g61
(dp3817
g69
I5
ssg70
g3811
sg63
(lp3818
g56
(g65
g58
NtRp3819
(dp3820
g61
(dp3821
g69
I4
ssg70
Nsg63
(lp3822
g56
(g72
g58
NtRp3823
(dp3824
g61
(dp3825
sg70
g3819
sg63
(lp3826
g56
(g77
g58
NtRp3827
(dp3828
g61
(dp3829
sg70
g3823
sg63
(lp3830
g56
(g57
g58
NtRp3831
(dp3832
g61
(dp3833
g69
I4
ssg70
g3827
sg63
(lp3834
g56
(g65
g58
NtRp3835
(dp3836
g61
(dp3837
g69
I3
ssg70
Nsg63
(lp3838
g56
(g72
g58
NtRp3839
(dp3840
g61
(dp3841
sg70
g3835
sg63
(lp3842
g56
(g77
g58
NtRp3843
(dp3844
g61
(dp3845
sg70
g3839
sg63
(lp3846
g56
(g57
g58
NtRp3847
(dp3848
g61
(dp3849
g69
I3
ssg70
g3843
sg63
(lp3850
cgluon.languages
lazyT_unpickle
p3851
(S't\x04\x00\x00\x00Home'
tRp3852
asbasbasbag56
(g72
g58
NtRp3853
(dp3854
g61
(dp3855
sg70
g3835
sg63
(lp3856
g56
(g77
g58
NtRp3857
(dp3858
g61
(dp3859
sg70
g3853
sg63
(lp3860
g56
(g57
g58
NtRp3861
(dp3862
g61
(dp3863
g69
I3
ssg70
g3857
sg63
(lp3864
g99
asbasbasbag56
(g72
g58
NtRp3865
(dp3866
g61
(dp3867
sg70
g3835
sg63
(lp3868
g56
(g77
g58
NtRp3869
(dp3870
g61
(dp3871
sg70
g3865
sg63
(lp3872
g56
(g57
g58
NtRp3873
(dp3874
g61
(dp3875
g69
I3
ssg70
g3869
sg63
(lp3876
S'/init/default/index'
p3877
asbasbasbag56
(g72
g58
NtRp3878
(dp3879
g61
(dp3880
sg70
g3835
sg63
(lp3881
g56
(g77
g58
NtRp3882
(dp3883
g61
(dp3884
sg70
g3878
sg63
(lp3885
g56
(g57
g58
NtRp3886
(dp3887
g61
(dp3888
g69
I3
ssg70
g3882
sg63
(lp3889
g56
(g65
g58
NtRp3890
(dp3891
g61
(dp3892
g69
I2
ssg70
Nsg63
(lp3893
sbasbasbasbasbasbasbasbag56
(g72
g58
NtRp3894
(dp3895
g61
(dp3896
sg70
g3819
sg63
(lp3897
g56
(g77
g58
NtRp3898
(dp3899
g61
(dp3900
sg70
g3894
sg63
(lp3901
g56
(g57
g58
NtRp3902
(dp3903
g61
(dp3904
g69
I4
ssg70
g3898
sg63
(lp3905
g56
(g65
g58
NtRp3906
(dp3907
g61
(dp3908
g69
I3
ssg70
Nsg63
(lp3909
g56
(g72
g58
NtRp3910
(dp3911
g61
(dp3912
sg70
g3906
sg63
(lp3913
g56
(g77
g58
NtRp3914
(dp3915
g61
(dp3916
sg70
g3910
sg63
(lp3917
g56
(g57
g58
NtRp3918
(dp3919
g61
(dp3920
g69
I3
ssg70
g3914
sg63
(lp3921
g3851
(S's\x08\x00\x00\x00This App'
tRp3922
asbasbasbag56
(g72
g58
NtRp3923
(dp3924
g61
(dp3925
sg70
g3906
sg63
(lp3926
g56
(g77
g58
NtRp3927
(dp3928
g61
(dp3929
sg70
g3923
sg63
(lp3930
g56
(g57
g58
NtRp3931
(dp3932
g61
(dp3933
g69
I3
ssg70
g3927
sg63
(lp3934
g99
asbasbasbag56
(g72
g58
NtRp3935
(dp3936
g61
(dp3937
sg70
g3906
sg63
(lp3938
g56
(g77
g58
NtRp3939
(dp3940
g61
(dp3941
sg70
g3935
sg63
(lp3942
g56
(g57
g58
NtRp3943
(dp3944
g61
(dp3945
g69
I3
ssg70
g3939
sg63
(lp3946
S'/admin/default/design/init'
p3947
asbasbasbag56
(g72
g58
NtRp3948
(dp3949
g61
(dp3950
sg70
g3906
sg63
(lp3951
g56
(g77
g58
NtRp3952
(dp3953
g61
(dp3954
sg70
g3948
sg63
(lp3955
g56
(g57
g58
NtRp3956
(dp3957
g61
(dp3958
g69
I3
ssg70
g3952
sg63
(lp3959
g56
(g65
g58
NtRp3960
(dp3961
g61
(dp3962
g69
I2
ssg70
Nsg63
(lp3963
g56
(g72
g58
NtRp3964
(dp3965
g61
(dp3966
sg70
g3960
sg63
(lp3967
g56
(g77
g58
NtRp3968
(dp3969
g61
(dp3970
sg70
g3964
sg63
(lp3971
g56
(g57
g58
NtRp3972
(dp3973
g61
(dp3974
g69
I2
ssg70
g3968
sg63
(lp3975
g56
(g65
g58
NtRp3976
(dp3977
g61
(dp3978
g69
I1
ssg70
Nsg63
(lp3979
g56
(g72
g58
NtRp3980
(dp3981
g61
(dp3982
sg70
g3976
sg63
(lp3983
g56
(g77
g58
NtRp3984
(dp3985
g61
(dp3986
sg70
g3980
sg63
(lp3987
g56
(g57
g58
NtRp3988
(dp3989
g61
(dp3990
g69
I1
ssg70
g3984
sg63
(lp3991
g3851
(S't\n\x00\x00\x00Controller'
tRp3992
asbasbasbag56
(g72
g58
NtRp3993
(dp3994
g61
(dp3995
sg70
g3976
sg63
(lp3996
g56
(g77
g58
NtRp3997
(dp3998
g61
(dp3999
sg70
g3993
sg63
(lp4000
g56
(g57
g58
NtRp4001
(dp4002
g61
(dp4003
g69
I1
ssg70
g3997
sg63
(lp4004
I00
asbasbasbag56
(g72
g58
NtRp4005
(dp4006
g61
(dp4007
sg70
g3976
sg63
(lp4008
g56
(g77
g58
NtRp4009
(dp4010
g61
(dp4011
sg70
g4005
sg63
(lp4012
g56
(g57
g58
NtRp4013
(dp4014
g61
(dp4015
g69
I1
ssg70
g4009
sg63
(lp4016
S'/admin/default/edit/init/controllers/default.py'
p4017
asbasbasbasbasbasbasbag56
(g72
g58
NtRp4018
(dp4019
g61
(dp4020
sg70
g3960
sg63
(lp4021
g56
(g77
g58
NtRp4022
(dp4023
g61
(dp4024
sg70
g4018
sg63
(lp4025
g56
(g57
g58
NtRp4026
(dp4027
g61
(dp4028
g69
I2
ssg70
g4022
sg63
(lp4029
g56
(g65
g58
NtRp4030
(dp4031
g61
(dp4032
g69
I1
ssg70
Nsg63
(lp4033
g56
(g72
g58
NtRp4034
(dp4035
g61
(dp4036
sg70
g4030
sg63
(lp4037
g56
(g77
g58
NtRp4038
(dp4039
g61
(dp4040
sg70
g4034
sg63
(lp4041
g56
(g57
g58
NtRp4042
(dp4043
g61
(dp4044
g69
I1
ssg70
g4038
sg63
(lp4045
g3851
(S't\x04\x00\x00\x00View'
tRp4046
asbasbasbag56
(g72
g58
NtRp4047
(dp4048
g61
(dp4049
sg70
g4030
sg63
(lp4050
g56
(g77
g58
NtRp4051
(dp4052
g61
(dp4053
sg70
g4047
sg63
(lp4054
g56
(g57
g58
NtRp4055
(dp4056
g61
(dp4057
g69
I1
ssg70
g4051
sg63
(lp4058
I00
asbasbasbag56
(g72
g58
NtRp4059
(dp4060
g61
(dp4061
sg70
g4030
sg63
(lp4062
g56
(g77
g58
NtRp4063
(dp4064
g61
(dp4065
sg70
g4059
sg63
(lp4066
g56
(g57
g58
NtRp4067
(dp4068
g61
(dp4069
g69
I1
ssg70
g4063
sg63
(lp4070
S'/admin/default/edit/init/views/default/home.html'
p4071
asbasbasbasbasbasbasbag56
(g72
g58
NtRp4072
(dp4073
g61
(dp4074
sg70
g3960
sg63
(lp4075
g56
(g77
g58
NtRp4076
(dp4077
g61
(dp4078
sg70
g4072
sg63
(lp4079
g56
(g57
g58
NtRp4080
(dp4081
g61
(dp4082
g69
I2
ssg70
g4076
sg63
(lp4083
g56
(g65
g58
NtRp4084
(dp4085
g61
(dp4086
g69
I1
ssg70
Nsg63
(lp4087
g56
(g72
g58
NtRp4088
(dp4089
g61
(dp4090
sg70
g4084
sg63
(lp4091
g56
(g77
g58
NtRp4092
(dp4093
g61
(dp4094
sg70
g4088
sg63
(lp4095
g56
(g57
g58
NtRp4096
(dp4097
g61
(dp4098
g69
I1
ssg70
g4092
sg63
(lp4099
g3851
(S't\x06\x00\x00\x00Layout'
tRp4100
asbasbasbag56
(g72
g58
NtRp4101
(dp4102
g61
(dp4103
sg70
g4084
sg63
(lp4104
g56
(g77
g58
NtRp4105
(dp4106
g61
(dp4107
sg70
g4101
sg63
(lp4108
g56
(g57
g58
NtRp4109
(dp4110
g61
(dp4111
g69
I1
ssg70
g4105
sg63
(lp4112
I00
asbasbasbag56
(g72
g58
NtRp4113
(dp4114
g61
(dp4115
sg70
g4084
sg63
(lp4116
g56
(g77
g58
NtRp4117
(dp4118
g61
(dp4119
sg70
g4113
sg63
(lp4120
g56
(g57
g58
NtRp4121
(dp4122
g61
(dp4123
g69
I1
ssg70
g4117
sg63
(lp4124
S'/admin/default/edit/init/views/layout.html'
p4125
asbasbasbasbasbasbasbag56
(g72
g58
NtRp4126
(dp4127
g61
(dp4128
sg70
g3960
sg63
(lp4129
g56
(g77
g58
NtRp4130
(dp4131
g61
(dp4132
sg70
g4126
sg63
(lp4133
g56
(g57
g58
NtRp4134
(dp4135
g61
(dp4136
g69
I2
ssg70
g4130
sg63
(lp4137
g56
(g65
g58
NtRp4138
(dp4139
g61
(dp4140
g69
I1
ssg70
Nsg63
(lp4141
g56
(g72
g58
NtRp4142
(dp4143
g61
(dp4144
sg70
g4138
sg63
(lp4145
g56
(g77
g58
NtRp4146
(dp4147
g61
(dp4148
sg70
g4142
sg63
(lp4149
g56
(g57
g58
NtRp4150
(dp4151
g61
(dp4152
g69
I1
ssg70
g4146
sg63
(lp4153
g3851
(S't\n\x00\x00\x00Stylesheet'
tRp4154
asbasbasbag56
(g72
g58
NtRp4155
(dp4156
g61
(dp4157
sg70
g4138
sg63
(lp4158
g56
(g77
g58
NtRp4159
(dp4160
g61
(dp4161
sg70
g4155
sg63
(lp4162
g56
(g57
g58
NtRp4163
(dp4164
g61
(dp4165
g69
I1
ssg70
g4159
sg63
(lp4166
I00
asbasbasbag56
(g72
g58
NtRp4167
(dp4168
g61
(dp4169
sg70
g4138
sg63
(lp4170
g56
(g77
g58
NtRp4171
(dp4172
g61
(dp4173
sg70
g4167
sg63
(lp4174
g56
(g57
g58
NtRp4175
(dp4176
g61
(dp4177
g69
I1
ssg70
g4171
sg63
(lp4178
S'/admin/default/edit/init/static/base.css'
p4179
asbasbasbasbasbasbasbag56
(g72
g58
NtRp4180
(dp4181
g61
(dp4182
sg70
g3960
sg63
(lp4183
g56
(g77
g58
NtRp4184
(dp4185
g61
(dp4186
sg70
g4180
sg63
(lp4187
g56
(g57
g58
NtRp4188
(dp4189
g61
(dp4190
g69
I2
ssg70
g4184
sg63
(lp4191
g56
(g65
g58
NtRp4192
(dp4193
g61
(dp4194
g69
I1
ssg70
Nsg63
(lp4195
g56
(g72
g58
NtRp4196
(dp4197
g61
(dp4198
sg70
g4192
sg63
(lp4199
g56
(g77
g58
NtRp4200
(dp4201
g61
(dp4202
sg70
g4196
sg63
(lp4203
g56
(g57
g58
NtRp4204
(dp4205
g61
(dp4206
g69
I1
ssg70
g4200
sg63
(lp4207
g3851
(S's\x08\x00\x00\x00DB Model'
tRp4208
asbasbasbag56
(g72
g58
NtRp4209
(dp4210
g61
(dp4211
sg70
g4192
sg63
(lp4212
g56
(g77
g58
NtRp4213
(dp4214
g61
(dp4215
sg70
g4209
sg63
(lp4216
g56
(g57
g58
NtRp4217
(dp4218
g61
(dp4219
g69
I1
ssg70
g4213
sg63
(lp4220
I00
asbasbasbag56
(g72
g58
NtRp4221
(dp4222
g61
(dp4223
sg70
g4192
sg63
(lp4224
g56
(g77
g58
NtRp4225
(dp4226
g61
(dp4227
sg70
g4221
sg63
(lp4228
g56
(g57
g58
NtRp4229
(dp4230
g61
(dp4231
g69
I1
ssg70
g4225
sg63
(lp4232
S'/admin/default/edit/init/models/db.py'
p4233
asbasbasbasbasbasbasbag56
(g72
g58
NtRp4234
(dp4235
g61
(dp4236
sg70
g3960
sg63
(lp4237
g56
(g77
g58
NtRp4238
(dp4239
g61
(dp4240
sg70
g4234
sg63
(lp4241
g56
(g57
g58
NtRp4242
(dp4243
g61
(dp4244
g69
I2
ssg70
g4238
sg63
(lp4245
g56
(g65
g58
NtRp4246
(dp4247
g61
(dp4248
g69
I1
ssg70
Nsg63
(lp4249
g56
(g72
g58
NtRp4250
(dp4251
g61
(dp4252
sg70
g4246
sg63
(lp4253
g56
(g77
g58
NtRp4254
(dp4255
g61
(dp4256
sg70
g4250
sg63
(lp4257
g56
(g57
g58
NtRp4258
(dp4259
g61
(dp4260
g69
I1
ssg70
g4254
sg63
(lp4261
g3851
(S's\n\x00\x00\x00Menu Model'
tRp4262
asbasbasbag56
(g72
g58
NtRp4263
(dp4264
g61
(dp4265
sg70
g4246
sg63
(lp4266
g56
(g77
g58
NtRp4267
(dp4268
g61
(dp4269
sg70
g4263
sg63
(lp4270
g56
(g57
g58
NtRp4271
(dp4272
g61
(dp4273
g69
I1
ssg70
g4267
sg63
(lp4274
I00
asbasbasbag56
(g72
g58
NtRp4275
(dp4276
g61
(dp4277
sg70
g4246
sg63
(lp4278
g56
(g77
g58
NtRp4279
(dp4280
g61
(dp4281
sg70
g4275
sg63
(lp4282
g56
(g57
g58
NtRp4283
(dp4284
g61
(dp4285
g69
I1
ssg70
g4279
sg63
(lp4286
S'/admin/default/edit/init/models/menu.py'
p4287
asbasbasbasbasbasbasbag56
(g72
g58
NtRp4288
(dp4289
g61
(dp4290
sg70
g3960
sg63
(lp4291
g56
(g77
g58
NtRp4292
(dp4293
g61
(dp4294
sg70
g4288
sg63
(lp4295
g56
(g57
g58
NtRp4296
(dp4297
g61
(dp4298
g69
I2
ssg70
g4292
sg63
(lp4299
g56
(g65
g58
NtRp4300
(dp4301
g61
(dp4302
g69
I1
ssg70
Nsg63
(lp4303
g56
(g72
g58
NtRp4304
(dp4305
g61
(dp4306
sg70
g4300
sg63
(lp4307
g56
(g77
g58
NtRp4308
(dp4309
g61
(dp4310
sg70
g4304
sg63
(lp4311
g56
(g57
g58
NtRp4312
(dp4313
g61
(dp4314
g69
I1
ssg70
g4308
sg63
(lp4315
g3851
(S't\x08\x00\x00\x00Database'
tRp4316
asbasbasbag56
(g72
g58
NtRp4317
(dp4318
g61
(dp4319
sg70
g4300
sg63
(lp4320
g56
(g77
g58
NtRp4321
(dp4322
g61
(dp4323
sg70
g4317
sg63
(lp4324
g56
(g57
g58
NtRp4325
(dp4326
g61
(dp4327
g69
I1
ssg70
g4321
sg63
(lp4328
I00
asbasbasbag56
(g72
g58
NtRp4329
(dp4330
g61
(dp4331
sg70
g4300
sg63
(lp4332
g56
(g77
g58
NtRp4333
(dp4334
g61
(dp4335
sg70
g4329
sg63
(lp4336
g56
(g57
g58
NtRp4337
(dp4338
g61
(dp4339
g69
I1
ssg70
g4333
sg63
(lp4340
S'/init/appadmin/index'
p4341
asbasbasbasbasbasbasbag56
(g72
g58
NtRp4342
(dp4343
g61
(dp4344
sg70
g3960
sg63
(lp4345
g56
(g77
g58
NtRp4346
(dp4347
g61
(dp4348
sg70
g4342
sg63
(lp4349
g56
(g57
g58
NtRp4350
(dp4351
g61
(dp4352
g69
I2
ssg70
g4346
sg63
(lp4353
g56
(g65
g58
NtRp4354
(dp4355
g61
(dp4356
g69
I1
ssg70
Nsg63
(lp4357
g56
(g72
g58
NtRp4358
(dp4359
g61
(dp4360
sg70
g4354
sg63
(lp4361
g56
(g77
g58
NtRp4362
(dp4363
g61
(dp4364
sg70
g4358
sg63
(lp4365
g56
(g57
g58
NtRp4366
(dp4367
g61
(dp4368
g69
I1
ssg70
g4362
sg63
(lp4369
g3851
(S't\x06\x00\x00\x00Errors'
tRp4370
asbasbasbag56
(g72
g58
NtRp4371
(dp4372
g61
(dp4373
sg70
g4354
sg63
(lp4374
g56
(g77
g58
NtRp4375
(dp4376
g61
(dp4377
sg70
g4371
sg63
(lp4378
g56
(g57
g58
NtRp4379
(dp4380
g61
(dp4381
g69
I1
ssg70
g4375
sg63
(lp4382
I00
asbasbasbag56
(g72
g58
NtRp4383
(dp4384
g61
(dp4385
sg70
g4354
sg63
(lp4386
g56
(g77
g58
NtRp4387
(dp4388
g61
(dp4389
sg70
g4383
sg63
(lp4390
g56
(g57
g58
NtRp4391
(dp4392
g61
(dp4393
g69
I1
ssg70
g4387
sg63
(lp4394
S'/admin/default/errors/init'
p4395
asbasbasbasbasbasbasbag56
(g72
g58
NtRp4396
(dp4397
g61
(dp4398
sg70
g3960
sg63
(lp4399
g56
(g77
g58
NtRp4400
(dp4401
g61
(dp4402
sg70
g4396
sg63
(lp4403
g56
(g57
g58
NtRp4404
(dp4405
g61
(dp4406
g69
I2
ssg70
g4400
sg63
(lp4407
g56
(g65
g58
NtRp4408
(dp4409
g61
(dp4410
g69
I1
ssg70
Nsg63
(lp4411
g56
(g72
g58
NtRp4412
(dp4413
g61
(dp4414
sg70
g4408
sg63
(lp4415
g56
(g77
g58
NtRp4416
(dp4417
g61
(dp4418
sg70
g4412
sg63
(lp4419
g56
(g57
g58
NtRp4420
(dp4421
g61
(dp4422
g69
I1
ssg70
g4416
sg63
(lp4423
g3851
(S't\x05\x00\x00\x00About'
tRp4424
asbasbasbag56
(g72
g58
NtRp4425
(dp4426
g61
(dp4427
sg70
g4408
sg63
(lp4428
g56
(g77
g58
NtRp4429
(dp4430
g61
(dp4431
sg70
g4425
sg63
(lp4432
g56
(g57
g58
NtRp4433
(dp4434
g61
(dp4435
g69
I1
ssg70
g4429
sg63
(lp4436
I00
asbasbasbag56
(g72
g58
NtRp4437
(dp4438
g61
(dp4439
sg70
g4408
sg63
(lp4440
g56
(g77
g58
NtRp4441
(dp4442
g61
(dp4443
sg70
g4437
sg63
(lp4444
g56
(g57
g58
NtRp4445
(dp4446
g61
(dp4447
g69
I1
ssg70
g4441
sg63
(lp4448
S'/admin/default/about/init'
p4449
asbasbasbasbasbasbasbasbasbasbasbasbasbasbasbag56
(g72
g58
NtRp4450
(dp4451
g61
(dp4452
sg70
g3819
sg63
(lp4453
g56
(g77
g58
NtRp4454
(dp4455
g61
(dp4456
sg70
g4450
sg63
(lp4457
g56
(g57
g58
NtRp4458
(dp4459
g61
(dp4460
g69
I4
ssg70
g4454
sg63
(lp4461
g56
(g65
g58
NtRp4462
(dp4463
g61
(dp4464
g69
I3
ssg70
Nsg63
(lp4465
g56
(g72
g58
NtRp4466
(dp4467
g61
(dp4468
sg70
g4462
sg63
(lp4469
g56
(g77
g58
NtRp4470
(dp4471
g61
(dp4472
sg70
g4466
sg63
(lp4473
g56
(g57
g58
NtRp4474
(dp4475
g61
(dp4476
g69
I3
ssg70
g4470
sg63
(lp4477
g3851
(S't\t\x00\x00\x00Resources'
tRp4478
asbasbasbag56
(g72
g58
NtRp4479
(dp4480
g61
(dp4481
sg70
g4462
sg63
(lp4482
g56
(g77
g58
NtRp4483
(dp4484
g61
(dp4485
sg70
g4479
sg63
(lp4486
g56
(g57
g58
NtRp4487
(dp4488
g61
(dp4489
g69
I3
ssg70
g4483
sg63
(lp4490
g99
asbasbasbag56
(g72
g58
NtRp4491
(dp4492
g61
(dp4493
sg70
g4462
sg63
(lp4494
g56
(g77
g58
NtRp4495
(dp4496
g61
(dp4497
sg70
g4491
sg63
(lp4498
g56
(g57
g58
NtRp4499
(dp4500
g61
(dp4501
g69
I3
ssg70
g4495
sg63
(lp4502
S'None'
p4503
asbasbasbag56
(g72
g58
NtRp4504
(dp4505
g61
(dp4506
sg70
g4462
sg63
(lp4507
g56
(g77
g58
NtRp4508
(dp4509
g61
(dp4510
sg70
g4504
sg63
(lp4511
g56
(g57
g58
NtRp4512
(dp4513
g61
(dp4514
g69
I3
ssg70
g4508
sg63
(lp4515
g56
(g65
g58
NtRp4516
(dp4517
g61
(dp4518
g69
I2
ssg70
Nsg63
(lp4519
g56
(g72
g58
NtRp4520
(dp4521
g61
(dp4522
sg70
g4516
sg63
(lp4523
g56
(g77
g58
NtRp4524
(dp4525
g61
(dp4526
sg70
g4520
sg63
(lp4527
g56
(g57
g58
NtRp4528
(dp4529
g61
(dp4530
g69
I2
ssg70
g4524
sg63
(lp4531
g56
(g65
g58
NtRp4532
(dp4533
g61
(dp4534
g69
I1
ssg70
Nsg63
(lp4535
g56
(g72
g58
NtRp4536
(dp4537
g61
(dp4538
sg70
g4532
sg63
(lp4539
g56
(g77
g58
NtRp4540
(dp4541
g61
(dp4542
sg70
g4536
sg63
(lp4543
g56
(g57
g58
NtRp4544
(dp4545
g61
(dp4546
g69
I1
ssg70
g4540
sg63
(lp4547
g3851
(S't\r\x00\x00\x00Documentation'
tRp4548
asbasbasbag56
(g72
g58
NtRp4549
(dp4550
g61
(dp4551
sg70
g4532
sg63
(lp4552
g56
(g77
g58
NtRp4553
(dp4554
g61
(dp4555
sg70
g4549
sg63
(lp4556
g56
(g57
g58
NtRp4557
(dp4558
g61
(dp4559
g69
I1
ssg70
g4553
sg63
(lp4560
I00
asbasbasbag56
(g72
g58
NtRp4561
(dp4562
g61
(dp4563
sg70
g4532
sg63
(lp4564
g56
(g77
g58
NtRp4565
(dp4566
g61
(dp4567
sg70
g4561
sg63
(lp4568
g56
(g57
g58
NtRp4569
(dp4570
g61
(dp4571
g69
I1
ssg70
g4565
sg63
(lp4572
S'http://www.web2py.com/book'
p4573
asbasbasbag56
(g72
g58
NtRp4574
(dp4575
g61
(dp4576
sg70
g4532
sg63
(lp4577
g56
(g77
g58
NtRp4578
(dp4579
g61
(dp4580
sg70
g4574
sg63
(lp4581
g56
(g57
g58
NtRp4582
(dp4583
g61
(dp4584
g69
I1
ssg70
g4578
sg63
(lp4585
(lp4586
(g3851
(S't\x07\x00\x00\x00Preface'
tRp4587
I00
S'http://www.web2py.com/book/default/chapter/00'
p4588
tp4589
a(g3851
(S't\x0c\x00\x00\x00Introduction'
tRp4590
I00
S'http://www.web2py.com/book/default/chapter/01'
p4591
tp4592
a(g3851
(S't\x06\x00\x00\x00Python'
tRp4593
I00
S'http://www.web2py.com/book/default/chapter/02'
p4594
tp4595
a(g3851
(S't\x08\x00\x00\x00Overview'
tRp4596
I00
S'http://www.web2py.com/book/default/chapter/03'
p4597
tp4598
a(g3851
(S's\x08\x00\x00\x00The Core'
tRp4599
I00
S'http://www.web2py.com/book/default/chapter/04'
p4600
tp4601
a(g3851
(S's\t\x00\x00\x00The Views'
tRp4602
I00
S'http://www.web2py.com/book/default/chapter/05'
p4603
tp4604
a(g3851
(S't\x08\x00\x00\x00Database'
tRp4605
I00
S'http://www.web2py.com/book/default/chapter/06'
p4606
tp4607
a(g3851
(S's\x14\x00\x00\x00Forms and Validators'
tRp4608
I00
S'http://www.web2py.com/book/default/chapter/07'
p4609
tp4610
a(g3851
(S's\x0e\x00\x00\x00Access Control'
tRp4611
I00
S'http://www.web2py.com/book/default/chapter/08'
p4612
tp4613
a(g3851
(S't\x08\x00\x00\x00Services'
tRp4614
I00
S'http://www.web2py.com/book/default/chapter/09'
p4615
tp4616
a(g3851
(S's\x0c\x00\x00\x00Ajax Recipes'
tRp4617
I00
S'http://www.web2py.com/book/default/chapter/10'
p4618
tp4619
a(g3851
(S's\x12\x00\x00\x00Deployment Recipes'
tRp4620
I00
S'http://www.web2py.com/book/default/chapter/11'
p4621
tp4622
a(g3851
(S's\r\x00\x00\x00Other Recipes'
tRp4623
I00
S'http://www.web2py.com/book/default/chapter/12'
p4624
tp4625
a(g3851
(S's\r\x00\x00\x00Buy this book'
tRp4626
I00
S'http://stores.lulu.com/web2py'
p4627
tp4628
aasbasbasbasbasbasbasbag56
(g72
g58
NtRp4629
(dp4630
g61
(dp4631
sg70
g4516
sg63
(lp4632
g56
(g77
g58
NtRp4633
(dp4634
g61
(dp4635
sg70
g4629
sg63
(lp4636
g56
(g57
g58
NtRp4637
(dp4638
g61
(dp4639
g69
I2
ssg70
g4633
sg63
(lp4640
g56
(g65
g58
NtRp4641
(dp4642
g61
(dp4643
g69
I1
ssg70
Nsg63
(lp4644
g56
(g72
g58
NtRp4645
(dp4646
g61
(dp4647
sg70
g4641
sg63
(lp4648
g56
(g77
g58
NtRp4649
(dp4650
g61
(dp4651
sg70
g4645
sg63
(lp4652
g56
(g57
g58
NtRp4653
(dp4654
g61
(dp4655
g69
I1
ssg70
g4649
sg63
(lp4656
g3851
(S't\t\x00\x00\x00Community'
tRp4657
asbasbasbag56
(g72
g58
NtRp4658
(dp4659
g61
(dp4660
sg70
g4641
sg63
(lp4661
g56
(g77
g58
NtRp4662
(dp4663
g61
(dp4664
sg70
g4658
sg63
(lp4665
g56
(g57
g58
NtRp4666
(dp4667
g61
(dp4668
g69
I1
ssg70
g4662
sg63
(lp4669
I00
asbasbasbag56
(g72
g58
NtRp4670
(dp4671
g61
(dp4672
sg70
g4641
sg63
(lp4673
g56
(g77
g58
NtRp4674
(dp4675
g61
(dp4676
sg70
g4670
sg63
(lp4677
g56
(g57
g58
NtRp4678
(dp4679
g61
(dp4680
g69
I1
ssg70
g4674
sg63
(lp4681
Nasbasbasbag56
(g72
g58
NtRp4682
(dp4683
g61
(dp4684
sg70
g4641
sg63
(lp4685
g56
(g77
g58
NtRp4686
(dp4687
g61
(dp4688
sg70
g4682
sg63
(lp4689
g56
(g57
g58
NtRp4690
(dp4691
g61
(dp4692
g69
I1
ssg70
g4686
sg63
(lp4693
(lp4694
(g3851
(S't\x06\x00\x00\x00Groups'
tRp4695
I00
S'http://www.web2py.com/examples/default/usergroups'
p4696
tp4697
a(g3851
(S't\x07\x00\x00\x00Twitter'
tRp4698
I00
S'http://twitter.com/web2py'
p4699
tp4700
a(g3851
(S's\t\x00\x00\x00Live chat'
tRp4701
I00
S'http://mibbit.com/?channel=%23web2py&server=irc.mibbit.net'
p4702
tp4703
a(g3851
(S's\n\x00\x00\x00User Voice'
tRp4704
I00
S'http://web2py.uservoice.com/'
p4705
tp4706
aasbasbasbasbasbasbasbag56
(g72
g58
NtRp4707
(dp4708
g61
(dp4709
sg70
g4516
sg63
(lp4710
g56
(g77
g58
NtRp4711
(dp4712
g61
(dp4713
sg70
g4707
sg63
(lp4714
g56
(g57
g58
NtRp4715
(dp4716
g61
(dp4717
g69
I2
ssg70
g4711
sg63
(lp4718
g56
(g65
g58
NtRp4719
(dp4720
g61
(dp4721
g69
I1
ssg70
Nsg63
(lp4722
g56
(g72
g58
NtRp4723
(dp4724
g61
(dp4725
sg70
g4719
sg63
(lp4726
g56
(g77
g58
NtRp4727
(dp4728
g61
(dp4729
sg70
g4723
sg63
(lp4730
g56
(g57
g58
NtRp4731
(dp4732
g61
(dp4733
g69
I1
ssg70
g4727
sg63
(lp4734
g3851
(S't\x06\x00\x00\x00Web2py'
tRp4735
asbasbasbag56
(g72
g58
NtRp4736
(dp4737
g61
(dp4738
sg70
g4719
sg63
(lp4739
g56
(g77
g58
NtRp4740
(dp4741
g61
(dp4742
sg70
g4736
sg63
(lp4743
g56
(g57
g58
NtRp4744
(dp4745
g61
(dp4746
g69
I1
ssg70
g4740
sg63
(lp4747
I00
asbasbasbag56
(g72
g58
NtRp4748
(dp4749
g61
(dp4750
sg70
g4719
sg63
(lp4751
g56
(g77
g58
NtRp4752
(dp4753
g61
(dp4754
sg70
g4748
sg63
(lp4755
g56
(g57
g58
NtRp4756
(dp4757
g61
(dp4758
g69
I1
ssg70
g4752
sg63
(lp4759
S'http://www.web2py.com'
p4760
asbasbasbag56
(g72
g58
NtRp4761
(dp4762
g61
(dp4763
sg70
g4719
sg63
(lp4764
g56
(g77
g58
NtRp4765
(dp4766
g61
(dp4767
sg70
g4761
sg63
(lp4768
g56
(g57
g58
NtRp4769
(dp4770
g61
(dp4771
g69
I1
ssg70
g4765
sg63
(lp4772
(lp4773
(g3851
(S't\x08\x00\x00\x00Download'
tRp4774
I00
S'http://www.web2py.com/examples/default/download'
p4775
tp4776
a(g3851
(S't\x07\x00\x00\x00Support'
tRp4777
I00
S'http://www.web2py.com/examples/default/support'
p4778
tp4779
a(g3851
(S's\x0e\x00\x00\x00Quick Examples'
tRp4780
I00
S'http://web2py.com/examples/default/examples'
p4781
tp4782
a(g3851
(S't\x03\x00\x00\x00FAQ'
tRp4783
I00
S'http://web2py.com/AlterEgo'
p4784
tp4785
a(g3851
(S's\x11\x00\x00\x00Free Applications'
tRp4786
I00
S'http://web2py.com/appliances'
p4787
tp4788
a(g3851
(S't\x07\x00\x00\x00Plugins'
tRp4789
I00
S'http://web2py.com/plugins'
p4790
tp4791
a(g3851
(S't\x07\x00\x00\x00Recipes'
tRp4792
I00
S'http://web2pyslices.com/'
p4793
tp4794
a(g3851
(S't\x04\x00\x00\x00Demo'
tRp4795
I00
S'http://web2py.com/demo_admin'
p4796
tp4797
a(g3851
(S't\x08\x00\x00\x00Semantic'
tRp4798
I00
S'http://web2py.com/semantic'
p4799
tp4800
a(g3851
(S't\x07\x00\x00\x00Layouts'
tRp4801
I00
S'http://web2py.com/layouts'
p4802
tp4803
a(g3851
(S't\x06\x00\x00\x00Videos'
tRp4804
I00
S'http://www.web2py.com/examples/default/videos/'
p4805
tp4806
aasbasbasbasbasbasbasbasbasbasbasbasbasbasbasbasbasbasbasbag56
(g72
g58
NtRp4807
(dp4808
g61
(dp4809
sg70
g3346
sg63
(lp4810
g56
(g77
g58
NtRp4811
(dp4812
g61
(dp4813
g81
g82
ssg70
g4807
sg63
(lp4814
S'meta'
p4815
asbag56
(g77
g58
NtRp4816
(dp4817
g61
(dp4818
g88
g89
ssg70
g4807
sg63
(lp4819
S':'
asbag56
(g77
g58
NtRp4820
(dp4821
g61
(dp4822
sg70
g4807
sg63
(lp4823
g56
(g57
g58
NtRp4824
(dp4825
g61
(dp4826
g69
I5
ssg70
g4820
sg63
(lp4827
g56
(g65
g58
NtRp4828
(dp4829
g61
(dp4830
g69
I4
ssg70
Nsg63
(lp4831
g56
(g72
g58
NtRp4832
(dp4833
g61
(dp4834
sg70
g4828
sg63
(lp4835
g56
(g77
g58
NtRp4836
(dp4837
g61
(dp4838
g81
g82
ssg70
g4832
sg63
(lp4839
S'author'
p4840
asbag56
(g77
g58
NtRp4841
(dp4842
g61
(dp4843
g88
g89
ssg70
g4832
sg63
(lp4844
S':'
asbag56
(g77
g58
NtRp4845
(dp4846
g61
(dp4847
sg70
g4832
sg63
(lp4848
g56
(g57
g58
NtRp4849
(dp4850
g61
(dp4851
g69
I4
ssg70
g4845
sg63
(lp4852
S'Adrian Edwards'
p4853
asbasbasbag56
(g72
g58
NtRp4854
(dp4855
g61
(dp4856
sg70
g4828
sg63
(lp4857
g56
(g77
g58
NtRp4858
(dp4859
g61
(dp4860
g81
g82
ssg70
g4854
sg63
(lp4861
S'copyright'
p4862
asbag56
(g77
g58
NtRp4863
(dp4864
g61
(dp4865
g88
g89
ssg70
g4854
sg63
(lp4866
S':'
asbag56
(g77
g58
NtRp4867
(dp4868
g61
(dp4869
sg70
g4854
sg63
(lp4870
g56
(g57
g58
NtRp4871
(dp4872
g61
(dp4873
g69
I4
ssg70
g4867
sg63
(lp4874
S'Copyright 2011'
p4875
asbasbasbag56
(g72
g58
NtRp4876
(dp4877
g61
(dp4878
sg70
g4828
sg63
(lp4879
g56
(g77
g58
NtRp4880
(dp4881
g61
(dp4882
g81
g82
ssg70
g4876
sg63
(lp4883
S'description'
p4884
asbag56
(g77
g58
NtRp4885
(dp4886
g61
(dp4887
g88
g89
ssg70
g4876
sg63
(lp4888
S':'
asbag56
(g77
g58
NtRp4889
(dp4890
g61
(dp4891
sg70
g4876
sg63
(lp4892
g56
(g57
g58
NtRp4893
(dp4894
g61
(dp4895
g69
I4
ssg70
g4889
sg63
(lp4896
S'Fitness Challenge'
p4897
asbasbasbag56
(g72
g58
NtRp4898
(dp4899
g61
(dp4900
sg70
g4828
sg63
(lp4901
g56
(g77
g58
NtRp4902
(dp4903
g61
(dp4904
g81
g82
ssg70
g4898
sg63
(lp4905
S'generator'
p4906
asbag56
(g77
g58
NtRp4907
(dp4908
g61
(dp4909
g88
g89
ssg70
g4898
sg63
(lp4910
S':'
asbag56
(g77
g58
NtRp4911
(dp4912
g61
(dp4913
sg70
g4898
sg63
(lp4914
g56
(g57
g58
NtRp4915
(dp4916
g61
(dp4917
g69
I4
ssg70
g4911
sg63
(lp4918
S'Web2py Web Framework'
p4919
asbasbasbag56
(g72
g58
NtRp4920
(dp4921
g61
(dp4922
sg70
g4828
sg63
(lp4923
g56
(g77
g58
NtRp4924
(dp4925
g61
(dp4926
g81
g82
ssg70
g4920
sg63
(lp4927
S'keywords'
p4928
asbag56
(g77
g58
NtRp4929
(dp4930
g61
(dp4931
g88
g89
ssg70
g4920
sg63
(lp4932
S':'
asbag56
(g77
g58
NtRp4933
(dp4934
g61
(dp4935
sg70
g4920
sg63
(lp4936
g56
(g57
g58
NtRp4937
(dp4938
g61
(dp4939
g69
I4
ssg70
g4933
sg63
(lp4940
S'web2py, python, framework'
p4941
asbasbasbasbasbasbasbag56
(g72
g58
NtRp4942
(dp4943
g61
(dp4944
sg70
g3346
sg63
(lp4945
g56
(g77
g58
NtRp4946
(dp4947
g61
(dp4948
g81
g82
ssg70
g4942
sg63
(lp4949
S'postprocessing'
p4950
asbag56
(g77
g58
NtRp4951
(dp4952
g61
(dp4953
g88
g89
ssg70
g4942
sg63
(lp4954
S':'
asbag56
(g77
g58
NtRp4955
(dp4956
g61
(dp4957
sg70
g4942
sg63
(lp4958
g56
(g57
g58
NtRp4959
(dp4960
g61
(dp4961
g69
I5
ssg70
g4955
sg63
(lp4962
g56
(g65
g58
NtRp4963
(dp4964
g61
(dp4965
g69
I4
ssg70
Nsg63
(lp4966
sbasbasbasbag56
(g72
g58
NtRp4967
(dp4968
g61
(dp4969
sg70
g3346
sg63
(lp4970
g56
(g77
g58
NtRp4971
(dp4972
g61
(dp4973
g81
g82
ssg70
g4967
sg63
(lp4974
S'session_file'
p4975
asbag56
(g77
g58
NtRp4976
(dp4977
g61
(dp4978
g88
g89
ssg70
g4967
sg63
(lp4979
S':'
asbag56
(g77
g58
NtRp4980
(dp4981
g61
(dp4982
sg70
g4967
sg63
(lp4983
g56
(g57
g58
NtRp4984
(dp4985
g61
(dp4986
g69
I5
ssg70
g4980
sg63
(lp4987
S"<open file 'P:\\Workbench\\DevEnv\\web2py\\applications\\init\\sessions\\127.0.0.1-2ee686ba-d1d2-46bc-bb75-bfad4d4c0c4c', mode 'rb+' at 0x0925B3E8>"
p4988
asbasbasbag56
(g72
g58
NtRp4989
(dp4990
g61
(dp4991
sg70
g3346
sg63
(lp4992
g56
(g77
g58
NtRp4993
(dp4994
g61
(dp4995
g81
g82
ssg70
g4989
sg63
(lp4996
S'session_filename'
p4997
asbag56
(g77
g58
NtRp4998
(dp4999
g61
(dp5000
g88
g89
ssg70
g4989
sg63
(lp5001
S':'
asbag56
(g77
g58
NtRp5002
(dp5003
g61
(dp5004
sg70
g4989
sg63
(lp5005
g56
(g57
g58
NtRp5006
(dp5007
g61
(dp5008
g69
I5
ssg70
g5002
sg63
(lp5009
S'P:\\Workbench\\DevEnv\\web2py\\applications\\init\\sessions\\127.0.0.1-2ee686ba-d1d2-46bc-bb75-bfad4d4c0c4c'
p5010
asbasbasbag56
(g72
g58
NtRp5011
(dp5012
g61
(dp5013
sg70
g3346
sg63
(lp5014
g56
(g77
g58
NtRp5015
(dp5016
g61
(dp5017
g81
g82
ssg70
g5011
sg63
(lp5018
S'session_id'
p5019
asbag56
(g77
g58
NtRp5020
(dp5021
g61
(dp5022
g88
g89
ssg70
g5011
sg63
(lp5023
S':'
asbag56
(g77
g58
NtRp5024
(dp5025
g61
(dp5026
sg70
g5011
sg63
(lp5027
g56
(g57
g58
NtRp5028
(dp5029
g61
(dp5030
g69
I5
ssg70
g5024
sg63
(lp5031
S'127.0.0.1-2ee686ba-d1d2-46bc-bb75-bfad4d4c0c4c'
p5032
asbasbasbag56
(g72
g58
NtRp5033
(dp5034
g61
(dp5035
sg70
g3346
sg63
(lp5036
g56
(g77
g58
NtRp5037
(dp5038
g61
(dp5039
g81
g82
ssg70
g5033
sg63
(lp5040
S'session_id_name'
p5041
asbag56
(g77
g58
NtRp5042
(dp5043
g61
(dp5044
g88
g89
ssg70
g5033
sg63
(lp5045
S':'
asbag56
(g77
g58
NtRp5046
(dp5047
g61
(dp5048
sg70
g5033
sg63
(lp5049
g56
(g57
g58
NtRp5050
(dp5051
g61
(dp5052
g69
I5
ssg70
g5046
sg63
(lp5053
g3403
asbasbasbag56
(g72
g58
NtRp5054
(dp5055
g61
(dp5056
sg70
g3346
sg63
(lp5057
g56
(g77
g58
NtRp5058
(dp5059
g61
(dp5060
g81
g82
ssg70
g5054
sg63
(lp5061
S'session_locked'
p5062
asbag56
(g77
g58
NtRp5063
(dp5064
g61
(dp5065
g88
g89
ssg70
g5054
sg63
(lp5066
S':'
asbag56
(g77
g58
NtRp5067
(dp5068
g61
(dp5069
sg70
g5054
sg63
(lp5070
g56
(g57
g58
NtRp5071
(dp5072
g61
(dp5073
g69
I5
ssg70
g5067
sg63
(lp5074
g1506
asbasbasbag56
(g72
g58
NtRp5075
(dp5076
g61
(dp5077
sg70
g3346
sg63
(lp5078
g56
(g77
g58
NtRp5079
(dp5080
g61
(dp5081
g81
g82
ssg70
g5075
sg63
(lp5082
S'session_new'
p5083
asbag56
(g77
g58
NtRp5084
(dp5085
g61
(dp5086
g88
g89
ssg70
g5075
sg63
(lp5087
S':'
asbag56
(g77
g58
NtRp5088
(dp5089
g61
(dp5090
sg70
g5075
sg63
(lp5091
g56
(g57
g58
NtRp5092
(dp5093
g61
(dp5094
g69
I5
ssg70
g5088
sg63
(lp5095
g99
asbasbasbag56
(g72
g58
NtRp5096
(dp5097
g61
(dp5098
sg70
g3346
sg63
(lp5099
g56
(g77
g58
NtRp5100
(dp5101
g61
(dp5102
g81
g82
ssg70
g5096
sg63
(lp5103
S'status'
p5104
asbag56
(g77
g58
NtRp5105
(dp5106
g61
(dp5107
g88
g89
ssg70
g5096
sg63
(lp5108
S':'
asbag56
(g77
g58
NtRp5109
(dp5110
g61
(dp5111
sg70
g5096
sg63
(lp5112
g56
(g57
g58
NtRp5113
(dp5114
g61
(dp5115
g69
I5
ssg70
g5109
sg63
(lp5116
S'200'
p5117
asbasbasbag56
(g72
g58
NtRp5118
(dp5119
g61
(dp5120
sg70
g3346
sg63
(lp5121
g56
(g77
g58
NtRp5122
(dp5123
g61
(dp5124
g81
g82
ssg70
g5118
sg63
(lp5125
S'subtitle'
p5126
asbag56
(g77
g58
NtRp5127
(dp5128
g61
(dp5129
g88
g89
ssg70
g5118
sg63
(lp5130
S':'
asbag56
(g77
g58
NtRp5131
(dp5132
g61
(dp5133
sg70
g5118
sg63
(lp5134
g56
(g57
g58
NtRp5135
(dp5136
g61
(dp5137
g69
I5
ssg70
g5131
sg63
(lp5138
g3851
(S's\r\x00\x00\x00customize me!'
tRp5139
asbasbasbag56
(g72
g58
NtRp5140
(dp5141
g61
(dp5142
sg70
g3346
sg63
(lp5143
g56
(g77
g58
NtRp5144
(dp5145
g61
(dp5146
g81
g82
ssg70
g5140
sg63
(lp5147
S'title'
p5148
asbag56
(g77
g58
NtRp5149
(dp5150
g61
(dp5151
g88
g89
ssg70
g5140
sg63
(lp5152
S':'
asbag56
(g77
g58
NtRp5153
(dp5154
g61
(dp5155
sg70
g5140
sg63
(lp5156
g56
(g57
g58
NtRp5157
(dp5158
g61
(dp5159
g69
I5
ssg70
g5153
sg63
(lp5160
g121
asbasbasbag56
(g72
g58
NtRp5161
(dp5162
g61
(dp5163
sg70
g3346
sg63
(lp5164
g56
(g77
g58
NtRp5165
(dp5166
g61
(dp5167
g81
g82
ssg70
g5161
sg63
(lp5168
g2171
asbag56
(g77
g58
NtRp5169
(dp5170
g61
(dp5171
g88
g89
ssg70
g5161
sg63
(lp5172
S':'
asbag56
(g77
g58
NtRp5173
(dp5174
g61
(dp5175
sg70
g5161
sg63
(lp5176
g56
(g57
g58
NtRp5177
(dp5178
g61
(dp5179
g69
I5
ssg70
g5173
sg63
(lp5180
g2184
asbasbasbag56
(g72
g58
NtRp5181
(dp5182
g61
(dp5183
sg70
g3346
sg63
(lp5184
g56
(g77
g58
NtRp5185
(dp5186
g61
(dp5187
g81
g82
ssg70
g5181
sg63
(lp5188
S'view'
p5189
asbag56
(g77
g58
NtRp5190
(dp5191
g61
(dp5192
g88
g89
ssg70
g5181
sg63
(lp5193
S':'
asbag56
(g77
g58
NtRp5194
(dp5195
g61
(dp5196
sg70
g5181
sg63
(lp5197
g56
(g57
g58
NtRp5198
(dp5199
g61
(dp5200
g69
I5
ssg70
g5194
sg63
(lp5201
S'default/home.html'
p5202
asbasbasbasbasbsS'locals'
p5203
(dp5204
ssS'traceback'
p5205
S'Traceback (most recent call last):\n  File "P:\\Workbench\\DevEnv\\web2py\\gluon\\restricted.py", line 192, in restricted\n    exec ccode in environment\n  File "P:\\Workbench\\DevEnv\\web2py\\applications\\init\\controllers/default.py", line 84, in <module>\n  File "P:\\Workbench\\DevEnv\\web2py\\gluon\\globals.py", line 149, in <lambda>\n    self._caller = lambda f: f()\n  File "P:\\Workbench\\DevEnv\\web2py\\gluon\\tools.py", line 2473, in f\n    return action(*a, **b)\n  File "P:\\Workbench\\DevEnv\\web2py\\applications\\init\\controllers/default.py", line 43, in home\n    return dict(request=request())\nTypeError: \'Request\' object is not callable\n'
p5206
s.