(dp1
S'output'
p2
S''
sS'layer'
p3
S'P:\\Workbench\\DevEnv\\web2py\\applications\\init\\views\\default/home.html'
p4
sS'code'
p5
S'response.write(\'<!DOCTYPE html PUBLIC "-//W3C//DTD XHTML 1.0 Transitional//EN" "http://www.w3.org/TR/xhtml1/DTD/xhtml1-transitional.dtd">\\r\\n\\r\\n<html xmlns="http://www.w3.org/1999/xhtml" xml:lang="en" lang="en">\\r\\n<head>\\r\\n    <meta http-equiv="Content-Type" content="text/html; charset=utf-8" />\\r\\n\\r\\n    <title>Fitness Challenge    </title>\\r\\n\\r\\n    <link rel="stylesheet" type="text/css" media="screen" href="\', escape=False)\nresponse.write(URL(\'static\', \'css/style.css\'))\nresponse.write(\'" />\\r\\n</head>\\r\\n<body>\\r\\n\\r\\n<div id="header">\\r\\n    <div id="headMenu">\\r\\n        <ul>\\r\\n            <li><a class="headMenuHomeSelected" href="\', escape=False)\nresponse.write(URL(r=request,f=\'index\'))\nresponse.write(\'"><span class="verticalAlign">home</span></a></li>\\r\\n            <li><a class="headMenuArticles" href="#"><span class="verticalAlign">challenges</span></a></li>\\r\\n            <li><a class="headMenuContact" href="\', escape=False)\nresponse.write(URL(r=request,f=\'contact\'))\nresponse.write(\'"><span class="verticalAlign">contact</span></a></li>\\r\\n        </ul>\\r\\n    </div>\\r\\n    \\r\\n    <div id="mainTitle">\\r\\n        <h1>Fitness Challenge </h1>\\r\\n        <h3>Step Up To The Challenge</h3>\\r\\n    </div>\\r\\n</div>\\r\\n\\r\\n<div id="content-wrapper">\\r\\n    <div id="content">\\r\\n        <h1 class="titlePage">\', escape=False)\nresponse.write(T( request.args(0).replace(\'_\',\' \').capitalize() ))\nresponse.write(\'</h1>\\r\\n        <div class="post">\\r\\n            \', escape=False)\nresponse.write(\'\\r\\n<h1>This is the Users Home Page</h1>\\r\\n<h3> Welcome \', escape=False)\nresponse.write(auth.user.first_name)\nresponse.write(\'</h3>\\r\\n\', escape=False)\nresponse.write(\'\\r\\n            <div class="postContent">\\r\\n\\r\\n            </div>\\r\\n        </div>\\r\\n    </div>\\r\\n    <div class="clear"></div>\\r\\n</div>\\r\\n\\r\\n<div id="footer">\\r\\n    <ul>\\r\\n        <li><a href="\', escape=False)\nresponse.write(URL(r=request,f=\'index\'))\nresponse.write(\'">home</a> |</li>\\r\\n        <li><a href="#">about us</a> |</li>\\r\\n        <li><a href="#">sitemap</a> |</li>\\r\\n        <li><a href="\', escape=False)\nresponse.write(URL(r=request,f=\'contact\'))\nresponse.write(\'">contact</a></li>\\r\\n    </ul>\\r\\n    <p class="copyright"><a href="http://www.florian-hacquebart.eu">florian-hacquebart.eu</a> - free css template</p>\\r\\n    <p class="w3cvalidator">\\r\\n        <a href="http://validator.w3.org/check?uri=referer">\\r\\n            <img src="images/xhtml.png" alt="Valid XHTML 1.0 Transitional" />\\r\\n        </a>&nbsp;\\r\\n        <a href="http://jigsaw.w3.org/css-validator/check/referer">\\r\\n            <img src="\', escape=False)\nresponse.write(URL(\'static\', \'images/css.png\'))\nresponse.write(\'" alt="Valid CSS!" />\\r\\n        </a>\\r\\n    </p>\\r\\n</div>\\r\\n\\r\\n</body>\\r\\n</html>\\r\\n\', escape=False)'
p6
sS'snapshot'
p7
(dp8
S'exception'
p9
(dp10
S'__hash__'
p11
S"<method-wrapper '__hash__' of exceptions.AttributeError object>"
p12
sS'__setattr__'
p13
S"<method-wrapper '__setattr__' of exceptions.AttributeError object>"
p14
sS'__reduce_ex__'
p15
S'<built-in method __reduce_ex__ of exceptions.AttributeError object>'
p16
sS'__getslice__'
p17
S"<method-wrapper '__getslice__' of exceptions.AttributeError object>"
p18
sS'__getitem__'
p19
S"<method-wrapper '__getitem__' of exceptions.AttributeError object>"
p20
sS'__setstate__'
p21
S'<built-in method __setstate__ of exceptions.AttributeError object>'
p22
sS'__reduce__'
p23
S'<built-in method __reduce__ of exceptions.AttributeError object>'
p24
sS'__str__'
p25
S"<method-wrapper '__str__' of exceptions.AttributeError object>"
p26
sS'__format__'
p27
S'<built-in method __format__ of exceptions.AttributeError object>'
p28
sS'__getattribute__'
p29
S"<method-wrapper '__getattribute__' of exceptions.AttributeError object>"
p30
sS'__class__'
p31
S"<type 'exceptions.AttributeError'>"
p32
sS'__unicode__'
p33
S'<built-in method __unicode__ of exceptions.AttributeError object>'
p34
sS'__delattr__'
p35
S"<method-wrapper '__delattr__' of exceptions.AttributeError object>"
p36
sS'__subclasshook__'
p37
S'<built-in method __subclasshook__ of type object>'
p38
sS'__repr__'
p39
S"<method-wrapper '__repr__' of exceptions.AttributeError object>"
p40
sS'args'
p41
S'("\'NoneType\' object has no attribute \'replace\'",)'
p42
sS'__dict__'
p43
S'{}'
p44
sS'__sizeof__'
p45
S'<built-in method __sizeof__ of exceptions.AttributeError object>'
p46
sS'__doc__'
p47
S"'Attribute not found.'"
p48
sS'__init__'
p49
S"<method-wrapper '__init__' of exceptions.AttributeError object>"
p50
sS'__new__'
p51
S'<built-in method __new__ of type object>'
p52
ssS'evalue'
p53
S"'NoneType' object has no attribute 'replace'"
p54
sS'request'
p55
ccopy_reg
_reconstructor
p56
(cgluon.html
BEAUTIFY
p57
c__builtin__
object
p58
NtRp59
(dp60
S'attributes'
p61
(dp62
sS'components'
p63
(lp64
g56
(cgluon.html
TABLE
p65
g58
NtRp66
(dp67
g61
(dp68
S'level'
p69
I5
ssS'parent'
p70
Nsg63
(lp71
g56
(cgluon.html
TR
p72
g58
NtRp73
(dp74
g61
(dp75
sg70
g66
sg63
(lp76
g56
(cgluon.html
TD
p77
g58
NtRp78
(dp79
g61
(dp80
S'_style'
p81
S'font-weight:bold;vertical-align:top'
p82
ssg70
g73
sg63
(lp83
S'ajax'
p84
asbag56
(g77
g58
NtRp85
(dp86
g61
(dp87
S'_valign'
p88
S'top'
p89
ssg70
g73
sg63
(lp90
S':'
asbag56
(g77
g58
NtRp91
(dp92
g61
(dp93
sg70
g73
sg63
(lp94
g56
(g57
g58
NtRp95
(dp96
g61
(dp97
g69
I5
ssg70
g91
sg63
(lp98
S'False'
p99
asbasbasbag56
(g72
g58
NtRp100
(dp101
g61
(dp102
sg70
g66
sg63
(lp103
g56
(g77
g58
NtRp104
(dp105
g61
(dp106
g81
g82
ssg70
g100
sg63
(lp107
S'application'
p108
asbag56
(g77
g58
NtRp109
(dp110
g61
(dp111
g88
g89
ssg70
g100
sg63
(lp112
S':'
asbag56
(g77
g58
NtRp113
(dp114
g61
(dp115
sg70
g100
sg63
(lp116
g56
(g57
g58
NtRp117
(dp118
g61
(dp119
g69
I5
ssg70
g113
sg63
(lp120
S'init'
p121
asbasbasbag56
(g72
g58
NtRp122
(dp123
g61
(dp124
sg70
g66
sg63
(lp125
g56
(g77
g58
NtRp126
(dp127
g61
(dp128
g81
g82
ssg70
g122
sg63
(lp129
g41
asbag56
(g77
g58
NtRp130
(dp131
g61
(dp132
g88
g89
ssg70
g122
sg63
(lp133
S':'
asbag56
(g77
g58
NtRp134
(dp135
g61
(dp136
sg70
g122
sg63
(lp137
g56
(g57
g58
NtRp138
(dp139
g61
(dp140
g69
I5
ssg70
g134
sg63
(lp141
g56
(g65
g58
NtRp142
(dp143
g61
(dp144
g69
I4
ssg70
Nsg63
(lp145
sbasbasbasbag56
(g72
g58
NtRp146
(dp147
g61
(dp148
sg70
g66
sg63
(lp149
g56
(g77
g58
NtRp150
(dp151
g61
(dp152
g81
g82
ssg70
g146
sg63
(lp153
S'body'
p154
asbag56
(g77
g58
NtRp155
(dp156
g61
(dp157
g88
g89
ssg70
g146
sg63
(lp158
S':'
asbag56
(g77
g58
NtRp159
(dp160
g61
(dp161
sg70
g146
sg63
(lp162
g56
(g57
g58
NtRp163
(dp164
g61
(dp165
g69
I5
ssg70
g159
sg63
(lp166
S'<cStringIO.StringO object at 0x0A6F9BA0>'
p167
asbasbasbag56
(g72
g58
NtRp168
(dp169
g61
(dp170
sg70
g66
sg63
(lp171
g56
(g77
g58
NtRp172
(dp173
g61
(dp174
g81
g82
ssg70
g168
sg63
(lp175
S'client'
p176
asbag56
(g77
g58
NtRp177
(dp178
g61
(dp179
g88
g89
ssg70
g168
sg63
(lp180
S':'
asbag56
(g77
g58
NtRp181
(dp182
g61
(dp183
sg70
g168
sg63
(lp184
g56
(g57
g58
NtRp185
(dp186
g61
(dp187
g69
I5
ssg70
g181
sg63
(lp188
S'127.0.0.1'
p189
asbasbasbag56
(g72
g58
NtRp190
(dp191
g61
(dp192
sg70
g66
sg63
(lp193
g56
(g77
g58
NtRp194
(dp195
g61
(dp196
g81
g82
ssg70
g190
sg63
(lp197
S'controller'
p198
asbag56
(g77
g58
NtRp199
(dp200
g61
(dp201
g88
g89
ssg70
g190
sg63
(lp202
S':'
asbag56
(g77
g58
NtRp203
(dp204
g61
(dp205
sg70
g190
sg63
(lp206
g56
(g57
g58
NtRp207
(dp208
g61
(dp209
g69
I5
ssg70
g203
sg63
(lp210
S'default'
p211
asbasbasbag56
(g72
g58
NtRp212
(dp213
g61
(dp214
sg70
g66
sg63
(lp215
g56
(g77
g58
NtRp216
(dp217
g61
(dp218
g81
g82
ssg70
g212
sg63
(lp219
S'cookies'
p220
asbag56
(g77
g58
NtRp221
(dp222
g61
(dp223
g88
g89
ssg70
g212
sg63
(lp224
S':'
asbag56
(g77
g58
NtRp225
(dp226
g61
(dp227
sg70
g212
sg63
(lp228
g56
(g57
g58
NtRp229
(dp230
g61
(dp231
g69
I5
ssg70
g225
sg63
(lp232
g56
(g65
g58
NtRp233
(dp234
g61
(dp235
g69
I4
ssg70
Nsg63
(lp236
g56
(g72
g58
NtRp237
(dp238
g61
(dp239
sg70
g233
sg63
(lp240
g56
(g77
g58
NtRp241
(dp242
g61
(dp243
g81
g82
ssg70
g237
sg63
(lp244
S'session_id_admin'
p245
asbag56
(g77
g58
NtRp246
(dp247
g61
(dp248
g88
g89
ssg70
g237
sg63
(lp249
S':'
asbag56
(g77
g58
NtRp250
(dp251
g61
(dp252
sg70
g237
sg63
(lp253
g56
(g57
g58
NtRp254
(dp255
g61
(dp256
g69
I4
ssg70
g250
sg63
(lp257
g56
(g65
g58
NtRp258
(dp259
g61
(dp260
g69
I3
ssg70
Nsg63
(lp261
g56
(g72
g58
NtRp262
(dp263
g61
(dp264
sg70
g258
sg63
(lp265
g56
(g77
g58
NtRp266
(dp267
g61
(dp268
g81
g82
ssg70
g262
sg63
(lp269
S'comment'
p270
asbag56
(g77
g58
NtRp271
(dp272
g61
(dp273
g88
g89
ssg70
g262
sg63
(lp274
S':'
asbag56
(g77
g58
NtRp275
(dp276
g61
(dp277
sg70
g262
sg63
(lp278
g56
(g57
g58
NtRp279
(dp280
g61
(dp281
g69
I3
ssg70
g275
sg63
(lp282
S''
asbasbasbag56
(g72
g58
NtRp283
(dp284
g61
(dp285
sg70
g258
sg63
(lp286
g56
(g77
g58
NtRp287
(dp288
g61
(dp289
g81
g82
ssg70
g283
sg63
(lp290
S'domain'
p291
asbag56
(g77
g58
NtRp292
(dp293
g61
(dp294
g88
g89
ssg70
g283
sg63
(lp295
S':'
asbag56
(g77
g58
NtRp296
(dp297
g61
(dp298
sg70
g283
sg63
(lp299
g56
(g57
g58
NtRp300
(dp301
g61
(dp302
g69
I3
ssg70
g296
sg63
(lp303
S''
asbasbasbag56
(g72
g58
NtRp304
(dp305
g61
(dp306
sg70
g258
sg63
(lp307
g56
(g77
g58
NtRp308
(dp309
g61
(dp310
g81
g82
ssg70
g304
sg63
(lp311
S'expires'
p312
asbag56
(g77
g58
NtRp313
(dp314
g61
(dp315
g88
g89
ssg70
g304
sg63
(lp316
S':'
asbag56
(g77
g58
NtRp317
(dp318
g61
(dp319
sg70
g304
sg63
(lp320
g56
(g57
g58
NtRp321
(dp322
g61
(dp323
g69
I3
ssg70
g317
sg63
(lp324
S''
asbasbasbag56
(g72
g58
NtRp325
(dp326
g61
(dp327
sg70
g258
sg63
(lp328
g56
(g77
g58
NtRp329
(dp330
g61
(dp331
g81
g82
ssg70
g325
sg63
(lp332
S'httponly'
p333
asbag56
(g77
g58
NtRp334
(dp335
g61
(dp336
g88
g89
ssg70
g325
sg63
(lp337
S':'
asbag56
(g77
g58
NtRp338
(dp339
g61
(dp340
sg70
g325
sg63
(lp341
g56
(g57
g58
NtRp342
(dp343
g61
(dp344
g69
I3
ssg70
g338
sg63
(lp345
S''
asbasbasbag56
(g72
g58
NtRp346
(dp347
g61
(dp348
sg70
g258
sg63
(lp349
g56
(g77
g58
NtRp350
(dp351
g61
(dp352
g81
g82
ssg70
g346
sg63
(lp353
S'max-age'
p354
asbag56
(g77
g58
NtRp355
(dp356
g61
(dp357
g88
g89
ssg70
g346
sg63
(lp358
S':'
asbag56
(g77
g58
NtRp359
(dp360
g61
(dp361
sg70
g346
sg63
(lp362
g56
(g57
g58
NtRp363
(dp364
g61
(dp365
g69
I3
ssg70
g359
sg63
(lp366
S''
asbasbasbag56
(g72
g58
NtRp367
(dp368
g61
(dp369
sg70
g258
sg63
(lp370
g56
(g77
g58
NtRp371
(dp372
g61
(dp373
g81
g82
ssg70
g367
sg63
(lp374
S'path'
p375
asbag56
(g77
g58
NtRp376
(dp377
g61
(dp378
g88
g89
ssg70
g367
sg63
(lp379
S':'
asbag56
(g77
g58
NtRp380
(dp381
g61
(dp382
sg70
g367
sg63
(lp383
g56
(g57
g58
NtRp384
(dp385
g61
(dp386
g69
I3
ssg70
g380
sg63
(lp387
S''
asbasbasbag56
(g72
g58
NtRp388
(dp389
g61
(dp390
sg70
g258
sg63
(lp391
g56
(g77
g58
NtRp392
(dp393
g61
(dp394
g81
g82
ssg70
g388
sg63
(lp395
S'secure'
p396
asbag56
(g77
g58
NtRp397
(dp398
g61
(dp399
g88
g89
ssg70
g388
sg63
(lp400
S':'
asbag56
(g77
g58
NtRp401
(dp402
g61
(dp403
sg70
g388
sg63
(lp404
g56
(g57
g58
NtRp405
(dp406
g61
(dp407
g69
I3
ssg70
g401
sg63
(lp408
S''
asbasbasbag56
(g72
g58
NtRp409
(dp410
g61
(dp411
sg70
g258
sg63
(lp412
g56
(g77
g58
NtRp413
(dp414
g61
(dp415
g81
g82
ssg70
g409
sg63
(lp416
S'version'
p417
asbag56
(g77
g58
NtRp418
(dp419
g61
(dp420
g88
g89
ssg70
g409
sg63
(lp421
S':'
asbag56
(g77
g58
NtRp422
(dp423
g61
(dp424
sg70
g409
sg63
(lp425
g56
(g57
g58
NtRp426
(dp427
g61
(dp428
g69
I3
ssg70
g422
sg63
(lp429
S''
asbasbasbasbasbasbasbag56
(g72
g58
NtRp430
(dp431
g61
(dp432
sg70
g233
sg63
(lp433
g56
(g77
g58
NtRp434
(dp435
g61
(dp436
g81
g82
ssg70
g430
sg63
(lp437
S'session_id_init'
p438
asbag56
(g77
g58
NtRp439
(dp440
g61
(dp441
g88
g89
ssg70
g430
sg63
(lp442
S':'
asbag56
(g77
g58
NtRp443
(dp444
g61
(dp445
sg70
g430
sg63
(lp446
g56
(g57
g58
NtRp447
(dp448
g61
(dp449
g69
I4
ssg70
g443
sg63
(lp450
g56
(g65
g58
NtRp451
(dp452
g61
(dp453
g69
I3
ssg70
Nsg63
(lp454
g56
(g72
g58
NtRp455
(dp456
g61
(dp457
sg70
g451
sg63
(lp458
g56
(g77
g58
NtRp459
(dp460
g61
(dp461
g81
g82
ssg70
g455
sg63
(lp462
g270
asbag56
(g77
g58
NtRp463
(dp464
g61
(dp465
g88
g89
ssg70
g455
sg63
(lp466
S':'
asbag56
(g77
g58
NtRp467
(dp468
g61
(dp469
sg70
g455
sg63
(lp470
g56
(g57
g58
NtRp471
(dp472
g61
(dp473
g69
I3
ssg70
g467
sg63
(lp474
S''
asbasbasbag56
(g72
g58
NtRp475
(dp476
g61
(dp477
sg70
g451
sg63
(lp478
g56
(g77
g58
NtRp479
(dp480
g61
(dp481
g81
g82
ssg70
g475
sg63
(lp482
g291
asbag56
(g77
g58
NtRp483
(dp484
g61
(dp485
g88
g89
ssg70
g475
sg63
(lp486
S':'
asbag56
(g77
g58
NtRp487
(dp488
g61
(dp489
sg70
g475
sg63
(lp490
g56
(g57
g58
NtRp491
(dp492
g61
(dp493
g69
I3
ssg70
g487
sg63
(lp494
S''
asbasbasbag56
(g72
g58
NtRp495
(dp496
g61
(dp497
sg70
g451
sg63
(lp498
g56
(g77
g58
NtRp499
(dp500
g61
(dp501
g81
g82
ssg70
g495
sg63
(lp502
g312
asbag56
(g77
g58
NtRp503
(dp504
g61
(dp505
g88
g89
ssg70
g495
sg63
(lp506
S':'
asbag56
(g77
g58
NtRp507
(dp508
g61
(dp509
sg70
g495
sg63
(lp510
g56
(g57
g58
NtRp511
(dp512
g61
(dp513
g69
I3
ssg70
g507
sg63
(lp514
S''
asbasbasbag56
(g72
g58
NtRp515
(dp516
g61
(dp517
sg70
g451
sg63
(lp518
g56
(g77
g58
NtRp519
(dp520
g61
(dp521
g81
g82
ssg70
g515
sg63
(lp522
g333
asbag56
(g77
g58
NtRp523
(dp524
g61
(dp525
g88
g89
ssg70
g515
sg63
(lp526
S':'
asbag56
(g77
g58
NtRp527
(dp528
g61
(dp529
sg70
g515
sg63
(lp530
g56
(g57
g58
NtRp531
(dp532
g61
(dp533
g69
I3
ssg70
g527
sg63
(lp534
S''
asbasbasbag56
(g72
g58
NtRp535
(dp536
g61
(dp537
sg70
g451
sg63
(lp538
g56
(g77
g58
NtRp539
(dp540
g61
(dp541
g81
g82
ssg70
g535
sg63
(lp542
g354
asbag56
(g77
g58
NtRp543
(dp544
g61
(dp545
g88
g89
ssg70
g535
sg63
(lp546
S':'
asbag56
(g77
g58
NtRp547
(dp548
g61
(dp549
sg70
g535
sg63
(lp550
g56
(g57
g58
NtRp551
(dp552
g61
(dp553
g69
I3
ssg70
g547
sg63
(lp554
S''
asbasbasbag56
(g72
g58
NtRp555
(dp556
g61
(dp557
sg70
g451
sg63
(lp558
g56
(g77
g58
NtRp559
(dp560
g61
(dp561
g81
g82
ssg70
g555
sg63
(lp562
g375
asbag56
(g77
g58
NtRp563
(dp564
g61
(dp565
g88
g89
ssg70
g555
sg63
(lp566
S':'
asbag56
(g77
g58
NtRp567
(dp568
g61
(dp569
sg70
g555
sg63
(lp570
g56
(g57
g58
NtRp571
(dp572
g61
(dp573
g69
I3
ssg70
g567
sg63
(lp574
S''
asbasbasbag56
(g72
g58
NtRp575
(dp576
g61
(dp577
sg70
g451
sg63
(lp578
g56
(g77
g58
NtRp579
(dp580
g61
(dp581
g81
g82
ssg70
g575
sg63
(lp582
g396
asbag56
(g77
g58
NtRp583
(dp584
g61
(dp585
g88
g89
ssg70
g575
sg63
(lp586
S':'
asbag56
(g77
g58
NtRp587
(dp588
g61
(dp589
sg70
g575
sg63
(lp590
g56
(g57
g58
NtRp591
(dp592
g61
(dp593
g69
I3
ssg70
g587
sg63
(lp594
S''
asbasbasbag56
(g72
g58
NtRp595
(dp596
g61
(dp597
sg70
g451
sg63
(lp598
g56
(g77
g58
NtRp599
(dp600
g61
(dp601
g81
g82
ssg70
g595
sg63
(lp602
g417
asbag56
(g77
g58
NtRp603
(dp604
g61
(dp605
g88
g89
ssg70
g595
sg63
(lp606
S':'
asbag56
(g77
g58
NtRp607
(dp608
g61
(dp609
sg70
g595
sg63
(lp610
g56
(g57
g58
NtRp611
(dp612
g61
(dp613
g69
I3
ssg70
g607
sg63
(lp614
S''
asbasbasbasbasbasbasbasbasbasbasbag56
(g72
g58
NtRp615
(dp616
g61
(dp617
sg70
g66
sg63
(lp618
g56
(g77
g58
NtRp619
(dp620
g61
(dp621
g81
g82
ssg70
g615
sg63
(lp622
S'env'
p623
asbag56
(g77
g58
NtRp624
(dp625
g61
(dp626
g88
g89
ssg70
g615
sg63
(lp627
S':'
asbag56
(g77
g58
NtRp628
(dp629
g61
(dp630
sg70
g615
sg63
(lp631
g56
(g57
g58
NtRp632
(dp633
g61
(dp634
g69
I5
ssg70
g628
sg63
(lp635
g56
(g65
g58
NtRp636
(dp637
g61
(dp638
g69
I4
ssg70
Nsg63
(lp639
g56
(g72
g58
NtRp640
(dp641
g61
(dp642
sg70
g636
sg63
(lp643
g56
(g77
g58
NtRp644
(dp645
g61
(dp646
g81
g82
ssg70
g640
sg63
(lp647
S'app_folders'
p648
asbag56
(g77
g58
NtRp649
(dp650
g61
(dp651
g88
g89
ssg70
g640
sg63
(lp652
S':'
asbag56
(g77
g58
NtRp653
(dp654
g61
(dp655
sg70
g640
sg63
(lp656
g56
(g57
g58
NtRp657
(dp658
g61
(dp659
g69
I4
ssg70
g653
sg63
(lp660
S"set(['P:\\\\Workbench\\\\DevEnv\\\\web2py\\\\applications\\\\init\\\\', 'P:\\\\Workbench\\\\DevEnv\\\\web2py\\\\applications\\\\admin\\\\'])"
p661
asbasbasbag56
(g72
g58
NtRp662
(dp663
g61
(dp664
sg70
g636
sg63
(lp665
g56
(g77
g58
NtRp666
(dp667
g61
(dp668
g81
g82
ssg70
g662
sg63
(lp669
S'applications_parent'
p670
asbag56
(g77
g58
NtRp671
(dp672
g61
(dp673
g88
g89
ssg70
g662
sg63
(lp674
S':'
asbag56
(g77
g58
NtRp675
(dp676
g61
(dp677
sg70
g662
sg63
(lp678
g56
(g57
g58
NtRp679
(dp680
g61
(dp681
g69
I4
ssg70
g675
sg63
(lp682
S'P:\\Workbench\\DevEnv\\web2py'
p683
asbasbasbag56
(g72
g58
NtRp684
(dp685
g61
(dp686
sg70
g636
sg63
(lp687
g56
(g77
g58
NtRp688
(dp689
g61
(dp690
g81
g82
ssg70
g684
sg63
(lp691
S'cmd_args'
p692
asbag56
(g77
g58
NtRp693
(dp694
g61
(dp695
g88
g89
ssg70
g684
sg63
(lp696
S':'
asbag56
(g77
g58
NtRp697
(dp698
g61
(dp699
sg70
g684
sg63
(lp700
g56
(g57
g58
NtRp701
(dp702
g61
(dp703
g69
I4
ssg70
g697
sg63
(lp704
g56
(g65
g58
NtRp705
(dp706
g61
(dp707
g69
I3
ssg70
Nsg63
(lp708
sbasbasbasbag56
(g72
g58
NtRp709
(dp710
g61
(dp711
sg70
g636
sg63
(lp712
g56
(g77
g58
NtRp713
(dp714
g61
(dp715
g81
g82
ssg70
g709
sg63
(lp716
S'cmd_options'
p717
asbag56
(g77
g58
NtRp718
(dp719
g61
(dp720
g88
g89
ssg70
g709
sg63
(lp721
S':'
asbag56
(g77
g58
NtRp722
(dp723
g61
(dp724
sg70
g709
sg63
(lp725
g56
(g57
g58
NtRp726
(dp727
g61
(dp728
g69
I4
ssg70
g722
sg63
(lp729
S"<Values at 0x2fbd418: {'verbose': False, 'ip': '127.0.0.1', 'shutdown_timeout': 5, 'taskbar': False, 'nocron': False, 'pid_filename': 'httpserver.pid', 'maxthreads': None, 'softcron': False, 'server_name': 'Bishop-PC', 'bpython': False, 'nogui': False, 'port': 8000, 'extcron': False, 'debuglevel': 30, 'test': None, 'folder': 'P:\\\\Workbench\\\\DevEnv\\\\web2py', 'config': '', 'import_models': False, 'winservice': '', 'shell': None, 'run': '', 'log_filename': 'httpserver.log', 'args': [''], 'ssl_ca_certificate': None, 'scheduler': None, 'profiler_filename': None, 'ssl_private_key': '', 'password': '<ask>', 'request_queue_size': 5, 'ssl_certificate': '', 'cronjob': False, 'plain': False, 'quiet': False, 'interfaces': None, 'minthreads': None, 'timeout': 10, 'numthreads': None, 'nobanner': False}>"
p730
asbasbasbag56
(g72
g58
NtRp731
(dp732
g61
(dp733
sg70
g636
sg63
(lp734
g56
(g77
g58
NtRp735
(dp736
g61
(dp737
g81
g82
ssg70
g731
sg63
(lp738
S'db_sessions'
p739
asbag56
(g77
g58
NtRp740
(dp741
g61
(dp742
g88
g89
ssg70
g731
sg63
(lp743
S':'
asbag56
(g77
g58
NtRp744
(dp745
g61
(dp746
sg70
g731
sg63
(lp747
g56
(g57
g58
NtRp748
(dp749
g61
(dp750
g69
I4
ssg70
g744
sg63
(lp751
S'set([])'
p752
asbasbasbag56
(g72
g58
NtRp753
(dp754
g61
(dp755
sg70
g636
sg63
(lp756
g56
(g77
g58
NtRp757
(dp758
g61
(dp759
g81
g82
ssg70
g753
sg63
(lp760
S'debugging'
p761
asbag56
(g77
g58
NtRp762
(dp763
g61
(dp764
g88
g89
ssg70
g753
sg63
(lp765
S':'
asbag56
(g77
g58
NtRp766
(dp767
g61
(dp768
sg70
g753
sg63
(lp769
g56
(g57
g58
NtRp770
(dp771
g61
(dp772
g69
I4
ssg70
g766
sg63
(lp773
g99
asbasbasbag56
(g72
g58
NtRp774
(dp775
g61
(dp776
sg70
g636
sg63
(lp777
g56
(g77
g58
NtRp778
(dp779
g61
(dp780
g81
g82
ssg70
g774
sg63
(lp781
S'gluon_parent'
p782
asbag56
(g77
g58
NtRp783
(dp784
g61
(dp785
g88
g89
ssg70
g774
sg63
(lp786
S':'
asbag56
(g77
g58
NtRp787
(dp788
g61
(dp789
sg70
g774
sg63
(lp790
g56
(g57
g58
NtRp791
(dp792
g61
(dp793
g69
I4
ssg70
g787
sg63
(lp794
S'P:\\Workbench\\DevEnv\\web2py'
p795
asbasbasbag56
(g72
g58
NtRp796
(dp797
g61
(dp798
sg70
g636
sg63
(lp799
g56
(g77
g58
NtRp800
(dp801
g61
(dp802
g81
g82
ssg70
g796
sg63
(lp803
S'http_accept'
p804
asbag56
(g77
g58
NtRp805
(dp806
g61
(dp807
g88
g89
ssg70
g796
sg63
(lp808
S':'
asbag56
(g77
g58
NtRp809
(dp810
g61
(dp811
sg70
g796
sg63
(lp812
g56
(g57
g58
NtRp813
(dp814
g61
(dp815
g69
I4
ssg70
g809
sg63
(lp816
S'text/html,application/xhtml+xml,application/xml;q=0.9,*/*;q=0.8'
p817
asbasbasbag56
(g72
g58
NtRp818
(dp819
g61
(dp820
sg70
g636
sg63
(lp821
g56
(g77
g58
NtRp822
(dp823
g61
(dp824
g81
g82
ssg70
g818
sg63
(lp825
S'http_accept_charset'
p826
asbag56
(g77
g58
NtRp827
(dp828
g61
(dp829
g88
g89
ssg70
g818
sg63
(lp830
S':'
asbag56
(g77
g58
NtRp831
(dp832
g61
(dp833
sg70
g818
sg63
(lp834
g56
(g57
g58
NtRp835
(dp836
g61
(dp837
g69
I4
ssg70
g831
sg63
(lp838
S'ISO-8859-1,utf-8;q=0.7,*;q=0.7'
p839
asbasbasbag56
(g72
g58
NtRp840
(dp841
g61
(dp842
sg70
g636
sg63
(lp843
g56
(g77
g58
NtRp844
(dp845
g61
(dp846
g81
g82
ssg70
g840
sg63
(lp847
S'http_accept_encoding'
p848
asbag56
(g77
g58
NtRp849
(dp850
g61
(dp851
g88
g89
ssg70
g840
sg63
(lp852
S':'
asbag56
(g77
g58
NtRp853
(dp854
g61
(dp855
sg70
g840
sg63
(lp856
g56
(g57
g58
NtRp857
(dp858
g61
(dp859
g69
I4
ssg70
g853
sg63
(lp860
S'gzip,deflate'
p861
asbasbasbag56
(g72
g58
NtRp862
(dp863
g61
(dp864
sg70
g636
sg63
(lp865
g56
(g77
g58
NtRp866
(dp867
g61
(dp868
g81
g82
ssg70
g862
sg63
(lp869
S'http_accept_language'
p870
asbag56
(g77
g58
NtRp871
(dp872
g61
(dp873
g88
g89
ssg70
g862
sg63
(lp874
S':'
asbag56
(g77
g58
NtRp875
(dp876
g61
(dp877
sg70
g862
sg63
(lp878
g56
(g57
g58
NtRp879
(dp880
g61
(dp881
g69
I4
ssg70
g875
sg63
(lp882
S'en-us,en;q=0.5'
p883
asbasbasbag56
(g72
g58
NtRp884
(dp885
g61
(dp886
sg70
g636
sg63
(lp887
g56
(g77
g58
NtRp888
(dp889
g61
(dp890
g81
g82
ssg70
g884
sg63
(lp891
S'http_cache_control'
p892
asbag56
(g77
g58
NtRp893
(dp894
g61
(dp895
g88
g89
ssg70
g884
sg63
(lp896
S':'
asbag56
(g77
g58
NtRp897
(dp898
g61
(dp899
sg70
g884
sg63
(lp900
g56
(g57
g58
NtRp901
(dp902
g61
(dp903
g69
I4
ssg70
g897
sg63
(lp904
S'no-cache'
p905
asbasbasbag56
(g72
g58
NtRp906
(dp907
g61
(dp908
sg70
g636
sg63
(lp909
g56
(g77
g58
NtRp910
(dp911
g61
(dp912
g81
g82
ssg70
g906
sg63
(lp913
S'http_connection'
p914
asbag56
(g77
g58
NtRp915
(dp916
g61
(dp917
g88
g89
ssg70
g906
sg63
(lp918
S':'
asbag56
(g77
g58
NtRp919
(dp920
g61
(dp921
sg70
g906
sg63
(lp922
g56
(g57
g58
NtRp923
(dp924
g61
(dp925
g69
I4
ssg70
g919
sg63
(lp926
S'keep-alive'
p927
asbasbasbag56
(g72
g58
NtRp928
(dp929
g61
(dp930
sg70
g636
sg63
(lp931
g56
(g77
g58
NtRp932
(dp933
g61
(dp934
g81
g82
ssg70
g928
sg63
(lp935
S'http_cookie'
p936
asbag56
(g77
g58
NtRp937
(dp938
g61
(dp939
g88
g89
ssg70
g928
sg63
(lp940
S':'
asbag56
(g77
g58
NtRp941
(dp942
g61
(dp943
sg70
g928
sg63
(lp944
g56
(g57
g58
NtRp945
(dp946
g61
(dp947
g69
I4
ssg70
g941
sg63
(lp948
S'__utma_a2a=4518867300.1350888199.1319331273.1319375111.1319375111.5; session_id_init=127.0.0.1-2ee686ba-d1d2-46bc-bb75-bfad4d4c0c4c; session_id_admin=127.0.0.1-4acedcf7-4701-4781-9fc5-dd6d7a0a4bf5'
p949
asbasbasbag56
(g72
g58
NtRp950
(dp951
g61
(dp952
sg70
g636
sg63
(lp953
g56
(g77
g58
NtRp954
(dp955
g61
(dp956
g81
g82
ssg70
g950
sg63
(lp957
S'http_host'
p958
asbag56
(g77
g58
NtRp959
(dp960
g61
(dp961
g88
g89
ssg70
g950
sg63
(lp962
S':'
asbag56
(g77
g58
NtRp963
(dp964
g61
(dp965
sg70
g950
sg63
(lp966
g56
(g57
g58
NtRp967
(dp968
g61
(dp969
g69
I4
ssg70
g963
sg63
(lp970
S'127.0.0.1:8000'
p971
asbasbasbag56
(g72
g58
NtRp972
(dp973
g61
(dp974
sg70
g636
sg63
(lp975
g56
(g77
g58
NtRp976
(dp977
g61
(dp978
g81
g82
ssg70
g972
sg63
(lp979
S'http_keep_alive'
p980
asbag56
(g77
g58
NtRp981
(dp982
g61
(dp983
g88
g89
ssg70
g972
sg63
(lp984
S':'
asbag56
(g77
g58
NtRp985
(dp986
g61
(dp987
sg70
g972
sg63
(lp988
g56
(g57
g58
NtRp989
(dp990
g61
(dp991
g69
I4
ssg70
g985
sg63
(lp992
S'115'
p993
asbasbasbag56
(g72
g58
NtRp994
(dp995
g61
(dp996
sg70
g636
sg63
(lp997
g56
(g77
g58
NtRp998
(dp999
g61
(dp1000
g81
g82
ssg70
g994
sg63
(lp1001
S'http_pragma'
p1002
asbag56
(g77
g58
NtRp1003
(dp1004
g61
(dp1005
g88
g89
ssg70
g994
sg63
(lp1006
S':'
asbag56
(g77
g58
NtRp1007
(dp1008
g61
(dp1009
sg70
g994
sg63
(lp1010
g56
(g57
g58
NtRp1011
(dp1012
g61
(dp1013
g69
I4
ssg70
g1007
sg63
(lp1014
S'no-cache'
p1015
asbasbasbag56
(g72
g58
NtRp1016
(dp1017
g61
(dp1018
sg70
g636
sg63
(lp1019
g56
(g77
g58
NtRp1020
(dp1021
g61
(dp1022
g81
g82
ssg70
g1016
sg63
(lp1023
S'http_user_agent'
p1024
asbag56
(g77
g58
NtRp1025
(dp1026
g61
(dp1027
g88
g89
ssg70
g1016
sg63
(lp1028
S':'
asbag56
(g77
g58
NtRp1029
(dp1030
g61
(dp1031
sg70
g1016
sg63
(lp1032
g56
(g57
g58
NtRp1033
(dp1034
g61
(dp1035
g69
I4
ssg70
g1029
sg63
(lp1036
S'Mozilla/5.0 (Windows; U; Windows NT 6.1; en-US; rv:1.9.2.23) Gecko/20110920 Firefox/3.6.23'
p1037
asbasbasbag56
(g72
g58
NtRp1038
(dp1039
g61
(dp1040
sg70
g636
sg63
(lp1041
g56
(g77
g58
NtRp1042
(dp1043
g61
(dp1044
g81
g82
ssg70
g1038
sg63
(lp1045
S'is_jython'
p1046
asbag56
(g77
g58
NtRp1047
(dp1048
g61
(dp1049
g88
g89
ssg70
g1038
sg63
(lp1050
S':'
asbag56
(g77
g58
NtRp1051
(dp1052
g61
(dp1053
sg70
g1038
sg63
(lp1054
g56
(g57
g58
NtRp1055
(dp1056
g61
(dp1057
g69
I4
ssg70
g1051
sg63
(lp1058
g99
asbasbasbag56
(g72
g58
NtRp1059
(dp1060
g61
(dp1061
sg70
g636
sg63
(lp1062
g56
(g77
g58
NtRp1063
(dp1064
g61
(dp1065
g81
g82
ssg70
g1059
sg63
(lp1066
S'path_info'
p1067
asbag56
(g77
g58
NtRp1068
(dp1069
g61
(dp1070
g88
g89
ssg70
g1059
sg63
(lp1071
S':'
asbag56
(g77
g58
NtRp1072
(dp1073
g61
(dp1074
sg70
g1059
sg63
(lp1075
g56
(g57
g58
NtRp1076
(dp1077
g61
(dp1078
g69
I4
ssg70
g1072
sg63
(lp1079
S'/init/default/home'
p1080
asbasbasbag56
(g72
g58
NtRp1081
(dp1082
g61
(dp1083
sg70
g636
sg63
(lp1084
g56
(g77
g58
NtRp1085
(dp1086
g61
(dp1087
g81
g82
ssg70
g1081
sg63
(lp1088
S'query_string'
p1089
asbag56
(g77
g58
NtRp1090
(dp1091
g61
(dp1092
g88
g89
ssg70
g1081
sg63
(lp1093
S':'
asbag56
(g77
g58
NtRp1094
(dp1095
g61
(dp1096
sg70
g1081
sg63
(lp1097
g56
(g57
g58
NtRp1098
(dp1099
g61
(dp1100
g69
I4
ssg70
g1094
sg63
(lp1101
S''
asbasbasbag56
(g72
g58
NtRp1102
(dp1103
g61
(dp1104
sg70
g636
sg63
(lp1105
g56
(g77
g58
NtRp1106
(dp1107
g61
(dp1108
g81
g82
ssg70
g1102
sg63
(lp1109
S'remote_addr'
p1110
asbag56
(g77
g58
NtRp1111
(dp1112
g61
(dp1113
g88
g89
ssg70
g1102
sg63
(lp1114
S':'
asbag56
(g77
g58
NtRp1115
(dp1116
g61
(dp1117
sg70
g1102
sg63
(lp1118
g56
(g57
g58
NtRp1119
(dp1120
g61
(dp1121
g69
I4
ssg70
g1115
sg63
(lp1122
g189
asbasbasbag56
(g72
g58
NtRp1123
(dp1124
g61
(dp1125
sg70
g636
sg63
(lp1126
g56
(g77
g58
NtRp1127
(dp1128
g61
(dp1129
g81
g82
ssg70
g1123
sg63
(lp1130
S'remote_port'
p1131
asbag56
(g77
g58
NtRp1132
(dp1133
g61
(dp1134
g88
g89
ssg70
g1123
sg63
(lp1135
S':'
asbag56
(g77
g58
NtRp1136
(dp1137
g61
(dp1138
sg70
g1123
sg63
(lp1139
g56
(g57
g58
NtRp1140
(dp1141
g61
(dp1142
g69
I4
ssg70
g1136
sg63
(lp1143
S'56924'
p1144
asbasbasbag56
(g72
g58
NtRp1145
(dp1146
g61
(dp1147
sg70
g636
sg63
(lp1148
g56
(g77
g58
NtRp1149
(dp1150
g61
(dp1151
g81
g82
ssg70
g1145
sg63
(lp1152
S'request_method'
p1153
asbag56
(g77
g58
NtRp1154
(dp1155
g61
(dp1156
g88
g89
ssg70
g1145
sg63
(lp1157
S':'
asbag56
(g77
g58
NtRp1158
(dp1159
g61
(dp1160
sg70
g1145
sg63
(lp1161
g56
(g57
g58
NtRp1162
(dp1163
g61
(dp1164
g69
I4
ssg70
g1158
sg63
(lp1165
S'GET'
p1166
asbasbasbag56
(g72
g58
NtRp1167
(dp1168
g61
(dp1169
sg70
g636
sg63
(lp1170
g56
(g77
g58
NtRp1171
(dp1172
g61
(dp1173
g81
g82
ssg70
g1167
sg63
(lp1174
S'script_name'
p1175
asbag56
(g77
g58
NtRp1176
(dp1177
g61
(dp1178
g88
g89
ssg70
g1167
sg63
(lp1179
S':'
asbag56
(g77
g58
NtRp1180
(dp1181
g61
(dp1182
sg70
g1167
sg63
(lp1183
g56
(g57
g58
NtRp1184
(dp1185
g61
(dp1186
g69
I4
ssg70
g1180
sg63
(lp1187
S''
asbasbasbag56
(g72
g58
NtRp1188
(dp1189
g61
(dp1190
sg70
g636
sg63
(lp1191
g56
(g77
g58
NtRp1192
(dp1193
g61
(dp1194
g81
g82
ssg70
g1188
sg63
(lp1195
S'server_name'
p1196
asbag56
(g77
g58
NtRp1197
(dp1198
g61
(dp1199
g88
g89
ssg70
g1188
sg63
(lp1200
S':'
asbag56
(g77
g58
NtRp1201
(dp1202
g61
(dp1203
sg70
g1188
sg63
(lp1204
g56
(g57
g58
NtRp1205
(dp1206
g61
(dp1207
g69
I4
ssg70
g1201
sg63
(lp1208
S'Bishop-PC'
p1209
asbasbasbag56
(g72
g58
NtRp1210
(dp1211
g61
(dp1212
sg70
g636
sg63
(lp1213
g56
(g77
g58
NtRp1214
(dp1215
g61
(dp1216
g81
g82
ssg70
g1210
sg63
(lp1217
S'server_port'
p1218
asbag56
(g77
g58
NtRp1219
(dp1220
g61
(dp1221
g88
g89
ssg70
g1210
sg63
(lp1222
S':'
asbag56
(g77
g58
NtRp1223
(dp1224
g61
(dp1225
sg70
g1210
sg63
(lp1226
g56
(g57
g58
NtRp1227
(dp1228
g61
(dp1229
g69
I4
ssg70
g1223
sg63
(lp1230
S'8000'
p1231
asbasbasbag56
(g72
g58
NtRp1232
(dp1233
g61
(dp1234
sg70
g636
sg63
(lp1235
g56
(g77
g58
NtRp1236
(dp1237
g61
(dp1238
g81
g82
ssg70
g1232
sg63
(lp1239
S'server_protocol'
p1240
asbag56
(g77
g58
NtRp1241
(dp1242
g61
(dp1243
g88
g89
ssg70
g1232
sg63
(lp1244
S':'
asbag56
(g77
g58
NtRp1245
(dp1246
g61
(dp1247
sg70
g1232
sg63
(lp1248
g56
(g57
g58
NtRp1249
(dp1250
g61
(dp1251
g69
I4
ssg70
g1245
sg63
(lp1252
S'HTTP/1.1'
p1253
asbasbasbag56
(g72
g58
NtRp1254
(dp1255
g61
(dp1256
sg70
g636
sg63
(lp1257
g56
(g77
g58
NtRp1258
(dp1259
g61
(dp1260
g81
g82
ssg70
g1254
sg63
(lp1261
S'server_software'
p1262
asbag56
(g77
g58
NtRp1263
(dp1264
g61
(dp1265
g88
g89
ssg70
g1254
sg63
(lp1266
S':'
asbag56
(g77
g58
NtRp1267
(dp1268
g61
(dp1269
sg70
g1254
sg63
(lp1270
g56
(g57
g58
NtRp1271
(dp1272
g61
(dp1273
g69
I4
ssg70
g1267
sg63
(lp1274
S'Rocket 1.2.4'
p1275
asbasbasbag56
(g72
g58
NtRp1276
(dp1277
g61
(dp1278
sg70
g636
sg63
(lp1279
g56
(g77
g58
NtRp1280
(dp1281
g61
(dp1282
g81
g82
ssg70
g1276
sg63
(lp1283
S'web2py_crontype'
p1284
asbag56
(g77
g58
NtRp1285
(dp1286
g61
(dp1287
g88
g89
ssg70
g1276
sg63
(lp1288
S':'
asbag56
(g77
g58
NtRp1289
(dp1290
g61
(dp1291
sg70
g1276
sg63
(lp1292
g56
(g57
g58
NtRp1293
(dp1294
g61
(dp1295
g69
I4
ssg70
g1289
sg63
(lp1296
S'hard'
p1297
asbasbasbag56
(g72
g58
NtRp1298
(dp1299
g61
(dp1300
sg70
g636
sg63
(lp1301
g56
(g77
g58
NtRp1302
(dp1303
g61
(dp1304
g81
g82
ssg70
g1298
sg63
(lp1305
S'web2py_path'
p1306
asbag56
(g77
g58
NtRp1307
(dp1308
g61
(dp1309
g88
g89
ssg70
g1298
sg63
(lp1310
S':'
asbag56
(g77
g58
NtRp1311
(dp1312
g61
(dp1313
sg70
g1298
sg63
(lp1314
g56
(g57
g58
NtRp1315
(dp1316
g61
(dp1317
g69
I4
ssg70
g1311
sg63
(lp1318
g683
asbasbasbag56
(g72
g58
NtRp1319
(dp1320
g61
(dp1321
sg70
g636
sg63
(lp1322
g56
(g77
g58
NtRp1323
(dp1324
g61
(dp1325
g81
g82
ssg70
g1319
sg63
(lp1326
S'web2py_version'
p1327
asbag56
(g77
g58
NtRp1328
(dp1329
g61
(dp1330
g88
g89
ssg70
g1319
sg63
(lp1331
S':'
asbag56
(g77
g58
NtRp1332
(dp1333
g61
(dp1334
sg70
g1319
sg63
(lp1335
g56
(g57
g58
NtRp1336
(dp1337
g61
(dp1338
g69
I4
ssg70
g1332
sg63
(lp1339
g56
(g65
g58
NtRp1340
(dp1341
g61
(dp1342
g69
I3
ssg70
Nsg63
(lp1343
g56
(g72
g58
NtRp1344
(dp1345
g61
(dp1346
sg70
g1340
sg63
(lp1347
g56
(g77
g58
NtRp1348
(dp1349
g61
(dp1350
sg70
g1344
sg63
(lp1351
g56
(g57
g58
NtRp1352
(dp1353
g61
(dp1354
g69
I3
ssg70
g1348
sg63
(lp1355
S'1'
asbasbasbag56
(g72
g58
NtRp1356
(dp1357
g61
(dp1358
sg70
g1340
sg63
(lp1359
g56
(g77
g58
NtRp1360
(dp1361
g61
(dp1362
sg70
g1356
sg63
(lp1363
g56
(g57
g58
NtRp1364
(dp1365
g61
(dp1366
g69
I3
ssg70
g1360
sg63
(lp1367
S'99'
p1368
asbasbasbag56
(g72
g58
NtRp1369
(dp1370
g61
(dp1371
sg70
g1340
sg63
(lp1372
g56
(g77
g58
NtRp1373
(dp1374
g61
(dp1375
sg70
g1369
sg63
(lp1376
g56
(g57
g58
NtRp1377
(dp1378
g61
(dp1379
g69
I3
ssg70
g1373
sg63
(lp1380
S'3'
asbasbasbag56
(g72
g58
NtRp1381
(dp1382
g61
(dp1383
sg70
g1340
sg63
(lp1384
g56
(g77
g58
NtRp1385
(dp1386
g61
(dp1387
sg70
g1381
sg63
(lp1388
g56
(g57
g58
NtRp1389
(dp1390
g61
(dp1391
g69
I3
ssg70
g1385
sg63
(lp1392
S'datetime.datetime(2011, 10, 24, 21, 42, 42)'
p1393
asbasbasbag56
(g72
g58
NtRp1394
(dp1395
g61
(dp1396
sg70
g1340
sg63
(lp1397
g56
(g77
g58
NtRp1398
(dp1399
g61
(dp1400
sg70
g1394
sg63
(lp1401
g56
(g57
g58
NtRp1402
(dp1403
g61
(dp1404
g69
I3
ssg70
g1398
sg63
(lp1405
S'dev'
p1406
asbasbasbasbasbasbasbag56
(g72
g58
NtRp1407
(dp1408
g61
(dp1409
sg70
g636
sg63
(lp1410
g56
(g77
g58
NtRp1411
(dp1412
g61
(dp1413
g81
g82
ssg70
g1407
sg63
(lp1414
S'wsgi_errors'
p1415
asbag56
(g77
g58
NtRp1416
(dp1417
g61
(dp1418
g88
g89
ssg70
g1407
sg63
(lp1419
S':'
asbag56
(g77
g58
NtRp1420
(dp1421
g61
(dp1422
sg70
g1407
sg63
(lp1423
g56
(g57
g58
NtRp1424
(dp1425
g61
(dp1426
g69
I4
ssg70
g1420
sg63
(lp1427
S"<open file '<stderr>', mode 'w' at 0x01DC50D0>"
p1428
asbasbasbag56
(g72
g58
NtRp1429
(dp1430
g61
(dp1431
sg70
g636
sg63
(lp1432
g56
(g77
g58
NtRp1433
(dp1434
g61
(dp1435
g81
g82
ssg70
g1429
sg63
(lp1436
S'wsgi_file_wrapper'
p1437
asbag56
(g77
g58
NtRp1438
(dp1439
g61
(dp1440
g88
g89
ssg70
g1429
sg63
(lp1441
S':'
asbag56
(g77
g58
NtRp1442
(dp1443
g61
(dp1444
sg70
g1429
sg63
(lp1445
g56
(g57
g58
NtRp1446
(dp1447
g61
(dp1448
g69
I4
ssg70
g1442
sg63
(lp1449
S'<class wsgiref.util.FileWrapper at 0x02D07AB0>'
p1450
asbasbasbag56
(g72
g58
NtRp1451
(dp1452
g61
(dp1453
sg70
g636
sg63
(lp1454
g56
(g77
g58
NtRp1455
(dp1456
g61
(dp1457
g81
g82
ssg70
g1451
sg63
(lp1458
S'wsgi_input'
p1459
asbag56
(g77
g58
NtRp1460
(dp1461
g61
(dp1462
g88
g89
ssg70
g1451
sg63
(lp1463
S':'
asbag56
(g77
g58
NtRp1464
(dp1465
g61
(dp1466
sg70
g1451
sg63
(lp1467
g56
(g57
g58
NtRp1468
(dp1469
g61
(dp1470
g69
I4
ssg70
g1464
sg63
(lp1471
S'<socket._fileobject object at 0x0A19F770>'
p1472
asbasbasbag56
(g72
g58
NtRp1473
(dp1474
g61
(dp1475
sg70
g636
sg63
(lp1476
g56
(g77
g58
NtRp1477
(dp1478
g61
(dp1479
g81
g82
ssg70
g1473
sg63
(lp1480
S'wsgi_multiprocess'
p1481
asbag56
(g77
g58
NtRp1482
(dp1483
g61
(dp1484
g88
g89
ssg70
g1473
sg63
(lp1485
S':'
asbag56
(g77
g58
NtRp1486
(dp1487
g61
(dp1488
sg70
g1473
sg63
(lp1489
g56
(g57
g58
NtRp1490
(dp1491
g61
(dp1492
g69
I4
ssg70
g1486
sg63
(lp1493
g99
asbasbasbag56
(g72
g58
NtRp1494
(dp1495
g61
(dp1496
sg70
g636
sg63
(lp1497
g56
(g77
g58
NtRp1498
(dp1499
g61
(dp1500
g81
g82
ssg70
g1494
sg63
(lp1501
S'wsgi_multithread'
p1502
asbag56
(g77
g58
NtRp1503
(dp1504
g61
(dp1505
g88
g89
ssg70
g1494
sg63
(lp1506
S':'
asbag56
(g77
g58
NtRp1507
(dp1508
g61
(dp1509
sg70
g1494
sg63
(lp1510
g56
(g57
g58
NtRp1511
(dp1512
g61
(dp1513
g69
I4
ssg70
g1507
sg63
(lp1514
S'True'
p1515
asbasbasbag56
(g72
g58
NtRp1516
(dp1517
g61
(dp1518
sg70
g636
sg63
(lp1519
g56
(g77
g58
NtRp1520
(dp1521
g61
(dp1522
g81
g82
ssg70
g1516
sg63
(lp1523
S'wsgi_run_once'
p1524
asbag56
(g77
g58
NtRp1525
(dp1526
g61
(dp1527
g88
g89
ssg70
g1516
sg63
(lp1528
S':'
asbag56
(g77
g58
NtRp1529
(dp1530
g61
(dp1531
sg70
g1516
sg63
(lp1532
g56
(g57
g58
NtRp1533
(dp1534
g61
(dp1535
g69
I4
ssg70
g1529
sg63
(lp1536
g99
asbasbasbag56
(g72
g58
NtRp1537
(dp1538
g61
(dp1539
sg70
g636
sg63
(lp1540
g56
(g77
g58
NtRp1541
(dp1542
g61
(dp1543
g81
g82
ssg70
g1537
sg63
(lp1544
S'wsgi_url_scheme'
p1545
asbag56
(g77
g58
NtRp1546
(dp1547
g61
(dp1548
g88
g89
ssg70
g1537
sg63
(lp1549
S':'
asbag56
(g77
g58
NtRp1550
(dp1551
g61
(dp1552
sg70
g1537
sg63
(lp1553
g56
(g57
g58
NtRp1554
(dp1555
g61
(dp1556
g69
I4
ssg70
g1550
sg63
(lp1557
S'http'
p1558
asbasbasbag56
(g72
g58
NtRp1559
(dp1560
g61
(dp1561
sg70
g636
sg63
(lp1562
g56
(g77
g58
NtRp1563
(dp1564
g61
(dp1565
g81
g82
ssg70
g1559
sg63
(lp1566
S'wsgi_version'
p1567
asbag56
(g77
g58
NtRp1568
(dp1569
g61
(dp1570
g88
g89
ssg70
g1559
sg63
(lp1571
S':'
asbag56
(g77
g58
NtRp1572
(dp1573
g61
(dp1574
sg70
g1559
sg63
(lp1575
g56
(g57
g58
NtRp1576
(dp1577
g61
(dp1578
g69
I4
ssg70
g1572
sg63
(lp1579
g56
(g65
g58
NtRp1580
(dp1581
g61
(dp1582
g69
I3
ssg70
Nsg63
(lp1583
g56
(g72
g58
NtRp1584
(dp1585
g61
(dp1586
sg70
g1580
sg63
(lp1587
g56
(g77
g58
NtRp1588
(dp1589
g61
(dp1590
sg70
g1584
sg63
(lp1591
g56
(g57
g58
NtRp1592
(dp1593
g61
(dp1594
g69
I3
ssg70
g1588
sg63
(lp1595
S'1'
asbasbasbag56
(g72
g58
NtRp1596
(dp1597
g61
(dp1598
sg70
g1580
sg63
(lp1599
g56
(g77
g58
NtRp1600
(dp1601
g61
(dp1602
sg70
g1596
sg63
(lp1603
g56
(g57
g58
NtRp1604
(dp1605
g61
(dp1606
g69
I3
ssg70
g1600
sg63
(lp1607
S'0'
asbasbasbasbasbasbasbasbasbasbasbag56
(g72
g58
NtRp1608
(dp1609
g61
(dp1610
sg70
g66
sg63
(lp1611
g56
(g77
g58
NtRp1612
(dp1613
g61
(dp1614
g81
g82
ssg70
g1608
sg63
(lp1615
S'extension'
p1616
asbag56
(g77
g58
NtRp1617
(dp1618
g61
(dp1619
g88
g89
ssg70
g1608
sg63
(lp1620
S':'
asbag56
(g77
g58
NtRp1621
(dp1622
g61
(dp1623
sg70
g1608
sg63
(lp1624
g56
(g57
g58
NtRp1625
(dp1626
g61
(dp1627
g69
I5
ssg70
g1621
sg63
(lp1628
S'html'
p1629
asbasbasbag56
(g72
g58
NtRp1630
(dp1631
g61
(dp1632
sg70
g66
sg63
(lp1633
g56
(g77
g58
NtRp1634
(dp1635
g61
(dp1636
g81
g82
ssg70
g1630
sg63
(lp1637
S'folder'
p1638
asbag56
(g77
g58
NtRp1639
(dp1640
g61
(dp1641
g88
g89
ssg70
g1630
sg63
(lp1642
S':'
asbag56
(g77
g58
NtRp1643
(dp1644
g61
(dp1645
sg70
g1630
sg63
(lp1646
g56
(g57
g58
NtRp1647
(dp1648
g61
(dp1649
g69
I5
ssg70
g1643
sg63
(lp1650
S'P:\\Workbench\\DevEnv\\web2py\\applications\\init\\'
p1651
asbasbasbag56
(g72
g58
NtRp1652
(dp1653
g61
(dp1654
sg70
g66
sg63
(lp1655
g56
(g77
g58
NtRp1656
(dp1657
g61
(dp1658
g81
g82
ssg70
g1652
sg63
(lp1659
S'function'
p1660
asbag56
(g77
g58
NtRp1661
(dp1662
g61
(dp1663
g88
g89
ssg70
g1652
sg63
(lp1664
S':'
asbag56
(g77
g58
NtRp1665
(dp1666
g61
(dp1667
sg70
g1652
sg63
(lp1668
g56
(g57
g58
NtRp1669
(dp1670
g61
(dp1671
g69
I5
ssg70
g1665
sg63
(lp1672
S'home'
p1673
asbasbasbag56
(g72
g58
NtRp1674
(dp1675
g61
(dp1676
sg70
g66
sg63
(lp1677
g56
(g77
g58
NtRp1678
(dp1679
g61
(dp1680
g81
g82
ssg70
g1674
sg63
(lp1681
S'get_vars'
p1682
asbag56
(g77
g58
NtRp1683
(dp1684
g61
(dp1685
g88
g89
ssg70
g1674
sg63
(lp1686
S':'
asbag56
(g77
g58
NtRp1687
(dp1688
g61
(dp1689
sg70
g1674
sg63
(lp1690
g56
(g57
g58
NtRp1691
(dp1692
g61
(dp1693
g69
I5
ssg70
g1687
sg63
(lp1694
g56
(g65
g58
NtRp1695
(dp1696
g61
(dp1697
g69
I4
ssg70
Nsg63
(lp1698
sbasbasbasbag56
(g72
g58
NtRp1699
(dp1700
g61
(dp1701
sg70
g66
sg63
(lp1702
g56
(g77
g58
NtRp1703
(dp1704
g61
(dp1705
g81
g82
ssg70
g1699
sg63
(lp1706
S'global_settings'
p1707
asbag56
(g77
g58
NtRp1708
(dp1709
g61
(dp1710
g88
g89
ssg70
g1699
sg63
(lp1711
S':'
asbag56
(g77
g58
NtRp1712
(dp1713
g61
(dp1714
sg70
g1699
sg63
(lp1715
g56
(g57
g58
NtRp1716
(dp1717
g61
(dp1718
g69
I5
ssg70
g1712
sg63
(lp1719
g56
(g65
g58
NtRp1720
(dp1721
g61
(dp1722
g69
I4
ssg70
Nsg63
(lp1723
g56
(g72
g58
NtRp1724
(dp1725
g61
(dp1726
sg70
g1720
sg63
(lp1727
g56
(g77
g58
NtRp1728
(dp1729
g61
(dp1730
g81
g82
ssg70
g1724
sg63
(lp1731
g648
asbag56
(g77
g58
NtRp1732
(dp1733
g61
(dp1734
g88
g89
ssg70
g1724
sg63
(lp1735
S':'
asbag56
(g77
g58
NtRp1736
(dp1737
g61
(dp1738
sg70
g1724
sg63
(lp1739
g56
(g57
g58
NtRp1740
(dp1741
g61
(dp1742
g69
I4
ssg70
g1736
sg63
(lp1743
S"set(['P:\\\\Workbench\\\\DevEnv\\\\web2py\\\\applications\\\\init\\\\', 'P:\\\\Workbench\\\\DevEnv\\\\web2py\\\\applications\\\\admin\\\\'])"
p1744
asbasbasbag56
(g72
g58
NtRp1745
(dp1746
g61
(dp1747
sg70
g1720
sg63
(lp1748
g56
(g77
g58
NtRp1749
(dp1750
g61
(dp1751
g81
g82
ssg70
g1745
sg63
(lp1752
g670
asbag56
(g77
g58
NtRp1753
(dp1754
g61
(dp1755
g88
g89
ssg70
g1745
sg63
(lp1756
S':'
asbag56
(g77
g58
NtRp1757
(dp1758
g61
(dp1759
sg70
g1745
sg63
(lp1760
g56
(g57
g58
NtRp1761
(dp1762
g61
(dp1763
g69
I4
ssg70
g1757
sg63
(lp1764
g683
asbasbasbag56
(g72
g58
NtRp1765
(dp1766
g61
(dp1767
sg70
g1720
sg63
(lp1768
g56
(g77
g58
NtRp1769
(dp1770
g61
(dp1771
g81
g82
ssg70
g1765
sg63
(lp1772
g692
asbag56
(g77
g58
NtRp1773
(dp1774
g61
(dp1775
g88
g89
ssg70
g1765
sg63
(lp1776
S':'
asbag56
(g77
g58
NtRp1777
(dp1778
g61
(dp1779
sg70
g1765
sg63
(lp1780
g56
(g57
g58
NtRp1781
(dp1782
g61
(dp1783
g69
I4
ssg70
g1777
sg63
(lp1784
g56
(g65
g58
NtRp1785
(dp1786
g61
(dp1787
g69
I3
ssg70
Nsg63
(lp1788
sbasbasbasbag56
(g72
g58
NtRp1789
(dp1790
g61
(dp1791
sg70
g1720
sg63
(lp1792
g56
(g77
g58
NtRp1793
(dp1794
g61
(dp1795
g81
g82
ssg70
g1789
sg63
(lp1796
g717
asbag56
(g77
g58
NtRp1797
(dp1798
g61
(dp1799
g88
g89
ssg70
g1789
sg63
(lp1800
S':'
asbag56
(g77
g58
NtRp1801
(dp1802
g61
(dp1803
sg70
g1789
sg63
(lp1804
g56
(g57
g58
NtRp1805
(dp1806
g61
(dp1807
g69
I4
ssg70
g1801
sg63
(lp1808
S"<Values at 0x2fbd418: {'verbose': False, 'ip': '127.0.0.1', 'shutdown_timeout': 5, 'taskbar': False, 'nocron': False, 'pid_filename': 'httpserver.pid', 'maxthreads': None, 'softcron': False, 'server_name': 'Bishop-PC', 'bpython': False, 'nogui': False, 'port': 8000, 'extcron': False, 'debuglevel': 30, 'test': None, 'folder': 'P:\\\\Workbench\\\\DevEnv\\\\web2py', 'config': '', 'import_models': False, 'winservice': '', 'shell': None, 'run': '', 'log_filename': 'httpserver.log', 'args': [''], 'ssl_ca_certificate': None, 'scheduler': None, 'profiler_filename': None, 'ssl_private_key': '', 'password': '<ask>', 'request_queue_size': 5, 'ssl_certificate': '', 'cronjob': False, 'plain': False, 'quiet': False, 'interfaces': None, 'minthreads': None, 'timeout': 10, 'numthreads': None, 'nobanner': False}>"
p1809
asbasbasbag56
(g72
g58
NtRp1810
(dp1811
g61
(dp1812
sg70
g1720
sg63
(lp1813
g56
(g77
g58
NtRp1814
(dp1815
g61
(dp1816
g81
g82
ssg70
g1810
sg63
(lp1817
g739
asbag56
(g77
g58
NtRp1818
(dp1819
g61
(dp1820
g88
g89
ssg70
g1810
sg63
(lp1821
S':'
asbag56
(g77
g58
NtRp1822
(dp1823
g61
(dp1824
sg70
g1810
sg63
(lp1825
g56
(g57
g58
NtRp1826
(dp1827
g61
(dp1828
g69
I4
ssg70
g1822
sg63
(lp1829
S'set([])'
p1830
asbasbasbag56
(g72
g58
NtRp1831
(dp1832
g61
(dp1833
sg70
g1720
sg63
(lp1834
g56
(g77
g58
NtRp1835
(dp1836
g61
(dp1837
g81
g82
ssg70
g1831
sg63
(lp1838
g761
asbag56
(g77
g58
NtRp1839
(dp1840
g61
(dp1841
g88
g89
ssg70
g1831
sg63
(lp1842
S':'
asbag56
(g77
g58
NtRp1843
(dp1844
g61
(dp1845
sg70
g1831
sg63
(lp1846
g56
(g57
g58
NtRp1847
(dp1848
g61
(dp1849
g69
I4
ssg70
g1843
sg63
(lp1850
g99
asbasbasbag56
(g72
g58
NtRp1851
(dp1852
g61
(dp1853
sg70
g1720
sg63
(lp1854
g56
(g77
g58
NtRp1855
(dp1856
g61
(dp1857
g81
g82
ssg70
g1851
sg63
(lp1858
g782
asbag56
(g77
g58
NtRp1859
(dp1860
g61
(dp1861
g88
g89
ssg70
g1851
sg63
(lp1862
S':'
asbag56
(g77
g58
NtRp1863
(dp1864
g61
(dp1865
sg70
g1851
sg63
(lp1866
g56
(g57
g58
NtRp1867
(dp1868
g61
(dp1869
g69
I4
ssg70
g1863
sg63
(lp1870
g795
asbasbasbag56
(g72
g58
NtRp1871
(dp1872
g61
(dp1873
sg70
g1720
sg63
(lp1874
g56
(g77
g58
NtRp1875
(dp1876
g61
(dp1877
g81
g82
ssg70
g1871
sg63
(lp1878
g1046
asbag56
(g77
g58
NtRp1879
(dp1880
g61
(dp1881
g88
g89
ssg70
g1871
sg63
(lp1882
S':'
asbag56
(g77
g58
NtRp1883
(dp1884
g61
(dp1885
sg70
g1871
sg63
(lp1886
g56
(g57
g58
NtRp1887
(dp1888
g61
(dp1889
g69
I4
ssg70
g1883
sg63
(lp1890
g99
asbasbasbag56
(g72
g58
NtRp1891
(dp1892
g61
(dp1893
sg70
g1720
sg63
(lp1894
g56
(g77
g58
NtRp1895
(dp1896
g61
(dp1897
g81
g82
ssg70
g1891
sg63
(lp1898
g1284
asbag56
(g77
g58
NtRp1899
(dp1900
g61
(dp1901
g88
g89
ssg70
g1891
sg63
(lp1902
S':'
asbag56
(g77
g58
NtRp1903
(dp1904
g61
(dp1905
sg70
g1891
sg63
(lp1906
g56
(g57
g58
NtRp1907
(dp1908
g61
(dp1909
g69
I4
ssg70
g1903
sg63
(lp1910
g1297
asbasbasbag56
(g72
g58
NtRp1911
(dp1912
g61
(dp1913
sg70
g1720
sg63
(lp1914
g56
(g77
g58
NtRp1915
(dp1916
g61
(dp1917
g81
g82
ssg70
g1911
sg63
(lp1918
g1327
asbag56
(g77
g58
NtRp1919
(dp1920
g61
(dp1921
g88
g89
ssg70
g1911
sg63
(lp1922
S':'
asbag56
(g77
g58
NtRp1923
(dp1924
g61
(dp1925
sg70
g1911
sg63
(lp1926
g56
(g57
g58
NtRp1927
(dp1928
g61
(dp1929
g69
I4
ssg70
g1923
sg63
(lp1930
g56
(g65
g58
NtRp1931
(dp1932
g61
(dp1933
g69
I3
ssg70
Nsg63
(lp1934
g56
(g72
g58
NtRp1935
(dp1936
g61
(dp1937
sg70
g1931
sg63
(lp1938
g56
(g77
g58
NtRp1939
(dp1940
g61
(dp1941
sg70
g1935
sg63
(lp1942
g56
(g57
g58
NtRp1943
(dp1944
g61
(dp1945
g69
I3
ssg70
g1939
sg63
(lp1946
S'1'
asbasbasbag56
(g72
g58
NtRp1947
(dp1948
g61
(dp1949
sg70
g1931
sg63
(lp1950
g56
(g77
g58
NtRp1951
(dp1952
g61
(dp1953
sg70
g1947
sg63
(lp1954
g56
(g57
g58
NtRp1955
(dp1956
g61
(dp1957
g69
I3
ssg70
g1951
sg63
(lp1958
S'99'
p1959
asbasbasbag56
(g72
g58
NtRp1960
(dp1961
g61
(dp1962
sg70
g1931
sg63
(lp1963
g56
(g77
g58
NtRp1964
(dp1965
g61
(dp1966
sg70
g1960
sg63
(lp1967
g56
(g57
g58
NtRp1968
(dp1969
g61
(dp1970
g69
I3
ssg70
g1964
sg63
(lp1971
S'3'
asbasbasbag56
(g72
g58
NtRp1972
(dp1973
g61
(dp1974
sg70
g1931
sg63
(lp1975
g56
(g77
g58
NtRp1976
(dp1977
g61
(dp1978
sg70
g1972
sg63
(lp1979
g56
(g57
g58
NtRp1980
(dp1981
g61
(dp1982
g69
I3
ssg70
g1976
sg63
(lp1983
S'datetime.datetime(2011, 10, 24, 21, 42, 42)'
p1984
asbasbasbag56
(g72
g58
NtRp1985
(dp1986
g61
(dp1987
sg70
g1931
sg63
(lp1988
g56
(g77
g58
NtRp1989
(dp1990
g61
(dp1991
sg70
g1985
sg63
(lp1992
g56
(g57
g58
NtRp1993
(dp1994
g61
(dp1995
g69
I3
ssg70
g1989
sg63
(lp1996
g1406
asbasbasbasbasbasbasbasbasbasbasbag56
(g72
g58
NtRp1997
(dp1998
g61
(dp1999
sg70
g66
sg63
(lp2000
g56
(g77
g58
NtRp2001
(dp2002
g61
(dp2003
g81
g82
ssg70
g1997
sg63
(lp2004
S'is_https'
p2005
asbag56
(g77
g58
NtRp2006
(dp2007
g61
(dp2008
g88
g89
ssg70
g1997
sg63
(lp2009
S':'
asbag56
(g77
g58
NtRp2010
(dp2011
g61
(dp2012
sg70
g1997
sg63
(lp2013
g56
(g57
g58
NtRp2014
(dp2015
g61
(dp2016
g69
I5
ssg70
g2010
sg63
(lp2017
g99
asbasbasbag56
(g72
g58
NtRp2018
(dp2019
g61
(dp2020
sg70
g66
sg63
(lp2021
g56
(g77
g58
NtRp2022
(dp2023
g61
(dp2024
g81
g82
ssg70
g2018
sg63
(lp2025
S'is_local'
p2026
asbag56
(g77
g58
NtRp2027
(dp2028
g61
(dp2029
g88
g89
ssg70
g2018
sg63
(lp2030
S':'
asbag56
(g77
g58
NtRp2031
(dp2032
g61
(dp2033
sg70
g2018
sg63
(lp2034
g56
(g57
g58
NtRp2035
(dp2036
g61
(dp2037
g69
I5
ssg70
g2031
sg63
(lp2038
g1515
asbasbasbag56
(g72
g58
NtRp2039
(dp2040
g61
(dp2041
sg70
g66
sg63
(lp2042
g56
(g77
g58
NtRp2043
(dp2044
g61
(dp2045
g81
g82
ssg70
g2039
sg63
(lp2046
S'is_restful'
p2047
asbag56
(g77
g58
NtRp2048
(dp2049
g61
(dp2050
g88
g89
ssg70
g2039
sg63
(lp2051
S':'
asbag56
(g77
g58
NtRp2052
(dp2053
g61
(dp2054
sg70
g2039
sg63
(lp2055
g56
(g57
g58
NtRp2056
(dp2057
g61
(dp2058
g69
I5
ssg70
g2052
sg63
(lp2059
g99
asbasbasbag56
(g72
g58
NtRp2060
(dp2061
g61
(dp2062
sg70
g66
sg63
(lp2063
g56
(g77
g58
NtRp2064
(dp2065
g61
(dp2066
g81
g82
ssg70
g2060
sg63
(lp2067
S'now'
p2068
asbag56
(g77
g58
NtRp2069
(dp2070
g61
(dp2071
g88
g89
ssg70
g2060
sg63
(lp2072
S':'
asbag56
(g77
g58
NtRp2073
(dp2074
g61
(dp2075
sg70
g2060
sg63
(lp2076
g56
(g57
g58
NtRp2077
(dp2078
g61
(dp2079
g69
I5
ssg70
g2073
sg63
(lp2080
S'datetime.datetime(2011, 11, 4, 12, 21, 48, 350000)'
p2081
asbasbasbag56
(g72
g58
NtRp2082
(dp2083
g61
(dp2084
sg70
g66
sg63
(lp2085
g56
(g77
g58
NtRp2086
(dp2087
g61
(dp2088
g81
g82
ssg70
g2082
sg63
(lp2089
S'post_vars'
p2090
asbag56
(g77
g58
NtRp2091
(dp2092
g61
(dp2093
g88
g89
ssg70
g2082
sg63
(lp2094
S':'
asbag56
(g77
g58
NtRp2095
(dp2096
g61
(dp2097
sg70
g2082
sg63
(lp2098
g56
(g57
g58
NtRp2099
(dp2100
g61
(dp2101
g69
I5
ssg70
g2095
sg63
(lp2102
g56
(g65
g58
NtRp2103
(dp2104
g61
(dp2105
g69
I4
ssg70
Nsg63
(lp2106
sbasbasbasbag56
(g72
g58
NtRp2107
(dp2108
g61
(dp2109
sg70
g66
sg63
(lp2110
g56
(g77
g58
NtRp2111
(dp2112
g61
(dp2113
g81
g82
ssg70
g2107
sg63
(lp2114
S'url'
p2115
asbag56
(g77
g58
NtRp2116
(dp2117
g61
(dp2118
g88
g89
ssg70
g2107
sg63
(lp2119
S':'
asbag56
(g77
g58
NtRp2120
(dp2121
g61
(dp2122
sg70
g2107
sg63
(lp2123
g56
(g57
g58
NtRp2124
(dp2125
g61
(dp2126
g69
I5
ssg70
g2120
sg63
(lp2127
S'/init/default/home'
p2128
asbasbasbag56
(g72
g58
NtRp2129
(dp2130
g61
(dp2131
sg70
g66
sg63
(lp2132
g56
(g77
g58
NtRp2133
(dp2134
g61
(dp2135
g81
g82
ssg70
g2129
sg63
(lp2136
S'utcnow'
p2137
asbag56
(g77
g58
NtRp2138
(dp2139
g61
(dp2140
g88
g89
ssg70
g2129
sg63
(lp2141
S':'
asbag56
(g77
g58
NtRp2142
(dp2143
g61
(dp2144
sg70
g2129
sg63
(lp2145
g56
(g57
g58
NtRp2146
(dp2147
g61
(dp2148
g69
I5
ssg70
g2142
sg63
(lp2149
S'datetime.datetime(2011, 11, 4, 16, 21, 48, 350000)'
p2150
asbasbasbag56
(g72
g58
NtRp2151
(dp2152
g61
(dp2153
sg70
g66
sg63
(lp2154
g56
(g77
g58
NtRp2155
(dp2156
g61
(dp2157
g81
g82
ssg70
g2151
sg63
(lp2158
S'uuid'
p2159
asbag56
(g77
g58
NtRp2160
(dp2161
g61
(dp2162
g88
g89
ssg70
g2151
sg63
(lp2163
S':'
asbag56
(g77
g58
NtRp2164
(dp2165
g61
(dp2166
sg70
g2151
sg63
(lp2167
g56
(g57
g58
NtRp2168
(dp2169
g61
(dp2170
g69
I5
ssg70
g2164
sg63
(lp2171
S'init/127.0.0.1.2011-11-04.12-21-48.f2e674c7-c339-42c9-8965-6c0584800069'
p2172
asbasbasbag56
(g72
g58
NtRp2173
(dp2174
g61
(dp2175
sg70
g66
sg63
(lp2176
g56
(g77
g58
NtRp2177
(dp2178
g61
(dp2179
g81
g82
ssg70
g2173
sg63
(lp2180
S'vars'
p2181
asbag56
(g77
g58
NtRp2182
(dp2183
g61
(dp2184
g88
g89
ssg70
g2173
sg63
(lp2185
S':'
asbag56
(g77
g58
NtRp2186
(dp2187
g61
(dp2188
sg70
g2173
sg63
(lp2189
g56
(g57
g58
NtRp2190
(dp2191
g61
(dp2192
g69
I5
ssg70
g2186
sg63
(lp2193
g56
(g65
g58
NtRp2194
(dp2195
g61
(dp2196
g69
I4
ssg70
Nsg63
(lp2197
sbasbasbasbag56
(g72
g58
NtRp2198
(dp2199
g61
(dp2200
sg70
g66
sg63
(lp2201
g56
(g77
g58
NtRp2202
(dp2203
g61
(dp2204
g81
g82
ssg70
g2198
sg63
(lp2205
S'wsgi'
p2206
asbag56
(g77
g58
NtRp2207
(dp2208
g61
(dp2209
g88
g89
ssg70
g2198
sg63
(lp2210
S':'
asbag56
(g77
g58
NtRp2211
(dp2212
g61
(dp2213
sg70
g2198
sg63
(lp2214
g56
(g57
g58
NtRp2215
(dp2216
g61
(dp2217
g69
I5
ssg70
g2211
sg63
(lp2218
g56
(g65
g58
NtRp2219
(dp2220
g61
(dp2221
g69
I4
ssg70
Nsg63
(lp2222
g56
(g72
g58
NtRp2223
(dp2224
g61
(dp2225
sg70
g2219
sg63
(lp2226
g56
(g77
g58
NtRp2227
(dp2228
g61
(dp2229
g81
g82
ssg70
g2223
sg63
(lp2230
S'environ'
p2231
asbag56
(g77
g58
NtRp2232
(dp2233
g61
(dp2234
g88
g89
ssg70
g2223
sg63
(lp2235
S':'
asbag56
(g77
g58
NtRp2236
(dp2237
g61
(dp2238
sg70
g2223
sg63
(lp2239
g56
(g57
g58
NtRp2240
(dp2241
g61
(dp2242
g69
I4
ssg70
g2236
sg63
(lp2243
g56
(g65
g58
NtRp2244
(dp2245
g61
(dp2246
g69
I3
ssg70
Nsg63
(lp2247
g56
(g72
g58
NtRp2248
(dp2249
g61
(dp2250
sg70
g2244
sg63
(lp2251
g56
(g77
g58
NtRp2252
(dp2253
g61
(dp2254
g81
g82
ssg70
g2248
sg63
(lp2255
S'HTTP_ACCEPT'
p2256
asbag56
(g77
g58
NtRp2257
(dp2258
g61
(dp2259
g88
g89
ssg70
g2248
sg63
(lp2260
S':'
asbag56
(g77
g58
NtRp2261
(dp2262
g61
(dp2263
sg70
g2248
sg63
(lp2264
g56
(g57
g58
NtRp2265
(dp2266
g61
(dp2267
g69
I3
ssg70
g2261
sg63
(lp2268
g817
asbasbasbag56
(g72
g58
NtRp2269
(dp2270
g61
(dp2271
sg70
g2244
sg63
(lp2272
g56
(g77
g58
NtRp2273
(dp2274
g61
(dp2275
g81
g82
ssg70
g2269
sg63
(lp2276
S'HTTP_ACCEPT_CHARSET'
p2277
asbag56
(g77
g58
NtRp2278
(dp2279
g61
(dp2280
g88
g89
ssg70
g2269
sg63
(lp2281
S':'
asbag56
(g77
g58
NtRp2282
(dp2283
g61
(dp2284
sg70
g2269
sg63
(lp2285
g56
(g57
g58
NtRp2286
(dp2287
g61
(dp2288
g69
I3
ssg70
g2282
sg63
(lp2289
g839
asbasbasbag56
(g72
g58
NtRp2290
(dp2291
g61
(dp2292
sg70
g2244
sg63
(lp2293
g56
(g77
g58
NtRp2294
(dp2295
g61
(dp2296
g81
g82
ssg70
g2290
sg63
(lp2297
S'HTTP_ACCEPT_ENCODING'
p2298
asbag56
(g77
g58
NtRp2299
(dp2300
g61
(dp2301
g88
g89
ssg70
g2290
sg63
(lp2302
S':'
asbag56
(g77
g58
NtRp2303
(dp2304
g61
(dp2305
sg70
g2290
sg63
(lp2306
g56
(g57
g58
NtRp2307
(dp2308
g61
(dp2309
g69
I3
ssg70
g2303
sg63
(lp2310
g861
asbasbasbag56
(g72
g58
NtRp2311
(dp2312
g61
(dp2313
sg70
g2244
sg63
(lp2314
g56
(g77
g58
NtRp2315
(dp2316
g61
(dp2317
g81
g82
ssg70
g2311
sg63
(lp2318
S'HTTP_ACCEPT_LANGUAGE'
p2319
asbag56
(g77
g58
NtRp2320
(dp2321
g61
(dp2322
g88
g89
ssg70
g2311
sg63
(lp2323
S':'
asbag56
(g77
g58
NtRp2324
(dp2325
g61
(dp2326
sg70
g2311
sg63
(lp2327
g56
(g57
g58
NtRp2328
(dp2329
g61
(dp2330
g69
I3
ssg70
g2324
sg63
(lp2331
g883
asbasbasbag56
(g72
g58
NtRp2332
(dp2333
g61
(dp2334
sg70
g2244
sg63
(lp2335
g56
(g77
g58
NtRp2336
(dp2337
g61
(dp2338
g81
g82
ssg70
g2332
sg63
(lp2339
S'HTTP_CACHE_CONTROL'
p2340
asbag56
(g77
g58
NtRp2341
(dp2342
g61
(dp2343
g88
g89
ssg70
g2332
sg63
(lp2344
S':'
asbag56
(g77
g58
NtRp2345
(dp2346
g61
(dp2347
sg70
g2332
sg63
(lp2348
g56
(g57
g58
NtRp2349
(dp2350
g61
(dp2351
g69
I3
ssg70
g2345
sg63
(lp2352
g905
asbasbasbag56
(g72
g58
NtRp2353
(dp2354
g61
(dp2355
sg70
g2244
sg63
(lp2356
g56
(g77
g58
NtRp2357
(dp2358
g61
(dp2359
g81
g82
ssg70
g2353
sg63
(lp2360
S'HTTP_CONNECTION'
p2361
asbag56
(g77
g58
NtRp2362
(dp2363
g61
(dp2364
g88
g89
ssg70
g2353
sg63
(lp2365
S':'
asbag56
(g77
g58
NtRp2366
(dp2367
g61
(dp2368
sg70
g2353
sg63
(lp2369
g56
(g57
g58
NtRp2370
(dp2371
g61
(dp2372
g69
I3
ssg70
g2366
sg63
(lp2373
g927
asbasbasbag56
(g72
g58
NtRp2374
(dp2375
g61
(dp2376
sg70
g2244
sg63
(lp2377
g56
(g77
g58
NtRp2378
(dp2379
g61
(dp2380
g81
g82
ssg70
g2374
sg63
(lp2381
S'HTTP_COOKIE'
p2382
asbag56
(g77
g58
NtRp2383
(dp2384
g61
(dp2385
g88
g89
ssg70
g2374
sg63
(lp2386
S':'
asbag56
(g77
g58
NtRp2387
(dp2388
g61
(dp2389
sg70
g2374
sg63
(lp2390
g56
(g57
g58
NtRp2391
(dp2392
g61
(dp2393
g69
I3
ssg70
g2387
sg63
(lp2394
g949
asbasbasbag56
(g72
g58
NtRp2395
(dp2396
g61
(dp2397
sg70
g2244
sg63
(lp2398
g56
(g77
g58
NtRp2399
(dp2400
g61
(dp2401
g81
g82
ssg70
g2395
sg63
(lp2402
S'HTTP_HOST'
p2403
asbag56
(g77
g58
NtRp2404
(dp2405
g61
(dp2406
g88
g89
ssg70
g2395
sg63
(lp2407
S':'
asbag56
(g77
g58
NtRp2408
(dp2409
g61
(dp2410
sg70
g2395
sg63
(lp2411
g56
(g57
g58
NtRp2412
(dp2413
g61
(dp2414
g69
I3
ssg70
g2408
sg63
(lp2415
g971
asbasbasbag56
(g72
g58
NtRp2416
(dp2417
g61
(dp2418
sg70
g2244
sg63
(lp2419
g56
(g77
g58
NtRp2420
(dp2421
g61
(dp2422
g81
g82
ssg70
g2416
sg63
(lp2423
S'HTTP_KEEP_ALIVE'
p2424
asbag56
(g77
g58
NtRp2425
(dp2426
g61
(dp2427
g88
g89
ssg70
g2416
sg63
(lp2428
S':'
asbag56
(g77
g58
NtRp2429
(dp2430
g61
(dp2431
sg70
g2416
sg63
(lp2432
g56
(g57
g58
NtRp2433
(dp2434
g61
(dp2435
g69
I3
ssg70
g2429
sg63
(lp2436
g993
asbasbasbag56
(g72
g58
NtRp2437
(dp2438
g61
(dp2439
sg70
g2244
sg63
(lp2440
g56
(g77
g58
NtRp2441
(dp2442
g61
(dp2443
g81
g82
ssg70
g2437
sg63
(lp2444
S'HTTP_PRAGMA'
p2445
asbag56
(g77
g58
NtRp2446
(dp2447
g61
(dp2448
g88
g89
ssg70
g2437
sg63
(lp2449
S':'
asbag56
(g77
g58
NtRp2450
(dp2451
g61
(dp2452
sg70
g2437
sg63
(lp2453
g56
(g57
g58
NtRp2454
(dp2455
g61
(dp2456
g69
I3
ssg70
g2450
sg63
(lp2457
g1015
asbasbasbag56
(g72
g58
NtRp2458
(dp2459
g61
(dp2460
sg70
g2244
sg63
(lp2461
g56
(g77
g58
NtRp2462
(dp2463
g61
(dp2464
g81
g82
ssg70
g2458
sg63
(lp2465
S'HTTP_USER_AGENT'
p2466
asbag56
(g77
g58
NtRp2467
(dp2468
g61
(dp2469
g88
g89
ssg70
g2458
sg63
(lp2470
S':'
asbag56
(g77
g58
NtRp2471
(dp2472
g61
(dp2473
sg70
g2458
sg63
(lp2474
g56
(g57
g58
NtRp2475
(dp2476
g61
(dp2477
g69
I3
ssg70
g2471
sg63
(lp2478
g1037
asbasbasbag56
(g72
g58
NtRp2479
(dp2480
g61
(dp2481
sg70
g2244
sg63
(lp2482
g56
(g77
g58
NtRp2483
(dp2484
g61
(dp2485
g81
g82
ssg70
g2479
sg63
(lp2486
S'PATH_INFO'
p2487
asbag56
(g77
g58
NtRp2488
(dp2489
g61
(dp2490
g88
g89
ssg70
g2479
sg63
(lp2491
S':'
asbag56
(g77
g58
NtRp2492
(dp2493
g61
(dp2494
sg70
g2479
sg63
(lp2495
g56
(g57
g58
NtRp2496
(dp2497
g61
(dp2498
g69
I3
ssg70
g2492
sg63
(lp2499
g1080
asbasbasbag56
(g72
g58
NtRp2500
(dp2501
g61
(dp2502
sg70
g2244
sg63
(lp2503
g56
(g77
g58
NtRp2504
(dp2505
g61
(dp2506
g81
g82
ssg70
g2500
sg63
(lp2507
S'QUERY_STRING'
p2508
asbag56
(g77
g58
NtRp2509
(dp2510
g61
(dp2511
g88
g89
ssg70
g2500
sg63
(lp2512
S':'
asbag56
(g77
g58
NtRp2513
(dp2514
g61
(dp2515
sg70
g2500
sg63
(lp2516
g56
(g57
g58
NtRp2517
(dp2518
g61
(dp2519
g69
I3
ssg70
g2513
sg63
(lp2520
S''
asbasbasbag56
(g72
g58
NtRp2521
(dp2522
g61
(dp2523
sg70
g2244
sg63
(lp2524
g56
(g77
g58
NtRp2525
(dp2526
g61
(dp2527
g81
g82
ssg70
g2521
sg63
(lp2528
S'REMOTE_ADDR'
p2529
asbag56
(g77
g58
NtRp2530
(dp2531
g61
(dp2532
g88
g89
ssg70
g2521
sg63
(lp2533
S':'
asbag56
(g77
g58
NtRp2534
(dp2535
g61
(dp2536
sg70
g2521
sg63
(lp2537
g56
(g57
g58
NtRp2538
(dp2539
g61
(dp2540
g69
I3
ssg70
g2534
sg63
(lp2541
g189
asbasbasbag56
(g72
g58
NtRp2542
(dp2543
g61
(dp2544
sg70
g2244
sg63
(lp2545
g56
(g77
g58
NtRp2546
(dp2547
g61
(dp2548
g81
g82
ssg70
g2542
sg63
(lp2549
S'REMOTE_PORT'
p2550
asbag56
(g77
g58
NtRp2551
(dp2552
g61
(dp2553
g88
g89
ssg70
g2542
sg63
(lp2554
S':'
asbag56
(g77
g58
NtRp2555
(dp2556
g61
(dp2557
sg70
g2542
sg63
(lp2558
g56
(g57
g58
NtRp2559
(dp2560
g61
(dp2561
g69
I3
ssg70
g2555
sg63
(lp2562
g1144
asbasbasbag56
(g72
g58
NtRp2563
(dp2564
g61
(dp2565
sg70
g2244
sg63
(lp2566
g56
(g77
g58
NtRp2567
(dp2568
g61
(dp2569
g81
g82
ssg70
g2563
sg63
(lp2570
S'REQUEST_METHOD'
p2571
asbag56
(g77
g58
NtRp2572
(dp2573
g61
(dp2574
g88
g89
ssg70
g2563
sg63
(lp2575
S':'
asbag56
(g77
g58
NtRp2576
(dp2577
g61
(dp2578
sg70
g2563
sg63
(lp2579
g56
(g57
g58
NtRp2580
(dp2581
g61
(dp2582
g69
I3
ssg70
g2576
sg63
(lp2583
g1166
asbasbasbag56
(g72
g58
NtRp2584
(dp2585
g61
(dp2586
sg70
g2244
sg63
(lp2587
g56
(g77
g58
NtRp2588
(dp2589
g61
(dp2590
g81
g82
ssg70
g2584
sg63
(lp2591
S'SCRIPT_NAME'
p2592
asbag56
(g77
g58
NtRp2593
(dp2594
g61
(dp2595
g88
g89
ssg70
g2584
sg63
(lp2596
S':'
asbag56
(g77
g58
NtRp2597
(dp2598
g61
(dp2599
sg70
g2584
sg63
(lp2600
g56
(g57
g58
NtRp2601
(dp2602
g61
(dp2603
g69
I3
ssg70
g2597
sg63
(lp2604
S''
asbasbasbag56
(g72
g58
NtRp2605
(dp2606
g61
(dp2607
sg70
g2244
sg63
(lp2608
g56
(g77
g58
NtRp2609
(dp2610
g61
(dp2611
g81
g82
ssg70
g2605
sg63
(lp2612
S'SERVER_NAME'
p2613
asbag56
(g77
g58
NtRp2614
(dp2615
g61
(dp2616
g88
g89
ssg70
g2605
sg63
(lp2617
S':'
asbag56
(g77
g58
NtRp2618
(dp2619
g61
(dp2620
sg70
g2605
sg63
(lp2621
g56
(g57
g58
NtRp2622
(dp2623
g61
(dp2624
g69
I3
ssg70
g2618
sg63
(lp2625
g1209
asbasbasbag56
(g72
g58
NtRp2626
(dp2627
g61
(dp2628
sg70
g2244
sg63
(lp2629
g56
(g77
g58
NtRp2630
(dp2631
g61
(dp2632
g81
g82
ssg70
g2626
sg63
(lp2633
S'SERVER_PORT'
p2634
asbag56
(g77
g58
NtRp2635
(dp2636
g61
(dp2637
g88
g89
ssg70
g2626
sg63
(lp2638
S':'
asbag56
(g77
g58
NtRp2639
(dp2640
g61
(dp2641
sg70
g2626
sg63
(lp2642
g56
(g57
g58
NtRp2643
(dp2644
g61
(dp2645
g69
I3
ssg70
g2639
sg63
(lp2646
g1231
asbasbasbag56
(g72
g58
NtRp2647
(dp2648
g61
(dp2649
sg70
g2244
sg63
(lp2650
g56
(g77
g58
NtRp2651
(dp2652
g61
(dp2653
g81
g82
ssg70
g2647
sg63
(lp2654
S'SERVER_PROTOCOL'
p2655
asbag56
(g77
g58
NtRp2656
(dp2657
g61
(dp2658
g88
g89
ssg70
g2647
sg63
(lp2659
S':'
asbag56
(g77
g58
NtRp2660
(dp2661
g61
(dp2662
sg70
g2647
sg63
(lp2663
g56
(g57
g58
NtRp2664
(dp2665
g61
(dp2666
g69
I3
ssg70
g2660
sg63
(lp2667
g1253
asbasbasbag56
(g72
g58
NtRp2668
(dp2669
g61
(dp2670
sg70
g2244
sg63
(lp2671
g56
(g77
g58
NtRp2672
(dp2673
g61
(dp2674
g81
g82
ssg70
g2668
sg63
(lp2675
S'SERVER_SOFTWARE'
p2676
asbag56
(g77
g58
NtRp2677
(dp2678
g61
(dp2679
g88
g89
ssg70
g2668
sg63
(lp2680
S':'
asbag56
(g77
g58
NtRp2681
(dp2682
g61
(dp2683
sg70
g2668
sg63
(lp2684
g56
(g57
g58
NtRp2685
(dp2686
g61
(dp2687
g69
I3
ssg70
g2681
sg63
(lp2688
g1275
asbasbasbag56
(g72
g58
NtRp2689
(dp2690
g61
(dp2691
sg70
g2244
sg63
(lp2692
g56
(g77
g58
NtRp2693
(dp2694
g61
(dp2695
g81
g82
ssg70
g2689
sg63
(lp2696
S'wsgi.errors'
p2697
asbag56
(g77
g58
NtRp2698
(dp2699
g61
(dp2700
g88
g89
ssg70
g2689
sg63
(lp2701
S':'
asbag56
(g77
g58
NtRp2702
(dp2703
g61
(dp2704
sg70
g2689
sg63
(lp2705
g56
(g57
g58
NtRp2706
(dp2707
g61
(dp2708
g69
I3
ssg70
g2702
sg63
(lp2709
S"<open file '<stderr>', mode 'w' at 0x01DC50D0>"
p2710
asbasbasbag56
(g72
g58
NtRp2711
(dp2712
g61
(dp2713
sg70
g2244
sg63
(lp2714
g56
(g77
g58
NtRp2715
(dp2716
g61
(dp2717
g81
g82
ssg70
g2711
sg63
(lp2718
S'wsgi.file_wrapper'
p2719
asbag56
(g77
g58
NtRp2720
(dp2721
g61
(dp2722
g88
g89
ssg70
g2711
sg63
(lp2723
S':'
asbag56
(g77
g58
NtRp2724
(dp2725
g61
(dp2726
sg70
g2711
sg63
(lp2727
g56
(g57
g58
NtRp2728
(dp2729
g61
(dp2730
g69
I3
ssg70
g2724
sg63
(lp2731
S'<class wsgiref.util.FileWrapper at 0x02D07AB0>'
p2732
asbasbasbag56
(g72
g58
NtRp2733
(dp2734
g61
(dp2735
sg70
g2244
sg63
(lp2736
g56
(g77
g58
NtRp2737
(dp2738
g61
(dp2739
g81
g82
ssg70
g2733
sg63
(lp2740
S'wsgi.input'
p2741
asbag56
(g77
g58
NtRp2742
(dp2743
g61
(dp2744
g88
g89
ssg70
g2733
sg63
(lp2745
S':'
asbag56
(g77
g58
NtRp2746
(dp2747
g61
(dp2748
sg70
g2733
sg63
(lp2749
g56
(g57
g58
NtRp2750
(dp2751
g61
(dp2752
g69
I3
ssg70
g2746
sg63
(lp2753
S'<cStringIO.StringO object at 0x0A6F9BA0>'
p2754
asbasbasbag56
(g72
g58
NtRp2755
(dp2756
g61
(dp2757
sg70
g2244
sg63
(lp2758
g56
(g77
g58
NtRp2759
(dp2760
g61
(dp2761
g81
g82
ssg70
g2755
sg63
(lp2762
S'wsgi.multiprocess'
p2763
asbag56
(g77
g58
NtRp2764
(dp2765
g61
(dp2766
g88
g89
ssg70
g2755
sg63
(lp2767
S':'
asbag56
(g77
g58
NtRp2768
(dp2769
g61
(dp2770
sg70
g2755
sg63
(lp2771
g56
(g57
g58
NtRp2772
(dp2773
g61
(dp2774
g69
I3
ssg70
g2768
sg63
(lp2775
g99
asbasbasbag56
(g72
g58
NtRp2776
(dp2777
g61
(dp2778
sg70
g2244
sg63
(lp2779
g56
(g77
g58
NtRp2780
(dp2781
g61
(dp2782
g81
g82
ssg70
g2776
sg63
(lp2783
S'wsgi.multithread'
p2784
asbag56
(g77
g58
NtRp2785
(dp2786
g61
(dp2787
g88
g89
ssg70
g2776
sg63
(lp2788
S':'
asbag56
(g77
g58
NtRp2789
(dp2790
g61
(dp2791
sg70
g2776
sg63
(lp2792
g56
(g57
g58
NtRp2793
(dp2794
g61
(dp2795
g69
I3
ssg70
g2789
sg63
(lp2796
g1515
asbasbasbag56
(g72
g58
NtRp2797
(dp2798
g61
(dp2799
sg70
g2244
sg63
(lp2800
g56
(g77
g58
NtRp2801
(dp2802
g61
(dp2803
g81
g82
ssg70
g2797
sg63
(lp2804
S'wsgi.run_once'
p2805
asbag56
(g77
g58
NtRp2806
(dp2807
g61
(dp2808
g88
g89
ssg70
g2797
sg63
(lp2809
S':'
asbag56
(g77
g58
NtRp2810
(dp2811
g61
(dp2812
sg70
g2797
sg63
(lp2813
g56
(g57
g58
NtRp2814
(dp2815
g61
(dp2816
g69
I3
ssg70
g2810
sg63
(lp2817
g99
asbasbasbag56
(g72
g58
NtRp2818
(dp2819
g61
(dp2820
sg70
g2244
sg63
(lp2821
g56
(g77
g58
NtRp2822
(dp2823
g61
(dp2824
g81
g82
ssg70
g2818
sg63
(lp2825
S'wsgi.url_scheme'
p2826
asbag56
(g77
g58
NtRp2827
(dp2828
g61
(dp2829
g88
g89
ssg70
g2818
sg63
(lp2830
S':'
asbag56
(g77
g58
NtRp2831
(dp2832
g61
(dp2833
sg70
g2818
sg63
(lp2834
g56
(g57
g58
NtRp2835
(dp2836
g61
(dp2837
g69
I3
ssg70
g2831
sg63
(lp2838
g1558
asbasbasbag56
(g72
g58
NtRp2839
(dp2840
g61
(dp2841
sg70
g2244
sg63
(lp2842
g56
(g77
g58
NtRp2843
(dp2844
g61
(dp2845
g81
g82
ssg70
g2839
sg63
(lp2846
S'wsgi.version'
p2847
asbag56
(g77
g58
NtRp2848
(dp2849
g61
(dp2850
g88
g89
ssg70
g2839
sg63
(lp2851
S':'
asbag56
(g77
g58
NtRp2852
(dp2853
g61
(dp2854
sg70
g2839
sg63
(lp2855
g56
(g57
g58
NtRp2856
(dp2857
g61
(dp2858
g69
I3
ssg70
g2852
sg63
(lp2859
S'1'
asbasbasbasbasbasbasbasbasbasbasbasbasbsS'frames'
p2860
(lp2861
(dp2862
S'file'
p2863
S'P:\\Workbench\\DevEnv\\web2py\\gluon\\restricted.py'
p2864
sS'dump'
p2865
(dp2866
S'environment'
p2867
S"{'A': <class 'gluon.html.A'>, 'Auth': <class 'gluon.tools.Auth'>, 'B': <class 'gluon.html.B'>, 'BEAUTIFY': <class 'gluon.html.BEAUTIFY'>, 'BODY': <class 'gluon.html.BODY'>, 'BR': <class 'gluon.html.BR'>, 'BUTTON': <class 'gluon.html.BUTTON'>, 'CAT': <class 'gluon.html.CAT'>, 'CENTER': <class 'gluon.html.CENTER'>, 'CLEANUP': <class 'gluon.validators.CLEANUP'>, ...}"
p2868
sS'ccode'
p2869
S'<code object <module> at 0A369EC0, file "P:\\Work...plications\\init\\views\\default/home.html", line 1>'
p2870
ssS'lnum'
p2871
I192
sS'lines'
p2872
(dp2873
I192
S'        exec ccode in environment'
p2874
sI193
S'    except HTTP:'
p2875
sI194
S'        raise'
p2876
sI195
S'    except Exception:'
p2877
sI196
S'        # XXX Show exception in Wing IDE if running in debugger'
p2878
sI187
S'    try:'
p2879
sI188
S'        if type(code) == types.CodeType:'
p2880
sI189
S'            ccode = code'
p2881
sI190
S'        else:'
p2882
sI191
S'            ccode = compile2(code,layer)'
p2883
ssS'call'
p2884
S'(code=\'response.write(\\\'<!DOCTYPE html PUBLIC "-//W3C//D...iv>\\\\r\\\\n\\\\r\\\\n</body>\\\\r\\\\n</html>\\\\r\\\\n\\\', escape=False)\', environment={\'A\': <class \'gluon.html.A\'>, \'Auth\': <class \'gluon.tools.Auth\'>, \'B\': <class \'gluon.html.B\'>, \'BEAUTIFY\': <class \'gluon.html.BEAUTIFY\'>, \'BODY\': <class \'gluon.html.BODY\'>, \'BR\': <class \'gluon.html.BR\'>, \'BUTTON\': <class \'gluon.html.BUTTON\'>, \'CAT\': <class \'gluon.html.CAT\'>, \'CENTER\': <class \'gluon.html.CENTER\'>, \'CLEANUP\': <class \'gluon.validators.CLEANUP\'>, ...}, layer=r\'P:\\Workbench\\DevEnv\\web2py\\applications\\init\\views\\default/home.html\')'
p2885
sS'func'
p2886
S'restricted'
p2887
sa(dp2888
g2863
S'P:\\Workbench\\DevEnv\\web2py\\applications\\init\\views\\default\\home.html'
p2889
sg2865
(dp2890
sg2871
I8
sg2872
(dp2891
I1
S'response.write(\'<!DOCTYPE html PUBLIC "-//W3C//DTD XHTML 1.0 Transitional//EN" "http://www.w3.org/TR/xhtml1/DTD/xhtml1-transitional.dtd">\\r\\n\\r\\n<html xmlns="http://www.w3.org/1999/xhtml" xml:lang="en" lang="en">\\r\\n<head>\\r\\n    <meta http-equiv="Content-Type" content="text/html; charset=utf-8" />\\r\\n\\r\\n    <title>Fitness Challenge    </title>\\r\\n\\r\\n    <link rel="stylesheet" type="text/css" media="screen" href="\', escape=False)'
p2892
sI2
S"response.write(URL('static', 'css/style.css'))"
p2893
sI3
S'response.write(\'" />\\r\\n</head>\\r\\n<body>\\r\\n\\r\\n<div id="header">\\r\\n    <div id="headMenu">\\r\\n        <ul>\\r\\n            <li><a class="headMenuHomeSelected" href="\', escape=False)'
p2894
sI4
S"response.write(URL(r=request,f='index'))"
p2895
sI5
S'response.write(\'"><span class="verticalAlign">home</span></a></li>\\r\\n            <li><a class="headMenuArticles" href="#"><span class="verticalAlign">challenges</span></a></li>\\r\\n            <li><a class="headMenuContact" href="\', escape=False)'
p2896
sI6
S"response.write(URL(r=request,f='contact'))"
p2897
sI7
S'response.write(\'"><span class="verticalAlign">contact</span></a></li>\\r\\n        </ul>\\r\\n    </div>\\r\\n    \\r\\n    <div id="mainTitle">\\r\\n        <h1>Fitness Challenge </h1>\\r\\n        <h3>Step Up To The Challenge</h3>\\r\\n    </div>\\r\\n</div>\\r\\n\\r\\n<div id="content-wrapper">\\r\\n    <div id="content">\\r\\n        <h1 class="titlePage">\', escape=False)'
p2898
sI8
S"response.write(T( request.args(0).replace('_',' ').capitalize() ))"
p2899
sI9
S'response.write(\'</h1>\\r\\n        <div class="post">\\r\\n            \', escape=False)'
p2900
sI10
S"response.write('\\r\\n<h1>This is the Users Home Page</h1>\\r\\n<h3> Welcome ', escape=False)"
p2901
sI11
S'response.write(auth.user.first_name)'
p2902
sI12
S"response.write('</h3>\\r\\n', escape=False)"
p2903
sI13
S'response.write(\'\\r\\n            <div class="postContent">\\r\\n\\r\\n            </div>\\r\\n        </div>\\r\\n    </div>\\r\\n    <div class="clear"></div>\\r\\n</div>\\r\\n\\r\\n<div id="footer">\\r\\n    <ul>\\r\\n        <li><a href="\', escape=False)'
p2904
sI14
S"response.write(URL(r=request,f='index'))"
p2905
sI15
S'response.write(\'">home</a> |</li>\\r\\n        <li><a href="#">about us</a> |</li>\\r\\n        <li><a href="#">sitemap</a> |</li>\\r\\n        <li><a href="\', escape=False)'
p2906
sI16
S"response.write(URL(r=request,f='contact'))"
p2907
sI17
S'response.write(\'">contact</a></li>\\r\\n    </ul>\\r\\n    <p class="copyright"><a href="http://www.florian-hacquebart.eu">florian-hacquebart.eu</a> - free css template</p>\\r\\n    <p class="w3cvalidator">\\r\\n        <a href="http://validator.w3.org/check?uri=referer">\\r\\n            <img src="images/xhtml.png" alt="Valid XHTML 1.0 Transitional" />\\r\\n        </a>&nbsp;\\r\\n        <a href="http://jigsaw.w3.org/css-validator/check/referer">\\r\\n            <img src="\', escape=False)'
p2908
sI18
S"response.write(URL('static', 'images/css.png'))"
p2909
ssg2884
S'()'
p2910
sg2886
S'<module>'
p2911
sasS'pyver'
p2912
S'Python 2.7.2: P:\\Workbench\\DevEnv\\Python27\\python.exe'
p2913
sS'session'
p2914
g56
(g57
g58
NtRp2915
(dp2916
g61
(dp2917
sg63
(lp2918
g56
(g65
g58
NtRp2919
(dp2920
g61
(dp2921
g69
I5
ssg70
Nsg63
(lp2922
g56
(g72
g58
NtRp2923
(dp2924
g61
(dp2925
sg70
g2919
sg63
(lp2926
g56
(g77
g58
NtRp2927
(dp2928
g61
(dp2929
g81
g82
ssg70
g2923
sg63
(lp2930
S'auth'
p2931
asbag56
(g77
g58
NtRp2932
(dp2933
g61
(dp2934
g88
g89
ssg70
g2923
sg63
(lp2935
S':'
asbag56
(g77
g58
NtRp2936
(dp2937
g61
(dp2938
sg70
g2923
sg63
(lp2939
g56
(g57
g58
NtRp2940
(dp2941
g61
(dp2942
g69
I5
ssg70
g2936
sg63
(lp2943
g56
(g65
g58
NtRp2944
(dp2945
g61
(dp2946
g69
I4
ssg70
Nsg63
(lp2947
g56
(g72
g58
NtRp2948
(dp2949
g61
(dp2950
sg70
g2944
sg63
(lp2951
g56
(g77
g58
NtRp2952
(dp2953
g61
(dp2954
g81
g82
ssg70
g2948
sg63
(lp2955
S'expiration'
p2956
asbag56
(g77
g58
NtRp2957
(dp2958
g61
(dp2959
g88
g89
ssg70
g2948
sg63
(lp2960
S':'
asbag56
(g77
g58
NtRp2961
(dp2962
g61
(dp2963
sg70
g2948
sg63
(lp2964
g56
(g57
g58
NtRp2965
(dp2966
g61
(dp2967
g69
I4
ssg70
g2961
sg63
(lp2968
S'3600'
p2969
asbasbasbag56
(g72
g58
NtRp2970
(dp2971
g61
(dp2972
sg70
g2944
sg63
(lp2973
g56
(g77
g58
NtRp2974
(dp2975
g61
(dp2976
g81
g82
ssg70
g2970
sg63
(lp2977
S'hmac_key'
p2978
asbag56
(g77
g58
NtRp2979
(dp2980
g61
(dp2981
g88
g89
ssg70
g2970
sg63
(lp2982
S':'
asbag56
(g77
g58
NtRp2983
(dp2984
g61
(dp2985
sg70
g2970
sg63
(lp2986
g56
(g57
g58
NtRp2987
(dp2988
g61
(dp2989
g69
I4
ssg70
g2983
sg63
(lp2990
S'd02d35f5-ca31-4d7d-ab9a-8fb5ea988a02'
p2991
asbasbasbag56
(g72
g58
NtRp2992
(dp2993
g61
(dp2994
sg70
g2944
sg63
(lp2995
g56
(g77
g58
NtRp2996
(dp2997
g61
(dp2998
g81
g82
ssg70
g2992
sg63
(lp2999
S'last_visit'
p3000
asbag56
(g77
g58
NtRp3001
(dp3002
g61
(dp3003
g88
g89
ssg70
g2992
sg63
(lp3004
S':'
asbag56
(g77
g58
NtRp3005
(dp3006
g61
(dp3007
sg70
g2992
sg63
(lp3008
g56
(g57
g58
NtRp3009
(dp3010
g61
(dp3011
g69
I4
ssg70
g3005
sg63
(lp3012
S'datetime.datetime(2011, 11, 4, 12, 21, 8, 526000)'
p3013
asbasbasbag56
(g72
g58
NtRp3014
(dp3015
g61
(dp3016
sg70
g2944
sg63
(lp3017
g56
(g77
g58
NtRp3018
(dp3019
g61
(dp3020
g81
g82
ssg70
g3014
sg63
(lp3021
S'user'
p3022
asbag56
(g77
g58
NtRp3023
(dp3024
g61
(dp3025
g88
g89
ssg70
g3014
sg63
(lp3026
S':'
asbag56
(g77
g58
NtRp3027
(dp3028
g61
(dp3029
sg70
g3014
sg63
(lp3030
g56
(g57
g58
NtRp3031
(dp3032
g61
(dp3033
g69
I4
ssg70
g3027
sg63
(lp3034
g56
(g65
g58
NtRp3035
(dp3036
g61
(dp3037
g69
I3
ssg70
Nsg63
(lp3038
g56
(g72
g58
NtRp3039
(dp3040
g61
(dp3041
sg70
g3035
sg63
(lp3042
g56
(g77
g58
NtRp3043
(dp3044
g61
(dp3045
g81
g82
ssg70
g3039
sg63
(lp3046
S'birthday'
p3047
asbag56
(g77
g58
NtRp3048
(dp3049
g61
(dp3050
g88
g89
ssg70
g3039
sg63
(lp3051
S':'
asbag56
(g77
g58
NtRp3052
(dp3053
g61
(dp3054
sg70
g3039
sg63
(lp3055
g56
(g57
g58
NtRp3056
(dp3057
g61
(dp3058
g69
I3
ssg70
g3052
sg63
(lp3059
S'datetime.date(2011, 11, 2)'
p3060
asbasbasbag56
(g72
g58
NtRp3061
(dp3062
g61
(dp3063
sg70
g3035
sg63
(lp3064
g56
(g77
g58
NtRp3065
(dp3066
g61
(dp3067
g81
g82
ssg70
g3061
sg63
(lp3068
S'current_weight'
p3069
asbag56
(g77
g58
NtRp3070
(dp3071
g61
(dp3072
g88
g89
ssg70
g3061
sg63
(lp3073
S':'
asbag56
(g77
g58
NtRp3074
(dp3075
g61
(dp3076
sg70
g3061
sg63
(lp3077
g56
(g57
g58
NtRp3078
(dp3079
g61
(dp3080
g69
I3
ssg70
g3074
sg63
(lp3081
S'200'
p3082
asbasbasbag56
(g72
g58
NtRp3083
(dp3084
g61
(dp3085
sg70
g3035
sg63
(lp3086
g56
(g77
g58
NtRp3087
(dp3088
g61
(dp3089
g81
g82
ssg70
g3083
sg63
(lp3090
S'email'
p3091
asbag56
(g77
g58
NtRp3092
(dp3093
g61
(dp3094
g88
g89
ssg70
g3083
sg63
(lp3095
S':'
asbag56
(g77
g58
NtRp3096
(dp3097
g61
(dp3098
sg70
g3083
sg63
(lp3099
g56
(g57
g58
NtRp3100
(dp3101
g61
(dp3102
g69
I3
ssg70
g3096
sg63
(lp3103
S'test@test.com'
p3104
asbasbasbag56
(g72
g58
NtRp3105
(dp3106
g61
(dp3107
sg70
g3035
sg63
(lp3108
g56
(g77
g58
NtRp3109
(dp3110
g61
(dp3111
g81
g82
ssg70
g3105
sg63
(lp3112
S'first_name'
p3113
asbag56
(g77
g58
NtRp3114
(dp3115
g61
(dp3116
g88
g89
ssg70
g3105
sg63
(lp3117
S':'
asbag56
(g77
g58
NtRp3118
(dp3119
g61
(dp3120
sg70
g3105
sg63
(lp3121
g56
(g57
g58
NtRp3122
(dp3123
g61
(dp3124
g69
I3
ssg70
g3118
sg63
(lp3125
S'test'
p3126
asbasbasbag56
(g72
g58
NtRp3127
(dp3128
g61
(dp3129
sg70
g3035
sg63
(lp3130
g56
(g77
g58
NtRp3131
(dp3132
g61
(dp3133
g81
g82
ssg70
g3127
sg63
(lp3134
S'gender'
p3135
asbag56
(g77
g58
NtRp3136
(dp3137
g61
(dp3138
g88
g89
ssg70
g3127
sg63
(lp3139
S':'
asbag56
(g77
g58
NtRp3140
(dp3141
g61
(dp3142
sg70
g3127
sg63
(lp3143
g56
(g57
g58
NtRp3144
(dp3145
g61
(dp3146
g69
I3
ssg70
g3140
sg63
(lp3147
S'Male'
p3148
asbasbasbag56
(g72
g58
NtRp3149
(dp3150
g61
(dp3151
sg70
g3035
sg63
(lp3152
g56
(g77
g58
NtRp3153
(dp3154
g61
(dp3155
g81
g82
ssg70
g3149
sg63
(lp3156
S'height'
p3157
asbag56
(g77
g58
NtRp3158
(dp3159
g61
(dp3160
g88
g89
ssg70
g3149
sg63
(lp3161
S':'
asbag56
(g77
g58
NtRp3162
(dp3163
g61
(dp3164
sg70
g3149
sg63
(lp3165
g56
(g57
g58
NtRp3166
(dp3167
g61
(dp3168
g69
I3
ssg70
g3162
sg63
(lp3169
S'72'
p3170
asbasbasbag56
(g72
g58
NtRp3171
(dp3172
g61
(dp3173
sg70
g3035
sg63
(lp3174
g56
(g77
g58
NtRp3175
(dp3176
g61
(dp3177
g81
g82
ssg70
g3171
sg63
(lp3178
S'id'
p3179
asbag56
(g77
g58
NtRp3180
(dp3181
g61
(dp3182
g88
g89
ssg70
g3171
sg63
(lp3183
S':'
asbag56
(g77
g58
NtRp3184
(dp3185
g61
(dp3186
sg70
g3171
sg63
(lp3187
g56
(g57
g58
NtRp3188
(dp3189
g61
(dp3190
g69
I3
ssg70
g3184
sg63
(lp3191
S'1'
asbasbasbag56
(g72
g58
NtRp3192
(dp3193
g61
(dp3194
sg70
g3035
sg63
(lp3195
g56
(g77
g58
NtRp3196
(dp3197
g61
(dp3198
g81
g82
ssg70
g3192
sg63
(lp3199
S'last_name'
p3200
asbag56
(g77
g58
NtRp3201
(dp3202
g61
(dp3203
g88
g89
ssg70
g3192
sg63
(lp3204
S':'
asbag56
(g77
g58
NtRp3205
(dp3206
g61
(dp3207
sg70
g3192
sg63
(lp3208
g56
(g57
g58
NtRp3209
(dp3210
g61
(dp3211
g69
I3
ssg70
g3205
sg63
(lp3212
S'test'
p3213
asbasbasbag56
(g72
g58
NtRp3214
(dp3215
g61
(dp3216
sg70
g3035
sg63
(lp3217
g56
(g77
g58
NtRp3218
(dp3219
g61
(dp3220
g81
g82
ssg70
g3214
sg63
(lp3221
S'password'
p3222
asbag56
(g77
g58
NtRp3223
(dp3224
g61
(dp3225
g88
g89
ssg70
g3214
sg63
(lp3226
S':'
asbag56
(g77
g58
NtRp3227
(dp3228
g61
(dp3229
sg70
g3214
sg63
(lp3230
g56
(g57
g58
NtRp3231
(dp3232
g61
(dp3233
g69
I3
ssg70
g3227
sg63
(lp3234
S'12923092f4d9e86e56018b9cdd790947'
p3235
asbasbasbag56
(g72
g58
NtRp3236
(dp3237
g61
(dp3238
sg70
g3035
sg63
(lp3239
g56
(g77
g58
NtRp3240
(dp3241
g61
(dp3242
g81
g82
ssg70
g3236
sg63
(lp3243
S'registration_id'
p3244
asbag56
(g77
g58
NtRp3245
(dp3246
g61
(dp3247
g88
g89
ssg70
g3236
sg63
(lp3248
S':'
asbag56
(g77
g58
NtRp3249
(dp3250
g61
(dp3251
sg70
g3236
sg63
(lp3252
g56
(g57
g58
NtRp3253
(dp3254
g61
(dp3255
g69
I3
ssg70
g3249
sg63
(lp3256
S''
asbasbasbag56
(g72
g58
NtRp3257
(dp3258
g61
(dp3259
sg70
g3035
sg63
(lp3260
g56
(g77
g58
NtRp3261
(dp3262
g61
(dp3263
g81
g82
ssg70
g3257
sg63
(lp3264
S'registration_key'
p3265
asbag56
(g77
g58
NtRp3266
(dp3267
g61
(dp3268
g88
g89
ssg70
g3257
sg63
(lp3269
S':'
asbag56
(g77
g58
NtRp3270
(dp3271
g61
(dp3272
sg70
g3257
sg63
(lp3273
g56
(g57
g58
NtRp3274
(dp3275
g61
(dp3276
g69
I3
ssg70
g3270
sg63
(lp3277
S''
asbasbasbag56
(g72
g58
NtRp3278
(dp3279
g61
(dp3280
sg70
g3035
sg63
(lp3281
g56
(g77
g58
NtRp3282
(dp3283
g61
(dp3284
g81
g82
ssg70
g3278
sg63
(lp3285
S'reset_password_key'
p3286
asbag56
(g77
g58
NtRp3287
(dp3288
g61
(dp3289
g88
g89
ssg70
g3278
sg63
(lp3290
S':'
asbag56
(g77
g58
NtRp3291
(dp3292
g61
(dp3293
sg70
g3278
sg63
(lp3294
g56
(g57
g58
NtRp3295
(dp3296
g61
(dp3297
g69
I3
ssg70
g3291
sg63
(lp3298
S''
asbasbasbasbasbasbasbasbasbasbasbasbasbsS'etype'
p3299
S"<type 'exceptions.AttributeError'>"
p3300
sS'date'
p3301
S'Fri Nov 04 12:21:48 2011'
p3302
sS'response'
p3303
g56
(g57
g58
NtRp3304
(dp3305
g61
(dp3306
sg63
(lp3307
g56
(g65
g58
NtRp3308
(dp3309
g61
(dp3310
g69
I5
ssg70
Nsg63
(lp3311
g56
(g72
g58
NtRp3312
(dp3313
g61
(dp3314
sg70
g3308
sg63
(lp3315
g56
(g77
g58
NtRp3316
(dp3317
g61
(dp3318
g81
g82
ssg70
g3312
sg63
(lp3319
g154
asbag56
(g77
g58
NtRp3320
(dp3321
g61
(dp3322
g88
g89
ssg70
g3312
sg63
(lp3323
S':'
asbag56
(g77
g58
NtRp3324
(dp3325
g61
(dp3326
sg70
g3312
sg63
(lp3327
g56
(g57
g58
NtRp3328
(dp3329
g61
(dp3330
g69
I5
ssg70
g3324
sg63
(lp3331
S'<cStringIO.StringO object at 0x0A9E80E0>'
p3332
asbasbasbag56
(g72
g58
NtRp3333
(dp3334
g61
(dp3335
sg70
g3308
sg63
(lp3336
g56
(g77
g58
NtRp3337
(dp3338
g61
(dp3339
g81
g82
ssg70
g3333
sg63
(lp3340
g220
asbag56
(g77
g58
NtRp3341
(dp3342
g61
(dp3343
g88
g89
ssg70
g3333
sg63
(lp3344
S':'
asbag56
(g77
g58
NtRp3345
(dp3346
g61
(dp3347
sg70
g3333
sg63
(lp3348
g56
(g57
g58
NtRp3349
(dp3350
g61
(dp3351
g69
I5
ssg70
g3345
sg63
(lp3352
g56
(g65
g58
NtRp3353
(dp3354
g61
(dp3355
g69
I4
ssg70
Nsg63
(lp3356
g56
(g72
g58
NtRp3357
(dp3358
g61
(dp3359
sg70
g3353
sg63
(lp3360
g56
(g77
g58
NtRp3361
(dp3362
g61
(dp3363
g81
g82
ssg70
g3357
sg63
(lp3364
S'session_id_init'
p3365
asbag56
(g77
g58
NtRp3366
(dp3367
g61
(dp3368
g88
g89
ssg70
g3357
sg63
(lp3369
S':'
asbag56
(g77
g58
NtRp3370
(dp3371
g61
(dp3372
sg70
g3357
sg63
(lp3373
g56
(g57
g58
NtRp3374
(dp3375
g61
(dp3376
g69
I4
ssg70
g3370
sg63
(lp3377
g56
(g65
g58
NtRp3378
(dp3379
g61
(dp3380
g69
I3
ssg70
Nsg63
(lp3381
g56
(g72
g58
NtRp3382
(dp3383
g61
(dp3384
sg70
g3378
sg63
(lp3385
g56
(g77
g58
NtRp3386
(dp3387
g61
(dp3388
g81
g82
ssg70
g3382
sg63
(lp3389
g270
asbag56
(g77
g58
NtRp3390
(dp3391
g61
(dp3392
g88
g89
ssg70
g3382
sg63
(lp3393
S':'
asbag56
(g77
g58
NtRp3394
(dp3395
g61
(dp3396
sg70
g3382
sg63
(lp3397
g56
(g57
g58
NtRp3398
(dp3399
g61
(dp3400
g69
I3
ssg70
g3394
sg63
(lp3401
S''
asbasbasbag56
(g72
g58
NtRp3402
(dp3403
g61
(dp3404
sg70
g3378
sg63
(lp3405
g56
(g77
g58
NtRp3406
(dp3407
g61
(dp3408
g81
g82
ssg70
g3402
sg63
(lp3409
g291
asbag56
(g77
g58
NtRp3410
(dp3411
g61
(dp3412
g88
g89
ssg70
g3402
sg63
(lp3413
S':'
asbag56
(g77
g58
NtRp3414
(dp3415
g61
(dp3416
sg70
g3402
sg63
(lp3417
g56
(g57
g58
NtRp3418
(dp3419
g61
(dp3420
g69
I3
ssg70
g3414
sg63
(lp3421
S''
asbasbasbag56
(g72
g58
NtRp3422
(dp3423
g61
(dp3424
sg70
g3378
sg63
(lp3425
g56
(g77
g58
NtRp3426
(dp3427
g61
(dp3428
g81
g82
ssg70
g3422
sg63
(lp3429
g312
asbag56
(g77
g58
NtRp3430
(dp3431
g61
(dp3432
g88
g89
ssg70
g3422
sg63
(lp3433
S':'
asbag56
(g77
g58
NtRp3434
(dp3435
g61
(dp3436
sg70
g3422
sg63
(lp3437
g56
(g57
g58
NtRp3438
(dp3439
g61
(dp3440
g69
I3
ssg70
g3434
sg63
(lp3441
S''
asbasbasbag56
(g72
g58
NtRp3442
(dp3443
g61
(dp3444
sg70
g3378
sg63
(lp3445
g56
(g77
g58
NtRp3446
(dp3447
g61
(dp3448
g81
g82
ssg70
g3442
sg63
(lp3449
g333
asbag56
(g77
g58
NtRp3450
(dp3451
g61
(dp3452
g88
g89
ssg70
g3442
sg63
(lp3453
S':'
asbag56
(g77
g58
NtRp3454
(dp3455
g61
(dp3456
sg70
g3442
sg63
(lp3457
g56
(g57
g58
NtRp3458
(dp3459
g61
(dp3460
g69
I3
ssg70
g3454
sg63
(lp3461
S''
asbasbasbag56
(g72
g58
NtRp3462
(dp3463
g61
(dp3464
sg70
g3378
sg63
(lp3465
g56
(g77
g58
NtRp3466
(dp3467
g61
(dp3468
g81
g82
ssg70
g3462
sg63
(lp3469
g354
asbag56
(g77
g58
NtRp3470
(dp3471
g61
(dp3472
g88
g89
ssg70
g3462
sg63
(lp3473
S':'
asbag56
(g77
g58
NtRp3474
(dp3475
g61
(dp3476
sg70
g3462
sg63
(lp3477
g56
(g57
g58
NtRp3478
(dp3479
g61
(dp3480
g69
I3
ssg70
g3474
sg63
(lp3481
S''
asbasbasbag56
(g72
g58
NtRp3482
(dp3483
g61
(dp3484
sg70
g3378
sg63
(lp3485
g56
(g77
g58
NtRp3486
(dp3487
g61
(dp3488
g81
g82
ssg70
g3482
sg63
(lp3489
g375
asbag56
(g77
g58
NtRp3490
(dp3491
g61
(dp3492
g88
g89
ssg70
g3482
sg63
(lp3493
S':'
asbag56
(g77
g58
NtRp3494
(dp3495
g61
(dp3496
sg70
g3482
sg63
(lp3497
g56
(g57
g58
NtRp3498
(dp3499
g61
(dp3500
g69
I3
ssg70
g3494
sg63
(lp3501
S'/'
asbasbasbag56
(g72
g58
NtRp3502
(dp3503
g61
(dp3504
sg70
g3378
sg63
(lp3505
g56
(g77
g58
NtRp3506
(dp3507
g61
(dp3508
g81
g82
ssg70
g3502
sg63
(lp3509
g396
asbag56
(g77
g58
NtRp3510
(dp3511
g61
(dp3512
g88
g89
ssg70
g3502
sg63
(lp3513
S':'
asbag56
(g77
g58
NtRp3514
(dp3515
g61
(dp3516
sg70
g3502
sg63
(lp3517
g56
(g57
g58
NtRp3518
(dp3519
g61
(dp3520
g69
I3
ssg70
g3514
sg63
(lp3521
S''
asbasbasbag56
(g72
g58
NtRp3522
(dp3523
g61
(dp3524
sg70
g3378
sg63
(lp3525
g56
(g77
g58
NtRp3526
(dp3527
g61
(dp3528
g81
g82
ssg70
g3522
sg63
(lp3529
g417
asbag56
(g77
g58
NtRp3530
(dp3531
g61
(dp3532
g88
g89
ssg70
g3522
sg63
(lp3533
S':'
asbag56
(g77
g58
NtRp3534
(dp3535
g61
(dp3536
sg70
g3522
sg63
(lp3537
g56
(g57
g58
NtRp3538
(dp3539
g61
(dp3540
g69
I3
ssg70
g3534
sg63
(lp3541
S''
asbasbasbasbasbasbasbasbasbasbasbag56
(g72
g58
NtRp3542
(dp3543
g61
(dp3544
sg70
g3308
sg63
(lp3545
g56
(g77
g58
NtRp3546
(dp3547
g61
(dp3548
g81
g82
ssg70
g3542
sg63
(lp3549
S'files'
p3550
asbag56
(g77
g58
NtRp3551
(dp3552
g61
(dp3553
g88
g89
ssg70
g3542
sg63
(lp3554
S':'
asbag56
(g77
g58
NtRp3555
(dp3556
g61
(dp3557
sg70
g3542
sg63
(lp3558
g56
(g57
g58
NtRp3559
(dp3560
g61
(dp3561
g69
I5
ssg70
g3555
sg63
(lp3562
g56
(g65
g58
NtRp3563
(dp3564
g61
(dp3565
g69
I4
ssg70
Nsg63
(lp3566
sbasbasbasbag56
(g72
g58
NtRp3567
(dp3568
g61
(dp3569
sg70
g3308
sg63
(lp3570
g56
(g77
g58
NtRp3571
(dp3572
g61
(dp3573
g81
g82
ssg70
g3567
sg63
(lp3574
S'flash'
p3575
asbag56
(g77
g58
NtRp3576
(dp3577
g61
(dp3578
g88
g89
ssg70
g3567
sg63
(lp3579
S':'
asbag56
(g77
g58
NtRp3580
(dp3581
g61
(dp3582
sg70
g3567
sg63
(lp3583
g56
(g57
g58
NtRp3584
(dp3585
g61
(dp3586
g69
I5
ssg70
g3580
sg63
(lp3587
S''
asbasbasbag56
(g72
g58
NtRp3588
(dp3589
g61
(dp3590
sg70
g3308
sg63
(lp3591
g56
(g77
g58
NtRp3592
(dp3593
g61
(dp3594
g81
g82
ssg70
g3588
sg63
(lp3595
S'generic_patterns'
p3596
asbag56
(g77
g58
NtRp3597
(dp3598
g61
(dp3599
g88
g89
ssg70
g3588
sg63
(lp3600
S':'
asbag56
(g77
g58
NtRp3601
(dp3602
g61
(dp3603
sg70
g3588
sg63
(lp3604
g56
(g57
g58
NtRp3605
(dp3606
g61
(dp3607
g69
I5
ssg70
g3601
sg63
(lp3608
g56
(g65
g58
NtRp3609
(dp3610
g61
(dp3611
g69
I4
ssg70
Nsg63
(lp3612
g56
(g72
g58
NtRp3613
(dp3614
g61
(dp3615
sg70
g3609
sg63
(lp3616
g56
(g77
g58
NtRp3617
(dp3618
g61
(dp3619
sg70
g3613
sg63
(lp3620
g56
(g57
g58
NtRp3621
(dp3622
g61
(dp3623
g69
I4
ssg70
g3617
sg63
(lp3624
S'*'
asbasbasbasbasbasbasbag56
(g72
g58
NtRp3625
(dp3626
g61
(dp3627
sg70
g3308
sg63
(lp3628
g56
(g77
g58
NtRp3629
(dp3630
g61
(dp3631
g81
g82
ssg70
g3625
sg63
(lp3632
S'headers'
p3633
asbag56
(g77
g58
NtRp3634
(dp3635
g61
(dp3636
g88
g89
ssg70
g3625
sg63
(lp3637
S':'
asbag56
(g77
g58
NtRp3638
(dp3639
g61
(dp3640
sg70
g3625
sg63
(lp3641
g56
(g57
g58
NtRp3642
(dp3643
g61
(dp3644
g69
I5
ssg70
g3638
sg63
(lp3645
g56
(g65
g58
NtRp3646
(dp3647
g61
(dp3648
g69
I4
ssg70
Nsg63
(lp3649
g56
(g72
g58
NtRp3650
(dp3651
g61
(dp3652
sg70
g3646
sg63
(lp3653
g56
(g77
g58
NtRp3654
(dp3655
g61
(dp3656
g81
g82
ssg70
g3650
sg63
(lp3657
S'Cache-Control'
p3658
asbag56
(g77
g58
NtRp3659
(dp3660
g61
(dp3661
g88
g89
ssg70
g3650
sg63
(lp3662
S':'
asbag56
(g77
g58
NtRp3663
(dp3664
g61
(dp3665
sg70
g3650
sg63
(lp3666
g56
(g57
g58
NtRp3667
(dp3668
g61
(dp3669
g69
I4
ssg70
g3663
sg63
(lp3670
S'no-store, no-cache, must-revalidate, post-check=0, pre-check=0'
p3671
asbasbasbag56
(g72
g58
NtRp3672
(dp3673
g61
(dp3674
sg70
g3646
sg63
(lp3675
g56
(g77
g58
NtRp3676
(dp3677
g61
(dp3678
g81
g82
ssg70
g3672
sg63
(lp3679
S'Content-Type'
p3680
asbag56
(g77
g58
NtRp3681
(dp3682
g61
(dp3683
g88
g89
ssg70
g3672
sg63
(lp3684
S':'
asbag56
(g77
g58
NtRp3685
(dp3686
g61
(dp3687
sg70
g3672
sg63
(lp3688
g56
(g57
g58
NtRp3689
(dp3690
g61
(dp3691
g69
I4
ssg70
g3685
sg63
(lp3692
S'text/html; charset=utf-8'
p3693
asbasbasbag56
(g72
g58
NtRp3694
(dp3695
g61
(dp3696
sg70
g3646
sg63
(lp3697
g56
(g77
g58
NtRp3698
(dp3699
g61
(dp3700
g81
g82
ssg70
g3694
sg63
(lp3701
S'Expires'
p3702
asbag56
(g77
g58
NtRp3703
(dp3704
g61
(dp3705
g88
g89
ssg70
g3694
sg63
(lp3706
S':'
asbag56
(g77
g58
NtRp3707
(dp3708
g61
(dp3709
sg70
g3694
sg63
(lp3710
g56
(g57
g58
NtRp3711
(dp3712
g61
(dp3713
g69
I4
ssg70
g3707
sg63
(lp3714
S'Fri, 04 Nov 2011 16:21:48 GMT'
p3715
asbasbasbag56
(g72
g58
NtRp3716
(dp3717
g61
(dp3718
sg70
g3646
sg63
(lp3719
g56
(g77
g58
NtRp3720
(dp3721
g61
(dp3722
g81
g82
ssg70
g3716
sg63
(lp3723
S'Pragma'
p3724
asbag56
(g77
g58
NtRp3725
(dp3726
g61
(dp3727
g88
g89
ssg70
g3716
sg63
(lp3728
S':'
asbag56
(g77
g58
NtRp3729
(dp3730
g61
(dp3731
sg70
g3716
sg63
(lp3732
g56
(g57
g58
NtRp3733
(dp3734
g61
(dp3735
g69
I4
ssg70
g3729
sg63
(lp3736
S'no-cache'
p3737
asbasbasbag56
(g72
g58
NtRp3738
(dp3739
g61
(dp3740
sg70
g3646
sg63
(lp3741
g56
(g77
g58
NtRp3742
(dp3743
g61
(dp3744
g81
g82
ssg70
g3738
sg63
(lp3745
S'X-Powered-By'
p3746
asbag56
(g77
g58
NtRp3747
(dp3748
g61
(dp3749
g88
g89
ssg70
g3738
sg63
(lp3750
S':'
asbag56
(g77
g58
NtRp3751
(dp3752
g61
(dp3753
sg70
g3738
sg63
(lp3754
g56
(g57
g58
NtRp3755
(dp3756
g61
(dp3757
g69
I4
ssg70
g3751
sg63
(lp3758
S'web2py'
p3759
asbasbasbasbasbasbasbag56
(g72
g58
NtRp3760
(dp3761
g61
(dp3762
sg70
g3308
sg63
(lp3763
g56
(g77
g58
NtRp3764
(dp3765
g61
(dp3766
g81
g82
ssg70
g3760
sg63
(lp3767
S'menu'
p3768
asbag56
(g77
g58
NtRp3769
(dp3770
g61
(dp3771
g88
g89
ssg70
g3760
sg63
(lp3772
S':'
asbag56
(g77
g58
NtRp3773
(dp3774
g61
(dp3775
sg70
g3760
sg63
(lp3776
g56
(g57
g58
NtRp3777
(dp3778
g61
(dp3779
g69
I5
ssg70
g3773
sg63
(lp3780
g56
(g65
g58
NtRp3781
(dp3782
g61
(dp3783
g69
I4
ssg70
Nsg63
(lp3784
g56
(g72
g58
NtRp3785
(dp3786
g61
(dp3787
sg70
g3781
sg63
(lp3788
g56
(g77
g58
NtRp3789
(dp3790
g61
(dp3791
sg70
g3785
sg63
(lp3792
g56
(g57
g58
NtRp3793
(dp3794
g61
(dp3795
g69
I4
ssg70
g3789
sg63
(lp3796
g56
(g65
g58
NtRp3797
(dp3798
g61
(dp3799
g69
I3
ssg70
Nsg63
(lp3800
g56
(g72
g58
NtRp3801
(dp3802
g61
(dp3803
sg70
g3797
sg63
(lp3804
g56
(g77
g58
NtRp3805
(dp3806
g61
(dp3807
sg70
g3801
sg63
(lp3808
g56
(g57
g58
NtRp3809
(dp3810
g61
(dp3811
g69
I3
ssg70
g3805
sg63
(lp3812
cgluon.languages
lazyT_unpickle
p3813
(S't\x04\x00\x00\x00Home'
tRp3814
asbasbasbag56
(g72
g58
NtRp3815
(dp3816
g61
(dp3817
sg70
g3797
sg63
(lp3818
g56
(g77
g58
NtRp3819
(dp3820
g61
(dp3821
sg70
g3815
sg63
(lp3822
g56
(g57
g58
NtRp3823
(dp3824
g61
(dp3825
g69
I3
ssg70
g3819
sg63
(lp3826
g99
asbasbasbag56
(g72
g58
NtRp3827
(dp3828
g61
(dp3829
sg70
g3797
sg63
(lp3830
g56
(g77
g58
NtRp3831
(dp3832
g61
(dp3833
sg70
g3827
sg63
(lp3834
g56
(g57
g58
NtRp3835
(dp3836
g61
(dp3837
g69
I3
ssg70
g3831
sg63
(lp3838
S'/init/default/index'
p3839
asbasbasbag56
(g72
g58
NtRp3840
(dp3841
g61
(dp3842
sg70
g3797
sg63
(lp3843
g56
(g77
g58
NtRp3844
(dp3845
g61
(dp3846
sg70
g3840
sg63
(lp3847
g56
(g57
g58
NtRp3848
(dp3849
g61
(dp3850
g69
I3
ssg70
g3844
sg63
(lp3851
g56
(g65
g58
NtRp3852
(dp3853
g61
(dp3854
g69
I2
ssg70
Nsg63
(lp3855
sbasbasbasbasbasbasbasbag56
(g72
g58
NtRp3856
(dp3857
g61
(dp3858
sg70
g3781
sg63
(lp3859
g56
(g77
g58
NtRp3860
(dp3861
g61
(dp3862
sg70
g3856
sg63
(lp3863
g56
(g57
g58
NtRp3864
(dp3865
g61
(dp3866
g69
I4
ssg70
g3860
sg63
(lp3867
g56
(g65
g58
NtRp3868
(dp3869
g61
(dp3870
g69
I3
ssg70
Nsg63
(lp3871
g56
(g72
g58
NtRp3872
(dp3873
g61
(dp3874
sg70
g3868
sg63
(lp3875
g56
(g77
g58
NtRp3876
(dp3877
g61
(dp3878
sg70
g3872
sg63
(lp3879
g56
(g57
g58
NtRp3880
(dp3881
g61
(dp3882
g69
I3
ssg70
g3876
sg63
(lp3883
g3813
(S's\x08\x00\x00\x00This App'
tRp3884
asbasbasbag56
(g72
g58
NtRp3885
(dp3886
g61
(dp3887
sg70
g3868
sg63
(lp3888
g56
(g77
g58
NtRp3889
(dp3890
g61
(dp3891
sg70
g3885
sg63
(lp3892
g56
(g57
g58
NtRp3893
(dp3894
g61
(dp3895
g69
I3
ssg70
g3889
sg63
(lp3896
g99
asbasbasbag56
(g72
g58
NtRp3897
(dp3898
g61
(dp3899
sg70
g3868
sg63
(lp3900
g56
(g77
g58
NtRp3901
(dp3902
g61
(dp3903
sg70
g3897
sg63
(lp3904
g56
(g57
g58
NtRp3905
(dp3906
g61
(dp3907
g69
I3
ssg70
g3901
sg63
(lp3908
S'/admin/default/design/init'
p3909
asbasbasbag56
(g72
g58
NtRp3910
(dp3911
g61
(dp3912
sg70
g3868
sg63
(lp3913
g56
(g77
g58
NtRp3914
(dp3915
g61
(dp3916
sg70
g3910
sg63
(lp3917
g56
(g57
g58
NtRp3918
(dp3919
g61
(dp3920
g69
I3
ssg70
g3914
sg63
(lp3921
g56
(g65
g58
NtRp3922
(dp3923
g61
(dp3924
g69
I2
ssg70
Nsg63
(lp3925
g56
(g72
g58
NtRp3926
(dp3927
g61
(dp3928
sg70
g3922
sg63
(lp3929
g56
(g77
g58
NtRp3930
(dp3931
g61
(dp3932
sg70
g3926
sg63
(lp3933
g56
(g57
g58
NtRp3934
(dp3935
g61
(dp3936
g69
I2
ssg70
g3930
sg63
(lp3937
g56
(g65
g58
NtRp3938
(dp3939
g61
(dp3940
g69
I1
ssg70
Nsg63
(lp3941
g56
(g72
g58
NtRp3942
(dp3943
g61
(dp3944
sg70
g3938
sg63
(lp3945
g56
(g77
g58
NtRp3946
(dp3947
g61
(dp3948
sg70
g3942
sg63
(lp3949
g56
(g57
g58
NtRp3950
(dp3951
g61
(dp3952
g69
I1
ssg70
g3946
sg63
(lp3953
g3813
(S't\n\x00\x00\x00Controller'
tRp3954
asbasbasbag56
(g72
g58
NtRp3955
(dp3956
g61
(dp3957
sg70
g3938
sg63
(lp3958
g56
(g77
g58
NtRp3959
(dp3960
g61
(dp3961
sg70
g3955
sg63
(lp3962
g56
(g57
g58
NtRp3963
(dp3964
g61
(dp3965
g69
I1
ssg70
g3959
sg63
(lp3966
I00
asbasbasbag56
(g72
g58
NtRp3967
(dp3968
g61
(dp3969
sg70
g3938
sg63
(lp3970
g56
(g77
g58
NtRp3971
(dp3972
g61
(dp3973
sg70
g3967
sg63
(lp3974
g56
(g57
g58
NtRp3975
(dp3976
g61
(dp3977
g69
I1
ssg70
g3971
sg63
(lp3978
S'/admin/default/edit/init/controllers/default.py'
p3979
asbasbasbasbasbasbasbag56
(g72
g58
NtRp3980
(dp3981
g61
(dp3982
sg70
g3922
sg63
(lp3983
g56
(g77
g58
NtRp3984
(dp3985
g61
(dp3986
sg70
g3980
sg63
(lp3987
g56
(g57
g58
NtRp3988
(dp3989
g61
(dp3990
g69
I2
ssg70
g3984
sg63
(lp3991
g56
(g65
g58
NtRp3992
(dp3993
g61
(dp3994
g69
I1
ssg70
Nsg63
(lp3995
g56
(g72
g58
NtRp3996
(dp3997
g61
(dp3998
sg70
g3992
sg63
(lp3999
g56
(g77
g58
NtRp4000
(dp4001
g61
(dp4002
sg70
g3996
sg63
(lp4003
g56
(g57
g58
NtRp4004
(dp4005
g61
(dp4006
g69
I1
ssg70
g4000
sg63
(lp4007
g3813
(S't\x04\x00\x00\x00View'
tRp4008
asbasbasbag56
(g72
g58
NtRp4009
(dp4010
g61
(dp4011
sg70
g3992
sg63
(lp4012
g56
(g77
g58
NtRp4013
(dp4014
g61
(dp4015
sg70
g4009
sg63
(lp4016
g56
(g57
g58
NtRp4017
(dp4018
g61
(dp4019
g69
I1
ssg70
g4013
sg63
(lp4020
I00
asbasbasbag56
(g72
g58
NtRp4021
(dp4022
g61
(dp4023
sg70
g3992
sg63
(lp4024
g56
(g77
g58
NtRp4025
(dp4026
g61
(dp4027
sg70
g4021
sg63
(lp4028
g56
(g57
g58
NtRp4029
(dp4030
g61
(dp4031
g69
I1
ssg70
g4025
sg63
(lp4032
S'/admin/default/edit/init/views/default/home.html'
p4033
asbasbasbasbasbasbasbag56
(g72
g58
NtRp4034
(dp4035
g61
(dp4036
sg70
g3922
sg63
(lp4037
g56
(g77
g58
NtRp4038
(dp4039
g61
(dp4040
sg70
g4034
sg63
(lp4041
g56
(g57
g58
NtRp4042
(dp4043
g61
(dp4044
g69
I2
ssg70
g4038
sg63
(lp4045
g56
(g65
g58
NtRp4046
(dp4047
g61
(dp4048
g69
I1
ssg70
Nsg63
(lp4049
g56
(g72
g58
NtRp4050
(dp4051
g61
(dp4052
sg70
g4046
sg63
(lp4053
g56
(g77
g58
NtRp4054
(dp4055
g61
(dp4056
sg70
g4050
sg63
(lp4057
g56
(g57
g58
NtRp4058
(dp4059
g61
(dp4060
g69
I1
ssg70
g4054
sg63
(lp4061
g3813
(S't\x06\x00\x00\x00Layout'
tRp4062
asbasbasbag56
(g72
g58
NtRp4063
(dp4064
g61
(dp4065
sg70
g4046
sg63
(lp4066
g56
(g77
g58
NtRp4067
(dp4068
g61
(dp4069
sg70
g4063
sg63
(lp4070
g56
(g57
g58
NtRp4071
(dp4072
g61
(dp4073
g69
I1
ssg70
g4067
sg63
(lp4074
I00
asbasbasbag56
(g72
g58
NtRp4075
(dp4076
g61
(dp4077
sg70
g4046
sg63
(lp4078
g56
(g77
g58
NtRp4079
(dp4080
g61
(dp4081
sg70
g4075
sg63
(lp4082
g56
(g57
g58
NtRp4083
(dp4084
g61
(dp4085
g69
I1
ssg70
g4079
sg63
(lp4086
S'/admin/default/edit/init/views/layout.html'
p4087
asbasbasbasbasbasbasbag56
(g72
g58
NtRp4088
(dp4089
g61
(dp4090
sg70
g3922
sg63
(lp4091
g56
(g77
g58
NtRp4092
(dp4093
g61
(dp4094
sg70
g4088
sg63
(lp4095
g56
(g57
g58
NtRp4096
(dp4097
g61
(dp4098
g69
I2
ssg70
g4092
sg63
(lp4099
g56
(g65
g58
NtRp4100
(dp4101
g61
(dp4102
g69
I1
ssg70
Nsg63
(lp4103
g56
(g72
g58
NtRp4104
(dp4105
g61
(dp4106
sg70
g4100
sg63
(lp4107
g56
(g77
g58
NtRp4108
(dp4109
g61
(dp4110
sg70
g4104
sg63
(lp4111
g56
(g57
g58
NtRp4112
(dp4113
g61
(dp4114
g69
I1
ssg70
g4108
sg63
(lp4115
g3813
(S't\n\x00\x00\x00Stylesheet'
tRp4116
asbasbasbag56
(g72
g58
NtRp4117
(dp4118
g61
(dp4119
sg70
g4100
sg63
(lp4120
g56
(g77
g58
NtRp4121
(dp4122
g61
(dp4123
sg70
g4117
sg63
(lp4124
g56
(g57
g58
NtRp4125
(dp4126
g61
(dp4127
g69
I1
ssg70
g4121
sg63
(lp4128
I00
asbasbasbag56
(g72
g58
NtRp4129
(dp4130
g61
(dp4131
sg70
g4100
sg63
(lp4132
g56
(g77
g58
NtRp4133
(dp4134
g61
(dp4135
sg70
g4129
sg63
(lp4136
g56
(g57
g58
NtRp4137
(dp4138
g61
(dp4139
g69
I1
ssg70
g4133
sg63
(lp4140
S'/admin/default/edit/init/static/base.css'
p4141
asbasbasbasbasbasbasbag56
(g72
g58
NtRp4142
(dp4143
g61
(dp4144
sg70
g3922
sg63
(lp4145
g56
(g77
g58
NtRp4146
(dp4147
g61
(dp4148
sg70
g4142
sg63
(lp4149
g56
(g57
g58
NtRp4150
(dp4151
g61
(dp4152
g69
I2
ssg70
g4146
sg63
(lp4153
g56
(g65
g58
NtRp4154
(dp4155
g61
(dp4156
g69
I1
ssg70
Nsg63
(lp4157
g56
(g72
g58
NtRp4158
(dp4159
g61
(dp4160
sg70
g4154
sg63
(lp4161
g56
(g77
g58
NtRp4162
(dp4163
g61
(dp4164
sg70
g4158
sg63
(lp4165
g56
(g57
g58
NtRp4166
(dp4167
g61
(dp4168
g69
I1
ssg70
g4162
sg63
(lp4169
g3813
(S's\x08\x00\x00\x00DB Model'
tRp4170
asbasbasbag56
(g72
g58
NtRp4171
(dp4172
g61
(dp4173
sg70
g4154
sg63
(lp4174
g56
(g77
g58
NtRp4175
(dp4176
g61
(dp4177
sg70
g4171
sg63
(lp4178
g56
(g57
g58
NtRp4179
(dp4180
g61
(dp4181
g69
I1
ssg70
g4175
sg63
(lp4182
I00
asbasbasbag56
(g72
g58
NtRp4183
(dp4184
g61
(dp4185
sg70
g4154
sg63
(lp4186
g56
(g77
g58
NtRp4187
(dp4188
g61
(dp4189
sg70
g4183
sg63
(lp4190
g56
(g57
g58
NtRp4191
(dp4192
g61
(dp4193
g69
I1
ssg70
g4187
sg63
(lp4194
S'/admin/default/edit/init/models/db.py'
p4195
asbasbasbasbasbasbasbag56
(g72
g58
NtRp4196
(dp4197
g61
(dp4198
sg70
g3922
sg63
(lp4199
g56
(g77
g58
NtRp4200
(dp4201
g61
(dp4202
sg70
g4196
sg63
(lp4203
g56
(g57
g58
NtRp4204
(dp4205
g61
(dp4206
g69
I2
ssg70
g4200
sg63
(lp4207
g56
(g65
g58
NtRp4208
(dp4209
g61
(dp4210
g69
I1
ssg70
Nsg63
(lp4211
g56
(g72
g58
NtRp4212
(dp4213
g61
(dp4214
sg70
g4208
sg63
(lp4215
g56
(g77
g58
NtRp4216
(dp4217
g61
(dp4218
sg70
g4212
sg63
(lp4219
g56
(g57
g58
NtRp4220
(dp4221
g61
(dp4222
g69
I1
ssg70
g4216
sg63
(lp4223
g3813
(S's\n\x00\x00\x00Menu Model'
tRp4224
asbasbasbag56
(g72
g58
NtRp4225
(dp4226
g61
(dp4227
sg70
g4208
sg63
(lp4228
g56
(g77
g58
NtRp4229
(dp4230
g61
(dp4231
sg70
g4225
sg63
(lp4232
g56
(g57
g58
NtRp4233
(dp4234
g61
(dp4235
g69
I1
ssg70
g4229
sg63
(lp4236
I00
asbasbasbag56
(g72
g58
NtRp4237
(dp4238
g61
(dp4239
sg70
g4208
sg63
(lp4240
g56
(g77
g58
NtRp4241
(dp4242
g61
(dp4243
sg70
g4237
sg63
(lp4244
g56
(g57
g58
NtRp4245
(dp4246
g61
(dp4247
g69
I1
ssg70
g4241
sg63
(lp4248
S'/admin/default/edit/init/models/menu.py'
p4249
asbasbasbasbasbasbasbag56
(g72
g58
NtRp4250
(dp4251
g61
(dp4252
sg70
g3922
sg63
(lp4253
g56
(g77
g58
NtRp4254
(dp4255
g61
(dp4256
sg70
g4250
sg63
(lp4257
g56
(g57
g58
NtRp4258
(dp4259
g61
(dp4260
g69
I2
ssg70
g4254
sg63
(lp4261
g56
(g65
g58
NtRp4262
(dp4263
g61
(dp4264
g69
I1
ssg70
Nsg63
(lp4265
g56
(g72
g58
NtRp4266
(dp4267
g61
(dp4268
sg70
g4262
sg63
(lp4269
g56
(g77
g58
NtRp4270
(dp4271
g61
(dp4272
sg70
g4266
sg63
(lp4273
g56
(g57
g58
NtRp4274
(dp4275
g61
(dp4276
g69
I1
ssg70
g4270
sg63
(lp4277
g3813
(S't\x08\x00\x00\x00Database'
tRp4278
asbasbasbag56
(g72
g58
NtRp4279
(dp4280
g61
(dp4281
sg70
g4262
sg63
(lp4282
g56
(g77
g58
NtRp4283
(dp4284
g61
(dp4285
sg70
g4279
sg63
(lp4286
g56
(g57
g58
NtRp4287
(dp4288
g61
(dp4289
g69
I1
ssg70
g4283
sg63
(lp4290
I00
asbasbasbag56
(g72
g58
NtRp4291
(dp4292
g61
(dp4293
sg70
g4262
sg63
(lp4294
g56
(g77
g58
NtRp4295
(dp4296
g61
(dp4297
sg70
g4291
sg63
(lp4298
g56
(g57
g58
NtRp4299
(dp4300
g61
(dp4301
g69
I1
ssg70
g4295
sg63
(lp4302
S'/init/appadmin/index'
p4303
asbasbasbasbasbasbasbag56
(g72
g58
NtRp4304
(dp4305
g61
(dp4306
sg70
g3922
sg63
(lp4307
g56
(g77
g58
NtRp4308
(dp4309
g61
(dp4310
sg70
g4304
sg63
(lp4311
g56
(g57
g58
NtRp4312
(dp4313
g61
(dp4314
g69
I2
ssg70
g4308
sg63
(lp4315
g56
(g65
g58
NtRp4316
(dp4317
g61
(dp4318
g69
I1
ssg70
Nsg63
(lp4319
g56
(g72
g58
NtRp4320
(dp4321
g61
(dp4322
sg70
g4316
sg63
(lp4323
g56
(g77
g58
NtRp4324
(dp4325
g61
(dp4326
sg70
g4320
sg63
(lp4327
g56
(g57
g58
NtRp4328
(dp4329
g61
(dp4330
g69
I1
ssg70
g4324
sg63
(lp4331
g3813
(S't\x06\x00\x00\x00Errors'
tRp4332
asbasbasbag56
(g72
g58
NtRp4333
(dp4334
g61
(dp4335
sg70
g4316
sg63
(lp4336
g56
(g77
g58
NtRp4337
(dp4338
g61
(dp4339
sg70
g4333
sg63
(lp4340
g56
(g57
g58
NtRp4341
(dp4342
g61
(dp4343
g69
I1
ssg70
g4337
sg63
(lp4344
I00
asbasbasbag56
(g72
g58
NtRp4345
(dp4346
g61
(dp4347
sg70
g4316
sg63
(lp4348
g56
(g77
g58
NtRp4349
(dp4350
g61
(dp4351
sg70
g4345
sg63
(lp4352
g56
(g57
g58
NtRp4353
(dp4354
g61
(dp4355
g69
I1
ssg70
g4349
sg63
(lp4356
S'/admin/default/errors/init'
p4357
asbasbasbasbasbasbasbag56
(g72
g58
NtRp4358
(dp4359
g61
(dp4360
sg70
g3922
sg63
(lp4361
g56
(g77
g58
NtRp4362
(dp4363
g61
(dp4364
sg70
g4358
sg63
(lp4365
g56
(g57
g58
NtRp4366
(dp4367
g61
(dp4368
g69
I2
ssg70
g4362
sg63
(lp4369
g56
(g65
g58
NtRp4370
(dp4371
g61
(dp4372
g69
I1
ssg70
Nsg63
(lp4373
g56
(g72
g58
NtRp4374
(dp4375
g61
(dp4376
sg70
g4370
sg63
(lp4377
g56
(g77
g58
NtRp4378
(dp4379
g61
(dp4380
sg70
g4374
sg63
(lp4381
g56
(g57
g58
NtRp4382
(dp4383
g61
(dp4384
g69
I1
ssg70
g4378
sg63
(lp4385
g3813
(S't\x05\x00\x00\x00About'
tRp4386
asbasbasbag56
(g72
g58
NtRp4387
(dp4388
g61
(dp4389
sg70
g4370
sg63
(lp4390
g56
(g77
g58
NtRp4391
(dp4392
g61
(dp4393
sg70
g4387
sg63
(lp4394
g56
(g57
g58
NtRp4395
(dp4396
g61
(dp4397
g69
I1
ssg70
g4391
sg63
(lp4398
I00
asbasbasbag56
(g72
g58
NtRp4399
(dp4400
g61
(dp4401
sg70
g4370
sg63
(lp4402
g56
(g77
g58
NtRp4403
(dp4404
g61
(dp4405
sg70
g4399
sg63
(lp4406
g56
(g57
g58
NtRp4407
(dp4408
g61
(dp4409
g69
I1
ssg70
g4403
sg63
(lp4410
S'/admin/default/about/init'
p4411
asbasbasbasbasbasbasbasbasbasbasbasbasbasbasbag56
(g72
g58
NtRp4412
(dp4413
g61
(dp4414
sg70
g3781
sg63
(lp4415
g56
(g77
g58
NtRp4416
(dp4417
g61
(dp4418
sg70
g4412
sg63
(lp4419
g56
(g57
g58
NtRp4420
(dp4421
g61
(dp4422
g69
I4
ssg70
g4416
sg63
(lp4423
g56
(g65
g58
NtRp4424
(dp4425
g61
(dp4426
g69
I3
ssg70
Nsg63
(lp4427
g56
(g72
g58
NtRp4428
(dp4429
g61
(dp4430
sg70
g4424
sg63
(lp4431
g56
(g77
g58
NtRp4432
(dp4433
g61
(dp4434
sg70
g4428
sg63
(lp4435
g56
(g57
g58
NtRp4436
(dp4437
g61
(dp4438
g69
I3
ssg70
g4432
sg63
(lp4439
g3813
(S't\t\x00\x00\x00Resources'
tRp4440
asbasbasbag56
(g72
g58
NtRp4441
(dp4442
g61
(dp4443
sg70
g4424
sg63
(lp4444
g56
(g77
g58
NtRp4445
(dp4446
g61
(dp4447
sg70
g4441
sg63
(lp4448
g56
(g57
g58
NtRp4449
(dp4450
g61
(dp4451
g69
I3
ssg70
g4445
sg63
(lp4452
g99
asbasbasbag56
(g72
g58
NtRp4453
(dp4454
g61
(dp4455
sg70
g4424
sg63
(lp4456
g56
(g77
g58
NtRp4457
(dp4458
g61
(dp4459
sg70
g4453
sg63
(lp4460
g56
(g57
g58
NtRp4461
(dp4462
g61
(dp4463
g69
I3
ssg70
g4457
sg63
(lp4464
S'None'
p4465
asbasbasbag56
(g72
g58
NtRp4466
(dp4467
g61
(dp4468
sg70
g4424
sg63
(lp4469
g56
(g77
g58
NtRp4470
(dp4471
g61
(dp4472
sg70
g4466
sg63
(lp4473
g56
(g57
g58
NtRp4474
(dp4475
g61
(dp4476
g69
I3
ssg70
g4470
sg63
(lp4477
g56
(g65
g58
NtRp4478
(dp4479
g61
(dp4480
g69
I2
ssg70
Nsg63
(lp4481
g56
(g72
g58
NtRp4482
(dp4483
g61
(dp4484
sg70
g4478
sg63
(lp4485
g56
(g77
g58
NtRp4486
(dp4487
g61
(dp4488
sg70
g4482
sg63
(lp4489
g56
(g57
g58
NtRp4490
(dp4491
g61
(dp4492
g69
I2
ssg70
g4486
sg63
(lp4493
g56
(g65
g58
NtRp4494
(dp4495
g61
(dp4496
g69
I1
ssg70
Nsg63
(lp4497
g56
(g72
g58
NtRp4498
(dp4499
g61
(dp4500
sg70
g4494
sg63
(lp4501
g56
(g77
g58
NtRp4502
(dp4503
g61
(dp4504
sg70
g4498
sg63
(lp4505
g56
(g57
g58
NtRp4506
(dp4507
g61
(dp4508
g69
I1
ssg70
g4502
sg63
(lp4509
g3813
(S't\r\x00\x00\x00Documentation'
tRp4510
asbasbasbag56
(g72
g58
NtRp4511
(dp4512
g61
(dp4513
sg70
g4494
sg63
(lp4514
g56
(g77
g58
NtRp4515
(dp4516
g61
(dp4517
sg70
g4511
sg63
(lp4518
g56
(g57
g58
NtRp4519
(dp4520
g61
(dp4521
g69
I1
ssg70
g4515
sg63
(lp4522
I00
asbasbasbag56
(g72
g58
NtRp4523
(dp4524
g61
(dp4525
sg70
g4494
sg63
(lp4526
g56
(g77
g58
NtRp4527
(dp4528
g61
(dp4529
sg70
g4523
sg63
(lp4530
g56
(g57
g58
NtRp4531
(dp4532
g61
(dp4533
g69
I1
ssg70
g4527
sg63
(lp4534
S'http://www.web2py.com/book'
p4535
asbasbasbag56
(g72
g58
NtRp4536
(dp4537
g61
(dp4538
sg70
g4494
sg63
(lp4539
g56
(g77
g58
NtRp4540
(dp4541
g61
(dp4542
sg70
g4536
sg63
(lp4543
g56
(g57
g58
NtRp4544
(dp4545
g61
(dp4546
g69
I1
ssg70
g4540
sg63
(lp4547
(lp4548
(g3813
(S't\x07\x00\x00\x00Preface'
tRp4549
I00
S'http://www.web2py.com/book/default/chapter/00'
p4550
tp4551
a(g3813
(S't\x0c\x00\x00\x00Introduction'
tRp4552
I00
S'http://www.web2py.com/book/default/chapter/01'
p4553
tp4554
a(g3813
(S't\x06\x00\x00\x00Python'
tRp4555
I00
S'http://www.web2py.com/book/default/chapter/02'
p4556
tp4557
a(g3813
(S't\x08\x00\x00\x00Overview'
tRp4558
I00
S'http://www.web2py.com/book/default/chapter/03'
p4559
tp4560
a(g3813
(S's\x08\x00\x00\x00The Core'
tRp4561
I00
S'http://www.web2py.com/book/default/chapter/04'
p4562
tp4563
a(g3813
(S's\t\x00\x00\x00The Views'
tRp4564
I00
S'http://www.web2py.com/book/default/chapter/05'
p4565
tp4566
a(g3813
(S't\x08\x00\x00\x00Database'
tRp4567
I00
S'http://www.web2py.com/book/default/chapter/06'
p4568
tp4569
a(g3813
(S's\x14\x00\x00\x00Forms and Validators'
tRp4570
I00
S'http://www.web2py.com/book/default/chapter/07'
p4571
tp4572
a(g3813
(S's\x0e\x00\x00\x00Access Control'
tRp4573
I00
S'http://www.web2py.com/book/default/chapter/08'
p4574
tp4575
a(g3813
(S't\x08\x00\x00\x00Services'
tRp4576
I00
S'http://www.web2py.com/book/default/chapter/09'
p4577
tp4578
a(g3813
(S's\x0c\x00\x00\x00Ajax Recipes'
tRp4579
I00
S'http://www.web2py.com/book/default/chapter/10'
p4580
tp4581
a(g3813
(S's\x12\x00\x00\x00Deployment Recipes'
tRp4582
I00
S'http://www.web2py.com/book/default/chapter/11'
p4583
tp4584
a(g3813
(S's\r\x00\x00\x00Other Recipes'
tRp4585
I00
S'http://www.web2py.com/book/default/chapter/12'
p4586
tp4587
a(g3813
(S's\r\x00\x00\x00Buy this book'
tRp4588
I00
S'http://stores.lulu.com/web2py'
p4589
tp4590
aasbasbasbasbasbasbasbag56
(g72
g58
NtRp4591
(dp4592
g61
(dp4593
sg70
g4478
sg63
(lp4594
g56
(g77
g58
NtRp4595
(dp4596
g61
(dp4597
sg70
g4591
sg63
(lp4598
g56
(g57
g58
NtRp4599
(dp4600
g61
(dp4601
g69
I2
ssg70
g4595
sg63
(lp4602
g56
(g65
g58
NtRp4603
(dp4604
g61
(dp4605
g69
I1
ssg70
Nsg63
(lp4606
g56
(g72
g58
NtRp4607
(dp4608
g61
(dp4609
sg70
g4603
sg63
(lp4610
g56
(g77
g58
NtRp4611
(dp4612
g61
(dp4613
sg70
g4607
sg63
(lp4614
g56
(g57
g58
NtRp4615
(dp4616
g61
(dp4617
g69
I1
ssg70
g4611
sg63
(lp4618
g3813
(S't\t\x00\x00\x00Community'
tRp4619
asbasbasbag56
(g72
g58
NtRp4620
(dp4621
g61
(dp4622
sg70
g4603
sg63
(lp4623
g56
(g77
g58
NtRp4624
(dp4625
g61
(dp4626
sg70
g4620
sg63
(lp4627
g56
(g57
g58
NtRp4628
(dp4629
g61
(dp4630
g69
I1
ssg70
g4624
sg63
(lp4631
I00
asbasbasbag56
(g72
g58
NtRp4632
(dp4633
g61
(dp4634
sg70
g4603
sg63
(lp4635
g56
(g77
g58
NtRp4636
(dp4637
g61
(dp4638
sg70
g4632
sg63
(lp4639
g56
(g57
g58
NtRp4640
(dp4641
g61
(dp4642
g69
I1
ssg70
g4636
sg63
(lp4643
Nasbasbasbag56
(g72
g58
NtRp4644
(dp4645
g61
(dp4646
sg70
g4603
sg63
(lp4647
g56
(g77
g58
NtRp4648
(dp4649
g61
(dp4650
sg70
g4644
sg63
(lp4651
g56
(g57
g58
NtRp4652
(dp4653
g61
(dp4654
g69
I1
ssg70
g4648
sg63
(lp4655
(lp4656
(g3813
(S't\x06\x00\x00\x00Groups'
tRp4657
I00
S'http://www.web2py.com/examples/default/usergroups'
p4658
tp4659
a(g3813
(S't\x07\x00\x00\x00Twitter'
tRp4660
I00
S'http://twitter.com/web2py'
p4661
tp4662
a(g3813
(S's\t\x00\x00\x00Live chat'
tRp4663
I00
S'http://mibbit.com/?channel=%23web2py&server=irc.mibbit.net'
p4664
tp4665
a(g3813
(S's\n\x00\x00\x00User Voice'
tRp4666
I00
S'http://web2py.uservoice.com/'
p4667
tp4668
aasbasbasbasbasbasbasbag56
(g72
g58
NtRp4669
(dp4670
g61
(dp4671
sg70
g4478
sg63
(lp4672
g56
(g77
g58
NtRp4673
(dp4674
g61
(dp4675
sg70
g4669
sg63
(lp4676
g56
(g57
g58
NtRp4677
(dp4678
g61
(dp4679
g69
I2
ssg70
g4673
sg63
(lp4680
g56
(g65
g58
NtRp4681
(dp4682
g61
(dp4683
g69
I1
ssg70
Nsg63
(lp4684
g56
(g72
g58
NtRp4685
(dp4686
g61
(dp4687
sg70
g4681
sg63
(lp4688
g56
(g77
g58
NtRp4689
(dp4690
g61
(dp4691
sg70
g4685
sg63
(lp4692
g56
(g57
g58
NtRp4693
(dp4694
g61
(dp4695
g69
I1
ssg70
g4689
sg63
(lp4696
g3813
(S't\x06\x00\x00\x00Web2py'
tRp4697
asbasbasbag56
(g72
g58
NtRp4698
(dp4699
g61
(dp4700
sg70
g4681
sg63
(lp4701
g56
(g77
g58
NtRp4702
(dp4703
g61
(dp4704
sg70
g4698
sg63
(lp4705
g56
(g57
g58
NtRp4706
(dp4707
g61
(dp4708
g69
I1
ssg70
g4702
sg63
(lp4709
I00
asbasbasbag56
(g72
g58
NtRp4710
(dp4711
g61
(dp4712
sg70
g4681
sg63
(lp4713
g56
(g77
g58
NtRp4714
(dp4715
g61
(dp4716
sg70
g4710
sg63
(lp4717
g56
(g57
g58
NtRp4718
(dp4719
g61
(dp4720
g69
I1
ssg70
g4714
sg63
(lp4721
S'http://www.web2py.com'
p4722
asbasbasbag56
(g72
g58
NtRp4723
(dp4724
g61
(dp4725
sg70
g4681
sg63
(lp4726
g56
(g77
g58
NtRp4727
(dp4728
g61
(dp4729
sg70
g4723
sg63
(lp4730
g56
(g57
g58
NtRp4731
(dp4732
g61
(dp4733
g69
I1
ssg70
g4727
sg63
(lp4734
(lp4735
(g3813
(S't\x08\x00\x00\x00Download'
tRp4736
I00
S'http://www.web2py.com/examples/default/download'
p4737
tp4738
a(g3813
(S't\x07\x00\x00\x00Support'
tRp4739
I00
S'http://www.web2py.com/examples/default/support'
p4740
tp4741
a(g3813
(S's\x0e\x00\x00\x00Quick Examples'
tRp4742
I00
S'http://web2py.com/examples/default/examples'
p4743
tp4744
a(g3813
(S't\x03\x00\x00\x00FAQ'
tRp4745
I00
S'http://web2py.com/AlterEgo'
p4746
tp4747
a(g3813
(S's\x11\x00\x00\x00Free Applications'
tRp4748
I00
S'http://web2py.com/appliances'
p4749
tp4750
a(g3813
(S't\x07\x00\x00\x00Plugins'
tRp4751
I00
S'http://web2py.com/plugins'
p4752
tp4753
a(g3813
(S't\x07\x00\x00\x00Recipes'
tRp4754
I00
S'http://web2pyslices.com/'
p4755
tp4756
a(g3813
(S't\x04\x00\x00\x00Demo'
tRp4757
I00
S'http://web2py.com/demo_admin'
p4758
tp4759
a(g3813
(S't\x08\x00\x00\x00Semantic'
tRp4760
I00
S'http://web2py.com/semantic'
p4761
tp4762
a(g3813
(S't\x07\x00\x00\x00Layouts'
tRp4763
I00
S'http://web2py.com/layouts'
p4764
tp4765
a(g3813
(S't\x06\x00\x00\x00Videos'
tRp4766
I00
S'http://www.web2py.com/examples/default/videos/'
p4767
tp4768
aasbasbasbasbasbasbasbasbasbasbasbasbasbasbasbasbasbasbasbag56
(g72
g58
NtRp4769
(dp4770
g61
(dp4771
sg70
g3308
sg63
(lp4772
g56
(g77
g58
NtRp4773
(dp4774
g61
(dp4775
g81
g82
ssg70
g4769
sg63
(lp4776
S'meta'
p4777
asbag56
(g77
g58
NtRp4778
(dp4779
g61
(dp4780
g88
g89
ssg70
g4769
sg63
(lp4781
S':'
asbag56
(g77
g58
NtRp4782
(dp4783
g61
(dp4784
sg70
g4769
sg63
(lp4785
g56
(g57
g58
NtRp4786
(dp4787
g61
(dp4788
g69
I5
ssg70
g4782
sg63
(lp4789
g56
(g65
g58
NtRp4790
(dp4791
g61
(dp4792
g69
I4
ssg70
Nsg63
(lp4793
g56
(g72
g58
NtRp4794
(dp4795
g61
(dp4796
sg70
g4790
sg63
(lp4797
g56
(g77
g58
NtRp4798
(dp4799
g61
(dp4800
g81
g82
ssg70
g4794
sg63
(lp4801
S'author'
p4802
asbag56
(g77
g58
NtRp4803
(dp4804
g61
(dp4805
g88
g89
ssg70
g4794
sg63
(lp4806
S':'
asbag56
(g77
g58
NtRp4807
(dp4808
g61
(dp4809
sg70
g4794
sg63
(lp4810
g56
(g57
g58
NtRp4811
(dp4812
g61
(dp4813
g69
I4
ssg70
g4807
sg63
(lp4814
S'Adrian Edwards'
p4815
asbasbasbag56
(g72
g58
NtRp4816
(dp4817
g61
(dp4818
sg70
g4790
sg63
(lp4819
g56
(g77
g58
NtRp4820
(dp4821
g61
(dp4822
g81
g82
ssg70
g4816
sg63
(lp4823
S'copyright'
p4824
asbag56
(g77
g58
NtRp4825
(dp4826
g61
(dp4827
g88
g89
ssg70
g4816
sg63
(lp4828
S':'
asbag56
(g77
g58
NtRp4829
(dp4830
g61
(dp4831
sg70
g4816
sg63
(lp4832
g56
(g57
g58
NtRp4833
(dp4834
g61
(dp4835
g69
I4
ssg70
g4829
sg63
(lp4836
S'Copyright 2011'
p4837
asbasbasbag56
(g72
g58
NtRp4838
(dp4839
g61
(dp4840
sg70
g4790
sg63
(lp4841
g56
(g77
g58
NtRp4842
(dp4843
g61
(dp4844
g81
g82
ssg70
g4838
sg63
(lp4845
S'description'
p4846
asbag56
(g77
g58
NtRp4847
(dp4848
g61
(dp4849
g88
g89
ssg70
g4838
sg63
(lp4850
S':'
asbag56
(g77
g58
NtRp4851
(dp4852
g61
(dp4853
sg70
g4838
sg63
(lp4854
g56
(g57
g58
NtRp4855
(dp4856
g61
(dp4857
g69
I4
ssg70
g4851
sg63
(lp4858
S'Fitness Challenge'
p4859
asbasbasbag56
(g72
g58
NtRp4860
(dp4861
g61
(dp4862
sg70
g4790
sg63
(lp4863
g56
(g77
g58
NtRp4864
(dp4865
g61
(dp4866
g81
g82
ssg70
g4860
sg63
(lp4867
S'generator'
p4868
asbag56
(g77
g58
NtRp4869
(dp4870
g61
(dp4871
g88
g89
ssg70
g4860
sg63
(lp4872
S':'
asbag56
(g77
g58
NtRp4873
(dp4874
g61
(dp4875
sg70
g4860
sg63
(lp4876
g56
(g57
g58
NtRp4877
(dp4878
g61
(dp4879
g69
I4
ssg70
g4873
sg63
(lp4880
S'Web2py Web Framework'
p4881
asbasbasbag56
(g72
g58
NtRp4882
(dp4883
g61
(dp4884
sg70
g4790
sg63
(lp4885
g56
(g77
g58
NtRp4886
(dp4887
g61
(dp4888
g81
g82
ssg70
g4882
sg63
(lp4889
S'keywords'
p4890
asbag56
(g77
g58
NtRp4891
(dp4892
g61
(dp4893
g88
g89
ssg70
g4882
sg63
(lp4894
S':'
asbag56
(g77
g58
NtRp4895
(dp4896
g61
(dp4897
sg70
g4882
sg63
(lp4898
g56
(g57
g58
NtRp4899
(dp4900
g61
(dp4901
g69
I4
ssg70
g4895
sg63
(lp4902
S'web2py, python, framework'
p4903
asbasbasbasbasbasbasbag56
(g72
g58
NtRp4904
(dp4905
g61
(dp4906
sg70
g3308
sg63
(lp4907
g56
(g77
g58
NtRp4908
(dp4909
g61
(dp4910
g81
g82
ssg70
g4904
sg63
(lp4911
S'postprocessing'
p4912
asbag56
(g77
g58
NtRp4913
(dp4914
g61
(dp4915
g88
g89
ssg70
g4904
sg63
(lp4916
S':'
asbag56
(g77
g58
NtRp4917
(dp4918
g61
(dp4919
sg70
g4904
sg63
(lp4920
g56
(g57
g58
NtRp4921
(dp4922
g61
(dp4923
g69
I5
ssg70
g4917
sg63
(lp4924
g56
(g65
g58
NtRp4925
(dp4926
g61
(dp4927
g69
I4
ssg70
Nsg63
(lp4928
sbasbasbasbag56
(g72
g58
NtRp4929
(dp4930
g61
(dp4931
sg70
g3308
sg63
(lp4932
g56
(g77
g58
NtRp4933
(dp4934
g61
(dp4935
g81
g82
ssg70
g4929
sg63
(lp4936
S'session_file'
p4937
asbag56
(g77
g58
NtRp4938
(dp4939
g61
(dp4940
g88
g89
ssg70
g4929
sg63
(lp4941
S':'
asbag56
(g77
g58
NtRp4942
(dp4943
g61
(dp4944
sg70
g4929
sg63
(lp4945
g56
(g57
g58
NtRp4946
(dp4947
g61
(dp4948
g69
I5
ssg70
g4942
sg63
(lp4949
S"<open file 'P:\\Workbench\\DevEnv\\web2py\\applications\\init\\sessions\\127.0.0.1-2ee686ba-d1d2-46bc-bb75-bfad4d4c0c4c', mode 'rb+' at 0x0A897E38>"
p4950
asbasbasbag56
(g72
g58
NtRp4951
(dp4952
g61
(dp4953
sg70
g3308
sg63
(lp4954
g56
(g77
g58
NtRp4955
(dp4956
g61
(dp4957
g81
g82
ssg70
g4951
sg63
(lp4958
S'session_filename'
p4959
asbag56
(g77
g58
NtRp4960
(dp4961
g61
(dp4962
g88
g89
ssg70
g4951
sg63
(lp4963
S':'
asbag56
(g77
g58
NtRp4964
(dp4965
g61
(dp4966
sg70
g4951
sg63
(lp4967
g56
(g57
g58
NtRp4968
(dp4969
g61
(dp4970
g69
I5
ssg70
g4964
sg63
(lp4971
S'P:\\Workbench\\DevEnv\\web2py\\applications\\init\\sessions\\127.0.0.1-2ee686ba-d1d2-46bc-bb75-bfad4d4c0c4c'
p4972
asbasbasbag56
(g72
g58
NtRp4973
(dp4974
g61
(dp4975
sg70
g3308
sg63
(lp4976
g56
(g77
g58
NtRp4977
(dp4978
g61
(dp4979
g81
g82
ssg70
g4973
sg63
(lp4980
S'session_id'
p4981
asbag56
(g77
g58
NtRp4982
(dp4983
g61
(dp4984
g88
g89
ssg70
g4973
sg63
(lp4985
S':'
asbag56
(g77
g58
NtRp4986
(dp4987
g61
(dp4988
sg70
g4973
sg63
(lp4989
g56
(g57
g58
NtRp4990
(dp4991
g61
(dp4992
g69
I5
ssg70
g4986
sg63
(lp4993
S'127.0.0.1-2ee686ba-d1d2-46bc-bb75-bfad4d4c0c4c'
p4994
asbasbasbag56
(g72
g58
NtRp4995
(dp4996
g61
(dp4997
sg70
g3308
sg63
(lp4998
g56
(g77
g58
NtRp4999
(dp5000
g61
(dp5001
g81
g82
ssg70
g4995
sg63
(lp5002
S'session_id_name'
p5003
asbag56
(g77
g58
NtRp5004
(dp5005
g61
(dp5006
g88
g89
ssg70
g4995
sg63
(lp5007
S':'
asbag56
(g77
g58
NtRp5008
(dp5009
g61
(dp5010
sg70
g4995
sg63
(lp5011
g56
(g57
g58
NtRp5012
(dp5013
g61
(dp5014
g69
I5
ssg70
g5008
sg63
(lp5015
g3365
asbasbasbag56
(g72
g58
NtRp5016
(dp5017
g61
(dp5018
sg70
g3308
sg63
(lp5019
g56
(g77
g58
NtRp5020
(dp5021
g61
(dp5022
g81
g82
ssg70
g5016
sg63
(lp5023
S'session_locked'
p5024
asbag56
(g77
g58
NtRp5025
(dp5026
g61
(dp5027
g88
g89
ssg70
g5016
sg63
(lp5028
S':'
asbag56
(g77
g58
NtRp5029
(dp5030
g61
(dp5031
sg70
g5016
sg63
(lp5032
g56
(g57
g58
NtRp5033
(dp5034
g61
(dp5035
g69
I5
ssg70
g5029
sg63
(lp5036
g1515
asbasbasbag56
(g72
g58
NtRp5037
(dp5038
g61
(dp5039
sg70
g3308
sg63
(lp5040
g56
(g77
g58
NtRp5041
(dp5042
g61
(dp5043
g81
g82
ssg70
g5037
sg63
(lp5044
S'session_new'
p5045
asbag56
(g77
g58
NtRp5046
(dp5047
g61
(dp5048
g88
g89
ssg70
g5037
sg63
(lp5049
S':'
asbag56
(g77
g58
NtRp5050
(dp5051
g61
(dp5052
sg70
g5037
sg63
(lp5053
g56
(g57
g58
NtRp5054
(dp5055
g61
(dp5056
g69
I5
ssg70
g5050
sg63
(lp5057
g99
asbasbasbag56
(g72
g58
NtRp5058
(dp5059
g61
(dp5060
sg70
g3308
sg63
(lp5061
g56
(g77
g58
NtRp5062
(dp5063
g61
(dp5064
g81
g82
ssg70
g5058
sg63
(lp5065
S'status'
p5066
asbag56
(g77
g58
NtRp5067
(dp5068
g61
(dp5069
g88
g89
ssg70
g5058
sg63
(lp5070
S':'
asbag56
(g77
g58
NtRp5071
(dp5072
g61
(dp5073
sg70
g5058
sg63
(lp5074
g56
(g57
g58
NtRp5075
(dp5076
g61
(dp5077
g69
I5
ssg70
g5071
sg63
(lp5078
S'200'
p5079
asbasbasbag56
(g72
g58
NtRp5080
(dp5081
g61
(dp5082
sg70
g3308
sg63
(lp5083
g56
(g77
g58
NtRp5084
(dp5085
g61
(dp5086
g81
g82
ssg70
g5080
sg63
(lp5087
S'subtitle'
p5088
asbag56
(g77
g58
NtRp5089
(dp5090
g61
(dp5091
g88
g89
ssg70
g5080
sg63
(lp5092
S':'
asbag56
(g77
g58
NtRp5093
(dp5094
g61
(dp5095
sg70
g5080
sg63
(lp5096
g56
(g57
g58
NtRp5097
(dp5098
g61
(dp5099
g69
I5
ssg70
g5093
sg63
(lp5100
g3813
(S's\r\x00\x00\x00customize me!'
tRp5101
asbasbasbag56
(g72
g58
NtRp5102
(dp5103
g61
(dp5104
sg70
g3308
sg63
(lp5105
g56
(g77
g58
NtRp5106
(dp5107
g61
(dp5108
g81
g82
ssg70
g5102
sg63
(lp5109
S'title'
p5110
asbag56
(g77
g58
NtRp5111
(dp5112
g61
(dp5113
g88
g89
ssg70
g5102
sg63
(lp5114
S':'
asbag56
(g77
g58
NtRp5115
(dp5116
g61
(dp5117
sg70
g5102
sg63
(lp5118
g56
(g57
g58
NtRp5119
(dp5120
g61
(dp5121
g69
I5
ssg70
g5115
sg63
(lp5122
g121
asbasbasbag56
(g72
g58
NtRp5123
(dp5124
g61
(dp5125
sg70
g3308
sg63
(lp5126
g56
(g77
g58
NtRp5127
(dp5128
g61
(dp5129
g81
g82
ssg70
g5123
sg63
(lp5130
g2159
asbag56
(g77
g58
NtRp5131
(dp5132
g61
(dp5133
g88
g89
ssg70
g5123
sg63
(lp5134
S':'
asbag56
(g77
g58
NtRp5135
(dp5136
g61
(dp5137
sg70
g5123
sg63
(lp5138
g56
(g57
g58
NtRp5139
(dp5140
g61
(dp5141
g69
I5
ssg70
g5135
sg63
(lp5142
g2172
asbasbasbag56
(g72
g58
NtRp5143
(dp5144
g61
(dp5145
sg70
g3308
sg63
(lp5146
g56
(g77
g58
NtRp5147
(dp5148
g61
(dp5149
g81
g82
ssg70
g5143
sg63
(lp5150
S'view'
p5151
asbag56
(g77
g58
NtRp5152
(dp5153
g61
(dp5154
g88
g89
ssg70
g5143
sg63
(lp5155
S':'
asbag56
(g77
g58
NtRp5156
(dp5157
g61
(dp5158
sg70
g5143
sg63
(lp5159
g56
(g57
g58
NtRp5160
(dp5161
g61
(dp5162
g69
I5
ssg70
g5156
sg63
(lp5163
S'default/home.html'
p5164
asbasbasbasbasbsS'locals'
p5165
(dp5166
S'Service'
p5167
S"<class 'gluon.tools.Service'>"
p5168
sS'OBJECT'
p5169
S"<class 'gluon.html.OBJECT'>"
p5170
sS'SQLDB'
p5171
S"<class 'gluon.dal.DAL'>"
p5172
sg2914
S"<Storage {'_formkey[register]': 'e3d29555-c6c0-4...sword]': 'b6380fe5-a554-4d93-963b-0140ab3a4a39'}>"
p5173
sS'LINK'
p5174
S"<class 'gluon.html.LINK'>"
p5175
sS'BR'
p5176
S"<class 'gluon.html.BR'>"
p5177
sS'local_import'
p5178
S'<function <lambda>>'
p5179
sS'OPTGROUP'
p5180
S"<class 'gluon.html.OPTGROUP'>"
p5181
sS'PRE'
p5182
S"<class 'gluon.html.PRE'>"
p5183
sS'IS_INT_IN_RANGE'
p5184
S"<class 'gluon.validators.IS_INT_IN_RANGE'>"
p5185
sS'IS_LOWER'
p5186
S"<class 'gluon.validators.IS_LOWER'>"
p5187
sS'IS_STRONG'
p5188
S"<class 'gluon.validators.IS_STRONG'>"
p5189
sS'cache'
p5190
S'<gluon.cache.Cache object>'
p5191
sS'IS_IN_DB'
p5192
S"<class 'gluon.validators.IS_IN_DB'>"
p5193
sS'TAG'
p5194
S'<gluon.html.__TAG__ object>'
p5195
sS'SQLField'
p5196
S"<class 'gluon.dal.Field'>"
p5197
sS'mail'
p5198
S'<gluon.tools.Mail object>'
p5199
sS'BODY'
p5200
S"<class 'gluon.html.BODY'>"
p5201
sS'IS_DATE_IN_RANGE'
p5202
S"<class 'gluon.validators.IS_DATE_IN_RANGE'>"
p5203
sS'TH'
p5204
S"<class 'gluon.html.TH'>"
p5205
sS'URL'
p5206
S'<function URL>'
p5207
sS'__file__'
p5208
S"r'P:\\Workbench\\DevEnv\\web2py\\applications\\init\\views\\default/home.html'"
p5209
sS'db'
p5210
S"<DAL {'auth_event': <Table {'origin': <gluon.dal...'_id': <gluon.dal.Field object at 0x0A720F10>}>}>"
p5211
sS'auth'
p5212
S'<gluon.tools.Auth object>'
p5213
sS'P'
S"<class 'gluon.html.P'>"
p5214
sS'TFOOT'
p5215
S"<class 'gluon.html.TFOOT'>"
p5216
sS'XHTML'
p5217
S"<class 'gluon.html.XHTML'>"
p5218
sS'ON'
p5219
g1515
sS'OL'
p5220
S"<class 'gluon.html.OL'>"
p5221
sS'TEXTAREA'
p5222
S"<class 'gluon.html.TEXTAREA'>"
p5223
sS'MENU'
p5224
S"<class 'gluon.html.MENU'>"
p5225
sS'LOAD'
p5226
S'<gluon.compileapp.LoadFactory object>'
p5227
sS'CODE'
p5228
S"<class 'gluon.html.CODE'>"
p5229
sS'HTTP'
p5230
S"<class 'gluon.http.HTTP'>"
p5231
sS'HR'
p5232
S"<class 'gluon.html.HR'>"
p5233
sS'IS_DATETIME'
p5234
S"<class 'gluon.validators.IS_DATETIME'>"
p5235
sS'HEAD'
p5236
S"<class 'gluon.html.HEAD'>"
p5237
sS'LABEL'
p5238
S"<class 'gluon.html.LABEL'>"
p5239
sS'CLEANUP'
p5240
S"<class 'gluon.validators.CLEANUP'>"
p5241
sS'plugins'
p5242
S'<gluon.tools.PluginManager object>'
p5243
sS'SELECT'
p5244
S"<class 'gluon.html.SELECT'>"
p5245
sS'use_janrain'
p5246
S'<function use_janrain>'
p5247
sS'CENTER'
p5248
S"<class 'gluon.html.CENTER'>"
p5249
sS'prettydate'
p5250
S'<function prettydate>'
p5251
sS'Crud'
p5252
S"<class 'gluon.tools.Crud'>"
p5253
sS'Auth'
p5254
S"<class 'gluon.tools.Auth'>"
p5255
sS'__builtins__'
p5256
S"{'ArithmeticError': <type 'exceptions.ArithmeticError'>, 'AssertionError': <type 'exceptions.AssertionError'>, 'AttributeError': <type 'exceptions.AttributeError'>, 'BaseException': <type 'exceptions.BaseException'>, 'BufferError': <type 'exceptions.BufferError'>, 'BytesWarning': <type 'exceptions.BytesWarning'>, 'DeprecationWarning': <type 'exceptions.DeprecationWarning'>, 'EOFError': <type 'exceptions.EOFError'>, 'Ellipsis': Ellipsis, 'EnvironmentError': <type 'exceptions.EnvironmentError'>, ...}"
p5257
sS'HTML'
p5258
S"<class 'gluon.html.HTML'>"
p5259
sS'SQLFORM'
p5260
S"<class 'gluon.sqlhtml.SQLFORM'>"
p5261
sS'EM'
p5262
S"<class 'gluon.html.EM'>"
p5263
sS'redirect'
p5264
S'<function redirect>'
p5265
sS'FIELDSET'
p5266
S"<class 'gluon.html.FIELDSET'>"
p5267
sS'IS_EQUAL_TO'
p5268
S"<class 'gluon.validators.IS_EQUAL_TO'>"
p5269
sS'embed64'
p5270
S'<function embed64>'
p5271
sS'IS_LIST_OF'
p5272
S"<class 'gluon.validators.IS_LIST_OF'>"
p5273
sS'INPUT'
p5274
S"<class 'gluon.html.INPUT'>"
p5275
sS'EMBED'
p5276
S"<class 'gluon.html.EMBED'>"
p5277
sS'_'
S'<function _>'
p5278
sS'FORM'
p5279
S"<class 'gluon.html.FORM'>"
p5280
sS'H2'
p5281
S"<class 'gluon.html.H2'>"
p5282
sS'H3'
p5283
S"<class 'gluon.html.H3'>"
p5284
sS'BUTTON'
p5285
S"<class 'gluon.html.BUTTON'>"
p5286
sS'H1'
p5287
S"<class 'gluon.html.H1'>"
p5288
sS'H6'
p5289
S"<class 'gluon.html.H6'>"
p5290
sS'H4'
p5291
S"<class 'gluon.html.H4'>"
p5292
sS'H5'
p5293
S"<class 'gluon.html.H5'>"
p5294
sS'UL'
p5295
S"<class 'gluon.html.UL'>"
p5296
sS'IS_UPPER'
p5297
S"<class 'gluon.validators.IS_UPPER'>"
p5298
sS'xmlescape'
p5299
S'<function xmlescape>'
p5300
sS'IS_TIME'
p5301
S"<class 'gluon.validators.IS_TIME'>"
p5302
sS'OPTION'
p5303
S"<class 'gluon.html.OPTION'>"
p5304
sS'TITLE'
p5305
S"<class 'gluon.html.TITLE'>"
p5306
sS'CRYPT'
p5307
S"<class 'gluon.validators.CRYPT'>"
p5308
sS'IS_EMPTY_OR'
p5309
S"<class 'gluon.validators.IS_EMPTY_OR'>"
p5310
sS'MARKMIN'
p5311
S"<class 'gluon.html.MARKMIN'>"
p5312
sS'COL'
p5313
S"<class 'gluon.html.COL'>"
p5314
sS'service'
p5315
S'<gluon.tools.Service object>'
p5316
sS'SCRIPT'
p5317
S"<class 'gluon.html.SCRIPT'>"
p5318
sS'TABLE'
p5319
S"<class 'gluon.html.TABLE'>"
p5320
sS'IS_IPV4'
p5321
S"<class 'gluon.validators.IS_IPV4'>"
p5322
sS'IS_LENGTH'
p5323
S"<class 'gluon.validators.IS_LENGTH'>"
p5324
sS'XML'
p5325
S"<class 'gluon.html.XML'>"
p5326
sS'B'
S"<class 'gluon.html.B'>"
p5327
sS'IMG'
p5328
S"<class 'gluon.html.IMG'>"
p5329
sS'SQLTABLE'
p5330
S"<class 'gluon.sqlhtml.SQLTABLE'>"
p5331
sS'IS_MATCH'
p5332
S"<class 'gluon.validators.IS_MATCH'>"
p5333
sS'IS_ALPHANUMERIC'
p5334
S"<class 'gluon.validators.IS_ALPHANUMERIC'>"
p5335
sS'SPAN'
p5336
S"<class 'gluon.html.SPAN'>"
p5337
sS'IS_SLUG'
p5338
S"<class 'gluon.validators.IS_SLUG'>"
p5339
sS'BEAUTIFY'
p5340
S"<class 'gluon.html.BEAUTIFY'>"
p5341
sS'META'
p5342
S"<class 'gluon.html.META'>"
p5343
sS'IS_DATE'
p5344
S"<class 'gluon.validators.IS_DATE'>"
p5345
sS'IS_EMAIL'
p5346
S"<class 'gluon.validators.IS_EMAIL'>"
p5347
sS'IS_NOT_EMPTY'
p5348
S"<class 'gluon.validators.IS_NOT_EMPTY'>"
p5349
sS'IS_FLOAT_IN_RANGE'
p5350
S"<class 'gluon.validators.IS_FLOAT_IN_RANGE'>"
p5351
sS'TBODY'
p5352
S"<class 'gluon.html.TBODY'>"
p5353
sS'CAT'
p5354
S"<class 'gluon.html.CAT'>"
p5355
sS'Field'
p5356
S"<class 'gluon.dal.Field'>"
p5357
sS'DIV'
p5358
S"<class 'gluon.html.DIV'>"
p5359
sS'LEGEND'
p5360
S"<class 'gluon.html.LEGEND'>"
p5361
sS'COLGROUP'
p5362
S"<class 'gluon.html.COLGROUP'>"
p5363
sS'DAL'
p5364
S"<class 'gluon.dal.DAL'>"
p5365
sS'TT'
p5366
S"<class 'gluon.html.TT'>"
p5367
sS'TR'
p5368
S"<class 'gluon.html.TR'>"
p5369
sS'LI'
p5370
S"<class 'gluon.html.LI'>"
p5371
sS'IFRAME'
p5372
S"<class 'gluon.html.IFRAME'>"
p5373
sS'TD'
p5374
S"<class 'gluon.html.TD'>"
p5375
sS'PluginManager'
p5376
S"<class 'gluon.tools.PluginManager'>"
p5377
sS'IS_URL'
p5378
S"<class 'gluon.validators.IS_URL'>"
p5379
sS'A'
S"<class 'gluon.html.A'>"
p5380
sS'STYLE'
p5381
S"<class 'gluon.html.STYLE'>"
p5382
sS'IS_DATETIME_IN_RANGE'
p5383
S"<class 'gluon.validators.IS_DATETIME_IN_RANGE'>"
p5384
sS'IS_IMAGE'
p5385
S"<class 'gluon.validators.IS_IMAGE'>"
p5386
sS'I'
S"<class 'gluon.html.I'>"
p5387
sS'crud'
p5388
S'<gluon.tools.Crud object>'
p5389
sS'IS_NOT_IN_DB'
p5390
S"<class 'gluon.validators.IS_NOT_IN_DB'>"
p5391
sg3303
S"<Storage {'body': <cStringIO.StringO object at 0...da> at 0x094159F0>, 'view': 'default/home.html'}>"
p5392
sS'THEAD'
p5393
S"<class 'gluon.html.THEAD'>"
p5394
sS'IS_NULL_OR'
p5395
S"<class 'gluon.validators.IS_EMPTY_OR'>"
p5396
sg55
S"<Storage {'body': <cStringIO.StringO object at 0..._vars': <Storage {}>, 'post_vars': <Storage {}>}>"
p5397
sS'IS_EXPR'
p5398
S"<class 'gluon.validators.IS_EXPR'>"
p5399
sS'T'
S'<gluon.languages.translator object>'
p5400
sS'IS_IN_SET'
p5401
S"<class 'gluon.validators.IS_IN_SET'>"
p5402
sS'IS_UPLOAD_FILENAME'
p5403
S"<class 'gluon.validators.IS_UPLOAD_FILENAME'>"
p5404
sS'IS_DECIMAL_IN_RANGE'
p5405
S"<class 'gluon.validators.IS_DECIMAL_IN_RANGE'>"
p5406
sssS'traceback'
p5407
S'Traceback (most recent call last):\n  File "P:\\Workbench\\DevEnv\\web2py\\gluon\\restricted.py", line 192, in restricted\n    exec ccode in environment\n  File "P:\\Workbench\\DevEnv\\web2py\\applications\\init\\views\\default/home.html", line 8, in <module>\nAttributeError: \'NoneType\' object has no attribute \'replace\'\n'
p5408
s.