(dp1
S'output'
p2
S"<type 'exceptions.SyntaxError'> invalid syntax (default/user.html, line 88)"
p3
sS'layer'
p4
S'P:\\School\\DePaul\\Projects\\CSC_438\\web2py\\applications\\init\\views\\default/user.html'
p5
sS'code'
p6
S'response.write(\'<!DOCTYPE html>\\r\\n<html lang="\', escape=False)\nresponse.write(T.accepted_language or \'en\')\nresponse.write(\'" class="no-js"><!-- no-js need it for modernzr -->\\r\\n  <head>\\r\\n    \\r\\n    <meta charset="utf-8" />        \\r\\n    <!-- www.phpied.com/conditional-comments-block-downloads/ -->\\r\\n    <!--[if IE]>\\r\\n      <!-- Always force latest IE rendering engine \\r\\n       (even in intranet) & Chrome Frame \\r\\n       Remove this if you use the .htaccess -->\\r\\n      <meta http-equiv="X-UA-Compatible" content="IE=edge,chrome=1">\\r\\n    <![endif]-->    \\r\\n    \\r\\n    <!-- http://dev.w3.org/html5/markup/meta.name.html -->\\r\\n    <meta name="application-name" content="\', escape=False)\nresponse.write(request.application)\nresponse.write(\'" /> \\r\\n    \\r\\n    <!--  Mobile Viewport Fix\\r\\n      j.mp/mobileviewport & davidbcalhoun.com/2010/viewport-metatag \\r\\n      device-width: Occupy full width of the screen in its current orientation\\r\\n      initial-scale = 1.0 retains dimensions instead of zooming out if page height > device height\\r\\n      maximum-scale = 1.0 retains dimensions instead of zooming in if page width < device width\\r\\n      -->\\r\\n    <meta name="viewport" content="width=device-width, initial-scale=1.0, maximum-scale=1.0">\\r\\n    \\r\\n    <!-- Place favicon.ico and apple-touch-icon.png in the root of your domain and delete these references -->\\r\\n    <link rel="shortcut icon" href="\', escape=False)\nresponse.write(URL(\'static\',\'favicon.ico\'))\nresponse.write(\'" type="image/x-icon">\\r\\n    <link rel="apple-touch-icon" href="\', escape=False)\nresponse.write(URL(\'static\',\'favicon.png\'))\nresponse.write(\'">\\r\\n\\r\\n    <!-- For the less-enabled mobile browsers like Opera Mini -->\\r\\n    <link rel="stylesheet" media="handheld" href="\', escape=False)\nresponse.write(URL(\'static\',\'css/handheld.css\'))\nresponse.write(\'">\\r\\n    \\r\\n    <!-- All JavaScript at the bottom, except for Modernizr which enables HTML5 elements & feature detects -->\\r\\n    <script src="\', escape=False)\nresponse.write(URL(\'static\',\'js/modernizr-1.7.min.js\'))\nresponse.write(\'"></script>\\r\\n    \\r\\n    \', escape=False)\n#------  require CSS and JS files for this page (read info in base.css) ------\nresponse.write(\'\\r\\n    \', escape=False)\nresponse.files.append(URL(\'static\',\'css/base.css\'))\nresponse.write(\'\\r\\n    \', escape=False)\nresponse.files.append(URL(\'static\',\'css/superfish.css\'))\nresponse.write(\'\\r\\n    \', escape=False)\nresponse.files.append(URL(\'static\',\'js/superfish.js\'))\nresponse.write(\'\\r\\n    \', escape=False)\n#------ include web2py specific js code (jquery, calendar, form stuff) ------\nresponse.write(\'\\r\\n    \', escape=False)\nresponse.files.insert(0,URL(\'static\',\'js/jquery.js\'))\nresponse.files.insert(1,URL(\'static\',\'css/anytime.css\'))\nresponse.files.insert(2,URL(\'static\',\'js/anytime.js\'))\nresponse.include_meta()\nresponse.include_files()\nresponse.write(\'\\n<script type="text/javascript"><!--\\n    // These variables are used by the web2py_ajax_init function in web2py_ajax.js (which is loaded below).\\n    var w2p_ajax_confirm_message = "\', escape=False)\nresponse.write(T(\'Are you sure you want to delete this object?\'))\nresponse.write(\'";\\n    var w2p_ajax_date_format = "\', escape=False)\nresponse.write(T(\'%Y-%m-%d\'))\nresponse.write(\'";\\n    var w2p_ajax_datetime_format = "\', escape=False)\nresponse.write(T(\'%Y-%m-%d %H:%M:%S\'))\nresponse.write(\'";\\n    //--></script>\\n    <script src="\', escape=False)\nresponse.write(URL(\'static\',\'js/web2py_ajax.js\'))\nresponse.write(\'" type="text/javascript"></script>\\n\', escape=False)\nresponse.write(\'\\r\\n\\r\\n    \', escape=False)\n#using sidebars need to know what sidebar you want to use\n#prior of using it, because of static width size of content, you can use\n#left_sidebar, right_sidebar, both or none (False left and right)\nleft_sidebar_enabled = globals().get(\'left_sidebar_enabled\',False)\nright_sidebar_enabled = globals().get(\'right_sidebar_enabled\',False)\nif left_sidebar_enabled and right_sidebar_enabled: width_content=\'63%\'\nelif left_sidebar_enabled != right_sidebar_enabled: width_content=\'740px\'\nelse: width_content=\'100%\'\nif left_sidebar_enabled: left_sidebar_style = \'style="display: block;"\'\nelse: left_sidebar_style = \'style="display: none;"\'\nif right_sidebar_enabled: right_sidebar_style = \'style="display: block;"\'\nelse: right_sidebar_style = \'style="display: none;"\'\nstyle_content = \'style="width: %s"\' % width_content\nresponse.write(\'\\r\\n    \\r\\n    <!-- uncomment here to load jquery-ui -->\\r\\n    \\r\\n    <link rel="stylesheet" href="http://ajax.googleapis.com/ajax/libs/jqueryui/1.8.16/themes/base/jquery-ui.css" type="text/css" media="all" />\\r\\n    <script src="http://ajax.googleapis.com/ajax/libs/jqueryui/1.8.16/jquery-ui.min.js" type="text/javascript"></script>\\r\\n    \\r\\n   <!-- uncomment to load jquery-ui -->\\r\\n    \\r\\n    \\r\\n  </head>\\r\\n  \\r\\n  <!-- paulirish.com/2008/conditional-stylesheets-vs-css-hacks-answer-neither/ -->  \\r\\n  <!--[if lt IE 7 ]> <body class="ie6"> <![endif]-->\\r\\n  <!--[if IE 7 ]>    <body class="ie7"> <![endif]-->\\r\\n  <!--[if IE 8 ]>    <body class="ie8"> <![endif]-->\\r\\n  <!--[if IE 9 ]>    <body class="ie9"> <![endif]-->\\r\\n  <!--[if (gt IE 9)|!(IE)]><!--> <body> <!--<![endif]-->\\r\\n    \\r\\n    <div class="flash">\', escape=False)\nresponse.write(response.flash or \'\')\nresponse.write(\'</div> <!-- notification div -->\\r\\n\\r\\n        \\r\\n\\r\\n    <div id="container">                        \\r\\n      \\r\\n      <div id="wrapper">        \\r\\n      \', escape=False)\ntry:\n    response.write(auth.navbar(action=URL(\'default\',\'user\')))\nexcept:pass\nresponse.write(\'\\r\\n    \\r\\n    <div id="header"> <!-- header and login nav -->\\r\\n      \', escape=False)\nresponse.write(\' <!-- this is default header -->\\r\\n      \\r\\n      <div style="clear: both;"></div><!-- Clear the divs -->\\r\\n      \', escape=False)\nresponse.write(\'\\r\\n    </div><!-- header  -->\\r\\n    \\r\\n    <div id="page"> <!-- Here my central body -->     \\r\\n\\r\\n      \', escape=False)\nif left_sidebar_enabled:\n    response.write(\'\\r\\n          <div id="left_sidebar" \', escape=False)\n    response.write(XML(left_sidebar_style))\n    response.write(\' >\\r\\n            <div style="padding: 4px;">\\r\\n          \', escape=False)\n    response.write(\'Content Left Sidebar\', escape=False)\n    response.write(\'       \\r\\n            </div>\\r\\n          </div><!-- left_sidebar -->\\r\\n      \', escape=False)\n    pass\nresponse.write(\'\\r\\n\\r\\n      <!-- content -->\\r\\n      <div id="content" \', escape=False)\nresponse.write(XML(style_content))\nresponse.write(\' >\\r\\n        \', escape=False)\nresponse.write(\'\\r\\n<h2>\', escape=False)\nresponse.write(T( request.args(0).replace(\'_\',\' \').capitalize() ))\nresponse.write(\'</h2>\\r\\n<div id="web2py_user_form">\\r\\n\\r\\n\', escape=False)\nif request.args(0)==\'register\':\n    response.write(\'\\r\\n\\t\', escape=False)\n    response.write(form.custom.begin)\n    response.write(\'\\r\\n\\t<strong>First Name: \', escape=False)\n    response.write(form.custom.widget.first_name)\n    response.write(\'</strong>\\r\\n\\t<strong>Last Name: \', escape=False)\n    response.write(form.custom.widget.last_name)\n    response.write(\'</strong>\\r\\n\\t<br/>\\r\\n\\t<strong>E-Mail: \', escape=False)\n    response.write(form.custom.widget.email)\n    response.write(\'</strong>\\r\\n\\t<br/>\\r\\n\\t<strong>Password: \', escape=False)\n    response.write(form.custom.widget.password)\n    response.write(\'</strong>\\r\\n\\t<strong>Verify Password: \', escape=False)\n    response.write(form.custom.widget.password_two)\n    response.write(\'</strong>\\r\\n\\t<br/>\\r\\n\\t<strong>Gender: \', escape=False)\n    response.write(form.custom.widget.gender}</strong>\n    {{=form.custom.submit)\n    response.write(\'\\r\\n\\t\', escape=False)\n    response.write(form.custom.end)\n    response.write(\' \\r\\n    \\r\\n    \\r\\n\', escape=False)\n    pass\nresponse.write(\'\\r\\n\\r\\n\', escape=False)\nif request.args(0)==\'login\':\n    response.write(\'\\r\\n\', escape=False)\n    if not \'register\' in auth.settings.actions_disabled:\n        response.write(\'\\r\\n<br/><a href="\', escape=False)\n        response.write(URL(r=request,args=\'register\'))\n        response.write(\'">register</a>\\r\\n\', escape=False)\n        pass\n    response.write(\'\\r\\n\', escape=False)\n    if not \'request_reset_password\' in auth.settings.actions_disabled:\n        response.write(\'\\r\\n<br/><a href="\', escape=False)\n        response.write(URL(r=request,args=\'request_reset_password\'))\n        response.write(\'">lost password</a>\\r\\n\', escape=False)\n        pass\n    response.write(\'\\r\\n\', escape=False)\n    pass\nresponse.write(\'\\r\\n</div>\\r\\n\\r\\n<script language="javascript">\\r\\n<!--\\r\\n jQuery("#web2py_user_form input:visible:enabled:first").focus();\\r\\n//-->\\r\\n</script>\\r\\n\', escape=False)\nresponse.write(\' \\r\\n      </div>\\r\\n      <!-- content -->\\r\\n\\r\\n      \', escape=False)\nif right_sidebar_enabled:\n    response.write(\'\\r\\n          <div id="right_sidebar" \', escape=False)\n    response.write(XML(right_sidebar_style))\n    response.write(\' >\\r\\n            <div style="padding: 4px;">\\r\\n              \', escape=False)\n    response.write(\'Content Right Sidebar\', escape=False)\n    response.write(\'\\r\\n            </div>\\r\\n      </div><!-- right_sidebar -->\\r\\n          \', escape=False)\n    pass\nresponse.write(\'\\r\\n\\r\\n\\r\\n      <div style="clear: both;"></div><!-- Clear the divs -->\\r\\n      \\r\\n    </div><!-- page -->                         \\r\\n    \\r\\n    <div id="footer">\\r\\n      \', escape=False)\nresponse.write(\' <!-- this is default footer -->\\r\\n      <a href="http://www.web2py.com/" style="float: left; padding-right: 6px;">\\r\\n        <img src="\', escape=False)\nresponse.write(URL(\'static\',\'images/poweredby.png\'))\nresponse.write(\'"/>\\r\\n      </a>\\r\\n      \', escape=False)\nresponse.write(T(\'Copyright\'))\nresponse.write(\' &#169; 2011               \\r\\n      <div style="clear: both;"></div><!-- Clear the divs -->\\r\\n      \', escape=False)\nresponse.write(\'\\r\\n\\r\\n    </div><!-- footer -->           \\r\\n      </div><!-- wrapper -->\\r\\n    </div><!-- container -->        \\r\\n    \\r\\n    <!--[if lt IE 7 ]>\\r\\n    <script src="\', escape=False)\nresponse.write(URL(\'static\',\'js/dd_belatedpng.js\'))\nresponse.write(\'"></script>\\r\\n    <script> DD_belatedPNG.fix(\\\'img, .png_bg\\\'); //fix any <img> or .png_bg background-images </script>\\r\\n    <![endif]-->\\r\\n    \', escape=False)\nif response.google_analytics_id:\n    response.write("<script>/* http://mathiasbynens.be/notes/async-analytics-snippet */ var _gaq=[[\'_setAccount\',\'", escape=False)\n    response.write(response.google_analyitics_id)\n    response.write("\'],[\'_trackPageview\']];(function(d,t){var g=d.createElement(t),s=d.getElementsByTagName(t)[0];g.src=\'//www.google-analytics.com/ga.js\';s.parentNode.insertBefore(g,s)}(document,\'script\')) </script>", escape=False)\n    pass\nresponse.write(\'\\r\\n  </body>\\r\\n</html>\\r\\n\', escape=False)'
p7
sS'snapshot'
p8
(dp9
S'exception'
p10
(dp11
S'__getslice__'
p12
S"<method-wrapper '__getslice__' of exceptions.SyntaxError object>"
p13
sS'text'
p14
S"'    response.write(form.custom.widget.gender}</strong>\\n'"
p15
sS'__str__'
p16
S"<method-wrapper '__str__' of exceptions.SyntaxError object>"
p17
sS'__reduce__'
p18
S'<built-in method __reduce__ of exceptions.SyntaxError object>'
p19
sS'__dict__'
p20
S'{}'
p21
sS'__sizeof__'
p22
S'<built-in method __sizeof__ of exceptions.SyntaxError object>'
p23
sS'__init__'
p24
S"<method-wrapper '__init__' of exceptions.SyntaxError object>"
p25
sS'__setattr__'
p26
S"<method-wrapper '__setattr__' of exceptions.SyntaxError object>"
p27
sS'__reduce_ex__'
p28
S'<built-in method __reduce_ex__ of exceptions.SyntaxError object>'
p29
sS'__new__'
p30
S'<built-in method __new__ of type object>'
p31
sS'__format__'
p32
S'<built-in method __format__ of exceptions.SyntaxError object>'
p33
sS'__class__'
p34
S"<type 'exceptions.SyntaxError'>"
p35
sS'filename'
p36
S"r'P:\\School\\DePaul\\Projects\\CSC_438\\web2py\\applications\\init\\views\\default/user.html'"
p37
sS'lineno'
p38
S'88'
p39
sS'msg'
p40
S"'invalid syntax'"
p41
sS'__doc__'
p42
S"'Invalid syntax.'"
p43
sS'__getitem__'
p44
S"<method-wrapper '__getitem__' of exceptions.SyntaxError object>"
p45
sS'__setstate__'
p46
S'<built-in method __setstate__ of exceptions.SyntaxError object>'
p47
sS'__getattribute__'
p48
S"<method-wrapper '__getattribute__' of exceptions.SyntaxError object>"
p49
sS'print_file_and_line'
p50
S'None'
p51
sS'args'
p52
S"('invalid syntax', (r'P:\\School\\DePaul\\Projects\\CSC_438\\web2py\\applications\\init\\views\\default/user.html', 88, 45, '    response.write(form.custom.widget.gender}</strong>\\n'))"
p53
sS'__subclasshook__'
p54
S'<built-in method __subclasshook__ of type object>'
p55
sS'offset'
p56
S'45'
p57
sS'__unicode__'
p58
S'<built-in method __unicode__ of exceptions.SyntaxError object>'
p59
sS'__delattr__'
p60
S"<method-wrapper '__delattr__' of exceptions.SyntaxError object>"
p61
sS'__repr__'
p62
S"<method-wrapper '__repr__' of exceptions.SyntaxError object>"
p63
sS'__hash__'
p64
S"<method-wrapper '__hash__' of exceptions.SyntaxError object>"
p65
ssS'evalue'
p66
S'invalid syntax (default/user.html, line 88)'
p67
sS'request'
p68
ccopy_reg
_reconstructor
p69
(cgluon.html
BEAUTIFY
p70
c__builtin__
object
p71
NtRp72
(dp73
S'attributes'
p74
(dp75
sS'components'
p76
(lp77
g69
(cgluon.html
TABLE
p78
g71
NtRp79
(dp80
g74
(dp81
S'level'
p82
I5
ssS'parent'
p83
Nsg76
(lp84
g69
(cgluon.html
TR
p85
g71
NtRp86
(dp87
g74
(dp88
sg83
g79
sg76
(lp89
g69
(cgluon.html
TD
p90
g71
NtRp91
(dp92
g74
(dp93
S'_style'
p94
S'font-weight:bold;vertical-align:top'
p95
ssg83
g86
sg76
(lp96
S'ajax'
p97
asbag69
(g90
g71
NtRp98
(dp99
g74
(dp100
S'_valign'
p101
S'top'
p102
ssg83
g86
sg76
(lp103
S':'
asbag69
(g90
g71
NtRp104
(dp105
g74
(dp106
sg83
g86
sg76
(lp107
g69
(g70
g71
NtRp108
(dp109
g74
(dp110
g82
I5
ssg83
g104
sg76
(lp111
S'False'
p112
asbasbasbag69
(g85
g71
NtRp113
(dp114
g74
(dp115
sg83
g79
sg76
(lp116
g69
(g90
g71
NtRp117
(dp118
g74
(dp119
g94
g95
ssg83
g113
sg76
(lp120
S'application'
p121
asbag69
(g90
g71
NtRp122
(dp123
g74
(dp124
g101
g102
ssg83
g113
sg76
(lp125
S':'
asbag69
(g90
g71
NtRp126
(dp127
g74
(dp128
sg83
g113
sg76
(lp129
g69
(g70
g71
NtRp130
(dp131
g74
(dp132
g82
I5
ssg83
g126
sg76
(lp133
S'init'
p134
asbasbasbag69
(g85
g71
NtRp135
(dp136
g74
(dp137
sg83
g79
sg76
(lp138
g69
(g90
g71
NtRp139
(dp140
g74
(dp141
g94
g95
ssg83
g135
sg76
(lp142
g52
asbag69
(g90
g71
NtRp143
(dp144
g74
(dp145
g101
g102
ssg83
g135
sg76
(lp146
S':'
asbag69
(g90
g71
NtRp147
(dp148
g74
(dp149
sg83
g135
sg76
(lp150
g69
(g70
g71
NtRp151
(dp152
g74
(dp153
g82
I5
ssg83
g147
sg76
(lp154
g69
(g78
g71
NtRp155
(dp156
g74
(dp157
g82
I4
ssg83
Nsg76
(lp158
g69
(g85
g71
NtRp159
(dp160
g74
(dp161
sg83
g155
sg76
(lp162
g69
(g90
g71
NtRp163
(dp164
g74
(dp165
sg83
g159
sg76
(lp166
g69
(g70
g71
NtRp167
(dp168
g74
(dp169
g82
I4
ssg83
g163
sg76
(lp170
S'register'
p171
asbasbasbasbasbasbasbag69
(g85
g71
NtRp172
(dp173
g74
(dp174
sg83
g79
sg76
(lp175
g69
(g90
g71
NtRp176
(dp177
g74
(dp178
g94
g95
ssg83
g172
sg76
(lp179
S'body'
p180
asbag69
(g90
g71
NtRp181
(dp182
g74
(dp183
g101
g102
ssg83
g172
sg76
(lp184
S':'
asbag69
(g90
g71
NtRp185
(dp186
g74
(dp187
sg83
g172
sg76
(lp188
g69
(g70
g71
NtRp189
(dp190
g74
(dp191
g82
I5
ssg83
g185
sg76
(lp192
S'<cStringIO.StringO object at 0x07846080>'
p193
asbasbasbag69
(g85
g71
NtRp194
(dp195
g74
(dp196
sg83
g79
sg76
(lp197
g69
(g90
g71
NtRp198
(dp199
g74
(dp200
g94
g95
ssg83
g194
sg76
(lp201
S'client'
p202
asbag69
(g90
g71
NtRp203
(dp204
g74
(dp205
g101
g102
ssg83
g194
sg76
(lp206
S':'
asbag69
(g90
g71
NtRp207
(dp208
g74
(dp209
sg83
g194
sg76
(lp210
g69
(g70
g71
NtRp211
(dp212
g74
(dp213
g82
I5
ssg83
g207
sg76
(lp214
S'127.0.0.1'
p215
asbasbasbag69
(g85
g71
NtRp216
(dp217
g74
(dp218
sg83
g79
sg76
(lp219
g69
(g90
g71
NtRp220
(dp221
g74
(dp222
g94
g95
ssg83
g216
sg76
(lp223
S'controller'
p224
asbag69
(g90
g71
NtRp225
(dp226
g74
(dp227
g101
g102
ssg83
g216
sg76
(lp228
S':'
asbag69
(g90
g71
NtRp229
(dp230
g74
(dp231
sg83
g216
sg76
(lp232
g69
(g70
g71
NtRp233
(dp234
g74
(dp235
g82
I5
ssg83
g229
sg76
(lp236
S'default'
p237
asbasbasbag69
(g85
g71
NtRp238
(dp239
g74
(dp240
sg83
g79
sg76
(lp241
g69
(g90
g71
NtRp242
(dp243
g74
(dp244
g94
g95
ssg83
g238
sg76
(lp245
S'cookies'
p246
asbag69
(g90
g71
NtRp247
(dp248
g74
(dp249
g101
g102
ssg83
g238
sg76
(lp250
S':'
asbag69
(g90
g71
NtRp251
(dp252
g74
(dp253
sg83
g238
sg76
(lp254
g69
(g70
g71
NtRp255
(dp256
g74
(dp257
g82
I5
ssg83
g251
sg76
(lp258
g69
(g78
g71
NtRp259
(dp260
g74
(dp261
g82
I4
ssg83
Nsg76
(lp262
g69
(g85
g71
NtRp263
(dp264
g74
(dp265
sg83
g259
sg76
(lp266
g69
(g90
g71
NtRp267
(dp268
g74
(dp269
g94
g95
ssg83
g263
sg76
(lp270
S'session_id_init'
p271
asbag69
(g90
g71
NtRp272
(dp273
g74
(dp274
g101
g102
ssg83
g263
sg76
(lp275
S':'
asbag69
(g90
g71
NtRp276
(dp277
g74
(dp278
sg83
g263
sg76
(lp279
g69
(g70
g71
NtRp280
(dp281
g74
(dp282
g82
I4
ssg83
g276
sg76
(lp283
g69
(g78
g71
NtRp284
(dp285
g74
(dp286
g82
I3
ssg83
Nsg76
(lp287
g69
(g85
g71
NtRp288
(dp289
g74
(dp290
sg83
g284
sg76
(lp291
g69
(g90
g71
NtRp292
(dp293
g74
(dp294
g94
g95
ssg83
g288
sg76
(lp295
S'comment'
p296
asbag69
(g90
g71
NtRp297
(dp298
g74
(dp299
g101
g102
ssg83
g288
sg76
(lp300
S':'
asbag69
(g90
g71
NtRp301
(dp302
g74
(dp303
sg83
g288
sg76
(lp304
g69
(g70
g71
NtRp305
(dp306
g74
(dp307
g82
I3
ssg83
g301
sg76
(lp308
S''
asbasbasbag69
(g85
g71
NtRp309
(dp310
g74
(dp311
sg83
g284
sg76
(lp312
g69
(g90
g71
NtRp313
(dp314
g74
(dp315
g94
g95
ssg83
g309
sg76
(lp316
S'domain'
p317
asbag69
(g90
g71
NtRp318
(dp319
g74
(dp320
g101
g102
ssg83
g309
sg76
(lp321
S':'
asbag69
(g90
g71
NtRp322
(dp323
g74
(dp324
sg83
g309
sg76
(lp325
g69
(g70
g71
NtRp326
(dp327
g74
(dp328
g82
I3
ssg83
g322
sg76
(lp329
S''
asbasbasbag69
(g85
g71
NtRp330
(dp331
g74
(dp332
sg83
g284
sg76
(lp333
g69
(g90
g71
NtRp334
(dp335
g74
(dp336
g94
g95
ssg83
g330
sg76
(lp337
S'expires'
p338
asbag69
(g90
g71
NtRp339
(dp340
g74
(dp341
g101
g102
ssg83
g330
sg76
(lp342
S':'
asbag69
(g90
g71
NtRp343
(dp344
g74
(dp345
sg83
g330
sg76
(lp346
g69
(g70
g71
NtRp347
(dp348
g74
(dp349
g82
I3
ssg83
g343
sg76
(lp350
S''
asbasbasbag69
(g85
g71
NtRp351
(dp352
g74
(dp353
sg83
g284
sg76
(lp354
g69
(g90
g71
NtRp355
(dp356
g74
(dp357
g94
g95
ssg83
g351
sg76
(lp358
S'httponly'
p359
asbag69
(g90
g71
NtRp360
(dp361
g74
(dp362
g101
g102
ssg83
g351
sg76
(lp363
S':'
asbag69
(g90
g71
NtRp364
(dp365
g74
(dp366
sg83
g351
sg76
(lp367
g69
(g70
g71
NtRp368
(dp369
g74
(dp370
g82
I3
ssg83
g364
sg76
(lp371
S''
asbasbasbag69
(g85
g71
NtRp372
(dp373
g74
(dp374
sg83
g284
sg76
(lp375
g69
(g90
g71
NtRp376
(dp377
g74
(dp378
g94
g95
ssg83
g372
sg76
(lp379
S'max-age'
p380
asbag69
(g90
g71
NtRp381
(dp382
g74
(dp383
g101
g102
ssg83
g372
sg76
(lp384
S':'
asbag69
(g90
g71
NtRp385
(dp386
g74
(dp387
sg83
g372
sg76
(lp388
g69
(g70
g71
NtRp389
(dp390
g74
(dp391
g82
I3
ssg83
g385
sg76
(lp392
S''
asbasbasbag69
(g85
g71
NtRp393
(dp394
g74
(dp395
sg83
g284
sg76
(lp396
g69
(g90
g71
NtRp397
(dp398
g74
(dp399
g94
g95
ssg83
g393
sg76
(lp400
S'path'
p401
asbag69
(g90
g71
NtRp402
(dp403
g74
(dp404
g101
g102
ssg83
g393
sg76
(lp405
S':'
asbag69
(g90
g71
NtRp406
(dp407
g74
(dp408
sg83
g393
sg76
(lp409
g69
(g70
g71
NtRp410
(dp411
g74
(dp412
g82
I3
ssg83
g406
sg76
(lp413
S''
asbasbasbag69
(g85
g71
NtRp414
(dp415
g74
(dp416
sg83
g284
sg76
(lp417
g69
(g90
g71
NtRp418
(dp419
g74
(dp420
g94
g95
ssg83
g414
sg76
(lp421
S'secure'
p422
asbag69
(g90
g71
NtRp423
(dp424
g74
(dp425
g101
g102
ssg83
g414
sg76
(lp426
S':'
asbag69
(g90
g71
NtRp427
(dp428
g74
(dp429
sg83
g414
sg76
(lp430
g69
(g70
g71
NtRp431
(dp432
g74
(dp433
g82
I3
ssg83
g427
sg76
(lp434
S''
asbasbasbag69
(g85
g71
NtRp435
(dp436
g74
(dp437
sg83
g284
sg76
(lp438
g69
(g90
g71
NtRp439
(dp440
g74
(dp441
g94
g95
ssg83
g435
sg76
(lp442
S'version'
p443
asbag69
(g90
g71
NtRp444
(dp445
g74
(dp446
g101
g102
ssg83
g435
sg76
(lp447
S':'
asbag69
(g90
g71
NtRp448
(dp449
g74
(dp450
sg83
g435
sg76
(lp451
g69
(g70
g71
NtRp452
(dp453
g74
(dp454
g82
I3
ssg83
g448
sg76
(lp455
S''
asbasbasbasbasbasbasbasbasbasbasbag69
(g85
g71
NtRp456
(dp457
g74
(dp458
sg83
g79
sg76
(lp459
g69
(g90
g71
NtRp460
(dp461
g74
(dp462
g94
g95
ssg83
g456
sg76
(lp463
S'env'
p464
asbag69
(g90
g71
NtRp465
(dp466
g74
(dp467
g101
g102
ssg83
g456
sg76
(lp468
S':'
asbag69
(g90
g71
NtRp469
(dp470
g74
(dp471
sg83
g456
sg76
(lp472
g69
(g70
g71
NtRp473
(dp474
g74
(dp475
g82
I5
ssg83
g469
sg76
(lp476
g69
(g78
g71
NtRp477
(dp478
g74
(dp479
g82
I4
ssg83
Nsg76
(lp480
g69
(g85
g71
NtRp481
(dp482
g74
(dp483
sg83
g477
sg76
(lp484
g69
(g90
g71
NtRp485
(dp486
g74
(dp487
g94
g95
ssg83
g481
sg76
(lp488
S'app_folders'
p489
asbag69
(g90
g71
NtRp490
(dp491
g74
(dp492
g101
g102
ssg83
g481
sg76
(lp493
S':'
asbag69
(g90
g71
NtRp494
(dp495
g74
(dp496
sg83
g481
sg76
(lp497
g69
(g70
g71
NtRp498
(dp499
g74
(dp500
g82
I4
ssg83
g494
sg76
(lp501
S"set(['P:\\\\School\\\\DePaul\\\\Projects\\\\CSC_438\\\\web2py\\\\applications\\\\init\\\\'])"
p502
asbasbasbag69
(g85
g71
NtRp503
(dp504
g74
(dp505
sg83
g477
sg76
(lp506
g69
(g90
g71
NtRp507
(dp508
g74
(dp509
g94
g95
ssg83
g503
sg76
(lp510
S'applications_parent'
p511
asbag69
(g90
g71
NtRp512
(dp513
g74
(dp514
g101
g102
ssg83
g503
sg76
(lp515
S':'
asbag69
(g90
g71
NtRp516
(dp517
g74
(dp518
sg83
g503
sg76
(lp519
g69
(g70
g71
NtRp520
(dp521
g74
(dp522
g82
I4
ssg83
g516
sg76
(lp523
S'P:\\School\\DePaul\\Projects\\CSC_438\\web2py'
p524
asbasbasbag69
(g85
g71
NtRp525
(dp526
g74
(dp527
sg83
g477
sg76
(lp528
g69
(g90
g71
NtRp529
(dp530
g74
(dp531
g94
g95
ssg83
g525
sg76
(lp532
S'cmd_args'
p533
asbag69
(g90
g71
NtRp534
(dp535
g74
(dp536
g101
g102
ssg83
g525
sg76
(lp537
S':'
asbag69
(g90
g71
NtRp538
(dp539
g74
(dp540
sg83
g525
sg76
(lp541
g69
(g70
g71
NtRp542
(dp543
g74
(dp544
g82
I4
ssg83
g538
sg76
(lp545
g69
(g78
g71
NtRp546
(dp547
g74
(dp548
g82
I3
ssg83
Nsg76
(lp549
sbasbasbasbag69
(g85
g71
NtRp550
(dp551
g74
(dp552
sg83
g477
sg76
(lp553
g69
(g90
g71
NtRp554
(dp555
g74
(dp556
g94
g95
ssg83
g550
sg76
(lp557
S'cmd_options'
p558
asbag69
(g90
g71
NtRp559
(dp560
g74
(dp561
g101
g102
ssg83
g550
sg76
(lp562
S':'
asbag69
(g90
g71
NtRp563
(dp564
g74
(dp565
sg83
g550
sg76
(lp566
g69
(g70
g71
NtRp567
(dp568
g74
(dp569
g82
I4
ssg83
g563
sg76
(lp570
S"<Values at 0x2f41cd8: {'verbose': False, 'ip': '127.0.0.1', 'shutdown_timeout': 5, 'taskbar': False, 'nocron': False, 'pid_filename': 'httpserver.pid', 'maxthreads': None, 'softcron': False, 'server_name': 'Bishop-PC', 'bpython': False, 'nogui': False, 'port': 8000, 'extcron': False, 'debuglevel': 30, 'test': None, 'folder': 'P:\\\\School\\\\DePaul\\\\Projects\\\\CSC_438\\\\web2py', 'config': '', 'import_models': False, 'winservice': '', 'shell': None, 'run': '', 'log_filename': 'httpserver.log', 'args': [''], 'ssl_ca_certificate': None, 'scheduler': None, 'profiler_filename': None, 'ssl_private_key': '', 'password': '<ask>', 'request_queue_size': 5, 'ssl_certificate': '', 'cronjob': False, 'plain': False, 'quiet': False, 'interfaces': None, 'minthreads': None, 'timeout': 10, 'numthreads': None, 'nobanner': False}>"
p571
asbasbasbag69
(g85
g71
NtRp572
(dp573
g74
(dp574
sg83
g477
sg76
(lp575
g69
(g90
g71
NtRp576
(dp577
g74
(dp578
g94
g95
ssg83
g572
sg76
(lp579
S'db_sessions'
p580
asbag69
(g90
g71
NtRp581
(dp582
g74
(dp583
g101
g102
ssg83
g572
sg76
(lp584
S':'
asbag69
(g90
g71
NtRp585
(dp586
g74
(dp587
sg83
g572
sg76
(lp588
g69
(g70
g71
NtRp589
(dp590
g74
(dp591
g82
I4
ssg83
g585
sg76
(lp592
S'set([])'
p593
asbasbasbag69
(g85
g71
NtRp594
(dp595
g74
(dp596
sg83
g477
sg76
(lp597
g69
(g90
g71
NtRp598
(dp599
g74
(dp600
g94
g95
ssg83
g594
sg76
(lp601
S'debugging'
p602
asbag69
(g90
g71
NtRp603
(dp604
g74
(dp605
g101
g102
ssg83
g594
sg76
(lp606
S':'
asbag69
(g90
g71
NtRp607
(dp608
g74
(dp609
sg83
g594
sg76
(lp610
g69
(g70
g71
NtRp611
(dp612
g74
(dp613
g82
I4
ssg83
g607
sg76
(lp614
g112
asbasbasbag69
(g85
g71
NtRp615
(dp616
g74
(dp617
sg83
g477
sg76
(lp618
g69
(g90
g71
NtRp619
(dp620
g74
(dp621
g94
g95
ssg83
g615
sg76
(lp622
S'gluon_parent'
p623
asbag69
(g90
g71
NtRp624
(dp625
g74
(dp626
g101
g102
ssg83
g615
sg76
(lp627
S':'
asbag69
(g90
g71
NtRp628
(dp629
g74
(dp630
sg83
g615
sg76
(lp631
g69
(g70
g71
NtRp632
(dp633
g74
(dp634
g82
I4
ssg83
g628
sg76
(lp635
S'P:\\School\\DePaul\\Projects\\CSC_438\\web2py'
p636
asbasbasbag69
(g85
g71
NtRp637
(dp638
g74
(dp639
sg83
g477
sg76
(lp640
g69
(g90
g71
NtRp641
(dp642
g74
(dp643
g94
g95
ssg83
g637
sg76
(lp644
S'http_accept'
p645
asbag69
(g90
g71
NtRp646
(dp647
g74
(dp648
g101
g102
ssg83
g637
sg76
(lp649
S':'
asbag69
(g90
g71
NtRp650
(dp651
g74
(dp652
sg83
g637
sg76
(lp653
g69
(g70
g71
NtRp654
(dp655
g74
(dp656
g82
I4
ssg83
g650
sg76
(lp657
S'text/html,application/xhtml+xml,application/xml;q=0.9,*/*;q=0.8'
p658
asbasbasbag69
(g85
g71
NtRp659
(dp660
g74
(dp661
sg83
g477
sg76
(lp662
g69
(g90
g71
NtRp663
(dp664
g74
(dp665
g94
g95
ssg83
g659
sg76
(lp666
S'http_accept_charset'
p667
asbag69
(g90
g71
NtRp668
(dp669
g74
(dp670
g101
g102
ssg83
g659
sg76
(lp671
S':'
asbag69
(g90
g71
NtRp672
(dp673
g74
(dp674
sg83
g659
sg76
(lp675
g69
(g70
g71
NtRp676
(dp677
g74
(dp678
g82
I4
ssg83
g672
sg76
(lp679
S'ISO-8859-1,utf-8;q=0.7,*;q=0.7'
p680
asbasbasbag69
(g85
g71
NtRp681
(dp682
g74
(dp683
sg83
g477
sg76
(lp684
g69
(g90
g71
NtRp685
(dp686
g74
(dp687
g94
g95
ssg83
g681
sg76
(lp688
S'http_accept_encoding'
p689
asbag69
(g90
g71
NtRp690
(dp691
g74
(dp692
g101
g102
ssg83
g681
sg76
(lp693
S':'
asbag69
(g90
g71
NtRp694
(dp695
g74
(dp696
sg83
g681
sg76
(lp697
g69
(g70
g71
NtRp698
(dp699
g74
(dp700
g82
I4
ssg83
g694
sg76
(lp701
S'gzip,deflate'
p702
asbasbasbag69
(g85
g71
NtRp703
(dp704
g74
(dp705
sg83
g477
sg76
(lp706
g69
(g90
g71
NtRp707
(dp708
g74
(dp709
g94
g95
ssg83
g703
sg76
(lp710
S'http_accept_language'
p711
asbag69
(g90
g71
NtRp712
(dp713
g74
(dp714
g101
g102
ssg83
g703
sg76
(lp715
S':'
asbag69
(g90
g71
NtRp716
(dp717
g74
(dp718
sg83
g703
sg76
(lp719
g69
(g70
g71
NtRp720
(dp721
g74
(dp722
g82
I4
ssg83
g716
sg76
(lp723
S'en-us,en;q=0.5'
p724
asbasbasbag69
(g85
g71
NtRp725
(dp726
g74
(dp727
sg83
g477
sg76
(lp728
g69
(g90
g71
NtRp729
(dp730
g74
(dp731
g94
g95
ssg83
g725
sg76
(lp732
S'http_cache_control'
p733
asbag69
(g90
g71
NtRp734
(dp735
g74
(dp736
g101
g102
ssg83
g725
sg76
(lp737
S':'
asbag69
(g90
g71
NtRp738
(dp739
g74
(dp740
sg83
g725
sg76
(lp741
g69
(g70
g71
NtRp742
(dp743
g74
(dp744
g82
I4
ssg83
g738
sg76
(lp745
S'max-age=0'
p746
asbasbasbag69
(g85
g71
NtRp747
(dp748
g74
(dp749
sg83
g477
sg76
(lp750
g69
(g90
g71
NtRp751
(dp752
g74
(dp753
g94
g95
ssg83
g747
sg76
(lp754
S'http_connection'
p755
asbag69
(g90
g71
NtRp756
(dp757
g74
(dp758
g101
g102
ssg83
g747
sg76
(lp759
S':'
asbag69
(g90
g71
NtRp760
(dp761
g74
(dp762
sg83
g747
sg76
(lp763
g69
(g70
g71
NtRp764
(dp765
g74
(dp766
g82
I4
ssg83
g760
sg76
(lp767
S'keep-alive'
p768
asbasbasbag69
(g85
g71
NtRp769
(dp770
g74
(dp771
sg83
g477
sg76
(lp772
g69
(g90
g71
NtRp773
(dp774
g74
(dp775
g94
g95
ssg83
g769
sg76
(lp776
S'http_cookie'
p777
asbag69
(g90
g71
NtRp778
(dp779
g74
(dp780
g101
g102
ssg83
g769
sg76
(lp781
S':'
asbag69
(g90
g71
NtRp782
(dp783
g74
(dp784
sg83
g769
sg76
(lp785
g69
(g70
g71
NtRp786
(dp787
g74
(dp788
g82
I4
ssg83
g782
sg76
(lp789
S'__utma_a2a=4518867300.1350888199.1319331273.1319375111.1319375111.5; session_id_init=127.0.0.1-e2e3e2a9-2655-4549-be42-2ce4afc3f0eb'
p790
asbasbasbag69
(g85
g71
NtRp791
(dp792
g74
(dp793
sg83
g477
sg76
(lp794
g69
(g90
g71
NtRp795
(dp796
g74
(dp797
g94
g95
ssg83
g791
sg76
(lp798
S'http_host'
p799
asbag69
(g90
g71
NtRp800
(dp801
g74
(dp802
g101
g102
ssg83
g791
sg76
(lp803
S':'
asbag69
(g90
g71
NtRp804
(dp805
g74
(dp806
sg83
g791
sg76
(lp807
g69
(g70
g71
NtRp808
(dp809
g74
(dp810
g82
I4
ssg83
g804
sg76
(lp811
S'127.0.0.1:8000'
p812
asbasbasbag69
(g85
g71
NtRp813
(dp814
g74
(dp815
sg83
g477
sg76
(lp816
g69
(g90
g71
NtRp817
(dp818
g74
(dp819
g94
g95
ssg83
g813
sg76
(lp820
S'http_keep_alive'
p821
asbag69
(g90
g71
NtRp822
(dp823
g74
(dp824
g101
g102
ssg83
g813
sg76
(lp825
S':'
asbag69
(g90
g71
NtRp826
(dp827
g74
(dp828
sg83
g813
sg76
(lp829
g69
(g70
g71
NtRp830
(dp831
g74
(dp832
g82
I4
ssg83
g826
sg76
(lp833
S'115'
p834
asbasbasbag69
(g85
g71
NtRp835
(dp836
g74
(dp837
sg83
g477
sg76
(lp838
g69
(g90
g71
NtRp839
(dp840
g74
(dp841
g94
g95
ssg83
g835
sg76
(lp842
S'http_user_agent'
p843
asbag69
(g90
g71
NtRp844
(dp845
g74
(dp846
g101
g102
ssg83
g835
sg76
(lp847
S':'
asbag69
(g90
g71
NtRp848
(dp849
g74
(dp850
sg83
g835
sg76
(lp851
g69
(g70
g71
NtRp852
(dp853
g74
(dp854
g82
I4
ssg83
g848
sg76
(lp855
S'Mozilla/5.0 (Windows; U; Windows NT 6.1; en-US; rv:1.9.2.23) Gecko/20110920 Firefox/3.6.23'
p856
asbasbasbag69
(g85
g71
NtRp857
(dp858
g74
(dp859
sg83
g477
sg76
(lp860
g69
(g90
g71
NtRp861
(dp862
g74
(dp863
g94
g95
ssg83
g857
sg76
(lp864
S'is_jython'
p865
asbag69
(g90
g71
NtRp866
(dp867
g74
(dp868
g101
g102
ssg83
g857
sg76
(lp869
S':'
asbag69
(g90
g71
NtRp870
(dp871
g74
(dp872
sg83
g857
sg76
(lp873
g69
(g70
g71
NtRp874
(dp875
g74
(dp876
g82
I4
ssg83
g870
sg76
(lp877
g112
asbasbasbag69
(g85
g71
NtRp878
(dp879
g74
(dp880
sg83
g477
sg76
(lp881
g69
(g90
g71
NtRp882
(dp883
g74
(dp884
g94
g95
ssg83
g878
sg76
(lp885
S'path_info'
p886
asbag69
(g90
g71
NtRp887
(dp888
g74
(dp889
g101
g102
ssg83
g878
sg76
(lp890
S':'
asbag69
(g90
g71
NtRp891
(dp892
g74
(dp893
sg83
g878
sg76
(lp894
g69
(g70
g71
NtRp895
(dp896
g74
(dp897
g82
I4
ssg83
g891
sg76
(lp898
S'/init/default/user/register'
p899
asbasbasbag69
(g85
g71
NtRp900
(dp901
g74
(dp902
sg83
g477
sg76
(lp903
g69
(g90
g71
NtRp904
(dp905
g74
(dp906
g94
g95
ssg83
g900
sg76
(lp907
S'query_string'
p908
asbag69
(g90
g71
NtRp909
(dp910
g74
(dp911
g101
g102
ssg83
g900
sg76
(lp912
S':'
asbag69
(g90
g71
NtRp913
(dp914
g74
(dp915
sg83
g900
sg76
(lp916
g69
(g70
g71
NtRp917
(dp918
g74
(dp919
g82
I4
ssg83
g913
sg76
(lp920
S''
asbasbasbag69
(g85
g71
NtRp921
(dp922
g74
(dp923
sg83
g477
sg76
(lp924
g69
(g90
g71
NtRp925
(dp926
g74
(dp927
g94
g95
ssg83
g921
sg76
(lp928
S'remote_addr'
p929
asbag69
(g90
g71
NtRp930
(dp931
g74
(dp932
g101
g102
ssg83
g921
sg76
(lp933
S':'
asbag69
(g90
g71
NtRp934
(dp935
g74
(dp936
sg83
g921
sg76
(lp937
g69
(g70
g71
NtRp938
(dp939
g74
(dp940
g82
I4
ssg83
g934
sg76
(lp941
g215
asbasbasbag69
(g85
g71
NtRp942
(dp943
g74
(dp944
sg83
g477
sg76
(lp945
g69
(g90
g71
NtRp946
(dp947
g74
(dp948
g94
g95
ssg83
g942
sg76
(lp949
S'remote_port'
p950
asbag69
(g90
g71
NtRp951
(dp952
g74
(dp953
g101
g102
ssg83
g942
sg76
(lp954
S':'
asbag69
(g90
g71
NtRp955
(dp956
g74
(dp957
sg83
g942
sg76
(lp958
g69
(g70
g71
NtRp959
(dp960
g74
(dp961
g82
I4
ssg83
g955
sg76
(lp962
S'56277'
p963
asbasbasbag69
(g85
g71
NtRp964
(dp965
g74
(dp966
sg83
g477
sg76
(lp967
g69
(g90
g71
NtRp968
(dp969
g74
(dp970
g94
g95
ssg83
g964
sg76
(lp971
S'request_method'
p972
asbag69
(g90
g71
NtRp973
(dp974
g74
(dp975
g101
g102
ssg83
g964
sg76
(lp976
S':'
asbag69
(g90
g71
NtRp977
(dp978
g74
(dp979
sg83
g964
sg76
(lp980
g69
(g70
g71
NtRp981
(dp982
g74
(dp983
g82
I4
ssg83
g977
sg76
(lp984
S'GET'
p985
asbasbasbag69
(g85
g71
NtRp986
(dp987
g74
(dp988
sg83
g477
sg76
(lp989
g69
(g90
g71
NtRp990
(dp991
g74
(dp992
g94
g95
ssg83
g986
sg76
(lp993
S'script_name'
p994
asbag69
(g90
g71
NtRp995
(dp996
g74
(dp997
g101
g102
ssg83
g986
sg76
(lp998
S':'
asbag69
(g90
g71
NtRp999
(dp1000
g74
(dp1001
sg83
g986
sg76
(lp1002
g69
(g70
g71
NtRp1003
(dp1004
g74
(dp1005
g82
I4
ssg83
g999
sg76
(lp1006
S''
asbasbasbag69
(g85
g71
NtRp1007
(dp1008
g74
(dp1009
sg83
g477
sg76
(lp1010
g69
(g90
g71
NtRp1011
(dp1012
g74
(dp1013
g94
g95
ssg83
g1007
sg76
(lp1014
S'server_name'
p1015
asbag69
(g90
g71
NtRp1016
(dp1017
g74
(dp1018
g101
g102
ssg83
g1007
sg76
(lp1019
S':'
asbag69
(g90
g71
NtRp1020
(dp1021
g74
(dp1022
sg83
g1007
sg76
(lp1023
g69
(g70
g71
NtRp1024
(dp1025
g74
(dp1026
g82
I4
ssg83
g1020
sg76
(lp1027
S'Bishop-PC'
p1028
asbasbasbag69
(g85
g71
NtRp1029
(dp1030
g74
(dp1031
sg83
g477
sg76
(lp1032
g69
(g90
g71
NtRp1033
(dp1034
g74
(dp1035
g94
g95
ssg83
g1029
sg76
(lp1036
S'server_port'
p1037
asbag69
(g90
g71
NtRp1038
(dp1039
g74
(dp1040
g101
g102
ssg83
g1029
sg76
(lp1041
S':'
asbag69
(g90
g71
NtRp1042
(dp1043
g74
(dp1044
sg83
g1029
sg76
(lp1045
g69
(g70
g71
NtRp1046
(dp1047
g74
(dp1048
g82
I4
ssg83
g1042
sg76
(lp1049
S'8000'
p1050
asbasbasbag69
(g85
g71
NtRp1051
(dp1052
g74
(dp1053
sg83
g477
sg76
(lp1054
g69
(g90
g71
NtRp1055
(dp1056
g74
(dp1057
g94
g95
ssg83
g1051
sg76
(lp1058
S'server_protocol'
p1059
asbag69
(g90
g71
NtRp1060
(dp1061
g74
(dp1062
g101
g102
ssg83
g1051
sg76
(lp1063
S':'
asbag69
(g90
g71
NtRp1064
(dp1065
g74
(dp1066
sg83
g1051
sg76
(lp1067
g69
(g70
g71
NtRp1068
(dp1069
g74
(dp1070
g82
I4
ssg83
g1064
sg76
(lp1071
S'HTTP/1.1'
p1072
asbasbasbag69
(g85
g71
NtRp1073
(dp1074
g74
(dp1075
sg83
g477
sg76
(lp1076
g69
(g90
g71
NtRp1077
(dp1078
g74
(dp1079
g94
g95
ssg83
g1073
sg76
(lp1080
S'server_software'
p1081
asbag69
(g90
g71
NtRp1082
(dp1083
g74
(dp1084
g101
g102
ssg83
g1073
sg76
(lp1085
S':'
asbag69
(g90
g71
NtRp1086
(dp1087
g74
(dp1088
sg83
g1073
sg76
(lp1089
g69
(g70
g71
NtRp1090
(dp1091
g74
(dp1092
g82
I4
ssg83
g1086
sg76
(lp1093
S'Rocket 1.2.4'
p1094
asbasbasbag69
(g85
g71
NtRp1095
(dp1096
g74
(dp1097
sg83
g477
sg76
(lp1098
g69
(g90
g71
NtRp1099
(dp1100
g74
(dp1101
g94
g95
ssg83
g1095
sg76
(lp1102
S'web2py_crontype'
p1103
asbag69
(g90
g71
NtRp1104
(dp1105
g74
(dp1106
g101
g102
ssg83
g1095
sg76
(lp1107
S':'
asbag69
(g90
g71
NtRp1108
(dp1109
g74
(dp1110
sg83
g1095
sg76
(lp1111
g69
(g70
g71
NtRp1112
(dp1113
g74
(dp1114
g82
I4
ssg83
g1108
sg76
(lp1115
S'hard'
p1116
asbasbasbag69
(g85
g71
NtRp1117
(dp1118
g74
(dp1119
sg83
g477
sg76
(lp1120
g69
(g90
g71
NtRp1121
(dp1122
g74
(dp1123
g94
g95
ssg83
g1117
sg76
(lp1124
S'web2py_path'
p1125
asbag69
(g90
g71
NtRp1126
(dp1127
g74
(dp1128
g101
g102
ssg83
g1117
sg76
(lp1129
S':'
asbag69
(g90
g71
NtRp1130
(dp1131
g74
(dp1132
sg83
g1117
sg76
(lp1133
g69
(g70
g71
NtRp1134
(dp1135
g74
(dp1136
g82
I4
ssg83
g1130
sg76
(lp1137
g524
asbasbasbag69
(g85
g71
NtRp1138
(dp1139
g74
(dp1140
sg83
g477
sg76
(lp1141
g69
(g90
g71
NtRp1142
(dp1143
g74
(dp1144
g94
g95
ssg83
g1138
sg76
(lp1145
S'web2py_version'
p1146
asbag69
(g90
g71
NtRp1147
(dp1148
g74
(dp1149
g101
g102
ssg83
g1138
sg76
(lp1150
S':'
asbag69
(g90
g71
NtRp1151
(dp1152
g74
(dp1153
sg83
g1138
sg76
(lp1154
g69
(g70
g71
NtRp1155
(dp1156
g74
(dp1157
g82
I4
ssg83
g1151
sg76
(lp1158
g69
(g78
g71
NtRp1159
(dp1160
g74
(dp1161
g82
I3
ssg83
Nsg76
(lp1162
g69
(g85
g71
NtRp1163
(dp1164
g74
(dp1165
sg83
g1159
sg76
(lp1166
g69
(g90
g71
NtRp1167
(dp1168
g74
(dp1169
sg83
g1163
sg76
(lp1170
g69
(g70
g71
NtRp1171
(dp1172
g74
(dp1173
g82
I3
ssg83
g1167
sg76
(lp1174
S'1'
asbasbasbag69
(g85
g71
NtRp1175
(dp1176
g74
(dp1177
sg83
g1159
sg76
(lp1178
g69
(g90
g71
NtRp1179
(dp1180
g74
(dp1181
sg83
g1175
sg76
(lp1182
g69
(g70
g71
NtRp1183
(dp1184
g74
(dp1185
g82
I3
ssg83
g1179
sg76
(lp1186
S'99'
p1187
asbasbasbag69
(g85
g71
NtRp1188
(dp1189
g74
(dp1190
sg83
g1159
sg76
(lp1191
g69
(g90
g71
NtRp1192
(dp1193
g74
(dp1194
sg83
g1188
sg76
(lp1195
g69
(g70
g71
NtRp1196
(dp1197
g74
(dp1198
g82
I3
ssg83
g1192
sg76
(lp1199
S'3'
asbasbasbag69
(g85
g71
NtRp1200
(dp1201
g74
(dp1202
sg83
g1159
sg76
(lp1203
g69
(g90
g71
NtRp1204
(dp1205
g74
(dp1206
sg83
g1200
sg76
(lp1207
g69
(g70
g71
NtRp1208
(dp1209
g74
(dp1210
g82
I3
ssg83
g1204
sg76
(lp1211
S'datetime.datetime(2011, 11, 1, 8, 28, 28)'
p1212
asbasbasbag69
(g85
g71
NtRp1213
(dp1214
g74
(dp1215
sg83
g1159
sg76
(lp1216
g69
(g90
g71
NtRp1217
(dp1218
g74
(dp1219
sg83
g1213
sg76
(lp1220
g69
(g70
g71
NtRp1221
(dp1222
g74
(dp1223
g82
I3
ssg83
g1217
sg76
(lp1224
S'dev'
p1225
asbasbasbasbasbasbasbag69
(g85
g71
NtRp1226
(dp1227
g74
(dp1228
sg83
g477
sg76
(lp1229
g69
(g90
g71
NtRp1230
(dp1231
g74
(dp1232
g94
g95
ssg83
g1226
sg76
(lp1233
S'wsgi_errors'
p1234
asbag69
(g90
g71
NtRp1235
(dp1236
g74
(dp1237
g101
g102
ssg83
g1226
sg76
(lp1238
S':'
asbag69
(g90
g71
NtRp1239
(dp1240
g74
(dp1241
sg83
g1226
sg76
(lp1242
g69
(g70
g71
NtRp1243
(dp1244
g74
(dp1245
g82
I4
ssg83
g1239
sg76
(lp1246
S"<open file '<stderr>', mode 'w' at 0x004C50D0>"
p1247
asbasbasbag69
(g85
g71
NtRp1248
(dp1249
g74
(dp1250
sg83
g477
sg76
(lp1251
g69
(g90
g71
NtRp1252
(dp1253
g74
(dp1254
g94
g95
ssg83
g1248
sg76
(lp1255
S'wsgi_file_wrapper'
p1256
asbag69
(g90
g71
NtRp1257
(dp1258
g74
(dp1259
g101
g102
ssg83
g1248
sg76
(lp1260
S':'
asbag69
(g90
g71
NtRp1261
(dp1262
g74
(dp1263
sg83
g1248
sg76
(lp1264
g69
(g70
g71
NtRp1265
(dp1266
g74
(dp1267
g82
I4
ssg83
g1261
sg76
(lp1268
S'<class wsgiref.util.FileWrapper at 0x02E67AB0>'
p1269
asbasbasbag69
(g85
g71
NtRp1270
(dp1271
g74
(dp1272
sg83
g477
sg76
(lp1273
g69
(g90
g71
NtRp1274
(dp1275
g74
(dp1276
g94
g95
ssg83
g1270
sg76
(lp1277
S'wsgi_input'
p1278
asbag69
(g90
g71
NtRp1279
(dp1280
g74
(dp1281
g101
g102
ssg83
g1270
sg76
(lp1282
S':'
asbag69
(g90
g71
NtRp1283
(dp1284
g74
(dp1285
sg83
g1270
sg76
(lp1286
g69
(g70
g71
NtRp1287
(dp1288
g74
(dp1289
g82
I4
ssg83
g1283
sg76
(lp1290
S'<socket._fileobject object at 0x033F1530>'
p1291
asbasbasbag69
(g85
g71
NtRp1292
(dp1293
g74
(dp1294
sg83
g477
sg76
(lp1295
g69
(g90
g71
NtRp1296
(dp1297
g74
(dp1298
g94
g95
ssg83
g1292
sg76
(lp1299
S'wsgi_multiprocess'
p1300
asbag69
(g90
g71
NtRp1301
(dp1302
g74
(dp1303
g101
g102
ssg83
g1292
sg76
(lp1304
S':'
asbag69
(g90
g71
NtRp1305
(dp1306
g74
(dp1307
sg83
g1292
sg76
(lp1308
g69
(g70
g71
NtRp1309
(dp1310
g74
(dp1311
g82
I4
ssg83
g1305
sg76
(lp1312
g112
asbasbasbag69
(g85
g71
NtRp1313
(dp1314
g74
(dp1315
sg83
g477
sg76
(lp1316
g69
(g90
g71
NtRp1317
(dp1318
g74
(dp1319
g94
g95
ssg83
g1313
sg76
(lp1320
S'wsgi_multithread'
p1321
asbag69
(g90
g71
NtRp1322
(dp1323
g74
(dp1324
g101
g102
ssg83
g1313
sg76
(lp1325
S':'
asbag69
(g90
g71
NtRp1326
(dp1327
g74
(dp1328
sg83
g1313
sg76
(lp1329
g69
(g70
g71
NtRp1330
(dp1331
g74
(dp1332
g82
I4
ssg83
g1326
sg76
(lp1333
S'True'
p1334
asbasbasbag69
(g85
g71
NtRp1335
(dp1336
g74
(dp1337
sg83
g477
sg76
(lp1338
g69
(g90
g71
NtRp1339
(dp1340
g74
(dp1341
g94
g95
ssg83
g1335
sg76
(lp1342
S'wsgi_run_once'
p1343
asbag69
(g90
g71
NtRp1344
(dp1345
g74
(dp1346
g101
g102
ssg83
g1335
sg76
(lp1347
S':'
asbag69
(g90
g71
NtRp1348
(dp1349
g74
(dp1350
sg83
g1335
sg76
(lp1351
g69
(g70
g71
NtRp1352
(dp1353
g74
(dp1354
g82
I4
ssg83
g1348
sg76
(lp1355
g112
asbasbasbag69
(g85
g71
NtRp1356
(dp1357
g74
(dp1358
sg83
g477
sg76
(lp1359
g69
(g90
g71
NtRp1360
(dp1361
g74
(dp1362
g94
g95
ssg83
g1356
sg76
(lp1363
S'wsgi_url_scheme'
p1364
asbag69
(g90
g71
NtRp1365
(dp1366
g74
(dp1367
g101
g102
ssg83
g1356
sg76
(lp1368
S':'
asbag69
(g90
g71
NtRp1369
(dp1370
g74
(dp1371
sg83
g1356
sg76
(lp1372
g69
(g70
g71
NtRp1373
(dp1374
g74
(dp1375
g82
I4
ssg83
g1369
sg76
(lp1376
S'http'
p1377
asbasbasbag69
(g85
g71
NtRp1378
(dp1379
g74
(dp1380
sg83
g477
sg76
(lp1381
g69
(g90
g71
NtRp1382
(dp1383
g74
(dp1384
g94
g95
ssg83
g1378
sg76
(lp1385
S'wsgi_version'
p1386
asbag69
(g90
g71
NtRp1387
(dp1388
g74
(dp1389
g101
g102
ssg83
g1378
sg76
(lp1390
S':'
asbag69
(g90
g71
NtRp1391
(dp1392
g74
(dp1393
sg83
g1378
sg76
(lp1394
g69
(g70
g71
NtRp1395
(dp1396
g74
(dp1397
g82
I4
ssg83
g1391
sg76
(lp1398
g69
(g78
g71
NtRp1399
(dp1400
g74
(dp1401
g82
I3
ssg83
Nsg76
(lp1402
g69
(g85
g71
NtRp1403
(dp1404
g74
(dp1405
sg83
g1399
sg76
(lp1406
g69
(g90
g71
NtRp1407
(dp1408
g74
(dp1409
sg83
g1403
sg76
(lp1410
g69
(g70
g71
NtRp1411
(dp1412
g74
(dp1413
g82
I3
ssg83
g1407
sg76
(lp1414
S'1'
asbasbasbag69
(g85
g71
NtRp1415
(dp1416
g74
(dp1417
sg83
g1399
sg76
(lp1418
g69
(g90
g71
NtRp1419
(dp1420
g74
(dp1421
sg83
g1415
sg76
(lp1422
g69
(g70
g71
NtRp1423
(dp1424
g74
(dp1425
g82
I3
ssg83
g1419
sg76
(lp1426
S'0'
asbasbasbasbasbasbasbasbasbasbasbag69
(g85
g71
NtRp1427
(dp1428
g74
(dp1429
sg83
g79
sg76
(lp1430
g69
(g90
g71
NtRp1431
(dp1432
g74
(dp1433
g94
g95
ssg83
g1427
sg76
(lp1434
S'extension'
p1435
asbag69
(g90
g71
NtRp1436
(dp1437
g74
(dp1438
g101
g102
ssg83
g1427
sg76
(lp1439
S':'
asbag69
(g90
g71
NtRp1440
(dp1441
g74
(dp1442
sg83
g1427
sg76
(lp1443
g69
(g70
g71
NtRp1444
(dp1445
g74
(dp1446
g82
I5
ssg83
g1440
sg76
(lp1447
S'html'
p1448
asbasbasbag69
(g85
g71
NtRp1449
(dp1450
g74
(dp1451
sg83
g79
sg76
(lp1452
g69
(g90
g71
NtRp1453
(dp1454
g74
(dp1455
g94
g95
ssg83
g1449
sg76
(lp1456
S'folder'
p1457
asbag69
(g90
g71
NtRp1458
(dp1459
g74
(dp1460
g101
g102
ssg83
g1449
sg76
(lp1461
S':'
asbag69
(g90
g71
NtRp1462
(dp1463
g74
(dp1464
sg83
g1449
sg76
(lp1465
g69
(g70
g71
NtRp1466
(dp1467
g74
(dp1468
g82
I5
ssg83
g1462
sg76
(lp1469
S'P:\\School\\DePaul\\Projects\\CSC_438\\web2py\\applications\\init\\'
p1470
asbasbasbag69
(g85
g71
NtRp1471
(dp1472
g74
(dp1473
sg83
g79
sg76
(lp1474
g69
(g90
g71
NtRp1475
(dp1476
g74
(dp1477
g94
g95
ssg83
g1471
sg76
(lp1478
S'function'
p1479
asbag69
(g90
g71
NtRp1480
(dp1481
g74
(dp1482
g101
g102
ssg83
g1471
sg76
(lp1483
S':'
asbag69
(g90
g71
NtRp1484
(dp1485
g74
(dp1486
sg83
g1471
sg76
(lp1487
g69
(g70
g71
NtRp1488
(dp1489
g74
(dp1490
g82
I5
ssg83
g1484
sg76
(lp1491
S'user'
p1492
asbasbasbag69
(g85
g71
NtRp1493
(dp1494
g74
(dp1495
sg83
g79
sg76
(lp1496
g69
(g90
g71
NtRp1497
(dp1498
g74
(dp1499
g94
g95
ssg83
g1493
sg76
(lp1500
S'get_vars'
p1501
asbag69
(g90
g71
NtRp1502
(dp1503
g74
(dp1504
g101
g102
ssg83
g1493
sg76
(lp1505
S':'
asbag69
(g90
g71
NtRp1506
(dp1507
g74
(dp1508
sg83
g1493
sg76
(lp1509
g69
(g70
g71
NtRp1510
(dp1511
g74
(dp1512
g82
I5
ssg83
g1506
sg76
(lp1513
g69
(g78
g71
NtRp1514
(dp1515
g74
(dp1516
g82
I4
ssg83
Nsg76
(lp1517
sbasbasbasbag69
(g85
g71
NtRp1518
(dp1519
g74
(dp1520
sg83
g79
sg76
(lp1521
g69
(g90
g71
NtRp1522
(dp1523
g74
(dp1524
g94
g95
ssg83
g1518
sg76
(lp1525
S'global_settings'
p1526
asbag69
(g90
g71
NtRp1527
(dp1528
g74
(dp1529
g101
g102
ssg83
g1518
sg76
(lp1530
S':'
asbag69
(g90
g71
NtRp1531
(dp1532
g74
(dp1533
sg83
g1518
sg76
(lp1534
g69
(g70
g71
NtRp1535
(dp1536
g74
(dp1537
g82
I5
ssg83
g1531
sg76
(lp1538
g69
(g78
g71
NtRp1539
(dp1540
g74
(dp1541
g82
I4
ssg83
Nsg76
(lp1542
g69
(g85
g71
NtRp1543
(dp1544
g74
(dp1545
sg83
g1539
sg76
(lp1546
g69
(g90
g71
NtRp1547
(dp1548
g74
(dp1549
g94
g95
ssg83
g1543
sg76
(lp1550
g489
asbag69
(g90
g71
NtRp1551
(dp1552
g74
(dp1553
g101
g102
ssg83
g1543
sg76
(lp1554
S':'
asbag69
(g90
g71
NtRp1555
(dp1556
g74
(dp1557
sg83
g1543
sg76
(lp1558
g69
(g70
g71
NtRp1559
(dp1560
g74
(dp1561
g82
I4
ssg83
g1555
sg76
(lp1562
S"set(['P:\\\\School\\\\DePaul\\\\Projects\\\\CSC_438\\\\web2py\\\\applications\\\\init\\\\'])"
p1563
asbasbasbag69
(g85
g71
NtRp1564
(dp1565
g74
(dp1566
sg83
g1539
sg76
(lp1567
g69
(g90
g71
NtRp1568
(dp1569
g74
(dp1570
g94
g95
ssg83
g1564
sg76
(lp1571
g511
asbag69
(g90
g71
NtRp1572
(dp1573
g74
(dp1574
g101
g102
ssg83
g1564
sg76
(lp1575
S':'
asbag69
(g90
g71
NtRp1576
(dp1577
g74
(dp1578
sg83
g1564
sg76
(lp1579
g69
(g70
g71
NtRp1580
(dp1581
g74
(dp1582
g82
I4
ssg83
g1576
sg76
(lp1583
g524
asbasbasbag69
(g85
g71
NtRp1584
(dp1585
g74
(dp1586
sg83
g1539
sg76
(lp1587
g69
(g90
g71
NtRp1588
(dp1589
g74
(dp1590
g94
g95
ssg83
g1584
sg76
(lp1591
g533
asbag69
(g90
g71
NtRp1592
(dp1593
g74
(dp1594
g101
g102
ssg83
g1584
sg76
(lp1595
S':'
asbag69
(g90
g71
NtRp1596
(dp1597
g74
(dp1598
sg83
g1584
sg76
(lp1599
g69
(g70
g71
NtRp1600
(dp1601
g74
(dp1602
g82
I4
ssg83
g1596
sg76
(lp1603
g69
(g78
g71
NtRp1604
(dp1605
g74
(dp1606
g82
I3
ssg83
Nsg76
(lp1607
sbasbasbasbag69
(g85
g71
NtRp1608
(dp1609
g74
(dp1610
sg83
g1539
sg76
(lp1611
g69
(g90
g71
NtRp1612
(dp1613
g74
(dp1614
g94
g95
ssg83
g1608
sg76
(lp1615
g558
asbag69
(g90
g71
NtRp1616
(dp1617
g74
(dp1618
g101
g102
ssg83
g1608
sg76
(lp1619
S':'
asbag69
(g90
g71
NtRp1620
(dp1621
g74
(dp1622
sg83
g1608
sg76
(lp1623
g69
(g70
g71
NtRp1624
(dp1625
g74
(dp1626
g82
I4
ssg83
g1620
sg76
(lp1627
S"<Values at 0x2f41cd8: {'verbose': False, 'ip': '127.0.0.1', 'shutdown_timeout': 5, 'taskbar': False, 'nocron': False, 'pid_filename': 'httpserver.pid', 'maxthreads': None, 'softcron': False, 'server_name': 'Bishop-PC', 'bpython': False, 'nogui': False, 'port': 8000, 'extcron': False, 'debuglevel': 30, 'test': None, 'folder': 'P:\\\\School\\\\DePaul\\\\Projects\\\\CSC_438\\\\web2py', 'config': '', 'import_models': False, 'winservice': '', 'shell': None, 'run': '', 'log_filename': 'httpserver.log', 'args': [''], 'ssl_ca_certificate': None, 'scheduler': None, 'profiler_filename': None, 'ssl_private_key': '', 'password': '<ask>', 'request_queue_size': 5, 'ssl_certificate': '', 'cronjob': False, 'plain': False, 'quiet': False, 'interfaces': None, 'minthreads': None, 'timeout': 10, 'numthreads': None, 'nobanner': False}>"
p1628
asbasbasbag69
(g85
g71
NtRp1629
(dp1630
g74
(dp1631
sg83
g1539
sg76
(lp1632
g69
(g90
g71
NtRp1633
(dp1634
g74
(dp1635
g94
g95
ssg83
g1629
sg76
(lp1636
g580
asbag69
(g90
g71
NtRp1637
(dp1638
g74
(dp1639
g101
g102
ssg83
g1629
sg76
(lp1640
S':'
asbag69
(g90
g71
NtRp1641
(dp1642
g74
(dp1643
sg83
g1629
sg76
(lp1644
g69
(g70
g71
NtRp1645
(dp1646
g74
(dp1647
g82
I4
ssg83
g1641
sg76
(lp1648
S'set([])'
p1649
asbasbasbag69
(g85
g71
NtRp1650
(dp1651
g74
(dp1652
sg83
g1539
sg76
(lp1653
g69
(g90
g71
NtRp1654
(dp1655
g74
(dp1656
g94
g95
ssg83
g1650
sg76
(lp1657
g602
asbag69
(g90
g71
NtRp1658
(dp1659
g74
(dp1660
g101
g102
ssg83
g1650
sg76
(lp1661
S':'
asbag69
(g90
g71
NtRp1662
(dp1663
g74
(dp1664
sg83
g1650
sg76
(lp1665
g69
(g70
g71
NtRp1666
(dp1667
g74
(dp1668
g82
I4
ssg83
g1662
sg76
(lp1669
g112
asbasbasbag69
(g85
g71
NtRp1670
(dp1671
g74
(dp1672
sg83
g1539
sg76
(lp1673
g69
(g90
g71
NtRp1674
(dp1675
g74
(dp1676
g94
g95
ssg83
g1670
sg76
(lp1677
g623
asbag69
(g90
g71
NtRp1678
(dp1679
g74
(dp1680
g101
g102
ssg83
g1670
sg76
(lp1681
S':'
asbag69
(g90
g71
NtRp1682
(dp1683
g74
(dp1684
sg83
g1670
sg76
(lp1685
g69
(g70
g71
NtRp1686
(dp1687
g74
(dp1688
g82
I4
ssg83
g1682
sg76
(lp1689
g636
asbasbasbag69
(g85
g71
NtRp1690
(dp1691
g74
(dp1692
sg83
g1539
sg76
(lp1693
g69
(g90
g71
NtRp1694
(dp1695
g74
(dp1696
g94
g95
ssg83
g1690
sg76
(lp1697
g865
asbag69
(g90
g71
NtRp1698
(dp1699
g74
(dp1700
g101
g102
ssg83
g1690
sg76
(lp1701
S':'
asbag69
(g90
g71
NtRp1702
(dp1703
g74
(dp1704
sg83
g1690
sg76
(lp1705
g69
(g70
g71
NtRp1706
(dp1707
g74
(dp1708
g82
I4
ssg83
g1702
sg76
(lp1709
g112
asbasbasbag69
(g85
g71
NtRp1710
(dp1711
g74
(dp1712
sg83
g1539
sg76
(lp1713
g69
(g90
g71
NtRp1714
(dp1715
g74
(dp1716
g94
g95
ssg83
g1710
sg76
(lp1717
g1103
asbag69
(g90
g71
NtRp1718
(dp1719
g74
(dp1720
g101
g102
ssg83
g1710
sg76
(lp1721
S':'
asbag69
(g90
g71
NtRp1722
(dp1723
g74
(dp1724
sg83
g1710
sg76
(lp1725
g69
(g70
g71
NtRp1726
(dp1727
g74
(dp1728
g82
I4
ssg83
g1722
sg76
(lp1729
g1116
asbasbasbag69
(g85
g71
NtRp1730
(dp1731
g74
(dp1732
sg83
g1539
sg76
(lp1733
g69
(g90
g71
NtRp1734
(dp1735
g74
(dp1736
g94
g95
ssg83
g1730
sg76
(lp1737
g1146
asbag69
(g90
g71
NtRp1738
(dp1739
g74
(dp1740
g101
g102
ssg83
g1730
sg76
(lp1741
S':'
asbag69
(g90
g71
NtRp1742
(dp1743
g74
(dp1744
sg83
g1730
sg76
(lp1745
g69
(g70
g71
NtRp1746
(dp1747
g74
(dp1748
g82
I4
ssg83
g1742
sg76
(lp1749
g69
(g78
g71
NtRp1750
(dp1751
g74
(dp1752
g82
I3
ssg83
Nsg76
(lp1753
g69
(g85
g71
NtRp1754
(dp1755
g74
(dp1756
sg83
g1750
sg76
(lp1757
g69
(g90
g71
NtRp1758
(dp1759
g74
(dp1760
sg83
g1754
sg76
(lp1761
g69
(g70
g71
NtRp1762
(dp1763
g74
(dp1764
g82
I3
ssg83
g1758
sg76
(lp1765
S'1'
asbasbasbag69
(g85
g71
NtRp1766
(dp1767
g74
(dp1768
sg83
g1750
sg76
(lp1769
g69
(g90
g71
NtRp1770
(dp1771
g74
(dp1772
sg83
g1766
sg76
(lp1773
g69
(g70
g71
NtRp1774
(dp1775
g74
(dp1776
g82
I3
ssg83
g1770
sg76
(lp1777
S'99'
p1778
asbasbasbag69
(g85
g71
NtRp1779
(dp1780
g74
(dp1781
sg83
g1750
sg76
(lp1782
g69
(g90
g71
NtRp1783
(dp1784
g74
(dp1785
sg83
g1779
sg76
(lp1786
g69
(g70
g71
NtRp1787
(dp1788
g74
(dp1789
g82
I3
ssg83
g1783
sg76
(lp1790
S'3'
asbasbasbag69
(g85
g71
NtRp1791
(dp1792
g74
(dp1793
sg83
g1750
sg76
(lp1794
g69
(g90
g71
NtRp1795
(dp1796
g74
(dp1797
sg83
g1791
sg76
(lp1798
g69
(g70
g71
NtRp1799
(dp1800
g74
(dp1801
g82
I3
ssg83
g1795
sg76
(lp1802
S'datetime.datetime(2011, 11, 1, 8, 28, 28)'
p1803
asbasbasbag69
(g85
g71
NtRp1804
(dp1805
g74
(dp1806
sg83
g1750
sg76
(lp1807
g69
(g90
g71
NtRp1808
(dp1809
g74
(dp1810
sg83
g1804
sg76
(lp1811
g69
(g70
g71
NtRp1812
(dp1813
g74
(dp1814
g82
I3
ssg83
g1808
sg76
(lp1815
g1225
asbasbasbasbasbasbasbasbasbasbasbag69
(g85
g71
NtRp1816
(dp1817
g74
(dp1818
sg83
g79
sg76
(lp1819
g69
(g90
g71
NtRp1820
(dp1821
g74
(dp1822
g94
g95
ssg83
g1816
sg76
(lp1823
S'is_https'
p1824
asbag69
(g90
g71
NtRp1825
(dp1826
g74
(dp1827
g101
g102
ssg83
g1816
sg76
(lp1828
S':'
asbag69
(g90
g71
NtRp1829
(dp1830
g74
(dp1831
sg83
g1816
sg76
(lp1832
g69
(g70
g71
NtRp1833
(dp1834
g74
(dp1835
g82
I5
ssg83
g1829
sg76
(lp1836
g112
asbasbasbag69
(g85
g71
NtRp1837
(dp1838
g74
(dp1839
sg83
g79
sg76
(lp1840
g69
(g90
g71
NtRp1841
(dp1842
g74
(dp1843
g94
g95
ssg83
g1837
sg76
(lp1844
S'is_local'
p1845
asbag69
(g90
g71
NtRp1846
(dp1847
g74
(dp1848
g101
g102
ssg83
g1837
sg76
(lp1849
S':'
asbag69
(g90
g71
NtRp1850
(dp1851
g74
(dp1852
sg83
g1837
sg76
(lp1853
g69
(g70
g71
NtRp1854
(dp1855
g74
(dp1856
g82
I5
ssg83
g1850
sg76
(lp1857
g1334
asbasbasbag69
(g85
g71
NtRp1858
(dp1859
g74
(dp1860
sg83
g79
sg76
(lp1861
g69
(g90
g71
NtRp1862
(dp1863
g74
(dp1864
g94
g95
ssg83
g1858
sg76
(lp1865
S'is_restful'
p1866
asbag69
(g90
g71
NtRp1867
(dp1868
g74
(dp1869
g101
g102
ssg83
g1858
sg76
(lp1870
S':'
asbag69
(g90
g71
NtRp1871
(dp1872
g74
(dp1873
sg83
g1858
sg76
(lp1874
g69
(g70
g71
NtRp1875
(dp1876
g74
(dp1877
g82
I5
ssg83
g1871
sg76
(lp1878
g112
asbasbasbag69
(g85
g71
NtRp1879
(dp1880
g74
(dp1881
sg83
g79
sg76
(lp1882
g69
(g90
g71
NtRp1883
(dp1884
g74
(dp1885
g94
g95
ssg83
g1879
sg76
(lp1886
S'now'
p1887
asbag69
(g90
g71
NtRp1888
(dp1889
g74
(dp1890
g101
g102
ssg83
g1879
sg76
(lp1891
S':'
asbag69
(g90
g71
NtRp1892
(dp1893
g74
(dp1894
sg83
g1879
sg76
(lp1895
g69
(g70
g71
NtRp1896
(dp1897
g74
(dp1898
g82
I5
ssg83
g1892
sg76
(lp1899
S'datetime.datetime(2011, 11, 1, 21, 21, 6, 327000)'
p1900
asbasbasbag69
(g85
g71
NtRp1901
(dp1902
g74
(dp1903
sg83
g79
sg76
(lp1904
g69
(g90
g71
NtRp1905
(dp1906
g74
(dp1907
g94
g95
ssg83
g1901
sg76
(lp1908
S'post_vars'
p1909
asbag69
(g90
g71
NtRp1910
(dp1911
g74
(dp1912
g101
g102
ssg83
g1901
sg76
(lp1913
S':'
asbag69
(g90
g71
NtRp1914
(dp1915
g74
(dp1916
sg83
g1901
sg76
(lp1917
g69
(g70
g71
NtRp1918
(dp1919
g74
(dp1920
g82
I5
ssg83
g1914
sg76
(lp1921
g69
(g78
g71
NtRp1922
(dp1923
g74
(dp1924
g82
I4
ssg83
Nsg76
(lp1925
sbasbasbasbag69
(g85
g71
NtRp1926
(dp1927
g74
(dp1928
sg83
g79
sg76
(lp1929
g69
(g90
g71
NtRp1930
(dp1931
g74
(dp1932
g94
g95
ssg83
g1926
sg76
(lp1933
S'raw_args'
p1934
asbag69
(g90
g71
NtRp1935
(dp1936
g74
(dp1937
g101
g102
ssg83
g1926
sg76
(lp1938
S':'
asbag69
(g90
g71
NtRp1939
(dp1940
g74
(dp1941
sg83
g1926
sg76
(lp1942
g69
(g70
g71
NtRp1943
(dp1944
g74
(dp1945
g82
I5
ssg83
g1939
sg76
(lp1946
g171
asbasbasbag69
(g85
g71
NtRp1947
(dp1948
g74
(dp1949
sg83
g79
sg76
(lp1950
g69
(g90
g71
NtRp1951
(dp1952
g74
(dp1953
g94
g95
ssg83
g1947
sg76
(lp1954
S'url'
p1955
asbag69
(g90
g71
NtRp1956
(dp1957
g74
(dp1958
g101
g102
ssg83
g1947
sg76
(lp1959
S':'
asbag69
(g90
g71
NtRp1960
(dp1961
g74
(dp1962
sg83
g1947
sg76
(lp1963
g69
(g70
g71
NtRp1964
(dp1965
g74
(dp1966
g82
I5
ssg83
g1960
sg76
(lp1967
S'/init/default/user/register'
p1968
asbasbasbag69
(g85
g71
NtRp1969
(dp1970
g74
(dp1971
sg83
g79
sg76
(lp1972
g69
(g90
g71
NtRp1973
(dp1974
g74
(dp1975
g94
g95
ssg83
g1969
sg76
(lp1976
S'utcnow'
p1977
asbag69
(g90
g71
NtRp1978
(dp1979
g74
(dp1980
g101
g102
ssg83
g1969
sg76
(lp1981
S':'
asbag69
(g90
g71
NtRp1982
(dp1983
g74
(dp1984
sg83
g1969
sg76
(lp1985
g69
(g70
g71
NtRp1986
(dp1987
g74
(dp1988
g82
I5
ssg83
g1982
sg76
(lp1989
S'datetime.datetime(2011, 11, 2, 1, 21, 6, 327000)'
p1990
asbasbasbag69
(g85
g71
NtRp1991
(dp1992
g74
(dp1993
sg83
g79
sg76
(lp1994
g69
(g90
g71
NtRp1995
(dp1996
g74
(dp1997
g94
g95
ssg83
g1991
sg76
(lp1998
S'uuid'
p1999
asbag69
(g90
g71
NtRp2000
(dp2001
g74
(dp2002
g101
g102
ssg83
g1991
sg76
(lp2003
S':'
asbag69
(g90
g71
NtRp2004
(dp2005
g74
(dp2006
sg83
g1991
sg76
(lp2007
g69
(g70
g71
NtRp2008
(dp2009
g74
(dp2010
g82
I5
ssg83
g2004
sg76
(lp2011
S'init/127.0.0.1.2011-11-01.21-21-06.1a51bdc5-9833-4162-9da4-659a099aab26'
p2012
asbasbasbag69
(g85
g71
NtRp2013
(dp2014
g74
(dp2015
sg83
g79
sg76
(lp2016
g69
(g90
g71
NtRp2017
(dp2018
g74
(dp2019
g94
g95
ssg83
g2013
sg76
(lp2020
S'vars'
p2021
asbag69
(g90
g71
NtRp2022
(dp2023
g74
(dp2024
g101
g102
ssg83
g2013
sg76
(lp2025
S':'
asbag69
(g90
g71
NtRp2026
(dp2027
g74
(dp2028
sg83
g2013
sg76
(lp2029
g69
(g70
g71
NtRp2030
(dp2031
g74
(dp2032
g82
I5
ssg83
g2026
sg76
(lp2033
g69
(g78
g71
NtRp2034
(dp2035
g74
(dp2036
g82
I4
ssg83
Nsg76
(lp2037
sbasbasbasbag69
(g85
g71
NtRp2038
(dp2039
g74
(dp2040
sg83
g79
sg76
(lp2041
g69
(g90
g71
NtRp2042
(dp2043
g74
(dp2044
g94
g95
ssg83
g2038
sg76
(lp2045
S'wsgi'
p2046
asbag69
(g90
g71
NtRp2047
(dp2048
g74
(dp2049
g101
g102
ssg83
g2038
sg76
(lp2050
S':'
asbag69
(g90
g71
NtRp2051
(dp2052
g74
(dp2053
sg83
g2038
sg76
(lp2054
g69
(g70
g71
NtRp2055
(dp2056
g74
(dp2057
g82
I5
ssg83
g2051
sg76
(lp2058
g69
(g78
g71
NtRp2059
(dp2060
g74
(dp2061
g82
I4
ssg83
Nsg76
(lp2062
g69
(g85
g71
NtRp2063
(dp2064
g74
(dp2065
sg83
g2059
sg76
(lp2066
g69
(g90
g71
NtRp2067
(dp2068
g74
(dp2069
g94
g95
ssg83
g2063
sg76
(lp2070
S'environ'
p2071
asbag69
(g90
g71
NtRp2072
(dp2073
g74
(dp2074
g101
g102
ssg83
g2063
sg76
(lp2075
S':'
asbag69
(g90
g71
NtRp2076
(dp2077
g74
(dp2078
sg83
g2063
sg76
(lp2079
g69
(g70
g71
NtRp2080
(dp2081
g74
(dp2082
g82
I4
ssg83
g2076
sg76
(lp2083
g69
(g78
g71
NtRp2084
(dp2085
g74
(dp2086
g82
I3
ssg83
Nsg76
(lp2087
g69
(g85
g71
NtRp2088
(dp2089
g74
(dp2090
sg83
g2084
sg76
(lp2091
g69
(g90
g71
NtRp2092
(dp2093
g74
(dp2094
g94
g95
ssg83
g2088
sg76
(lp2095
S'HTTP_ACCEPT'
p2096
asbag69
(g90
g71
NtRp2097
(dp2098
g74
(dp2099
g101
g102
ssg83
g2088
sg76
(lp2100
S':'
asbag69
(g90
g71
NtRp2101
(dp2102
g74
(dp2103
sg83
g2088
sg76
(lp2104
g69
(g70
g71
NtRp2105
(dp2106
g74
(dp2107
g82
I3
ssg83
g2101
sg76
(lp2108
g658
asbasbasbag69
(g85
g71
NtRp2109
(dp2110
g74
(dp2111
sg83
g2084
sg76
(lp2112
g69
(g90
g71
NtRp2113
(dp2114
g74
(dp2115
g94
g95
ssg83
g2109
sg76
(lp2116
S'HTTP_ACCEPT_CHARSET'
p2117
asbag69
(g90
g71
NtRp2118
(dp2119
g74
(dp2120
g101
g102
ssg83
g2109
sg76
(lp2121
S':'
asbag69
(g90
g71
NtRp2122
(dp2123
g74
(dp2124
sg83
g2109
sg76
(lp2125
g69
(g70
g71
NtRp2126
(dp2127
g74
(dp2128
g82
I3
ssg83
g2122
sg76
(lp2129
g680
asbasbasbag69
(g85
g71
NtRp2130
(dp2131
g74
(dp2132
sg83
g2084
sg76
(lp2133
g69
(g90
g71
NtRp2134
(dp2135
g74
(dp2136
g94
g95
ssg83
g2130
sg76
(lp2137
S'HTTP_ACCEPT_ENCODING'
p2138
asbag69
(g90
g71
NtRp2139
(dp2140
g74
(dp2141
g101
g102
ssg83
g2130
sg76
(lp2142
S':'
asbag69
(g90
g71
NtRp2143
(dp2144
g74
(dp2145
sg83
g2130
sg76
(lp2146
g69
(g70
g71
NtRp2147
(dp2148
g74
(dp2149
g82
I3
ssg83
g2143
sg76
(lp2150
g702
asbasbasbag69
(g85
g71
NtRp2151
(dp2152
g74
(dp2153
sg83
g2084
sg76
(lp2154
g69
(g90
g71
NtRp2155
(dp2156
g74
(dp2157
g94
g95
ssg83
g2151
sg76
(lp2158
S'HTTP_ACCEPT_LANGUAGE'
p2159
asbag69
(g90
g71
NtRp2160
(dp2161
g74
(dp2162
g101
g102
ssg83
g2151
sg76
(lp2163
S':'
asbag69
(g90
g71
NtRp2164
(dp2165
g74
(dp2166
sg83
g2151
sg76
(lp2167
g69
(g70
g71
NtRp2168
(dp2169
g74
(dp2170
g82
I3
ssg83
g2164
sg76
(lp2171
g724
asbasbasbag69
(g85
g71
NtRp2172
(dp2173
g74
(dp2174
sg83
g2084
sg76
(lp2175
g69
(g90
g71
NtRp2176
(dp2177
g74
(dp2178
g94
g95
ssg83
g2172
sg76
(lp2179
S'HTTP_CACHE_CONTROL'
p2180
asbag69
(g90
g71
NtRp2181
(dp2182
g74
(dp2183
g101
g102
ssg83
g2172
sg76
(lp2184
S':'
asbag69
(g90
g71
NtRp2185
(dp2186
g74
(dp2187
sg83
g2172
sg76
(lp2188
g69
(g70
g71
NtRp2189
(dp2190
g74
(dp2191
g82
I3
ssg83
g2185
sg76
(lp2192
g746
asbasbasbag69
(g85
g71
NtRp2193
(dp2194
g74
(dp2195
sg83
g2084
sg76
(lp2196
g69
(g90
g71
NtRp2197
(dp2198
g74
(dp2199
g94
g95
ssg83
g2193
sg76
(lp2200
S'HTTP_CONNECTION'
p2201
asbag69
(g90
g71
NtRp2202
(dp2203
g74
(dp2204
g101
g102
ssg83
g2193
sg76
(lp2205
S':'
asbag69
(g90
g71
NtRp2206
(dp2207
g74
(dp2208
sg83
g2193
sg76
(lp2209
g69
(g70
g71
NtRp2210
(dp2211
g74
(dp2212
g82
I3
ssg83
g2206
sg76
(lp2213
g768
asbasbasbag69
(g85
g71
NtRp2214
(dp2215
g74
(dp2216
sg83
g2084
sg76
(lp2217
g69
(g90
g71
NtRp2218
(dp2219
g74
(dp2220
g94
g95
ssg83
g2214
sg76
(lp2221
S'HTTP_COOKIE'
p2222
asbag69
(g90
g71
NtRp2223
(dp2224
g74
(dp2225
g101
g102
ssg83
g2214
sg76
(lp2226
S':'
asbag69
(g90
g71
NtRp2227
(dp2228
g74
(dp2229
sg83
g2214
sg76
(lp2230
g69
(g70
g71
NtRp2231
(dp2232
g74
(dp2233
g82
I3
ssg83
g2227
sg76
(lp2234
g790
asbasbasbag69
(g85
g71
NtRp2235
(dp2236
g74
(dp2237
sg83
g2084
sg76
(lp2238
g69
(g90
g71
NtRp2239
(dp2240
g74
(dp2241
g94
g95
ssg83
g2235
sg76
(lp2242
S'HTTP_HOST'
p2243
asbag69
(g90
g71
NtRp2244
(dp2245
g74
(dp2246
g101
g102
ssg83
g2235
sg76
(lp2247
S':'
asbag69
(g90
g71
NtRp2248
(dp2249
g74
(dp2250
sg83
g2235
sg76
(lp2251
g69
(g70
g71
NtRp2252
(dp2253
g74
(dp2254
g82
I3
ssg83
g2248
sg76
(lp2255
g812
asbasbasbag69
(g85
g71
NtRp2256
(dp2257
g74
(dp2258
sg83
g2084
sg76
(lp2259
g69
(g90
g71
NtRp2260
(dp2261
g74
(dp2262
g94
g95
ssg83
g2256
sg76
(lp2263
S'HTTP_KEEP_ALIVE'
p2264
asbag69
(g90
g71
NtRp2265
(dp2266
g74
(dp2267
g101
g102
ssg83
g2256
sg76
(lp2268
S':'
asbag69
(g90
g71
NtRp2269
(dp2270
g74
(dp2271
sg83
g2256
sg76
(lp2272
g69
(g70
g71
NtRp2273
(dp2274
g74
(dp2275
g82
I3
ssg83
g2269
sg76
(lp2276
g834
asbasbasbag69
(g85
g71
NtRp2277
(dp2278
g74
(dp2279
sg83
g2084
sg76
(lp2280
g69
(g90
g71
NtRp2281
(dp2282
g74
(dp2283
g94
g95
ssg83
g2277
sg76
(lp2284
S'HTTP_USER_AGENT'
p2285
asbag69
(g90
g71
NtRp2286
(dp2287
g74
(dp2288
g101
g102
ssg83
g2277
sg76
(lp2289
S':'
asbag69
(g90
g71
NtRp2290
(dp2291
g74
(dp2292
sg83
g2277
sg76
(lp2293
g69
(g70
g71
NtRp2294
(dp2295
g74
(dp2296
g82
I3
ssg83
g2290
sg76
(lp2297
g856
asbasbasbag69
(g85
g71
NtRp2298
(dp2299
g74
(dp2300
sg83
g2084
sg76
(lp2301
g69
(g90
g71
NtRp2302
(dp2303
g74
(dp2304
g94
g95
ssg83
g2298
sg76
(lp2305
S'PATH_INFO'
p2306
asbag69
(g90
g71
NtRp2307
(dp2308
g74
(dp2309
g101
g102
ssg83
g2298
sg76
(lp2310
S':'
asbag69
(g90
g71
NtRp2311
(dp2312
g74
(dp2313
sg83
g2298
sg76
(lp2314
g69
(g70
g71
NtRp2315
(dp2316
g74
(dp2317
g82
I3
ssg83
g2311
sg76
(lp2318
g899
asbasbasbag69
(g85
g71
NtRp2319
(dp2320
g74
(dp2321
sg83
g2084
sg76
(lp2322
g69
(g90
g71
NtRp2323
(dp2324
g74
(dp2325
g94
g95
ssg83
g2319
sg76
(lp2326
S'QUERY_STRING'
p2327
asbag69
(g90
g71
NtRp2328
(dp2329
g74
(dp2330
g101
g102
ssg83
g2319
sg76
(lp2331
S':'
asbag69
(g90
g71
NtRp2332
(dp2333
g74
(dp2334
sg83
g2319
sg76
(lp2335
g69
(g70
g71
NtRp2336
(dp2337
g74
(dp2338
g82
I3
ssg83
g2332
sg76
(lp2339
S''
asbasbasbag69
(g85
g71
NtRp2340
(dp2341
g74
(dp2342
sg83
g2084
sg76
(lp2343
g69
(g90
g71
NtRp2344
(dp2345
g74
(dp2346
g94
g95
ssg83
g2340
sg76
(lp2347
S'REMOTE_ADDR'
p2348
asbag69
(g90
g71
NtRp2349
(dp2350
g74
(dp2351
g101
g102
ssg83
g2340
sg76
(lp2352
S':'
asbag69
(g90
g71
NtRp2353
(dp2354
g74
(dp2355
sg83
g2340
sg76
(lp2356
g69
(g70
g71
NtRp2357
(dp2358
g74
(dp2359
g82
I3
ssg83
g2353
sg76
(lp2360
g215
asbasbasbag69
(g85
g71
NtRp2361
(dp2362
g74
(dp2363
sg83
g2084
sg76
(lp2364
g69
(g90
g71
NtRp2365
(dp2366
g74
(dp2367
g94
g95
ssg83
g2361
sg76
(lp2368
S'REMOTE_PORT'
p2369
asbag69
(g90
g71
NtRp2370
(dp2371
g74
(dp2372
g101
g102
ssg83
g2361
sg76
(lp2373
S':'
asbag69
(g90
g71
NtRp2374
(dp2375
g74
(dp2376
sg83
g2361
sg76
(lp2377
g69
(g70
g71
NtRp2378
(dp2379
g74
(dp2380
g82
I3
ssg83
g2374
sg76
(lp2381
g963
asbasbasbag69
(g85
g71
NtRp2382
(dp2383
g74
(dp2384
sg83
g2084
sg76
(lp2385
g69
(g90
g71
NtRp2386
(dp2387
g74
(dp2388
g94
g95
ssg83
g2382
sg76
(lp2389
S'REQUEST_METHOD'
p2390
asbag69
(g90
g71
NtRp2391
(dp2392
g74
(dp2393
g101
g102
ssg83
g2382
sg76
(lp2394
S':'
asbag69
(g90
g71
NtRp2395
(dp2396
g74
(dp2397
sg83
g2382
sg76
(lp2398
g69
(g70
g71
NtRp2399
(dp2400
g74
(dp2401
g82
I3
ssg83
g2395
sg76
(lp2402
g985
asbasbasbag69
(g85
g71
NtRp2403
(dp2404
g74
(dp2405
sg83
g2084
sg76
(lp2406
g69
(g90
g71
NtRp2407
(dp2408
g74
(dp2409
g94
g95
ssg83
g2403
sg76
(lp2410
S'SCRIPT_NAME'
p2411
asbag69
(g90
g71
NtRp2412
(dp2413
g74
(dp2414
g101
g102
ssg83
g2403
sg76
(lp2415
S':'
asbag69
(g90
g71
NtRp2416
(dp2417
g74
(dp2418
sg83
g2403
sg76
(lp2419
g69
(g70
g71
NtRp2420
(dp2421
g74
(dp2422
g82
I3
ssg83
g2416
sg76
(lp2423
S''
asbasbasbag69
(g85
g71
NtRp2424
(dp2425
g74
(dp2426
sg83
g2084
sg76
(lp2427
g69
(g90
g71
NtRp2428
(dp2429
g74
(dp2430
g94
g95
ssg83
g2424
sg76
(lp2431
S'SERVER_NAME'
p2432
asbag69
(g90
g71
NtRp2433
(dp2434
g74
(dp2435
g101
g102
ssg83
g2424
sg76
(lp2436
S':'
asbag69
(g90
g71
NtRp2437
(dp2438
g74
(dp2439
sg83
g2424
sg76
(lp2440
g69
(g70
g71
NtRp2441
(dp2442
g74
(dp2443
g82
I3
ssg83
g2437
sg76
(lp2444
g1028
asbasbasbag69
(g85
g71
NtRp2445
(dp2446
g74
(dp2447
sg83
g2084
sg76
(lp2448
g69
(g90
g71
NtRp2449
(dp2450
g74
(dp2451
g94
g95
ssg83
g2445
sg76
(lp2452
S'SERVER_PORT'
p2453
asbag69
(g90
g71
NtRp2454
(dp2455
g74
(dp2456
g101
g102
ssg83
g2445
sg76
(lp2457
S':'
asbag69
(g90
g71
NtRp2458
(dp2459
g74
(dp2460
sg83
g2445
sg76
(lp2461
g69
(g70
g71
NtRp2462
(dp2463
g74
(dp2464
g82
I3
ssg83
g2458
sg76
(lp2465
g1050
asbasbasbag69
(g85
g71
NtRp2466
(dp2467
g74
(dp2468
sg83
g2084
sg76
(lp2469
g69
(g90
g71
NtRp2470
(dp2471
g74
(dp2472
g94
g95
ssg83
g2466
sg76
(lp2473
S'SERVER_PROTOCOL'
p2474
asbag69
(g90
g71
NtRp2475
(dp2476
g74
(dp2477
g101
g102
ssg83
g2466
sg76
(lp2478
S':'
asbag69
(g90
g71
NtRp2479
(dp2480
g74
(dp2481
sg83
g2466
sg76
(lp2482
g69
(g70
g71
NtRp2483
(dp2484
g74
(dp2485
g82
I3
ssg83
g2479
sg76
(lp2486
g1072
asbasbasbag69
(g85
g71
NtRp2487
(dp2488
g74
(dp2489
sg83
g2084
sg76
(lp2490
g69
(g90
g71
NtRp2491
(dp2492
g74
(dp2493
g94
g95
ssg83
g2487
sg76
(lp2494
S'SERVER_SOFTWARE'
p2495
asbag69
(g90
g71
NtRp2496
(dp2497
g74
(dp2498
g101
g102
ssg83
g2487
sg76
(lp2499
S':'
asbag69
(g90
g71
NtRp2500
(dp2501
g74
(dp2502
sg83
g2487
sg76
(lp2503
g69
(g70
g71
NtRp2504
(dp2505
g74
(dp2506
g82
I3
ssg83
g2500
sg76
(lp2507
g1094
asbasbasbag69
(g85
g71
NtRp2508
(dp2509
g74
(dp2510
sg83
g2084
sg76
(lp2511
g69
(g90
g71
NtRp2512
(dp2513
g74
(dp2514
g94
g95
ssg83
g2508
sg76
(lp2515
S'wsgi.errors'
p2516
asbag69
(g90
g71
NtRp2517
(dp2518
g74
(dp2519
g101
g102
ssg83
g2508
sg76
(lp2520
S':'
asbag69
(g90
g71
NtRp2521
(dp2522
g74
(dp2523
sg83
g2508
sg76
(lp2524
g69
(g70
g71
NtRp2525
(dp2526
g74
(dp2527
g82
I3
ssg83
g2521
sg76
(lp2528
S"<open file '<stderr>', mode 'w' at 0x004C50D0>"
p2529
asbasbasbag69
(g85
g71
NtRp2530
(dp2531
g74
(dp2532
sg83
g2084
sg76
(lp2533
g69
(g90
g71
NtRp2534
(dp2535
g74
(dp2536
g94
g95
ssg83
g2530
sg76
(lp2537
S'wsgi.file_wrapper'
p2538
asbag69
(g90
g71
NtRp2539
(dp2540
g74
(dp2541
g101
g102
ssg83
g2530
sg76
(lp2542
S':'
asbag69
(g90
g71
NtRp2543
(dp2544
g74
(dp2545
sg83
g2530
sg76
(lp2546
g69
(g70
g71
NtRp2547
(dp2548
g74
(dp2549
g82
I3
ssg83
g2543
sg76
(lp2550
S'<class wsgiref.util.FileWrapper at 0x02E67AB0>'
p2551
asbasbasbag69
(g85
g71
NtRp2552
(dp2553
g74
(dp2554
sg83
g2084
sg76
(lp2555
g69
(g90
g71
NtRp2556
(dp2557
g74
(dp2558
g94
g95
ssg83
g2552
sg76
(lp2559
S'wsgi.input'
p2560
asbag69
(g90
g71
NtRp2561
(dp2562
g74
(dp2563
g101
g102
ssg83
g2552
sg76
(lp2564
S':'
asbag69
(g90
g71
NtRp2565
(dp2566
g74
(dp2567
sg83
g2552
sg76
(lp2568
g69
(g70
g71
NtRp2569
(dp2570
g74
(dp2571
g82
I3
ssg83
g2565
sg76
(lp2572
S'<cStringIO.StringO object at 0x07846080>'
p2573
asbasbasbag69
(g85
g71
NtRp2574
(dp2575
g74
(dp2576
sg83
g2084
sg76
(lp2577
g69
(g90
g71
NtRp2578
(dp2579
g74
(dp2580
g94
g95
ssg83
g2574
sg76
(lp2581
S'wsgi.multiprocess'
p2582
asbag69
(g90
g71
NtRp2583
(dp2584
g74
(dp2585
g101
g102
ssg83
g2574
sg76
(lp2586
S':'
asbag69
(g90
g71
NtRp2587
(dp2588
g74
(dp2589
sg83
g2574
sg76
(lp2590
g69
(g70
g71
NtRp2591
(dp2592
g74
(dp2593
g82
I3
ssg83
g2587
sg76
(lp2594
g112
asbasbasbag69
(g85
g71
NtRp2595
(dp2596
g74
(dp2597
sg83
g2084
sg76
(lp2598
g69
(g90
g71
NtRp2599
(dp2600
g74
(dp2601
g94
g95
ssg83
g2595
sg76
(lp2602
S'wsgi.multithread'
p2603
asbag69
(g90
g71
NtRp2604
(dp2605
g74
(dp2606
g101
g102
ssg83
g2595
sg76
(lp2607
S':'
asbag69
(g90
g71
NtRp2608
(dp2609
g74
(dp2610
sg83
g2595
sg76
(lp2611
g69
(g70
g71
NtRp2612
(dp2613
g74
(dp2614
g82
I3
ssg83
g2608
sg76
(lp2615
g1334
asbasbasbag69
(g85
g71
NtRp2616
(dp2617
g74
(dp2618
sg83
g2084
sg76
(lp2619
g69
(g90
g71
NtRp2620
(dp2621
g74
(dp2622
g94
g95
ssg83
g2616
sg76
(lp2623
S'wsgi.run_once'
p2624
asbag69
(g90
g71
NtRp2625
(dp2626
g74
(dp2627
g101
g102
ssg83
g2616
sg76
(lp2628
S':'
asbag69
(g90
g71
NtRp2629
(dp2630
g74
(dp2631
sg83
g2616
sg76
(lp2632
g69
(g70
g71
NtRp2633
(dp2634
g74
(dp2635
g82
I3
ssg83
g2629
sg76
(lp2636
g112
asbasbasbag69
(g85
g71
NtRp2637
(dp2638
g74
(dp2639
sg83
g2084
sg76
(lp2640
g69
(g90
g71
NtRp2641
(dp2642
g74
(dp2643
g94
g95
ssg83
g2637
sg76
(lp2644
S'wsgi.url_scheme'
p2645
asbag69
(g90
g71
NtRp2646
(dp2647
g74
(dp2648
g101
g102
ssg83
g2637
sg76
(lp2649
S':'
asbag69
(g90
g71
NtRp2650
(dp2651
g74
(dp2652
sg83
g2637
sg76
(lp2653
g69
(g70
g71
NtRp2654
(dp2655
g74
(dp2656
g82
I3
ssg83
g2650
sg76
(lp2657
g1377
asbasbasbag69
(g85
g71
NtRp2658
(dp2659
g74
(dp2660
sg83
g2084
sg76
(lp2661
g69
(g90
g71
NtRp2662
(dp2663
g74
(dp2664
g94
g95
ssg83
g2658
sg76
(lp2665
S'wsgi.version'
p2666
asbag69
(g90
g71
NtRp2667
(dp2668
g74
(dp2669
g101
g102
ssg83
g2658
sg76
(lp2670
S':'
asbag69
(g90
g71
NtRp2671
(dp2672
g74
(dp2673
sg83
g2658
sg76
(lp2674
g69
(g70
g71
NtRp2675
(dp2676
g74
(dp2677
g82
I3
ssg83
g2671
sg76
(lp2678
S'1'
asbasbasbasbasbasbasbasbasbasbasbasbasbsS'frames'
p2679
(lp2680
(dp2681
S'file'
p2682
S'P:\\School\\DePaul\\Projects\\CSC_438\\web2py\\gluon\\restricted.py'
p2683
sS'dump'
p2684
(dp2685
S'code'
p2686
S'\'response.write(\\\'<!DOCTYPE html>\\\\r\\\\n<html lang="\\\'...ite(\\\'\\\\r\\\\n  </body>\\\\r\\\\n</html>\\\\r\\\\n\\\', escape=False)\''
p2687
sS'layer'
p2688
S"r'P:\\School\\DePaul\\Projects\\CSC_438\\web2py\\applications\\init\\views\\default/user.html'"
p2689
sS'global compile2'
p2690
S'<function compile2>'
p2691
sS'ccode'
p2692
S'undefined'
p2693
ssS'lnum'
p2694
I203
sS'lines'
p2695
(dp2696
I198
S"    environment['__file__'] = layer"
p2697
sI199
S'    try:'
p2698
sI200
S'        if type(code) == types.CodeType:'
p2699
sI201
S'            ccode = code'
p2700
sI202
S'        else:'
p2701
sI203
S'            ccode = compile2(code,layer)'
p2702
sI204
S'        exec ccode in environment'
p2703
sI205
S'    except HTTP:'
p2704
sI206
S'        raise'
p2705
sI207
S'    except RestrictedError:'
p2706
ssS'call'
p2707
S'(code=\'response.write(\\\'<!DOCTYPE html>\\\\r\\\\n<html lang="\\\'...ite(\\\'\\\\r\\\\n  </body>\\\\r\\\\n</html>\\\\r\\\\n\\\', escape=False)\', environment={\'A\': <class \'gluon.html.A\'>, \'Auth\': <class \'gluon.tools.Auth\'>, \'B\': <class \'gluon.html.B\'>, \'BEAUTIFY\': <class \'gluon.html.BEAUTIFY\'>, \'BODY\': <class \'gluon.html.BODY\'>, \'BR\': <class \'gluon.html.BR\'>, \'BUTTON\': <class \'gluon.html.BUTTON\'>, \'CAT\': <class \'gluon.html.CAT\'>, \'CENTER\': <class \'gluon.html.CENTER\'>, \'CLEANUP\': <class \'gluon.validators.CLEANUP\'>, ...}, layer=r\'P:\\School\\DePaul\\Projects\\CSC_438\\web2py\\applications\\init\\views\\default/user.html\')'
p2708
sS'func'
p2709
S'restricted'
p2710
sa(dp2711
g2682
S'P:\\School\\DePaul\\Projects\\CSC_438\\web2py\\gluon\\restricted.py'
p2712
sg2684
(dp2713
S'builtincompile'
p2714
S'<built-in function compile>'
p2715
sS'code'
p2716
S'\'response.write(\\\'<!DOCTYPE html>\\\\r\\\\n<html lang="\\\'...ite(\\\'\\\\r\\\\n  </body>\\\\r\\\\n</html>\\\\r\\\\n\\\', escape=False)\''
p2717
sS'code.rstrip'
p2718
S'<built-in method rstrip of str object>'
p2719
sS').replace'
p2720
g2693
sS'layer'
p2721
S"r'P:\\School\\DePaul\\Projects\\CSC_438\\web2py\\applications\\init\\views\\default/user.html'"
p2722
ssg2694
I189
sg2695
(dp2723
I192
S'    """'
p2724
sI193
S'    runs code in environment and returns the output. if an exception occurs'
p2725
sI184
S''
sI185
S'def compile2(code,layer):'
p2726
sI186
S'    """'
p2727
sI187
S"    The +'\\n' is necessary else compile fails when code ends in a comment."
p2728
sI188
S'    """'
p2729
sI189
S"    return compile(code.rstrip().replace('\\r\\n','\\n')+'\\n', layer, 'exec')"
p2730
sI190
S''
sI191
S"def restricted(code, environment=None, layer='Unknown'):"
p2731
ssg2707
S'(code=\'response.write(\\\'<!DOCTYPE html>\\\\r\\\\n<html lang="\\\'...ite(\\\'\\\\r\\\\n  </body>\\\\r\\\\n</html>\\\\r\\\\n\\\', escape=False)\', layer=r\'P:\\School\\DePaul\\Projects\\CSC_438\\web2py\\applications\\init\\views\\default/user.html\')'
p2732
sg2709
S'compile2'
p2733
sasS'pyver'
p2734
S'Python 2.7.2: P:\\Workbench\\DevEnv\\Python27\\python.exe'
p2735
sS'session'
p2736
g69
(g70
g71
NtRp2737
(dp2738
g74
(dp2739
sg76
(lp2740
g69
(g78
g71
NtRp2741
(dp2742
g74
(dp2743
g82
I5
ssg83
Nsg76
(lp2744
sbasbsS'etype'
p2745
S"<type 'exceptions.SyntaxError'>"
p2746
sS'date'
p2747
S'Tue Nov 01 21:21:06 2011'
p2748
sS'response'
p2749
g69
(g70
g71
NtRp2750
(dp2751
g74
(dp2752
sg76
(lp2753
g69
(g78
g71
NtRp2754
(dp2755
g74
(dp2756
g82
I5
ssg83
Nsg76
(lp2757
g69
(g85
g71
NtRp2758
(dp2759
g74
(dp2760
sg83
g2754
sg76
(lp2761
g69
(g90
g71
NtRp2762
(dp2763
g74
(dp2764
g94
g95
ssg83
g2758
sg76
(lp2765
g180
asbag69
(g90
g71
NtRp2766
(dp2767
g74
(dp2768
g101
g102
ssg83
g2758
sg76
(lp2769
S':'
asbag69
(g90
g71
NtRp2770
(dp2771
g74
(dp2772
sg83
g2758
sg76
(lp2773
g69
(g70
g71
NtRp2774
(dp2775
g74
(dp2776
g82
I5
ssg83
g2770
sg76
(lp2777
S'<cStringIO.StringO object at 0x033E44A0>'
p2778
asbasbasbag69
(g85
g71
NtRp2779
(dp2780
g74
(dp2781
sg83
g2754
sg76
(lp2782
g69
(g90
g71
NtRp2783
(dp2784
g74
(dp2785
g94
g95
ssg83
g2779
sg76
(lp2786
g246
asbag69
(g90
g71
NtRp2787
(dp2788
g74
(dp2789
g101
g102
ssg83
g2779
sg76
(lp2790
S':'
asbag69
(g90
g71
NtRp2791
(dp2792
g74
(dp2793
sg83
g2779
sg76
(lp2794
g69
(g70
g71
NtRp2795
(dp2796
g74
(dp2797
g82
I5
ssg83
g2791
sg76
(lp2798
g69
(g78
g71
NtRp2799
(dp2800
g74
(dp2801
g82
I4
ssg83
Nsg76
(lp2802
g69
(g85
g71
NtRp2803
(dp2804
g74
(dp2805
sg83
g2799
sg76
(lp2806
g69
(g90
g71
NtRp2807
(dp2808
g74
(dp2809
g94
g95
ssg83
g2803
sg76
(lp2810
S'session_id_init'
p2811
asbag69
(g90
g71
NtRp2812
(dp2813
g74
(dp2814
g101
g102
ssg83
g2803
sg76
(lp2815
S':'
asbag69
(g90
g71
NtRp2816
(dp2817
g74
(dp2818
sg83
g2803
sg76
(lp2819
g69
(g70
g71
NtRp2820
(dp2821
g74
(dp2822
g82
I4
ssg83
g2816
sg76
(lp2823
g69
(g78
g71
NtRp2824
(dp2825
g74
(dp2826
g82
I3
ssg83
Nsg76
(lp2827
g69
(g85
g71
NtRp2828
(dp2829
g74
(dp2830
sg83
g2824
sg76
(lp2831
g69
(g90
g71
NtRp2832
(dp2833
g74
(dp2834
g94
g95
ssg83
g2828
sg76
(lp2835
g296
asbag69
(g90
g71
NtRp2836
(dp2837
g74
(dp2838
g101
g102
ssg83
g2828
sg76
(lp2839
S':'
asbag69
(g90
g71
NtRp2840
(dp2841
g74
(dp2842
sg83
g2828
sg76
(lp2843
g69
(g70
g71
NtRp2844
(dp2845
g74
(dp2846
g82
I3
ssg83
g2840
sg76
(lp2847
S''
asbasbasbag69
(g85
g71
NtRp2848
(dp2849
g74
(dp2850
sg83
g2824
sg76
(lp2851
g69
(g90
g71
NtRp2852
(dp2853
g74
(dp2854
g94
g95
ssg83
g2848
sg76
(lp2855
g317
asbag69
(g90
g71
NtRp2856
(dp2857
g74
(dp2858
g101
g102
ssg83
g2848
sg76
(lp2859
S':'
asbag69
(g90
g71
NtRp2860
(dp2861
g74
(dp2862
sg83
g2848
sg76
(lp2863
g69
(g70
g71
NtRp2864
(dp2865
g74
(dp2866
g82
I3
ssg83
g2860
sg76
(lp2867
S''
asbasbasbag69
(g85
g71
NtRp2868
(dp2869
g74
(dp2870
sg83
g2824
sg76
(lp2871
g69
(g90
g71
NtRp2872
(dp2873
g74
(dp2874
g94
g95
ssg83
g2868
sg76
(lp2875
g338
asbag69
(g90
g71
NtRp2876
(dp2877
g74
(dp2878
g101
g102
ssg83
g2868
sg76
(lp2879
S':'
asbag69
(g90
g71
NtRp2880
(dp2881
g74
(dp2882
sg83
g2868
sg76
(lp2883
g69
(g70
g71
NtRp2884
(dp2885
g74
(dp2886
g82
I3
ssg83
g2880
sg76
(lp2887
S''
asbasbasbag69
(g85
g71
NtRp2888
(dp2889
g74
(dp2890
sg83
g2824
sg76
(lp2891
g69
(g90
g71
NtRp2892
(dp2893
g74
(dp2894
g94
g95
ssg83
g2888
sg76
(lp2895
g359
asbag69
(g90
g71
NtRp2896
(dp2897
g74
(dp2898
g101
g102
ssg83
g2888
sg76
(lp2899
S':'
asbag69
(g90
g71
NtRp2900
(dp2901
g74
(dp2902
sg83
g2888
sg76
(lp2903
g69
(g70
g71
NtRp2904
(dp2905
g74
(dp2906
g82
I3
ssg83
g2900
sg76
(lp2907
S''
asbasbasbag69
(g85
g71
NtRp2908
(dp2909
g74
(dp2910
sg83
g2824
sg76
(lp2911
g69
(g90
g71
NtRp2912
(dp2913
g74
(dp2914
g94
g95
ssg83
g2908
sg76
(lp2915
g380
asbag69
(g90
g71
NtRp2916
(dp2917
g74
(dp2918
g101
g102
ssg83
g2908
sg76
(lp2919
S':'
asbag69
(g90
g71
NtRp2920
(dp2921
g74
(dp2922
sg83
g2908
sg76
(lp2923
g69
(g70
g71
NtRp2924
(dp2925
g74
(dp2926
g82
I3
ssg83
g2920
sg76
(lp2927
S''
asbasbasbag69
(g85
g71
NtRp2928
(dp2929
g74
(dp2930
sg83
g2824
sg76
(lp2931
g69
(g90
g71
NtRp2932
(dp2933
g74
(dp2934
g94
g95
ssg83
g2928
sg76
(lp2935
g401
asbag69
(g90
g71
NtRp2936
(dp2937
g74
(dp2938
g101
g102
ssg83
g2928
sg76
(lp2939
S':'
asbag69
(g90
g71
NtRp2940
(dp2941
g74
(dp2942
sg83
g2928
sg76
(lp2943
g69
(g70
g71
NtRp2944
(dp2945
g74
(dp2946
g82
I3
ssg83
g2940
sg76
(lp2947
S'/'
asbasbasbag69
(g85
g71
NtRp2948
(dp2949
g74
(dp2950
sg83
g2824
sg76
(lp2951
g69
(g90
g71
NtRp2952
(dp2953
g74
(dp2954
g94
g95
ssg83
g2948
sg76
(lp2955
g422
asbag69
(g90
g71
NtRp2956
(dp2957
g74
(dp2958
g101
g102
ssg83
g2948
sg76
(lp2959
S':'
asbag69
(g90
g71
NtRp2960
(dp2961
g74
(dp2962
sg83
g2948
sg76
(lp2963
g69
(g70
g71
NtRp2964
(dp2965
g74
(dp2966
g82
I3
ssg83
g2960
sg76
(lp2967
S''
asbasbasbag69
(g85
g71
NtRp2968
(dp2969
g74
(dp2970
sg83
g2824
sg76
(lp2971
g69
(g90
g71
NtRp2972
(dp2973
g74
(dp2974
g94
g95
ssg83
g2968
sg76
(lp2975
g443
asbag69
(g90
g71
NtRp2976
(dp2977
g74
(dp2978
g101
g102
ssg83
g2968
sg76
(lp2979
S':'
asbag69
(g90
g71
NtRp2980
(dp2981
g74
(dp2982
sg83
g2968
sg76
(lp2983
g69
(g70
g71
NtRp2984
(dp2985
g74
(dp2986
g82
I3
ssg83
g2980
sg76
(lp2987
S''
asbasbasbasbasbasbasbasbasbasbasbag69
(g85
g71
NtRp2988
(dp2989
g74
(dp2990
sg83
g2754
sg76
(lp2991
g69
(g90
g71
NtRp2992
(dp2993
g74
(dp2994
g94
g95
ssg83
g2988
sg76
(lp2995
S'files'
p2996
asbag69
(g90
g71
NtRp2997
(dp2998
g74
(dp2999
g101
g102
ssg83
g2988
sg76
(lp3000
S':'
asbag69
(g90
g71
NtRp3001
(dp3002
g74
(dp3003
sg83
g2988
sg76
(lp3004
g69
(g70
g71
NtRp3005
(dp3006
g74
(dp3007
g82
I5
ssg83
g3001
sg76
(lp3008
g69
(g78
g71
NtRp3009
(dp3010
g74
(dp3011
g82
I4
ssg83
Nsg76
(lp3012
sbasbasbasbag69
(g85
g71
NtRp3013
(dp3014
g74
(dp3015
sg83
g2754
sg76
(lp3016
g69
(g90
g71
NtRp3017
(dp3018
g74
(dp3019
g94
g95
ssg83
g3013
sg76
(lp3020
S'flash'
p3021
asbag69
(g90
g71
NtRp3022
(dp3023
g74
(dp3024
g101
g102
ssg83
g3013
sg76
(lp3025
S':'
asbag69
(g90
g71
NtRp3026
(dp3027
g74
(dp3028
sg83
g3013
sg76
(lp3029
g69
(g70
g71
NtRp3030
(dp3031
g74
(dp3032
g82
I5
ssg83
g3026
sg76
(lp3033
S''
asbasbasbag69
(g85
g71
NtRp3034
(dp3035
g74
(dp3036
sg83
g2754
sg76
(lp3037
g69
(g90
g71
NtRp3038
(dp3039
g74
(dp3040
g94
g95
ssg83
g3034
sg76
(lp3041
S'generic_patterns'
p3042
asbag69
(g90
g71
NtRp3043
(dp3044
g74
(dp3045
g101
g102
ssg83
g3034
sg76
(lp3046
S':'
asbag69
(g90
g71
NtRp3047
(dp3048
g74
(dp3049
sg83
g3034
sg76
(lp3050
g69
(g70
g71
NtRp3051
(dp3052
g74
(dp3053
g82
I5
ssg83
g3047
sg76
(lp3054
g69
(g78
g71
NtRp3055
(dp3056
g74
(dp3057
g82
I4
ssg83
Nsg76
(lp3058
g69
(g85
g71
NtRp3059
(dp3060
g74
(dp3061
sg83
g3055
sg76
(lp3062
g69
(g90
g71
NtRp3063
(dp3064
g74
(dp3065
sg83
g3059
sg76
(lp3066
g69
(g70
g71
NtRp3067
(dp3068
g74
(dp3069
g82
I4
ssg83
g3063
sg76
(lp3070
S'*'
asbasbasbasbasbasbasbag69
(g85
g71
NtRp3071
(dp3072
g74
(dp3073
sg83
g2754
sg76
(lp3074
g69
(g90
g71
NtRp3075
(dp3076
g74
(dp3077
g94
g95
ssg83
g3071
sg76
(lp3078
S'headers'
p3079
asbag69
(g90
g71
NtRp3080
(dp3081
g74
(dp3082
g101
g102
ssg83
g3071
sg76
(lp3083
S':'
asbag69
(g90
g71
NtRp3084
(dp3085
g74
(dp3086
sg83
g3071
sg76
(lp3087
g69
(g70
g71
NtRp3088
(dp3089
g74
(dp3090
g82
I5
ssg83
g3084
sg76
(lp3091
g69
(g78
g71
NtRp3092
(dp3093
g74
(dp3094
g82
I4
ssg83
Nsg76
(lp3095
g69
(g85
g71
NtRp3096
(dp3097
g74
(dp3098
sg83
g3092
sg76
(lp3099
g69
(g90
g71
NtRp3100
(dp3101
g74
(dp3102
g94
g95
ssg83
g3096
sg76
(lp3103
S'Cache-Control'
p3104
asbag69
(g90
g71
NtRp3105
(dp3106
g74
(dp3107
g101
g102
ssg83
g3096
sg76
(lp3108
S':'
asbag69
(g90
g71
NtRp3109
(dp3110
g74
(dp3111
sg83
g3096
sg76
(lp3112
g69
(g70
g71
NtRp3113
(dp3114
g74
(dp3115
g82
I4
ssg83
g3109
sg76
(lp3116
S'no-store, no-cache, must-revalidate, post-check=0, pre-check=0'
p3117
asbasbasbag69
(g85
g71
NtRp3118
(dp3119
g74
(dp3120
sg83
g3092
sg76
(lp3121
g69
(g90
g71
NtRp3122
(dp3123
g74
(dp3124
g94
g95
ssg83
g3118
sg76
(lp3125
S'Content-Type'
p3126
asbag69
(g90
g71
NtRp3127
(dp3128
g74
(dp3129
g101
g102
ssg83
g3118
sg76
(lp3130
S':'
asbag69
(g90
g71
NtRp3131
(dp3132
g74
(dp3133
sg83
g3118
sg76
(lp3134
g69
(g70
g71
NtRp3135
(dp3136
g74
(dp3137
g82
I4
ssg83
g3131
sg76
(lp3138
S'text/html; charset=utf-8'
p3139
asbasbasbag69
(g85
g71
NtRp3140
(dp3141
g74
(dp3142
sg83
g3092
sg76
(lp3143
g69
(g90
g71
NtRp3144
(dp3145
g74
(dp3146
g94
g95
ssg83
g3140
sg76
(lp3147
S'Expires'
p3148
asbag69
(g90
g71
NtRp3149
(dp3150
g74
(dp3151
g101
g102
ssg83
g3140
sg76
(lp3152
S':'
asbag69
(g90
g71
NtRp3153
(dp3154
g74
(dp3155
sg83
g3140
sg76
(lp3156
g69
(g70
g71
NtRp3157
(dp3158
g74
(dp3159
g82
I4
ssg83
g3153
sg76
(lp3160
S'Wed, 02 Nov 2011 01:21:06 GMT'
p3161
asbasbasbag69
(g85
g71
NtRp3162
(dp3163
g74
(dp3164
sg83
g3092
sg76
(lp3165
g69
(g90
g71
NtRp3166
(dp3167
g74
(dp3168
g94
g95
ssg83
g3162
sg76
(lp3169
S'Pragma'
p3170
asbag69
(g90
g71
NtRp3171
(dp3172
g74
(dp3173
g101
g102
ssg83
g3162
sg76
(lp3174
S':'
asbag69
(g90
g71
NtRp3175
(dp3176
g74
(dp3177
sg83
g3162
sg76
(lp3178
g69
(g70
g71
NtRp3179
(dp3180
g74
(dp3181
g82
I4
ssg83
g3175
sg76
(lp3182
S'no-cache'
p3183
asbasbasbag69
(g85
g71
NtRp3184
(dp3185
g74
(dp3186
sg83
g3092
sg76
(lp3187
g69
(g90
g71
NtRp3188
(dp3189
g74
(dp3190
g94
g95
ssg83
g3184
sg76
(lp3191
S'X-Powered-By'
p3192
asbag69
(g90
g71
NtRp3193
(dp3194
g74
(dp3195
g101
g102
ssg83
g3184
sg76
(lp3196
S':'
asbag69
(g90
g71
NtRp3197
(dp3198
g74
(dp3199
sg83
g3184
sg76
(lp3200
g69
(g70
g71
NtRp3201
(dp3202
g74
(dp3203
g82
I4
ssg83
g3197
sg76
(lp3204
S'web2py'
p3205
asbasbasbasbasbasbasbag69
(g85
g71
NtRp3206
(dp3207
g74
(dp3208
sg83
g2754
sg76
(lp3209
g69
(g90
g71
NtRp3210
(dp3211
g74
(dp3212
g94
g95
ssg83
g3206
sg76
(lp3213
S'menu'
p3214
asbag69
(g90
g71
NtRp3215
(dp3216
g74
(dp3217
g101
g102
ssg83
g3206
sg76
(lp3218
S':'
asbag69
(g90
g71
NtRp3219
(dp3220
g74
(dp3221
sg83
g3206
sg76
(lp3222
g69
(g70
g71
NtRp3223
(dp3224
g74
(dp3225
g82
I5
ssg83
g3219
sg76
(lp3226
g69
(g78
g71
NtRp3227
(dp3228
g74
(dp3229
g82
I4
ssg83
Nsg76
(lp3230
g69
(g85
g71
NtRp3231
(dp3232
g74
(dp3233
sg83
g3227
sg76
(lp3234
g69
(g90
g71
NtRp3235
(dp3236
g74
(dp3237
sg83
g3231
sg76
(lp3238
g69
(g70
g71
NtRp3239
(dp3240
g74
(dp3241
g82
I4
ssg83
g3235
sg76
(lp3242
g69
(g78
g71
NtRp3243
(dp3244
g74
(dp3245
g82
I3
ssg83
Nsg76
(lp3246
g69
(g85
g71
NtRp3247
(dp3248
g74
(dp3249
sg83
g3243
sg76
(lp3250
g69
(g90
g71
NtRp3251
(dp3252
g74
(dp3253
sg83
g3247
sg76
(lp3254
g69
(g70
g71
NtRp3255
(dp3256
g74
(dp3257
g82
I3
ssg83
g3251
sg76
(lp3258
cgluon.languages
lazyT_unpickle
p3259
(S't\x04\x00\x00\x00Home'
tRp3260
asbasbasbag69
(g85
g71
NtRp3261
(dp3262
g74
(dp3263
sg83
g3243
sg76
(lp3264
g69
(g90
g71
NtRp3265
(dp3266
g74
(dp3267
sg83
g3261
sg76
(lp3268
g69
(g70
g71
NtRp3269
(dp3270
g74
(dp3271
g82
I3
ssg83
g3265
sg76
(lp3272
g112
asbasbasbag69
(g85
g71
NtRp3273
(dp3274
g74
(dp3275
sg83
g3243
sg76
(lp3276
g69
(g90
g71
NtRp3277
(dp3278
g74
(dp3279
sg83
g3273
sg76
(lp3280
g69
(g70
g71
NtRp3281
(dp3282
g74
(dp3283
g82
I3
ssg83
g3277
sg76
(lp3284
S'/init/default/index'
p3285
asbasbasbag69
(g85
g71
NtRp3286
(dp3287
g74
(dp3288
sg83
g3243
sg76
(lp3289
g69
(g90
g71
NtRp3290
(dp3291
g74
(dp3292
sg83
g3286
sg76
(lp3293
g69
(g70
g71
NtRp3294
(dp3295
g74
(dp3296
g82
I3
ssg83
g3290
sg76
(lp3297
g69
(g78
g71
NtRp3298
(dp3299
g74
(dp3300
g82
I2
ssg83
Nsg76
(lp3301
sbasbasbasbasbasbasbasbag69
(g85
g71
NtRp3302
(dp3303
g74
(dp3304
sg83
g3227
sg76
(lp3305
g69
(g90
g71
NtRp3306
(dp3307
g74
(dp3308
sg83
g3302
sg76
(lp3309
g69
(g70
g71
NtRp3310
(dp3311
g74
(dp3312
g82
I4
ssg83
g3306
sg76
(lp3313
g69
(g78
g71
NtRp3314
(dp3315
g74
(dp3316
g82
I3
ssg83
Nsg76
(lp3317
g69
(g85
g71
NtRp3318
(dp3319
g74
(dp3320
sg83
g3314
sg76
(lp3321
g69
(g90
g71
NtRp3322
(dp3323
g74
(dp3324
sg83
g3318
sg76
(lp3325
g69
(g70
g71
NtRp3326
(dp3327
g74
(dp3328
g82
I3
ssg83
g3322
sg76
(lp3329
g3259
(S's\x08\x00\x00\x00This App'
tRp3330
asbasbasbag69
(g85
g71
NtRp3331
(dp3332
g74
(dp3333
sg83
g3314
sg76
(lp3334
g69
(g90
g71
NtRp3335
(dp3336
g74
(dp3337
sg83
g3331
sg76
(lp3338
g69
(g70
g71
NtRp3339
(dp3340
g74
(dp3341
g82
I3
ssg83
g3335
sg76
(lp3342
g112
asbasbasbag69
(g85
g71
NtRp3343
(dp3344
g74
(dp3345
sg83
g3314
sg76
(lp3346
g69
(g90
g71
NtRp3347
(dp3348
g74
(dp3349
sg83
g3343
sg76
(lp3350
g69
(g70
g71
NtRp3351
(dp3352
g74
(dp3353
g82
I3
ssg83
g3347
sg76
(lp3354
S'/admin/default/design/init'
p3355
asbasbasbag69
(g85
g71
NtRp3356
(dp3357
g74
(dp3358
sg83
g3314
sg76
(lp3359
g69
(g90
g71
NtRp3360
(dp3361
g74
(dp3362
sg83
g3356
sg76
(lp3363
g69
(g70
g71
NtRp3364
(dp3365
g74
(dp3366
g82
I3
ssg83
g3360
sg76
(lp3367
g69
(g78
g71
NtRp3368
(dp3369
g74
(dp3370
g82
I2
ssg83
Nsg76
(lp3371
g69
(g85
g71
NtRp3372
(dp3373
g74
(dp3374
sg83
g3368
sg76
(lp3375
g69
(g90
g71
NtRp3376
(dp3377
g74
(dp3378
sg83
g3372
sg76
(lp3379
g69
(g70
g71
NtRp3380
(dp3381
g74
(dp3382
g82
I2
ssg83
g3376
sg76
(lp3383
g69
(g78
g71
NtRp3384
(dp3385
g74
(dp3386
g82
I1
ssg83
Nsg76
(lp3387
g69
(g85
g71
NtRp3388
(dp3389
g74
(dp3390
sg83
g3384
sg76
(lp3391
g69
(g90
g71
NtRp3392
(dp3393
g74
(dp3394
sg83
g3388
sg76
(lp3395
g69
(g70
g71
NtRp3396
(dp3397
g74
(dp3398
g82
I1
ssg83
g3392
sg76
(lp3399
g3259
(S't\n\x00\x00\x00Controller'
tRp3400
asbasbasbag69
(g85
g71
NtRp3401
(dp3402
g74
(dp3403
sg83
g3384
sg76
(lp3404
g69
(g90
g71
NtRp3405
(dp3406
g74
(dp3407
sg83
g3401
sg76
(lp3408
g69
(g70
g71
NtRp3409
(dp3410
g74
(dp3411
g82
I1
ssg83
g3405
sg76
(lp3412
I00
asbasbasbag69
(g85
g71
NtRp3413
(dp3414
g74
(dp3415
sg83
g3384
sg76
(lp3416
g69
(g90
g71
NtRp3417
(dp3418
g74
(dp3419
sg83
g3413
sg76
(lp3420
g69
(g70
g71
NtRp3421
(dp3422
g74
(dp3423
g82
I1
ssg83
g3417
sg76
(lp3424
S'/admin/default/edit/init/controllers/default.py'
p3425
asbasbasbasbasbasbasbag69
(g85
g71
NtRp3426
(dp3427
g74
(dp3428
sg83
g3368
sg76
(lp3429
g69
(g90
g71
NtRp3430
(dp3431
g74
(dp3432
sg83
g3426
sg76
(lp3433
g69
(g70
g71
NtRp3434
(dp3435
g74
(dp3436
g82
I2
ssg83
g3430
sg76
(lp3437
g69
(g78
g71
NtRp3438
(dp3439
g74
(dp3440
g82
I1
ssg83
Nsg76
(lp3441
g69
(g85
g71
NtRp3442
(dp3443
g74
(dp3444
sg83
g3438
sg76
(lp3445
g69
(g90
g71
NtRp3446
(dp3447
g74
(dp3448
sg83
g3442
sg76
(lp3449
g69
(g70
g71
NtRp3450
(dp3451
g74
(dp3452
g82
I1
ssg83
g3446
sg76
(lp3453
g3259
(S't\x04\x00\x00\x00View'
tRp3454
asbasbasbag69
(g85
g71
NtRp3455
(dp3456
g74
(dp3457
sg83
g3438
sg76
(lp3458
g69
(g90
g71
NtRp3459
(dp3460
g74
(dp3461
sg83
g3455
sg76
(lp3462
g69
(g70
g71
NtRp3463
(dp3464
g74
(dp3465
g82
I1
ssg83
g3459
sg76
(lp3466
I00
asbasbasbag69
(g85
g71
NtRp3467
(dp3468
g74
(dp3469
sg83
g3438
sg76
(lp3470
g69
(g90
g71
NtRp3471
(dp3472
g74
(dp3473
sg83
g3467
sg76
(lp3474
g69
(g70
g71
NtRp3475
(dp3476
g74
(dp3477
g82
I1
ssg83
g3471
sg76
(lp3478
S'/admin/default/edit/init/views/default/user.html'
p3479
asbasbasbasbasbasbasbag69
(g85
g71
NtRp3480
(dp3481
g74
(dp3482
sg83
g3368
sg76
(lp3483
g69
(g90
g71
NtRp3484
(dp3485
g74
(dp3486
sg83
g3480
sg76
(lp3487
g69
(g70
g71
NtRp3488
(dp3489
g74
(dp3490
g82
I2
ssg83
g3484
sg76
(lp3491
g69
(g78
g71
NtRp3492
(dp3493
g74
(dp3494
g82
I1
ssg83
Nsg76
(lp3495
g69
(g85
g71
NtRp3496
(dp3497
g74
(dp3498
sg83
g3492
sg76
(lp3499
g69
(g90
g71
NtRp3500
(dp3501
g74
(dp3502
sg83
g3496
sg76
(lp3503
g69
(g70
g71
NtRp3504
(dp3505
g74
(dp3506
g82
I1
ssg83
g3500
sg76
(lp3507
g3259
(S't\x06\x00\x00\x00Layout'
tRp3508
asbasbasbag69
(g85
g71
NtRp3509
(dp3510
g74
(dp3511
sg83
g3492
sg76
(lp3512
g69
(g90
g71
NtRp3513
(dp3514
g74
(dp3515
sg83
g3509
sg76
(lp3516
g69
(g70
g71
NtRp3517
(dp3518
g74
(dp3519
g82
I1
ssg83
g3513
sg76
(lp3520
I00
asbasbasbag69
(g85
g71
NtRp3521
(dp3522
g74
(dp3523
sg83
g3492
sg76
(lp3524
g69
(g90
g71
NtRp3525
(dp3526
g74
(dp3527
sg83
g3521
sg76
(lp3528
g69
(g70
g71
NtRp3529
(dp3530
g74
(dp3531
g82
I1
ssg83
g3525
sg76
(lp3532
S'/admin/default/edit/init/views/layout.html'
p3533
asbasbasbasbasbasbasbag69
(g85
g71
NtRp3534
(dp3535
g74
(dp3536
sg83
g3368
sg76
(lp3537
g69
(g90
g71
NtRp3538
(dp3539
g74
(dp3540
sg83
g3534
sg76
(lp3541
g69
(g70
g71
NtRp3542
(dp3543
g74
(dp3544
g82
I2
ssg83
g3538
sg76
(lp3545
g69
(g78
g71
NtRp3546
(dp3547
g74
(dp3548
g82
I1
ssg83
Nsg76
(lp3549
g69
(g85
g71
NtRp3550
(dp3551
g74
(dp3552
sg83
g3546
sg76
(lp3553
g69
(g90
g71
NtRp3554
(dp3555
g74
(dp3556
sg83
g3550
sg76
(lp3557
g69
(g70
g71
NtRp3558
(dp3559
g74
(dp3560
g82
I1
ssg83
g3554
sg76
(lp3561
g3259
(S't\n\x00\x00\x00Stylesheet'
tRp3562
asbasbasbag69
(g85
g71
NtRp3563
(dp3564
g74
(dp3565
sg83
g3546
sg76
(lp3566
g69
(g90
g71
NtRp3567
(dp3568
g74
(dp3569
sg83
g3563
sg76
(lp3570
g69
(g70
g71
NtRp3571
(dp3572
g74
(dp3573
g82
I1
ssg83
g3567
sg76
(lp3574
I00
asbasbasbag69
(g85
g71
NtRp3575
(dp3576
g74
(dp3577
sg83
g3546
sg76
(lp3578
g69
(g90
g71
NtRp3579
(dp3580
g74
(dp3581
sg83
g3575
sg76
(lp3582
g69
(g70
g71
NtRp3583
(dp3584
g74
(dp3585
g82
I1
ssg83
g3579
sg76
(lp3586
S'/admin/default/edit/init/static/base.css'
p3587
asbasbasbasbasbasbasbag69
(g85
g71
NtRp3588
(dp3589
g74
(dp3590
sg83
g3368
sg76
(lp3591
g69
(g90
g71
NtRp3592
(dp3593
g74
(dp3594
sg83
g3588
sg76
(lp3595
g69
(g70
g71
NtRp3596
(dp3597
g74
(dp3598
g82
I2
ssg83
g3592
sg76
(lp3599
g69
(g78
g71
NtRp3600
(dp3601
g74
(dp3602
g82
I1
ssg83
Nsg76
(lp3603
g69
(g85
g71
NtRp3604
(dp3605
g74
(dp3606
sg83
g3600
sg76
(lp3607
g69
(g90
g71
NtRp3608
(dp3609
g74
(dp3610
sg83
g3604
sg76
(lp3611
g69
(g70
g71
NtRp3612
(dp3613
g74
(dp3614
g82
I1
ssg83
g3608
sg76
(lp3615
g3259
(S's\x08\x00\x00\x00DB Model'
tRp3616
asbasbasbag69
(g85
g71
NtRp3617
(dp3618
g74
(dp3619
sg83
g3600
sg76
(lp3620
g69
(g90
g71
NtRp3621
(dp3622
g74
(dp3623
sg83
g3617
sg76
(lp3624
g69
(g70
g71
NtRp3625
(dp3626
g74
(dp3627
g82
I1
ssg83
g3621
sg76
(lp3628
I00
asbasbasbag69
(g85
g71
NtRp3629
(dp3630
g74
(dp3631
sg83
g3600
sg76
(lp3632
g69
(g90
g71
NtRp3633
(dp3634
g74
(dp3635
sg83
g3629
sg76
(lp3636
g69
(g70
g71
NtRp3637
(dp3638
g74
(dp3639
g82
I1
ssg83
g3633
sg76
(lp3640
S'/admin/default/edit/init/models/db.py'
p3641
asbasbasbasbasbasbasbag69
(g85
g71
NtRp3642
(dp3643
g74
(dp3644
sg83
g3368
sg76
(lp3645
g69
(g90
g71
NtRp3646
(dp3647
g74
(dp3648
sg83
g3642
sg76
(lp3649
g69
(g70
g71
NtRp3650
(dp3651
g74
(dp3652
g82
I2
ssg83
g3646
sg76
(lp3653
g69
(g78
g71
NtRp3654
(dp3655
g74
(dp3656
g82
I1
ssg83
Nsg76
(lp3657
g69
(g85
g71
NtRp3658
(dp3659
g74
(dp3660
sg83
g3654
sg76
(lp3661
g69
(g90
g71
NtRp3662
(dp3663
g74
(dp3664
sg83
g3658
sg76
(lp3665
g69
(g70
g71
NtRp3666
(dp3667
g74
(dp3668
g82
I1
ssg83
g3662
sg76
(lp3669
g3259
(S's\n\x00\x00\x00Menu Model'
tRp3670
asbasbasbag69
(g85
g71
NtRp3671
(dp3672
g74
(dp3673
sg83
g3654
sg76
(lp3674
g69
(g90
g71
NtRp3675
(dp3676
g74
(dp3677
sg83
g3671
sg76
(lp3678
g69
(g70
g71
NtRp3679
(dp3680
g74
(dp3681
g82
I1
ssg83
g3675
sg76
(lp3682
I00
asbasbasbag69
(g85
g71
NtRp3683
(dp3684
g74
(dp3685
sg83
g3654
sg76
(lp3686
g69
(g90
g71
NtRp3687
(dp3688
g74
(dp3689
sg83
g3683
sg76
(lp3690
g69
(g70
g71
NtRp3691
(dp3692
g74
(dp3693
g82
I1
ssg83
g3687
sg76
(lp3694
S'/admin/default/edit/init/models/menu.py'
p3695
asbasbasbasbasbasbasbag69
(g85
g71
NtRp3696
(dp3697
g74
(dp3698
sg83
g3368
sg76
(lp3699
g69
(g90
g71
NtRp3700
(dp3701
g74
(dp3702
sg83
g3696
sg76
(lp3703
g69
(g70
g71
NtRp3704
(dp3705
g74
(dp3706
g82
I2
ssg83
g3700
sg76
(lp3707
g69
(g78
g71
NtRp3708
(dp3709
g74
(dp3710
g82
I1
ssg83
Nsg76
(lp3711
g69
(g85
g71
NtRp3712
(dp3713
g74
(dp3714
sg83
g3708
sg76
(lp3715
g69
(g90
g71
NtRp3716
(dp3717
g74
(dp3718
sg83
g3712
sg76
(lp3719
g69
(g70
g71
NtRp3720
(dp3721
g74
(dp3722
g82
I1
ssg83
g3716
sg76
(lp3723
g3259
(S't\x08\x00\x00\x00Database'
tRp3724
asbasbasbag69
(g85
g71
NtRp3725
(dp3726
g74
(dp3727
sg83
g3708
sg76
(lp3728
g69
(g90
g71
NtRp3729
(dp3730
g74
(dp3731
sg83
g3725
sg76
(lp3732
g69
(g70
g71
NtRp3733
(dp3734
g74
(dp3735
g82
I1
ssg83
g3729
sg76
(lp3736
I00
asbasbasbag69
(g85
g71
NtRp3737
(dp3738
g74
(dp3739
sg83
g3708
sg76
(lp3740
g69
(g90
g71
NtRp3741
(dp3742
g74
(dp3743
sg83
g3737
sg76
(lp3744
g69
(g70
g71
NtRp3745
(dp3746
g74
(dp3747
g82
I1
ssg83
g3741
sg76
(lp3748
S'/init/appadmin/index'
p3749
asbasbasbasbasbasbasbag69
(g85
g71
NtRp3750
(dp3751
g74
(dp3752
sg83
g3368
sg76
(lp3753
g69
(g90
g71
NtRp3754
(dp3755
g74
(dp3756
sg83
g3750
sg76
(lp3757
g69
(g70
g71
NtRp3758
(dp3759
g74
(dp3760
g82
I2
ssg83
g3754
sg76
(lp3761
g69
(g78
g71
NtRp3762
(dp3763
g74
(dp3764
g82
I1
ssg83
Nsg76
(lp3765
g69
(g85
g71
NtRp3766
(dp3767
g74
(dp3768
sg83
g3762
sg76
(lp3769
g69
(g90
g71
NtRp3770
(dp3771
g74
(dp3772
sg83
g3766
sg76
(lp3773
g69
(g70
g71
NtRp3774
(dp3775
g74
(dp3776
g82
I1
ssg83
g3770
sg76
(lp3777
g3259
(S't\x06\x00\x00\x00Errors'
tRp3778
asbasbasbag69
(g85
g71
NtRp3779
(dp3780
g74
(dp3781
sg83
g3762
sg76
(lp3782
g69
(g90
g71
NtRp3783
(dp3784
g74
(dp3785
sg83
g3779
sg76
(lp3786
g69
(g70
g71
NtRp3787
(dp3788
g74
(dp3789
g82
I1
ssg83
g3783
sg76
(lp3790
I00
asbasbasbag69
(g85
g71
NtRp3791
(dp3792
g74
(dp3793
sg83
g3762
sg76
(lp3794
g69
(g90
g71
NtRp3795
(dp3796
g74
(dp3797
sg83
g3791
sg76
(lp3798
g69
(g70
g71
NtRp3799
(dp3800
g74
(dp3801
g82
I1
ssg83
g3795
sg76
(lp3802
S'/admin/default/errors/init'
p3803
asbasbasbasbasbasbasbag69
(g85
g71
NtRp3804
(dp3805
g74
(dp3806
sg83
g3368
sg76
(lp3807
g69
(g90
g71
NtRp3808
(dp3809
g74
(dp3810
sg83
g3804
sg76
(lp3811
g69
(g70
g71
NtRp3812
(dp3813
g74
(dp3814
g82
I2
ssg83
g3808
sg76
(lp3815
g69
(g78
g71
NtRp3816
(dp3817
g74
(dp3818
g82
I1
ssg83
Nsg76
(lp3819
g69
(g85
g71
NtRp3820
(dp3821
g74
(dp3822
sg83
g3816
sg76
(lp3823
g69
(g90
g71
NtRp3824
(dp3825
g74
(dp3826
sg83
g3820
sg76
(lp3827
g69
(g70
g71
NtRp3828
(dp3829
g74
(dp3830
g82
I1
ssg83
g3824
sg76
(lp3831
g3259
(S't\x05\x00\x00\x00About'
tRp3832
asbasbasbag69
(g85
g71
NtRp3833
(dp3834
g74
(dp3835
sg83
g3816
sg76
(lp3836
g69
(g90
g71
NtRp3837
(dp3838
g74
(dp3839
sg83
g3833
sg76
(lp3840
g69
(g70
g71
NtRp3841
(dp3842
g74
(dp3843
g82
I1
ssg83
g3837
sg76
(lp3844
I00
asbasbasbag69
(g85
g71
NtRp3845
(dp3846
g74
(dp3847
sg83
g3816
sg76
(lp3848
g69
(g90
g71
NtRp3849
(dp3850
g74
(dp3851
sg83
g3845
sg76
(lp3852
g69
(g70
g71
NtRp3853
(dp3854
g74
(dp3855
g82
I1
ssg83
g3849
sg76
(lp3856
S'/admin/default/about/init'
p3857
asbasbasbasbasbasbasbasbasbasbasbasbasbasbasbag69
(g85
g71
NtRp3858
(dp3859
g74
(dp3860
sg83
g3227
sg76
(lp3861
g69
(g90
g71
NtRp3862
(dp3863
g74
(dp3864
sg83
g3858
sg76
(lp3865
g69
(g70
g71
NtRp3866
(dp3867
g74
(dp3868
g82
I4
ssg83
g3862
sg76
(lp3869
g69
(g78
g71
NtRp3870
(dp3871
g74
(dp3872
g82
I3
ssg83
Nsg76
(lp3873
g69
(g85
g71
NtRp3874
(dp3875
g74
(dp3876
sg83
g3870
sg76
(lp3877
g69
(g90
g71
NtRp3878
(dp3879
g74
(dp3880
sg83
g3874
sg76
(lp3881
g69
(g70
g71
NtRp3882
(dp3883
g74
(dp3884
g82
I3
ssg83
g3878
sg76
(lp3885
g3259
(S't\t\x00\x00\x00Resources'
tRp3886
asbasbasbag69
(g85
g71
NtRp3887
(dp3888
g74
(dp3889
sg83
g3870
sg76
(lp3890
g69
(g90
g71
NtRp3891
(dp3892
g74
(dp3893
sg83
g3887
sg76
(lp3894
g69
(g70
g71
NtRp3895
(dp3896
g74
(dp3897
g82
I3
ssg83
g3891
sg76
(lp3898
g112
asbasbasbag69
(g85
g71
NtRp3899
(dp3900
g74
(dp3901
sg83
g3870
sg76
(lp3902
g69
(g90
g71
NtRp3903
(dp3904
g74
(dp3905
sg83
g3899
sg76
(lp3906
g69
(g70
g71
NtRp3907
(dp3908
g74
(dp3909
g82
I3
ssg83
g3903
sg76
(lp3910
S'None'
p3911
asbasbasbag69
(g85
g71
NtRp3912
(dp3913
g74
(dp3914
sg83
g3870
sg76
(lp3915
g69
(g90
g71
NtRp3916
(dp3917
g74
(dp3918
sg83
g3912
sg76
(lp3919
g69
(g70
g71
NtRp3920
(dp3921
g74
(dp3922
g82
I3
ssg83
g3916
sg76
(lp3923
g69
(g78
g71
NtRp3924
(dp3925
g74
(dp3926
g82
I2
ssg83
Nsg76
(lp3927
g69
(g85
g71
NtRp3928
(dp3929
g74
(dp3930
sg83
g3924
sg76
(lp3931
g69
(g90
g71
NtRp3932
(dp3933
g74
(dp3934
sg83
g3928
sg76
(lp3935
g69
(g70
g71
NtRp3936
(dp3937
g74
(dp3938
g82
I2
ssg83
g3932
sg76
(lp3939
g69
(g78
g71
NtRp3940
(dp3941
g74
(dp3942
g82
I1
ssg83
Nsg76
(lp3943
g69
(g85
g71
NtRp3944
(dp3945
g74
(dp3946
sg83
g3940
sg76
(lp3947
g69
(g90
g71
NtRp3948
(dp3949
g74
(dp3950
sg83
g3944
sg76
(lp3951
g69
(g70
g71
NtRp3952
(dp3953
g74
(dp3954
g82
I1
ssg83
g3948
sg76
(lp3955
g3259
(S't\r\x00\x00\x00Documentation'
tRp3956
asbasbasbag69
(g85
g71
NtRp3957
(dp3958
g74
(dp3959
sg83
g3940
sg76
(lp3960
g69
(g90
g71
NtRp3961
(dp3962
g74
(dp3963
sg83
g3957
sg76
(lp3964
g69
(g70
g71
NtRp3965
(dp3966
g74
(dp3967
g82
I1
ssg83
g3961
sg76
(lp3968
I00
asbasbasbag69
(g85
g71
NtRp3969
(dp3970
g74
(dp3971
sg83
g3940
sg76
(lp3972
g69
(g90
g71
NtRp3973
(dp3974
g74
(dp3975
sg83
g3969
sg76
(lp3976
g69
(g70
g71
NtRp3977
(dp3978
g74
(dp3979
g82
I1
ssg83
g3973
sg76
(lp3980
S'http://www.web2py.com/book'
p3981
asbasbasbag69
(g85
g71
NtRp3982
(dp3983
g74
(dp3984
sg83
g3940
sg76
(lp3985
g69
(g90
g71
NtRp3986
(dp3987
g74
(dp3988
sg83
g3982
sg76
(lp3989
g69
(g70
g71
NtRp3990
(dp3991
g74
(dp3992
g82
I1
ssg83
g3986
sg76
(lp3993
(lp3994
(g3259
(S't\x07\x00\x00\x00Preface'
tRp3995
I00
S'http://www.web2py.com/book/default/chapter/00'
p3996
tp3997
a(g3259
(S't\x0c\x00\x00\x00Introduction'
tRp3998
I00
S'http://www.web2py.com/book/default/chapter/01'
p3999
tp4000
a(g3259
(S't\x06\x00\x00\x00Python'
tRp4001
I00
S'http://www.web2py.com/book/default/chapter/02'
p4002
tp4003
a(g3259
(S't\x08\x00\x00\x00Overview'
tRp4004
I00
S'http://www.web2py.com/book/default/chapter/03'
p4005
tp4006
a(g3259
(S's\x08\x00\x00\x00The Core'
tRp4007
I00
S'http://www.web2py.com/book/default/chapter/04'
p4008
tp4009
a(g3259
(S's\t\x00\x00\x00The Views'
tRp4010
I00
S'http://www.web2py.com/book/default/chapter/05'
p4011
tp4012
a(g3259
(S't\x08\x00\x00\x00Database'
tRp4013
I00
S'http://www.web2py.com/book/default/chapter/06'
p4014
tp4015
a(g3259
(S's\x14\x00\x00\x00Forms and Validators'
tRp4016
I00
S'http://www.web2py.com/book/default/chapter/07'
p4017
tp4018
a(g3259
(S's\x0e\x00\x00\x00Access Control'
tRp4019
I00
S'http://www.web2py.com/book/default/chapter/08'
p4020
tp4021
a(g3259
(S't\x08\x00\x00\x00Services'
tRp4022
I00
S'http://www.web2py.com/book/default/chapter/09'
p4023
tp4024
a(g3259
(S's\x0c\x00\x00\x00Ajax Recipes'
tRp4025
I00
S'http://www.web2py.com/book/default/chapter/10'
p4026
tp4027
a(g3259
(S's\x12\x00\x00\x00Deployment Recipes'
tRp4028
I00
S'http://www.web2py.com/book/default/chapter/11'
p4029
tp4030
a(g3259
(S's\r\x00\x00\x00Other Recipes'
tRp4031
I00
S'http://www.web2py.com/book/default/chapter/12'
p4032
tp4033
a(g3259
(S's\r\x00\x00\x00Buy this book'
tRp4034
I00
S'http://stores.lulu.com/web2py'
p4035
tp4036
aasbasbasbasbasbasbasbag69
(g85
g71
NtRp4037
(dp4038
g74
(dp4039
sg83
g3924
sg76
(lp4040
g69
(g90
g71
NtRp4041
(dp4042
g74
(dp4043
sg83
g4037
sg76
(lp4044
g69
(g70
g71
NtRp4045
(dp4046
g74
(dp4047
g82
I2
ssg83
g4041
sg76
(lp4048
g69
(g78
g71
NtRp4049
(dp4050
g74
(dp4051
g82
I1
ssg83
Nsg76
(lp4052
g69
(g85
g71
NtRp4053
(dp4054
g74
(dp4055
sg83
g4049
sg76
(lp4056
g69
(g90
g71
NtRp4057
(dp4058
g74
(dp4059
sg83
g4053
sg76
(lp4060
g69
(g70
g71
NtRp4061
(dp4062
g74
(dp4063
g82
I1
ssg83
g4057
sg76
(lp4064
g3259
(S't\t\x00\x00\x00Community'
tRp4065
asbasbasbag69
(g85
g71
NtRp4066
(dp4067
g74
(dp4068
sg83
g4049
sg76
(lp4069
g69
(g90
g71
NtRp4070
(dp4071
g74
(dp4072
sg83
g4066
sg76
(lp4073
g69
(g70
g71
NtRp4074
(dp4075
g74
(dp4076
g82
I1
ssg83
g4070
sg76
(lp4077
I00
asbasbasbag69
(g85
g71
NtRp4078
(dp4079
g74
(dp4080
sg83
g4049
sg76
(lp4081
g69
(g90
g71
NtRp4082
(dp4083
g74
(dp4084
sg83
g4078
sg76
(lp4085
g69
(g70
g71
NtRp4086
(dp4087
g74
(dp4088
g82
I1
ssg83
g4082
sg76
(lp4089
Nasbasbasbag69
(g85
g71
NtRp4090
(dp4091
g74
(dp4092
sg83
g4049
sg76
(lp4093
g69
(g90
g71
NtRp4094
(dp4095
g74
(dp4096
sg83
g4090
sg76
(lp4097
g69
(g70
g71
NtRp4098
(dp4099
g74
(dp4100
g82
I1
ssg83
g4094
sg76
(lp4101
(lp4102
(g3259
(S't\x06\x00\x00\x00Groups'
tRp4103
I00
S'http://www.web2py.com/examples/default/usergroups'
p4104
tp4105
a(g3259
(S't\x07\x00\x00\x00Twitter'
tRp4106
I00
S'http://twitter.com/web2py'
p4107
tp4108
a(g3259
(S's\t\x00\x00\x00Live chat'
tRp4109
I00
S'http://mibbit.com/?channel=%23web2py&server=irc.mibbit.net'
p4110
tp4111
a(g3259
(S's\n\x00\x00\x00User Voice'
tRp4112
I00
S'http://web2py.uservoice.com/'
p4113
tp4114
aasbasbasbasbasbasbasbag69
(g85
g71
NtRp4115
(dp4116
g74
(dp4117
sg83
g3924
sg76
(lp4118
g69
(g90
g71
NtRp4119
(dp4120
g74
(dp4121
sg83
g4115
sg76
(lp4122
g69
(g70
g71
NtRp4123
(dp4124
g74
(dp4125
g82
I2
ssg83
g4119
sg76
(lp4126
g69
(g78
g71
NtRp4127
(dp4128
g74
(dp4129
g82
I1
ssg83
Nsg76
(lp4130
g69
(g85
g71
NtRp4131
(dp4132
g74
(dp4133
sg83
g4127
sg76
(lp4134
g69
(g90
g71
NtRp4135
(dp4136
g74
(dp4137
sg83
g4131
sg76
(lp4138
g69
(g70
g71
NtRp4139
(dp4140
g74
(dp4141
g82
I1
ssg83
g4135
sg76
(lp4142
g3259
(S't\x06\x00\x00\x00Web2py'
tRp4143
asbasbasbag69
(g85
g71
NtRp4144
(dp4145
g74
(dp4146
sg83
g4127
sg76
(lp4147
g69
(g90
g71
NtRp4148
(dp4149
g74
(dp4150
sg83
g4144
sg76
(lp4151
g69
(g70
g71
NtRp4152
(dp4153
g74
(dp4154
g82
I1
ssg83
g4148
sg76
(lp4155
I00
asbasbasbag69
(g85
g71
NtRp4156
(dp4157
g74
(dp4158
sg83
g4127
sg76
(lp4159
g69
(g90
g71
NtRp4160
(dp4161
g74
(dp4162
sg83
g4156
sg76
(lp4163
g69
(g70
g71
NtRp4164
(dp4165
g74
(dp4166
g82
I1
ssg83
g4160
sg76
(lp4167
S'http://www.web2py.com'
p4168
asbasbasbag69
(g85
g71
NtRp4169
(dp4170
g74
(dp4171
sg83
g4127
sg76
(lp4172
g69
(g90
g71
NtRp4173
(dp4174
g74
(dp4175
sg83
g4169
sg76
(lp4176
g69
(g70
g71
NtRp4177
(dp4178
g74
(dp4179
g82
I1
ssg83
g4173
sg76
(lp4180
(lp4181
(g3259
(S't\x08\x00\x00\x00Download'
tRp4182
I00
S'http://www.web2py.com/examples/default/download'
p4183
tp4184
a(g3259
(S't\x07\x00\x00\x00Support'
tRp4185
I00
S'http://www.web2py.com/examples/default/support'
p4186
tp4187
a(g3259
(S's\x0e\x00\x00\x00Quick Examples'
tRp4188
I00
S'http://web2py.com/examples/default/examples'
p4189
tp4190
a(g3259
(S't\x03\x00\x00\x00FAQ'
tRp4191
I00
S'http://web2py.com/AlterEgo'
p4192
tp4193
a(g3259
(S's\x11\x00\x00\x00Free Applications'
tRp4194
I00
S'http://web2py.com/appliances'
p4195
tp4196
a(g3259
(S't\x07\x00\x00\x00Plugins'
tRp4197
I00
S'http://web2py.com/plugins'
p4198
tp4199
a(g3259
(S't\x07\x00\x00\x00Recipes'
tRp4200
I00
S'http://web2pyslices.com/'
p4201
tp4202
a(g3259
(S't\x04\x00\x00\x00Demo'
tRp4203
I00
S'http://web2py.com/demo_admin'
p4204
tp4205
a(g3259
(S't\x08\x00\x00\x00Semantic'
tRp4206
I00
S'http://web2py.com/semantic'
p4207
tp4208
a(g3259
(S't\x07\x00\x00\x00Layouts'
tRp4209
I00
S'http://web2py.com/layouts'
p4210
tp4211
a(g3259
(S't\x06\x00\x00\x00Videos'
tRp4212
I00
S'http://www.web2py.com/examples/default/videos/'
p4213
tp4214
aasbasbasbasbasbasbasbasbasbasbasbasbasbasbasbasbasbasbasbag69
(g85
g71
NtRp4215
(dp4216
g74
(dp4217
sg83
g2754
sg76
(lp4218
g69
(g90
g71
NtRp4219
(dp4220
g74
(dp4221
g94
g95
ssg83
g4215
sg76
(lp4222
S'meta'
p4223
asbag69
(g90
g71
NtRp4224
(dp4225
g74
(dp4226
g101
g102
ssg83
g4215
sg76
(lp4227
S':'
asbag69
(g90
g71
NtRp4228
(dp4229
g74
(dp4230
sg83
g4215
sg76
(lp4231
g69
(g70
g71
NtRp4232
(dp4233
g74
(dp4234
g82
I5
ssg83
g4228
sg76
(lp4235
g69
(g78
g71
NtRp4236
(dp4237
g74
(dp4238
g82
I4
ssg83
Nsg76
(lp4239
g69
(g85
g71
NtRp4240
(dp4241
g74
(dp4242
sg83
g4236
sg76
(lp4243
g69
(g90
g71
NtRp4244
(dp4245
g74
(dp4246
g94
g95
ssg83
g4240
sg76
(lp4247
S'author'
p4248
asbag69
(g90
g71
NtRp4249
(dp4250
g74
(dp4251
g101
g102
ssg83
g4240
sg76
(lp4252
S':'
asbag69
(g90
g71
NtRp4253
(dp4254
g74
(dp4255
sg83
g4240
sg76
(lp4256
g69
(g70
g71
NtRp4257
(dp4258
g74
(dp4259
g82
I4
ssg83
g4253
sg76
(lp4260
S'Your Name <you@example.com>'
p4261
asbasbasbag69
(g85
g71
NtRp4262
(dp4263
g74
(dp4264
sg83
g4236
sg76
(lp4265
g69
(g90
g71
NtRp4266
(dp4267
g74
(dp4268
g94
g95
ssg83
g4262
sg76
(lp4269
S'copyright'
p4270
asbag69
(g90
g71
NtRp4271
(dp4272
g74
(dp4273
g101
g102
ssg83
g4262
sg76
(lp4274
S':'
asbag69
(g90
g71
NtRp4275
(dp4276
g74
(dp4277
sg83
g4262
sg76
(lp4278
g69
(g70
g71
NtRp4279
(dp4280
g74
(dp4281
g82
I4
ssg83
g4275
sg76
(lp4282
S'Copyright 2011'
p4283
asbasbasbag69
(g85
g71
NtRp4284
(dp4285
g74
(dp4286
sg83
g4236
sg76
(lp4287
g69
(g90
g71
NtRp4288
(dp4289
g74
(dp4290
g94
g95
ssg83
g4284
sg76
(lp4291
S'description'
p4292
asbag69
(g90
g71
NtRp4293
(dp4294
g74
(dp4295
g101
g102
ssg83
g4284
sg76
(lp4296
S':'
asbag69
(g90
g71
NtRp4297
(dp4298
g74
(dp4299
sg83
g4284
sg76
(lp4300
g69
(g70
g71
NtRp4301
(dp4302
g74
(dp4303
g82
I4
ssg83
g4297
sg76
(lp4304
S'a cool new app'
p4305
asbasbasbag69
(g85
g71
NtRp4306
(dp4307
g74
(dp4308
sg83
g4236
sg76
(lp4309
g69
(g90
g71
NtRp4310
(dp4311
g74
(dp4312
g94
g95
ssg83
g4306
sg76
(lp4313
S'generator'
p4314
asbag69
(g90
g71
NtRp4315
(dp4316
g74
(dp4317
g101
g102
ssg83
g4306
sg76
(lp4318
S':'
asbag69
(g90
g71
NtRp4319
(dp4320
g74
(dp4321
sg83
g4306
sg76
(lp4322
g69
(g70
g71
NtRp4323
(dp4324
g74
(dp4325
g82
I4
ssg83
g4319
sg76
(lp4326
S'Web2py Web Framework'
p4327
asbasbasbag69
(g85
g71
NtRp4328
(dp4329
g74
(dp4330
sg83
g4236
sg76
(lp4331
g69
(g90
g71
NtRp4332
(dp4333
g74
(dp4334
g94
g95
ssg83
g4328
sg76
(lp4335
S'keywords'
p4336
asbag69
(g90
g71
NtRp4337
(dp4338
g74
(dp4339
g101
g102
ssg83
g4328
sg76
(lp4340
S':'
asbag69
(g90
g71
NtRp4341
(dp4342
g74
(dp4343
sg83
g4328
sg76
(lp4344
g69
(g70
g71
NtRp4345
(dp4346
g74
(dp4347
g82
I4
ssg83
g4341
sg76
(lp4348
S'web2py, python, framework'
p4349
asbasbasbasbasbasbasbag69
(g85
g71
NtRp4350
(dp4351
g74
(dp4352
sg83
g2754
sg76
(lp4353
g69
(g90
g71
NtRp4354
(dp4355
g74
(dp4356
g94
g95
ssg83
g4350
sg76
(lp4357
S'postprocessing'
p4358
asbag69
(g90
g71
NtRp4359
(dp4360
g74
(dp4361
g101
g102
ssg83
g4350
sg76
(lp4362
S':'
asbag69
(g90
g71
NtRp4363
(dp4364
g74
(dp4365
sg83
g4350
sg76
(lp4366
g69
(g70
g71
NtRp4367
(dp4368
g74
(dp4369
g82
I5
ssg83
g4363
sg76
(lp4370
g69
(g78
g71
NtRp4371
(dp4372
g74
(dp4373
g82
I4
ssg83
Nsg76
(lp4374
sbasbasbasbag69
(g85
g71
NtRp4375
(dp4376
g74
(dp4377
sg83
g2754
sg76
(lp4378
g69
(g90
g71
NtRp4379
(dp4380
g74
(dp4381
g94
g95
ssg83
g4375
sg76
(lp4382
S'session_file'
p4383
asbag69
(g90
g71
NtRp4384
(dp4385
g74
(dp4386
g101
g102
ssg83
g4375
sg76
(lp4387
S':'
asbag69
(g90
g71
NtRp4388
(dp4389
g74
(dp4390
sg83
g4375
sg76
(lp4391
g69
(g70
g71
NtRp4392
(dp4393
g74
(dp4394
g82
I5
ssg83
g4388
sg76
(lp4395
S"<open file 'P:\\School\\DePaul\\Projects\\CSC_438\\web2py\\applications\\init\\sessions\\127.0.0.1-e2e3e2a9-2655-4549-be42-2ce4afc3f0eb', mode 'rb+' at 0x032AB390>"
p4396
asbasbasbag69
(g85
g71
NtRp4397
(dp4398
g74
(dp4399
sg83
g2754
sg76
(lp4400
g69
(g90
g71
NtRp4401
(dp4402
g74
(dp4403
g94
g95
ssg83
g4397
sg76
(lp4404
S'session_filename'
p4405
asbag69
(g90
g71
NtRp4406
(dp4407
g74
(dp4408
g101
g102
ssg83
g4397
sg76
(lp4409
S':'
asbag69
(g90
g71
NtRp4410
(dp4411
g74
(dp4412
sg83
g4397
sg76
(lp4413
g69
(g70
g71
NtRp4414
(dp4415
g74
(dp4416
g82
I5
ssg83
g4410
sg76
(lp4417
S'P:\\School\\DePaul\\Projects\\CSC_438\\web2py\\applications\\init\\sessions\\127.0.0.1-e2e3e2a9-2655-4549-be42-2ce4afc3f0eb'
p4418
asbasbasbag69
(g85
g71
NtRp4419
(dp4420
g74
(dp4421
sg83
g2754
sg76
(lp4422
g69
(g90
g71
NtRp4423
(dp4424
g74
(dp4425
g94
g95
ssg83
g4419
sg76
(lp4426
S'session_id'
p4427
asbag69
(g90
g71
NtRp4428
(dp4429
g74
(dp4430
g101
g102
ssg83
g4419
sg76
(lp4431
S':'
asbag69
(g90
g71
NtRp4432
(dp4433
g74
(dp4434
sg83
g4419
sg76
(lp4435
g69
(g70
g71
NtRp4436
(dp4437
g74
(dp4438
g82
I5
ssg83
g4432
sg76
(lp4439
S'127.0.0.1-e2e3e2a9-2655-4549-be42-2ce4afc3f0eb'
p4440
asbasbasbag69
(g85
g71
NtRp4441
(dp4442
g74
(dp4443
sg83
g2754
sg76
(lp4444
g69
(g90
g71
NtRp4445
(dp4446
g74
(dp4447
g94
g95
ssg83
g4441
sg76
(lp4448
S'session_id_name'
p4449
asbag69
(g90
g71
NtRp4450
(dp4451
g74
(dp4452
g101
g102
ssg83
g4441
sg76
(lp4453
S':'
asbag69
(g90
g71
NtRp4454
(dp4455
g74
(dp4456
sg83
g4441
sg76
(lp4457
g69
(g70
g71
NtRp4458
(dp4459
g74
(dp4460
g82
I5
ssg83
g4454
sg76
(lp4461
g2811
asbasbasbag69
(g85
g71
NtRp4462
(dp4463
g74
(dp4464
sg83
g2754
sg76
(lp4465
g69
(g90
g71
NtRp4466
(dp4467
g74
(dp4468
g94
g95
ssg83
g4462
sg76
(lp4469
S'session_locked'
p4470
asbag69
(g90
g71
NtRp4471
(dp4472
g74
(dp4473
g101
g102
ssg83
g4462
sg76
(lp4474
S':'
asbag69
(g90
g71
NtRp4475
(dp4476
g74
(dp4477
sg83
g4462
sg76
(lp4478
g69
(g70
g71
NtRp4479
(dp4480
g74
(dp4481
g82
I5
ssg83
g4475
sg76
(lp4482
g1334
asbasbasbag69
(g85
g71
NtRp4483
(dp4484
g74
(dp4485
sg83
g2754
sg76
(lp4486
g69
(g90
g71
NtRp4487
(dp4488
g74
(dp4489
g94
g95
ssg83
g4483
sg76
(lp4490
S'session_new'
p4491
asbag69
(g90
g71
NtRp4492
(dp4493
g74
(dp4494
g101
g102
ssg83
g4483
sg76
(lp4495
S':'
asbag69
(g90
g71
NtRp4496
(dp4497
g74
(dp4498
sg83
g4483
sg76
(lp4499
g69
(g70
g71
NtRp4500
(dp4501
g74
(dp4502
g82
I5
ssg83
g4496
sg76
(lp4503
g112
asbasbasbag69
(g85
g71
NtRp4504
(dp4505
g74
(dp4506
sg83
g2754
sg76
(lp4507
g69
(g90
g71
NtRp4508
(dp4509
g74
(dp4510
g94
g95
ssg83
g4504
sg76
(lp4511
S'status'
p4512
asbag69
(g90
g71
NtRp4513
(dp4514
g74
(dp4515
g101
g102
ssg83
g4504
sg76
(lp4516
S':'
asbag69
(g90
g71
NtRp4517
(dp4518
g74
(dp4519
sg83
g4504
sg76
(lp4520
g69
(g70
g71
NtRp4521
(dp4522
g74
(dp4523
g82
I5
ssg83
g4517
sg76
(lp4524
S'200'
p4525
asbasbasbag69
(g85
g71
NtRp4526
(dp4527
g74
(dp4528
sg83
g2754
sg76
(lp4529
g69
(g90
g71
NtRp4530
(dp4531
g74
(dp4532
g94
g95
ssg83
g4526
sg76
(lp4533
S'subtitle'
p4534
asbag69
(g90
g71
NtRp4535
(dp4536
g74
(dp4537
g101
g102
ssg83
g4526
sg76
(lp4538
S':'
asbag69
(g90
g71
NtRp4539
(dp4540
g74
(dp4541
sg83
g4526
sg76
(lp4542
g69
(g70
g71
NtRp4543
(dp4544
g74
(dp4545
g82
I5
ssg83
g4539
sg76
(lp4546
g3259
(S's\r\x00\x00\x00customize me!'
tRp4547
asbasbasbag69
(g85
g71
NtRp4548
(dp4549
g74
(dp4550
sg83
g2754
sg76
(lp4551
g69
(g90
g71
NtRp4552
(dp4553
g74
(dp4554
g94
g95
ssg83
g4548
sg76
(lp4555
S'title'
p4556
asbag69
(g90
g71
NtRp4557
(dp4558
g74
(dp4559
g101
g102
ssg83
g4548
sg76
(lp4560
S':'
asbag69
(g90
g71
NtRp4561
(dp4562
g74
(dp4563
sg83
g4548
sg76
(lp4564
g69
(g70
g71
NtRp4565
(dp4566
g74
(dp4567
g82
I5
ssg83
g4561
sg76
(lp4568
g134
asbasbasbag69
(g85
g71
NtRp4569
(dp4570
g74
(dp4571
sg83
g2754
sg76
(lp4572
g69
(g90
g71
NtRp4573
(dp4574
g74
(dp4575
g94
g95
ssg83
g4569
sg76
(lp4576
g1999
asbag69
(g90
g71
NtRp4577
(dp4578
g74
(dp4579
g101
g102
ssg83
g4569
sg76
(lp4580
S':'
asbag69
(g90
g71
NtRp4581
(dp4582
g74
(dp4583
sg83
g4569
sg76
(lp4584
g69
(g70
g71
NtRp4585
(dp4586
g74
(dp4587
g82
I5
ssg83
g4581
sg76
(lp4588
g2012
asbasbasbag69
(g85
g71
NtRp4589
(dp4590
g74
(dp4591
sg83
g2754
sg76
(lp4592
g69
(g90
g71
NtRp4593
(dp4594
g74
(dp4595
g94
g95
ssg83
g4589
sg76
(lp4596
S'view'
p4597
asbag69
(g90
g71
NtRp4598
(dp4599
g74
(dp4600
g101
g102
ssg83
g4589
sg76
(lp4601
S':'
asbag69
(g90
g71
NtRp4602
(dp4603
g74
(dp4604
sg83
g4589
sg76
(lp4605
g69
(g70
g71
NtRp4606
(dp4607
g74
(dp4608
g82
I5
ssg83
g4602
sg76
(lp4609
S'default/user.html'
p4610
asbasbasbasbasbsS'locals'
p4611
(dp4612
g4
S"r'P:\\School\\DePaul\\Projects\\CSC_438\\web2py\\applications\\init\\views\\default/user.html'"
p4613
sg6
S'\'response.write(\\\'<!DOCTYPE html>\\\\r\\\\n<html lang="\\\'...ite(\\\'\\\\r\\\\n  </body>\\\\r\\\\n</html>\\\\r\\\\n\\\', escape=False)\''
p4614
sssS'traceback'
p4615
S'Traceback (most recent call last):\n  File "P:\\School\\DePaul\\Projects\\CSC_438\\web2py\\gluon\\restricted.py", line 203, in restricted\n    ccode = compile2(code,layer)\n  File "P:\\School\\DePaul\\Projects\\CSC_438\\web2py\\gluon\\restricted.py", line 189, in compile2\n    return compile(code.rstrip().replace(\'\\r\\n\',\'\\n\')+\'\\n\', layer, \'exec\')\n  File "P:\\School\\DePaul\\Projects\\CSC_438\\web2py\\applications\\init\\views\\default/user.html", line 88\n    response.write(form.custom.widget.gender}</strong>\n                                            ^\nSyntaxError: invalid syntax\n'
p4616
s.