(dp1
S'output'
p2
S"<type 'exceptions.KeyError'> 'event'"
p3
sS'layer'
p4
S'P:\\School\\DePaul\\Projects\\CSC_438\\web2py\\applications\\init\\controllers/default.py'
p5
sS'code'
p6
S'# -*- coding: utf-8 -*-\n# this file is released under public domain and you can use without limitations\n\n##### Page Functions #####\n@auth.requires_login()\ndef index():\n   redirect(URL(\'home\'))\n\ndef user():\n    """\n    exposes:\n    http://..../[app]/default/user/login\n    http://..../[app]/default/user/logout\n    http://..../[app]/default/user/register\n    http://..../[app]/default/user/profile\n    http://..../[app]/default/user/retrieve_password\n    http://..../[app]/default/user/change_password\n    use @auth.requires_login()\n        @auth.requires_membership(\'group name\')\n        @auth.requires_permission(\'read\',\'table name\',record_id)\n    to decorate functions that need access control\n    """\n\n    return dict(form=auth())\n\n## Users home page.\n@auth.requires_login()\ndef home():\n\n    db.events.name.represent = lambda name, row: A(name, _href=URL(\'home\'))\n        \n    ## get the challenges the users is currently enrolled in\n    query = db.events.participants.contains(auth.user.id)\n    events = db(query).select(orderby=db.events.name)\n\n    return dict(events=events)\n\n# Create a new challenge\n@auth.requires_login()\ndef create():\n\n    form = SQLFORM(db.events)\n         \n    if form.process(session=None, onvalidation=date_compare, formname=\'create\').accepted:\n        response.flash = \'form accepted\'\n        redirect(URL(\'home\'))\n    elif form.errors:\n        response.flash = \'form has errors\'\n    else:\n        response.flash = \'please fill the form\'\n \n    return dict(form = form)\n\n# Edit an existing Challenge. You can only edit challenges you created\n@auth.requires_login()\ndef edit():\n\n    event_id= request.vars.event\n    event_query = db.events.id == event_id\n    event = db(event_query).select().first()\n    db.event.participants.writable = False\n    \n    form= SQLFORM(db.events, event)\n    \n    if form.process(session=None, onvalidation=date_compare, formname=\'edit\').accepted:\n        response.flash = \'form accepted\'\n        redirect(URL(\'home\'))\n    elif form.errors:\n        response.flash = \'form has errors\'\n    else:\n        response.flash = \'please fill the form\'\n\n    return dict(form = form)\n    \n## View the details of a challenge        \n@auth.requires_login()\ndef challenge():\n\n    event_id= request.vars.event\n    event_query = db.events.id == event_id\n    form= db(event_query).select().first()\n    users = db(db.event_users.event == event_id).select()\n    \n    # Get the registered users for this event\n\n    # a bunch of selects used while testing the leaders board\n    # keeping them here for reference for now\n#    entries = db().select(db.entries.user, distinct=True)\n#    entries = db(db.event_users.event==event_id).select(db.event_users.event)\n#    entries = db(db.event_users.event==event_id).select(db.event_users.event, db.event_users.user_name)\n#    entries = db(db.event_users.event==event_id).select()      \n    \n    entries = db(db.entries.user.belongs(db(db.event_users.event==event_id).select())).\\\n        select(groupby=db.entries.user, orderby=~db.entries.date_entered)\n\n    num_users = len(users)        \n    form.writable = False\n\n    return dict(form=form, entries=entries, num_users=num_users)\n\n# User joins an existing Challenge\n@auth.requires_login()\ndef join():\n \n    event_id = request.vars.event\n    user = auth.user.id\n    goal = \'0\'\n    \n    # add this user to the event_users table\n    db.event_users.insert(event=event_id, user_name=user, goal=goal)\n \n    # update the event participants list with this user\n    event_update = db.events.id == event_id\n    event = db(event_update).select().first()\n    partcipants = event.participants\n    partcipants.append(auth.user.id)\n    update = db(event_update).update(participants=partcipants)\n        \n    redirect(URL(\'home\'))\n \n# User can see their entries and make a new entry\n@auth.requires_login()\ndef check_in():\n    import time\n    from datetime import date\n\n    event_id = request.vars.event\n    \n    # Get data for this Event\n    event = __get_event(event_id)\n    metric_name = event.metric_name\n    metric_type = event.metric_type\n    \n    # Get this users entries for this event\n    entries = __get_entries(event_id)\n    \n    # Get users registered for this Event\n    event_users = __get_event_users(event_id)\n    user = event_users.id\n    \n    # Check frequency\n    freq_result, err_msg = __check_frequency(event)\n    \n    # Check the date range of the event\n    if __check_date_range(event):\n        # Check the frequency range \n        if freq_result:\n            # check if there\'s already been an entry today\n            # TODO - this should check the check-in frequency field to see when a user is allowed to check-in\n            entry = db((db.entries.user == user) & (db.entries.date_entered == date.today())).select().first()\n        \n            if entry is None:\n                id = db.entries.insert(user=user, date_entered=date.today())                 \n                entry = db(db.entries.id == id).select().first()\n                exists = False\n            elif entry.value is not None:\n                exists = True\n        \n            db.entries.user.writable = False\n            db.entries.date_entered.writable = False\n    \n            form = SQLFORM(db.entries, entry)\n            if form.process().accepted:\n                response.flash = \'form accepted\'\n                redirect(URL(r=request, f=\'challenge\', vars=dict(event=event.id)))\n            elif form.errors:\n                response.flash = \'form has errors\'\n            else:\n                response.flash = \'please fill the form\'\n    \n        # Out of freq range so send the error message\n        else:\n            form = err_msg\n    # Out of date range so send error message\n    else:\n        form = "This Challenge is not currently active. You can not submit any entries"\n        \n    return dict(entries=entries, metric_name=metric_name, form=form)\n\n@auth.requires_login()\ndef search():\n\n    ## get all challenges\n    events = db(db.events).select(orderby=db.events.name)\n\n    return dict(events=events)\n        \n# display the contact page        \ndef contact():\n\n    return dict()\n\n# display the about page\ndef about():\n    \n    return dict()\n    \n##### Utility Functions #####    \n\n# Check the \ndef __check_frequency(event):\n    import time\n    from datetime import date\n    \n    date_entered = date.today()\n    start_date = event.start_date\n    todays_date = date.today()\n    timedelta = todays_date.day - start_date.day\n    \n    frequency = event.frequency\n    \n    if frequency == "Daily": \n        if timedelta % 1 == 0:\n            return(True, "")\n        else:\n            remainder = 1 - timedelta\n            return(False, "It is not time to check-in yet. Check back in " + remainder)\n    if frequency == "Weekly":\n        if timedelta % 7 == 0:\n            return(True, "")\n        else:\n            remainder = 7 - timedelta\n            return(False, "It is not time to check-in yet. Check back in " + remainder)\n    if frequency == "Monthly":\n        return("Monthly")\n    if frequency == "1 Day":\n        if timedelta % 1 == 0:\n            return(True, "")\n        else:\n            remainder = 7 - timedelta\n            return(False, "It is not time to check-in yet. Check back in " + remainder)\n\n# check if today is in between the start and end date of the challenge \ndef __check_date_range(event):\n    import time\n    from datetime import date\n    \n    start_date = event.start_date\n    end_date = event.end_date\n    result = False\n    if date.today() >= start_date:\n        if date.today() <= end_date:\n            result = True\n        \n    return(result)\n        \n# Get the users registered for this event\ndef get_users(event_id):\n\n    user_query = db.event_users.event == event_id\n    users = db(user_query).select()\n            \n    return (users)\n    \n# Get this users entries for the given event\ndef __get_entries(event_id):\n    \n    return(db(db.entries.user.belongs(db((db.event_users.event==event_id) & (db.event_users.user_name==auth.user.id)).select())).\\\n        select(orderby=db.entries.date_entered))\n\n# Get event users\ndef __get_event_users(event_id):\n    \n    return(db((db.event_users.event==event_id) & (db.event_users.user_name==auth.user.id)).select(groupby=db.event_users.user_name).first())\n\n    \n# Get event data for selected event\ndef __get_event(event_id):\n    \n    event_query = db.events.id == event_id\n    return (db(event_query).select().first())\n    \n\n# Make sure Start Date is less then End Date\ndef date_compare(form):\n    if form.vars.start_date > form.vars.end_date:\n        form.errors.end_date = \'End Date must be after Start Date\'\n\ndef download():\n    """\n    allows downloading of uploaded files\n    http://..../[app]/default/download/[filename]\n    """\n    return response.download(request,db)\n\n\ndef call():\n    """\n    exposes services. for example:\n    http://..../[app]/default/call/jsonrpc\n    decorate with @services.jsonrpc the functions to expose\n    supports xml, json, xmlrpc, jsonrpc, amfrpc, rss, csv\n    """\n    return service()\n\n\n@auth.requires_signature()\ndef data():\n    """\n    http://..../[app]/default/data/tables\n    http://..../[app]/default/data/create/[table]\n    http://..../[app]/default/data/read/[table]/[id]\n    http://..../[app]/default/data/update/[table]/[id]\n    http://..../[app]/default/data/delete/[table]/[id]\n    http://..../[app]/default/data/select/[table]\n    http://..../[app]/default/data/search/[table]\n    but URLs bust be signed, i.e. linked with\n      A(\'table\',_href=URL(\'data/tables\',user_signature=True))\n    or with the signed load operator\n      LOAD(\'default\',\'data.load\',args=\'tables\',ajax=True,user_signature=True)\n    """\n    return dict(form=crud())\n\nresponse._vars=response._caller(edit)\n'
p7
sS'snapshot'
p8
(dp9
S'exception'
p10
(dp11
S'__hash__'
p12
S"<method-wrapper '__hash__' of exceptions.KeyError object>"
p13
sS'__setattr__'
p14
S"<method-wrapper '__setattr__' of exceptions.KeyError object>"
p15
sS'__reduce_ex__'
p16
S'<built-in method __reduce_ex__ of exceptions.KeyError object>'
p17
sS'__getslice__'
p18
S"<method-wrapper '__getslice__' of exceptions.KeyError object>"
p19
sS'__getitem__'
p20
S"<method-wrapper '__getitem__' of exceptions.KeyError object>"
p21
sS'__setstate__'
p22
S'<built-in method __setstate__ of exceptions.KeyError object>'
p23
sS'__reduce__'
p24
S'<built-in method __reduce__ of exceptions.KeyError object>'
p25
sS'__str__'
p26
S"<method-wrapper '__str__' of exceptions.KeyError object>"
p27
sS'__format__'
p28
S'<built-in method __format__ of exceptions.KeyError object>'
p29
sS'__getattribute__'
p30
S"<method-wrapper '__getattribute__' of exceptions.KeyError object>"
p31
sS'__class__'
p32
S"<type 'exceptions.KeyError'>"
p33
sS'__unicode__'
p34
S'<built-in method __unicode__ of exceptions.KeyError object>'
p35
sS'__delattr__'
p36
S"<method-wrapper '__delattr__' of exceptions.KeyError object>"
p37
sS'__subclasshook__'
p38
S'<built-in method __subclasshook__ of type object>'
p39
sS'__repr__'
p40
S"<method-wrapper '__repr__' of exceptions.KeyError object>"
p41
sS'args'
p42
S"('event',)"
p43
sS'__dict__'
p44
S'{}'
p45
sS'__sizeof__'
p46
S'<built-in method __sizeof__ of exceptions.KeyError object>'
p47
sS'__doc__'
p48
S"'Mapping key not found.'"
p49
sS'__init__'
p50
S"<method-wrapper '__init__' of exceptions.KeyError object>"
p51
sS'__new__'
p52
S'<built-in method __new__ of type object>'
p53
ssS'evalue'
p54
S"'event'"
p55
sS'request'
p56
ccopy_reg
_reconstructor
p57
(cgluon.html
BEAUTIFY
p58
c__builtin__
object
p59
NtRp60
(dp61
S'attributes'
p62
(dp63
sS'components'
p64
(lp65
g57
(cgluon.html
TABLE
p66
g59
NtRp67
(dp68
g62
(dp69
S'level'
p70
I5
ssS'parent'
p71
Nsg64
(lp72
g57
(cgluon.html
TR
p73
g59
NtRp74
(dp75
g62
(dp76
sg71
g67
sg64
(lp77
g57
(cgluon.html
TD
p78
g59
NtRp79
(dp80
g62
(dp81
S'_style'
p82
S'font-weight:bold;vertical-align:top'
p83
ssg71
g74
sg64
(lp84
S'ajax'
p85
asbag57
(g78
g59
NtRp86
(dp87
g62
(dp88
S'_valign'
p89
S'top'
p90
ssg71
g74
sg64
(lp91
S':'
asbag57
(g78
g59
NtRp92
(dp93
g62
(dp94
sg71
g74
sg64
(lp95
g57
(g58
g59
NtRp96
(dp97
g62
(dp98
g70
I5
ssg71
g92
sg64
(lp99
S'False'
p100
asbasbasbag57
(g73
g59
NtRp101
(dp102
g62
(dp103
sg71
g67
sg64
(lp104
g57
(g78
g59
NtRp105
(dp106
g62
(dp107
g82
g83
ssg71
g101
sg64
(lp108
S'application'
p109
asbag57
(g78
g59
NtRp110
(dp111
g62
(dp112
g89
g90
ssg71
g101
sg64
(lp113
S':'
asbag57
(g78
g59
NtRp114
(dp115
g62
(dp116
sg71
g101
sg64
(lp117
g57
(g58
g59
NtRp118
(dp119
g62
(dp120
g70
I5
ssg71
g114
sg64
(lp121
S'init'
p122
asbasbasbag57
(g73
g59
NtRp123
(dp124
g62
(dp125
sg71
g67
sg64
(lp126
g57
(g78
g59
NtRp127
(dp128
g62
(dp129
g82
g83
ssg71
g123
sg64
(lp130
g42
asbag57
(g78
g59
NtRp131
(dp132
g62
(dp133
g89
g90
ssg71
g123
sg64
(lp134
S':'
asbag57
(g78
g59
NtRp135
(dp136
g62
(dp137
sg71
g123
sg64
(lp138
g57
(g58
g59
NtRp139
(dp140
g62
(dp141
g70
I5
ssg71
g135
sg64
(lp142
g57
(g66
g59
NtRp143
(dp144
g62
(dp145
g70
I4
ssg71
Nsg64
(lp146
sbasbasbasbag57
(g73
g59
NtRp147
(dp148
g62
(dp149
sg71
g67
sg64
(lp150
g57
(g78
g59
NtRp151
(dp152
g62
(dp153
g82
g83
ssg71
g147
sg64
(lp154
S'body'
p155
asbag57
(g78
g59
NtRp156
(dp157
g62
(dp158
g89
g90
ssg71
g147
sg64
(lp159
S':'
asbag57
(g78
g59
NtRp160
(dp161
g62
(dp162
sg71
g147
sg64
(lp163
g57
(g58
g59
NtRp164
(dp165
g62
(dp166
g70
I5
ssg71
g160
sg64
(lp167
S'<cStringIO.StringO object at 0x08E46500>'
p168
asbasbasbag57
(g73
g59
NtRp169
(dp170
g62
(dp171
sg71
g67
sg64
(lp172
g57
(g78
g59
NtRp173
(dp174
g62
(dp175
g82
g83
ssg71
g169
sg64
(lp176
S'client'
p177
asbag57
(g78
g59
NtRp178
(dp179
g62
(dp180
g89
g90
ssg71
g169
sg64
(lp181
S':'
asbag57
(g78
g59
NtRp182
(dp183
g62
(dp184
sg71
g169
sg64
(lp185
g57
(g58
g59
NtRp186
(dp187
g62
(dp188
g70
I5
ssg71
g182
sg64
(lp189
S'127.0.0.1'
p190
asbasbasbag57
(g73
g59
NtRp191
(dp192
g62
(dp193
sg71
g67
sg64
(lp194
g57
(g78
g59
NtRp195
(dp196
g62
(dp197
g82
g83
ssg71
g191
sg64
(lp198
S'controller'
p199
asbag57
(g78
g59
NtRp200
(dp201
g62
(dp202
g89
g90
ssg71
g191
sg64
(lp203
S':'
asbag57
(g78
g59
NtRp204
(dp205
g62
(dp206
sg71
g191
sg64
(lp207
g57
(g58
g59
NtRp208
(dp209
g62
(dp210
g70
I5
ssg71
g204
sg64
(lp211
S'default'
p212
asbasbasbag57
(g73
g59
NtRp213
(dp214
g62
(dp215
sg71
g67
sg64
(lp216
g57
(g78
g59
NtRp217
(dp218
g62
(dp219
g82
g83
ssg71
g213
sg64
(lp220
S'cookies'
p221
asbag57
(g78
g59
NtRp222
(dp223
g62
(dp224
g89
g90
ssg71
g213
sg64
(lp225
S':'
asbag57
(g78
g59
NtRp226
(dp227
g62
(dp228
sg71
g213
sg64
(lp229
g57
(g58
g59
NtRp230
(dp231
g62
(dp232
g70
I5
ssg71
g226
sg64
(lp233
g57
(g66
g59
NtRp234
(dp235
g62
(dp236
g70
I4
ssg71
Nsg64
(lp237
g57
(g73
g59
NtRp238
(dp239
g62
(dp240
sg71
g234
sg64
(lp241
g57
(g78
g59
NtRp242
(dp243
g62
(dp244
g82
g83
ssg71
g238
sg64
(lp245
S'session_id_admin'
p246
asbag57
(g78
g59
NtRp247
(dp248
g62
(dp249
g89
g90
ssg71
g238
sg64
(lp250
S':'
asbag57
(g78
g59
NtRp251
(dp252
g62
(dp253
sg71
g238
sg64
(lp254
g57
(g58
g59
NtRp255
(dp256
g62
(dp257
g70
I4
ssg71
g251
sg64
(lp258
g57
(g66
g59
NtRp259
(dp260
g62
(dp261
g70
I3
ssg71
Nsg64
(lp262
g57
(g73
g59
NtRp263
(dp264
g62
(dp265
sg71
g259
sg64
(lp266
g57
(g78
g59
NtRp267
(dp268
g62
(dp269
g82
g83
ssg71
g263
sg64
(lp270
S'comment'
p271
asbag57
(g78
g59
NtRp272
(dp273
g62
(dp274
g89
g90
ssg71
g263
sg64
(lp275
S':'
asbag57
(g78
g59
NtRp276
(dp277
g62
(dp278
sg71
g263
sg64
(lp279
g57
(g58
g59
NtRp280
(dp281
g62
(dp282
g70
I3
ssg71
g276
sg64
(lp283
S''
asbasbasbag57
(g73
g59
NtRp284
(dp285
g62
(dp286
sg71
g259
sg64
(lp287
g57
(g78
g59
NtRp288
(dp289
g62
(dp290
g82
g83
ssg71
g284
sg64
(lp291
S'domain'
p292
asbag57
(g78
g59
NtRp293
(dp294
g62
(dp295
g89
g90
ssg71
g284
sg64
(lp296
S':'
asbag57
(g78
g59
NtRp297
(dp298
g62
(dp299
sg71
g284
sg64
(lp300
g57
(g58
g59
NtRp301
(dp302
g62
(dp303
g70
I3
ssg71
g297
sg64
(lp304
S''
asbasbasbag57
(g73
g59
NtRp305
(dp306
g62
(dp307
sg71
g259
sg64
(lp308
g57
(g78
g59
NtRp309
(dp310
g62
(dp311
g82
g83
ssg71
g305
sg64
(lp312
S'expires'
p313
asbag57
(g78
g59
NtRp314
(dp315
g62
(dp316
g89
g90
ssg71
g305
sg64
(lp317
S':'
asbag57
(g78
g59
NtRp318
(dp319
g62
(dp320
sg71
g305
sg64
(lp321
g57
(g58
g59
NtRp322
(dp323
g62
(dp324
g70
I3
ssg71
g318
sg64
(lp325
S''
asbasbasbag57
(g73
g59
NtRp326
(dp327
g62
(dp328
sg71
g259
sg64
(lp329
g57
(g78
g59
NtRp330
(dp331
g62
(dp332
g82
g83
ssg71
g326
sg64
(lp333
S'httponly'
p334
asbag57
(g78
g59
NtRp335
(dp336
g62
(dp337
g89
g90
ssg71
g326
sg64
(lp338
S':'
asbag57
(g78
g59
NtRp339
(dp340
g62
(dp341
sg71
g326
sg64
(lp342
g57
(g58
g59
NtRp343
(dp344
g62
(dp345
g70
I3
ssg71
g339
sg64
(lp346
S''
asbasbasbag57
(g73
g59
NtRp347
(dp348
g62
(dp349
sg71
g259
sg64
(lp350
g57
(g78
g59
NtRp351
(dp352
g62
(dp353
g82
g83
ssg71
g347
sg64
(lp354
S'max-age'
p355
asbag57
(g78
g59
NtRp356
(dp357
g62
(dp358
g89
g90
ssg71
g347
sg64
(lp359
S':'
asbag57
(g78
g59
NtRp360
(dp361
g62
(dp362
sg71
g347
sg64
(lp363
g57
(g58
g59
NtRp364
(dp365
g62
(dp366
g70
I3
ssg71
g360
sg64
(lp367
S''
asbasbasbag57
(g73
g59
NtRp368
(dp369
g62
(dp370
sg71
g259
sg64
(lp371
g57
(g78
g59
NtRp372
(dp373
g62
(dp374
g82
g83
ssg71
g368
sg64
(lp375
S'path'
p376
asbag57
(g78
g59
NtRp377
(dp378
g62
(dp379
g89
g90
ssg71
g368
sg64
(lp380
S':'
asbag57
(g78
g59
NtRp381
(dp382
g62
(dp383
sg71
g368
sg64
(lp384
g57
(g58
g59
NtRp385
(dp386
g62
(dp387
g70
I3
ssg71
g381
sg64
(lp388
S''
asbasbasbag57
(g73
g59
NtRp389
(dp390
g62
(dp391
sg71
g259
sg64
(lp392
g57
(g78
g59
NtRp393
(dp394
g62
(dp395
g82
g83
ssg71
g389
sg64
(lp396
S'secure'
p397
asbag57
(g78
g59
NtRp398
(dp399
g62
(dp400
g89
g90
ssg71
g389
sg64
(lp401
S':'
asbag57
(g78
g59
NtRp402
(dp403
g62
(dp404
sg71
g389
sg64
(lp405
g57
(g58
g59
NtRp406
(dp407
g62
(dp408
g70
I3
ssg71
g402
sg64
(lp409
S''
asbasbasbag57
(g73
g59
NtRp410
(dp411
g62
(dp412
sg71
g259
sg64
(lp413
g57
(g78
g59
NtRp414
(dp415
g62
(dp416
g82
g83
ssg71
g410
sg64
(lp417
S'version'
p418
asbag57
(g78
g59
NtRp419
(dp420
g62
(dp421
g89
g90
ssg71
g410
sg64
(lp422
S':'
asbag57
(g78
g59
NtRp423
(dp424
g62
(dp425
sg71
g410
sg64
(lp426
g57
(g58
g59
NtRp427
(dp428
g62
(dp429
g70
I3
ssg71
g423
sg64
(lp430
S''
asbasbasbasbasbasbasbag57
(g73
g59
NtRp431
(dp432
g62
(dp433
sg71
g234
sg64
(lp434
g57
(g78
g59
NtRp435
(dp436
g62
(dp437
g82
g83
ssg71
g431
sg64
(lp438
S'session_id_init'
p439
asbag57
(g78
g59
NtRp440
(dp441
g62
(dp442
g89
g90
ssg71
g431
sg64
(lp443
S':'
asbag57
(g78
g59
NtRp444
(dp445
g62
(dp446
sg71
g431
sg64
(lp447
g57
(g58
g59
NtRp448
(dp449
g62
(dp450
g70
I4
ssg71
g444
sg64
(lp451
g57
(g66
g59
NtRp452
(dp453
g62
(dp454
g70
I3
ssg71
Nsg64
(lp455
g57
(g73
g59
NtRp456
(dp457
g62
(dp458
sg71
g452
sg64
(lp459
g57
(g78
g59
NtRp460
(dp461
g62
(dp462
g82
g83
ssg71
g456
sg64
(lp463
g271
asbag57
(g78
g59
NtRp464
(dp465
g62
(dp466
g89
g90
ssg71
g456
sg64
(lp467
S':'
asbag57
(g78
g59
NtRp468
(dp469
g62
(dp470
sg71
g456
sg64
(lp471
g57
(g58
g59
NtRp472
(dp473
g62
(dp474
g70
I3
ssg71
g468
sg64
(lp475
S''
asbasbasbag57
(g73
g59
NtRp476
(dp477
g62
(dp478
sg71
g452
sg64
(lp479
g57
(g78
g59
NtRp480
(dp481
g62
(dp482
g82
g83
ssg71
g476
sg64
(lp483
g292
asbag57
(g78
g59
NtRp484
(dp485
g62
(dp486
g89
g90
ssg71
g476
sg64
(lp487
S':'
asbag57
(g78
g59
NtRp488
(dp489
g62
(dp490
sg71
g476
sg64
(lp491
g57
(g58
g59
NtRp492
(dp493
g62
(dp494
g70
I3
ssg71
g488
sg64
(lp495
S''
asbasbasbag57
(g73
g59
NtRp496
(dp497
g62
(dp498
sg71
g452
sg64
(lp499
g57
(g78
g59
NtRp500
(dp501
g62
(dp502
g82
g83
ssg71
g496
sg64
(lp503
g313
asbag57
(g78
g59
NtRp504
(dp505
g62
(dp506
g89
g90
ssg71
g496
sg64
(lp507
S':'
asbag57
(g78
g59
NtRp508
(dp509
g62
(dp510
sg71
g496
sg64
(lp511
g57
(g58
g59
NtRp512
(dp513
g62
(dp514
g70
I3
ssg71
g508
sg64
(lp515
S''
asbasbasbag57
(g73
g59
NtRp516
(dp517
g62
(dp518
sg71
g452
sg64
(lp519
g57
(g78
g59
NtRp520
(dp521
g62
(dp522
g82
g83
ssg71
g516
sg64
(lp523
g334
asbag57
(g78
g59
NtRp524
(dp525
g62
(dp526
g89
g90
ssg71
g516
sg64
(lp527
S':'
asbag57
(g78
g59
NtRp528
(dp529
g62
(dp530
sg71
g516
sg64
(lp531
g57
(g58
g59
NtRp532
(dp533
g62
(dp534
g70
I3
ssg71
g528
sg64
(lp535
S''
asbasbasbag57
(g73
g59
NtRp536
(dp537
g62
(dp538
sg71
g452
sg64
(lp539
g57
(g78
g59
NtRp540
(dp541
g62
(dp542
g82
g83
ssg71
g536
sg64
(lp543
g355
asbag57
(g78
g59
NtRp544
(dp545
g62
(dp546
g89
g90
ssg71
g536
sg64
(lp547
S':'
asbag57
(g78
g59
NtRp548
(dp549
g62
(dp550
sg71
g536
sg64
(lp551
g57
(g58
g59
NtRp552
(dp553
g62
(dp554
g70
I3
ssg71
g548
sg64
(lp555
S''
asbasbasbag57
(g73
g59
NtRp556
(dp557
g62
(dp558
sg71
g452
sg64
(lp559
g57
(g78
g59
NtRp560
(dp561
g62
(dp562
g82
g83
ssg71
g556
sg64
(lp563
g376
asbag57
(g78
g59
NtRp564
(dp565
g62
(dp566
g89
g90
ssg71
g556
sg64
(lp567
S':'
asbag57
(g78
g59
NtRp568
(dp569
g62
(dp570
sg71
g556
sg64
(lp571
g57
(g58
g59
NtRp572
(dp573
g62
(dp574
g70
I3
ssg71
g568
sg64
(lp575
S''
asbasbasbag57
(g73
g59
NtRp576
(dp577
g62
(dp578
sg71
g452
sg64
(lp579
g57
(g78
g59
NtRp580
(dp581
g62
(dp582
g82
g83
ssg71
g576
sg64
(lp583
g397
asbag57
(g78
g59
NtRp584
(dp585
g62
(dp586
g89
g90
ssg71
g576
sg64
(lp587
S':'
asbag57
(g78
g59
NtRp588
(dp589
g62
(dp590
sg71
g576
sg64
(lp591
g57
(g58
g59
NtRp592
(dp593
g62
(dp594
g70
I3
ssg71
g588
sg64
(lp595
S''
asbasbasbag57
(g73
g59
NtRp596
(dp597
g62
(dp598
sg71
g452
sg64
(lp599
g57
(g78
g59
NtRp600
(dp601
g62
(dp602
g82
g83
ssg71
g596
sg64
(lp603
g418
asbag57
(g78
g59
NtRp604
(dp605
g62
(dp606
g89
g90
ssg71
g596
sg64
(lp607
S':'
asbag57
(g78
g59
NtRp608
(dp609
g62
(dp610
sg71
g596
sg64
(lp611
g57
(g58
g59
NtRp612
(dp613
g62
(dp614
g70
I3
ssg71
g608
sg64
(lp615
S''
asbasbasbasbasbasbasbasbasbasbasbag57
(g73
g59
NtRp616
(dp617
g62
(dp618
sg71
g67
sg64
(lp619
g57
(g78
g59
NtRp620
(dp621
g62
(dp622
g82
g83
ssg71
g616
sg64
(lp623
S'env'
p624
asbag57
(g78
g59
NtRp625
(dp626
g62
(dp627
g89
g90
ssg71
g616
sg64
(lp628
S':'
asbag57
(g78
g59
NtRp629
(dp630
g62
(dp631
sg71
g616
sg64
(lp632
g57
(g58
g59
NtRp633
(dp634
g62
(dp635
g70
I5
ssg71
g629
sg64
(lp636
g57
(g66
g59
NtRp637
(dp638
g62
(dp639
g70
I4
ssg71
Nsg64
(lp640
g57
(g73
g59
NtRp641
(dp642
g62
(dp643
sg71
g637
sg64
(lp644
g57
(g78
g59
NtRp645
(dp646
g62
(dp647
g82
g83
ssg71
g641
sg64
(lp648
S'app_folders'
p649
asbag57
(g78
g59
NtRp650
(dp651
g62
(dp652
g89
g90
ssg71
g641
sg64
(lp653
S':'
asbag57
(g78
g59
NtRp654
(dp655
g62
(dp656
sg71
g641
sg64
(lp657
g57
(g58
g59
NtRp658
(dp659
g62
(dp660
g70
I4
ssg71
g654
sg64
(lp661
S"set(['P:\\\\School\\\\DePaul\\\\Projects\\\\CSC_438\\\\web2py\\\\applications\\\\init\\\\', 'P:\\\\School\\\\DePaul\\\\Projects\\\\CSC_438\\\\web2py\\\\applications\\\\admin\\\\'])"
p662
asbasbasbag57
(g73
g59
NtRp663
(dp664
g62
(dp665
sg71
g637
sg64
(lp666
g57
(g78
g59
NtRp667
(dp668
g62
(dp669
g82
g83
ssg71
g663
sg64
(lp670
S'applications_parent'
p671
asbag57
(g78
g59
NtRp672
(dp673
g62
(dp674
g89
g90
ssg71
g663
sg64
(lp675
S':'
asbag57
(g78
g59
NtRp676
(dp677
g62
(dp678
sg71
g663
sg64
(lp679
g57
(g58
g59
NtRp680
(dp681
g62
(dp682
g70
I4
ssg71
g676
sg64
(lp683
S'P:\\School\\DePaul\\Projects\\CSC_438\\web2py'
p684
asbasbasbag57
(g73
g59
NtRp685
(dp686
g62
(dp687
sg71
g637
sg64
(lp688
g57
(g78
g59
NtRp689
(dp690
g62
(dp691
g82
g83
ssg71
g685
sg64
(lp692
S'cmd_args'
p693
asbag57
(g78
g59
NtRp694
(dp695
g62
(dp696
g89
g90
ssg71
g685
sg64
(lp697
S':'
asbag57
(g78
g59
NtRp698
(dp699
g62
(dp700
sg71
g685
sg64
(lp701
g57
(g58
g59
NtRp702
(dp703
g62
(dp704
g70
I4
ssg71
g698
sg64
(lp705
g57
(g66
g59
NtRp706
(dp707
g62
(dp708
g70
I3
ssg71
Nsg64
(lp709
sbasbasbasbag57
(g73
g59
NtRp710
(dp711
g62
(dp712
sg71
g637
sg64
(lp713
g57
(g78
g59
NtRp714
(dp715
g62
(dp716
g82
g83
ssg71
g710
sg64
(lp717
S'cmd_options'
p718
asbag57
(g78
g59
NtRp719
(dp720
g62
(dp721
g89
g90
ssg71
g710
sg64
(lp722
S':'
asbag57
(g78
g59
NtRp723
(dp724
g62
(dp725
sg71
g710
sg64
(lp726
g57
(g58
g59
NtRp727
(dp728
g62
(dp729
g70
I4
ssg71
g723
sg64
(lp730
S"<Values at 0x38dbee0: {'verbose': False, 'ip': '127.0.0.1', 'shutdown_timeout': 5, 'taskbar': False, 'nocron': False, 'pid_filename': 'httpserver.pid', 'maxthreads': None, 'softcron': False, 'server_name': 'Bishop-PC', 'bpython': False, 'nogui': False, 'port': 8000, 'extcron': False, 'debuglevel': 30, 'test': None, 'folder': 'P:\\\\School\\\\DePaul\\\\Projects\\\\CSC_438\\\\web2py', 'config': '', 'import_models': False, 'winservice': '', 'shell': None, 'run': '', 'log_filename': 'httpserver.log', 'args': [''], 'ssl_ca_certificate': None, 'scheduler': None, 'profiler_filename': None, 'ssl_private_key': '', 'password': '<ask>', 'request_queue_size': 5, 'ssl_certificate': '', 'cronjob': False, 'plain': False, 'quiet': False, 'interfaces': None, 'minthreads': None, 'timeout': 10, 'numthreads': None, 'nobanner': False}>"
p731
asbasbasbag57
(g73
g59
NtRp732
(dp733
g62
(dp734
sg71
g637
sg64
(lp735
g57
(g78
g59
NtRp736
(dp737
g62
(dp738
g82
g83
ssg71
g732
sg64
(lp739
S'db_sessions'
p740
asbag57
(g78
g59
NtRp741
(dp742
g62
(dp743
g89
g90
ssg71
g732
sg64
(lp744
S':'
asbag57
(g78
g59
NtRp745
(dp746
g62
(dp747
sg71
g732
sg64
(lp748
g57
(g58
g59
NtRp749
(dp750
g62
(dp751
g70
I4
ssg71
g745
sg64
(lp752
S'set([])'
p753
asbasbasbag57
(g73
g59
NtRp754
(dp755
g62
(dp756
sg71
g637
sg64
(lp757
g57
(g78
g59
NtRp758
(dp759
g62
(dp760
g82
g83
ssg71
g754
sg64
(lp761
S'debugging'
p762
asbag57
(g78
g59
NtRp763
(dp764
g62
(dp765
g89
g90
ssg71
g754
sg64
(lp766
S':'
asbag57
(g78
g59
NtRp767
(dp768
g62
(dp769
sg71
g754
sg64
(lp770
g57
(g58
g59
NtRp771
(dp772
g62
(dp773
g70
I4
ssg71
g767
sg64
(lp774
g100
asbasbasbag57
(g73
g59
NtRp775
(dp776
g62
(dp777
sg71
g637
sg64
(lp778
g57
(g78
g59
NtRp779
(dp780
g62
(dp781
g82
g83
ssg71
g775
sg64
(lp782
S'gluon_parent'
p783
asbag57
(g78
g59
NtRp784
(dp785
g62
(dp786
g89
g90
ssg71
g775
sg64
(lp787
S':'
asbag57
(g78
g59
NtRp788
(dp789
g62
(dp790
sg71
g775
sg64
(lp791
g57
(g58
g59
NtRp792
(dp793
g62
(dp794
g70
I4
ssg71
g788
sg64
(lp795
S'P:\\School\\DePaul\\Projects\\CSC_438\\web2py'
p796
asbasbasbag57
(g73
g59
NtRp797
(dp798
g62
(dp799
sg71
g637
sg64
(lp800
g57
(g78
g59
NtRp801
(dp802
g62
(dp803
g82
g83
ssg71
g797
sg64
(lp804
S'http_accept'
p805
asbag57
(g78
g59
NtRp806
(dp807
g62
(dp808
g89
g90
ssg71
g797
sg64
(lp809
S':'
asbag57
(g78
g59
NtRp810
(dp811
g62
(dp812
sg71
g797
sg64
(lp813
g57
(g58
g59
NtRp814
(dp815
g62
(dp816
g70
I4
ssg71
g810
sg64
(lp817
S'text/html,application/xhtml+xml,application/xml;q=0.9,*/*;q=0.8'
p818
asbasbasbag57
(g73
g59
NtRp819
(dp820
g62
(dp821
sg71
g637
sg64
(lp822
g57
(g78
g59
NtRp823
(dp824
g62
(dp825
g82
g83
ssg71
g819
sg64
(lp826
S'http_accept_charset'
p827
asbag57
(g78
g59
NtRp828
(dp829
g62
(dp830
g89
g90
ssg71
g819
sg64
(lp831
S':'
asbag57
(g78
g59
NtRp832
(dp833
g62
(dp834
sg71
g819
sg64
(lp835
g57
(g58
g59
NtRp836
(dp837
g62
(dp838
g70
I4
ssg71
g832
sg64
(lp839
S'ISO-8859-1,utf-8;q=0.7,*;q=0.7'
p840
asbasbasbag57
(g73
g59
NtRp841
(dp842
g62
(dp843
sg71
g637
sg64
(lp844
g57
(g78
g59
NtRp845
(dp846
g62
(dp847
g82
g83
ssg71
g841
sg64
(lp848
S'http_accept_encoding'
p849
asbag57
(g78
g59
NtRp850
(dp851
g62
(dp852
g89
g90
ssg71
g841
sg64
(lp853
S':'
asbag57
(g78
g59
NtRp854
(dp855
g62
(dp856
sg71
g841
sg64
(lp857
g57
(g58
g59
NtRp858
(dp859
g62
(dp860
g70
I4
ssg71
g854
sg64
(lp861
S'gzip,deflate'
p862
asbasbasbag57
(g73
g59
NtRp863
(dp864
g62
(dp865
sg71
g637
sg64
(lp866
g57
(g78
g59
NtRp867
(dp868
g62
(dp869
g82
g83
ssg71
g863
sg64
(lp870
S'http_accept_language'
p871
asbag57
(g78
g59
NtRp872
(dp873
g62
(dp874
g89
g90
ssg71
g863
sg64
(lp875
S':'
asbag57
(g78
g59
NtRp876
(dp877
g62
(dp878
sg71
g863
sg64
(lp879
g57
(g58
g59
NtRp880
(dp881
g62
(dp882
g70
I4
ssg71
g876
sg64
(lp883
S'en-us,en;q=0.5'
p884
asbasbasbag57
(g73
g59
NtRp885
(dp886
g62
(dp887
sg71
g637
sg64
(lp888
g57
(g78
g59
NtRp889
(dp890
g62
(dp891
g82
g83
ssg71
g885
sg64
(lp892
S'http_connection'
p893
asbag57
(g78
g59
NtRp894
(dp895
g62
(dp896
g89
g90
ssg71
g885
sg64
(lp897
S':'
asbag57
(g78
g59
NtRp898
(dp899
g62
(dp900
sg71
g885
sg64
(lp901
g57
(g58
g59
NtRp902
(dp903
g62
(dp904
g70
I4
ssg71
g898
sg64
(lp905
S'keep-alive'
p906
asbasbasbag57
(g73
g59
NtRp907
(dp908
g62
(dp909
sg71
g637
sg64
(lp910
g57
(g78
g59
NtRp911
(dp912
g62
(dp913
g82
g83
ssg71
g907
sg64
(lp914
S'http_cookie'
p915
asbag57
(g78
g59
NtRp916
(dp917
g62
(dp918
g89
g90
ssg71
g907
sg64
(lp919
S':'
asbag57
(g78
g59
NtRp920
(dp921
g62
(dp922
sg71
g907
sg64
(lp923
g57
(g58
g59
NtRp924
(dp925
g62
(dp926
g70
I4
ssg71
g920
sg64
(lp927
S'__utma_a2a=4518867300.1350888199.1319331273.1319375111.1319375111.5; session_id_init=127.0.0.1-9ead22f2-1805-4695-8fc2-fa60ce6a0930; session_id_admin=127.0.0.1-d2dc4b05-0df7-4bd0-9633-735e092c71bc'
p928
asbasbasbag57
(g73
g59
NtRp929
(dp930
g62
(dp931
sg71
g637
sg64
(lp932
g57
(g78
g59
NtRp933
(dp934
g62
(dp935
g82
g83
ssg71
g929
sg64
(lp936
S'http_host'
p937
asbag57
(g78
g59
NtRp938
(dp939
g62
(dp940
g89
g90
ssg71
g929
sg64
(lp941
S':'
asbag57
(g78
g59
NtRp942
(dp943
g62
(dp944
sg71
g929
sg64
(lp945
g57
(g58
g59
NtRp946
(dp947
g62
(dp948
g70
I4
ssg71
g942
sg64
(lp949
S'127.0.0.1:8000'
p950
asbasbasbag57
(g73
g59
NtRp951
(dp952
g62
(dp953
sg71
g637
sg64
(lp954
g57
(g78
g59
NtRp955
(dp956
g62
(dp957
g82
g83
ssg71
g951
sg64
(lp958
S'http_keep_alive'
p959
asbag57
(g78
g59
NtRp960
(dp961
g62
(dp962
g89
g90
ssg71
g951
sg64
(lp963
S':'
asbag57
(g78
g59
NtRp964
(dp965
g62
(dp966
sg71
g951
sg64
(lp967
g57
(g58
g59
NtRp968
(dp969
g62
(dp970
g70
I4
ssg71
g964
sg64
(lp971
S'115'
p972
asbasbasbag57
(g73
g59
NtRp973
(dp974
g62
(dp975
sg71
g637
sg64
(lp976
g57
(g78
g59
NtRp977
(dp978
g62
(dp979
g82
g83
ssg71
g973
sg64
(lp980
S'http_user_agent'
p981
asbag57
(g78
g59
NtRp982
(dp983
g62
(dp984
g89
g90
ssg71
g973
sg64
(lp985
S':'
asbag57
(g78
g59
NtRp986
(dp987
g62
(dp988
sg71
g973
sg64
(lp989
g57
(g58
g59
NtRp990
(dp991
g62
(dp992
g70
I4
ssg71
g986
sg64
(lp993
S'Mozilla/5.0 (Windows; U; Windows NT 6.1; en-US; rv:1.9.2.24) Gecko/20111103 Firefox/3.6.24'
p994
asbasbasbag57
(g73
g59
NtRp995
(dp996
g62
(dp997
sg71
g637
sg64
(lp998
g57
(g78
g59
NtRp999
(dp1000
g62
(dp1001
g82
g83
ssg71
g995
sg64
(lp1002
S'is_jython'
p1003
asbag57
(g78
g59
NtRp1004
(dp1005
g62
(dp1006
g89
g90
ssg71
g995
sg64
(lp1007
S':'
asbag57
(g78
g59
NtRp1008
(dp1009
g62
(dp1010
sg71
g995
sg64
(lp1011
g57
(g58
g59
NtRp1012
(dp1013
g62
(dp1014
g70
I4
ssg71
g1008
sg64
(lp1015
g100
asbasbasbag57
(g73
g59
NtRp1016
(dp1017
g62
(dp1018
sg71
g637
sg64
(lp1019
g57
(g78
g59
NtRp1020
(dp1021
g62
(dp1022
g82
g83
ssg71
g1016
sg64
(lp1023
S'path_info'
p1024
asbag57
(g78
g59
NtRp1025
(dp1026
g62
(dp1027
g89
g90
ssg71
g1016
sg64
(lp1028
S':'
asbag57
(g78
g59
NtRp1029
(dp1030
g62
(dp1031
sg71
g1016
sg64
(lp1032
g57
(g58
g59
NtRp1033
(dp1034
g62
(dp1035
g70
I4
ssg71
g1029
sg64
(lp1036
S'/init/default/edit'
p1037
asbasbasbag57
(g73
g59
NtRp1038
(dp1039
g62
(dp1040
sg71
g637
sg64
(lp1041
g57
(g78
g59
NtRp1042
(dp1043
g62
(dp1044
g82
g83
ssg71
g1038
sg64
(lp1045
S'query_string'
p1046
asbag57
(g78
g59
NtRp1047
(dp1048
g62
(dp1049
g89
g90
ssg71
g1038
sg64
(lp1050
S':'
asbag57
(g78
g59
NtRp1051
(dp1052
g62
(dp1053
sg71
g1038
sg64
(lp1054
g57
(g58
g59
NtRp1055
(dp1056
g62
(dp1057
g70
I4
ssg71
g1051
sg64
(lp1058
S'event=19'
p1059
asbasbasbag57
(g73
g59
NtRp1060
(dp1061
g62
(dp1062
sg71
g637
sg64
(lp1063
g57
(g78
g59
NtRp1064
(dp1065
g62
(dp1066
g82
g83
ssg71
g1060
sg64
(lp1067
S'remote_addr'
p1068
asbag57
(g78
g59
NtRp1069
(dp1070
g62
(dp1071
g89
g90
ssg71
g1060
sg64
(lp1072
S':'
asbag57
(g78
g59
NtRp1073
(dp1074
g62
(dp1075
sg71
g1060
sg64
(lp1076
g57
(g58
g59
NtRp1077
(dp1078
g62
(dp1079
g70
I4
ssg71
g1073
sg64
(lp1080
g190
asbasbasbag57
(g73
g59
NtRp1081
(dp1082
g62
(dp1083
sg71
g637
sg64
(lp1084
g57
(g78
g59
NtRp1085
(dp1086
g62
(dp1087
g82
g83
ssg71
g1081
sg64
(lp1088
S'remote_port'
p1089
asbag57
(g78
g59
NtRp1090
(dp1091
g62
(dp1092
g89
g90
ssg71
g1081
sg64
(lp1093
S':'
asbag57
(g78
g59
NtRp1094
(dp1095
g62
(dp1096
sg71
g1081
sg64
(lp1097
g57
(g58
g59
NtRp1098
(dp1099
g62
(dp1100
g70
I4
ssg71
g1094
sg64
(lp1101
S'61569'
p1102
asbasbasbag57
(g73
g59
NtRp1103
(dp1104
g62
(dp1105
sg71
g637
sg64
(lp1106
g57
(g78
g59
NtRp1107
(dp1108
g62
(dp1109
g82
g83
ssg71
g1103
sg64
(lp1110
S'request_method'
p1111
asbag57
(g78
g59
NtRp1112
(dp1113
g62
(dp1114
g89
g90
ssg71
g1103
sg64
(lp1115
S':'
asbag57
(g78
g59
NtRp1116
(dp1117
g62
(dp1118
sg71
g1103
sg64
(lp1119
g57
(g58
g59
NtRp1120
(dp1121
g62
(dp1122
g70
I4
ssg71
g1116
sg64
(lp1123
S'GET'
p1124
asbasbasbag57
(g73
g59
NtRp1125
(dp1126
g62
(dp1127
sg71
g637
sg64
(lp1128
g57
(g78
g59
NtRp1129
(dp1130
g62
(dp1131
g82
g83
ssg71
g1125
sg64
(lp1132
S'script_name'
p1133
asbag57
(g78
g59
NtRp1134
(dp1135
g62
(dp1136
g89
g90
ssg71
g1125
sg64
(lp1137
S':'
asbag57
(g78
g59
NtRp1138
(dp1139
g62
(dp1140
sg71
g1125
sg64
(lp1141
g57
(g58
g59
NtRp1142
(dp1143
g62
(dp1144
g70
I4
ssg71
g1138
sg64
(lp1145
S''
asbasbasbag57
(g73
g59
NtRp1146
(dp1147
g62
(dp1148
sg71
g637
sg64
(lp1149
g57
(g78
g59
NtRp1150
(dp1151
g62
(dp1152
g82
g83
ssg71
g1146
sg64
(lp1153
S'server_name'
p1154
asbag57
(g78
g59
NtRp1155
(dp1156
g62
(dp1157
g89
g90
ssg71
g1146
sg64
(lp1158
S':'
asbag57
(g78
g59
NtRp1159
(dp1160
g62
(dp1161
sg71
g1146
sg64
(lp1162
g57
(g58
g59
NtRp1163
(dp1164
g62
(dp1165
g70
I4
ssg71
g1159
sg64
(lp1166
S'Bishop-PC'
p1167
asbasbasbag57
(g73
g59
NtRp1168
(dp1169
g62
(dp1170
sg71
g637
sg64
(lp1171
g57
(g78
g59
NtRp1172
(dp1173
g62
(dp1174
g82
g83
ssg71
g1168
sg64
(lp1175
S'server_port'
p1176
asbag57
(g78
g59
NtRp1177
(dp1178
g62
(dp1179
g89
g90
ssg71
g1168
sg64
(lp1180
S':'
asbag57
(g78
g59
NtRp1181
(dp1182
g62
(dp1183
sg71
g1168
sg64
(lp1184
g57
(g58
g59
NtRp1185
(dp1186
g62
(dp1187
g70
I4
ssg71
g1181
sg64
(lp1188
S'8000'
p1189
asbasbasbag57
(g73
g59
NtRp1190
(dp1191
g62
(dp1192
sg71
g637
sg64
(lp1193
g57
(g78
g59
NtRp1194
(dp1195
g62
(dp1196
g82
g83
ssg71
g1190
sg64
(lp1197
S'server_protocol'
p1198
asbag57
(g78
g59
NtRp1199
(dp1200
g62
(dp1201
g89
g90
ssg71
g1190
sg64
(lp1202
S':'
asbag57
(g78
g59
NtRp1203
(dp1204
g62
(dp1205
sg71
g1190
sg64
(lp1206
g57
(g58
g59
NtRp1207
(dp1208
g62
(dp1209
g70
I4
ssg71
g1203
sg64
(lp1210
S'HTTP/1.1'
p1211
asbasbasbag57
(g73
g59
NtRp1212
(dp1213
g62
(dp1214
sg71
g637
sg64
(lp1215
g57
(g78
g59
NtRp1216
(dp1217
g62
(dp1218
g82
g83
ssg71
g1212
sg64
(lp1219
S'server_software'
p1220
asbag57
(g78
g59
NtRp1221
(dp1222
g62
(dp1223
g89
g90
ssg71
g1212
sg64
(lp1224
S':'
asbag57
(g78
g59
NtRp1225
(dp1226
g62
(dp1227
sg71
g1212
sg64
(lp1228
g57
(g58
g59
NtRp1229
(dp1230
g62
(dp1231
g70
I4
ssg71
g1225
sg64
(lp1232
S'Rocket 1.2.4'
p1233
asbasbasbag57
(g73
g59
NtRp1234
(dp1235
g62
(dp1236
sg71
g637
sg64
(lp1237
g57
(g78
g59
NtRp1238
(dp1239
g62
(dp1240
g82
g83
ssg71
g1234
sg64
(lp1241
S'web2py_crontype'
p1242
asbag57
(g78
g59
NtRp1243
(dp1244
g62
(dp1245
g89
g90
ssg71
g1234
sg64
(lp1246
S':'
asbag57
(g78
g59
NtRp1247
(dp1248
g62
(dp1249
sg71
g1234
sg64
(lp1250
g57
(g58
g59
NtRp1251
(dp1252
g62
(dp1253
g70
I4
ssg71
g1247
sg64
(lp1254
S'hard'
p1255
asbasbasbag57
(g73
g59
NtRp1256
(dp1257
g62
(dp1258
sg71
g637
sg64
(lp1259
g57
(g78
g59
NtRp1260
(dp1261
g62
(dp1262
g82
g83
ssg71
g1256
sg64
(lp1263
S'web2py_path'
p1264
asbag57
(g78
g59
NtRp1265
(dp1266
g62
(dp1267
g89
g90
ssg71
g1256
sg64
(lp1268
S':'
asbag57
(g78
g59
NtRp1269
(dp1270
g62
(dp1271
sg71
g1256
sg64
(lp1272
g57
(g58
g59
NtRp1273
(dp1274
g62
(dp1275
g70
I4
ssg71
g1269
sg64
(lp1276
g684
asbasbasbag57
(g73
g59
NtRp1277
(dp1278
g62
(dp1279
sg71
g637
sg64
(lp1280
g57
(g78
g59
NtRp1281
(dp1282
g62
(dp1283
g82
g83
ssg71
g1277
sg64
(lp1284
S'web2py_version'
p1285
asbag57
(g78
g59
NtRp1286
(dp1287
g62
(dp1288
g89
g90
ssg71
g1277
sg64
(lp1289
S':'
asbag57
(g78
g59
NtRp1290
(dp1291
g62
(dp1292
sg71
g1277
sg64
(lp1293
g57
(g58
g59
NtRp1294
(dp1295
g62
(dp1296
g70
I4
ssg71
g1290
sg64
(lp1297
g57
(g66
g59
NtRp1298
(dp1299
g62
(dp1300
g70
I3
ssg71
Nsg64
(lp1301
g57
(g73
g59
NtRp1302
(dp1303
g62
(dp1304
sg71
g1298
sg64
(lp1305
g57
(g78
g59
NtRp1306
(dp1307
g62
(dp1308
sg71
g1302
sg64
(lp1309
g57
(g58
g59
NtRp1310
(dp1311
g62
(dp1312
g70
I3
ssg71
g1306
sg64
(lp1313
S'1'
asbasbasbag57
(g73
g59
NtRp1314
(dp1315
g62
(dp1316
sg71
g1298
sg64
(lp1317
g57
(g78
g59
NtRp1318
(dp1319
g62
(dp1320
sg71
g1314
sg64
(lp1321
g57
(g58
g59
NtRp1322
(dp1323
g62
(dp1324
g70
I3
ssg71
g1318
sg64
(lp1325
S'99'
p1326
asbasbasbag57
(g73
g59
NtRp1327
(dp1328
g62
(dp1329
sg71
g1298
sg64
(lp1330
g57
(g78
g59
NtRp1331
(dp1332
g62
(dp1333
sg71
g1327
sg64
(lp1334
g57
(g58
g59
NtRp1335
(dp1336
g62
(dp1337
g70
I3
ssg71
g1331
sg64
(lp1338
S'3'
asbasbasbag57
(g73
g59
NtRp1339
(dp1340
g62
(dp1341
sg71
g1298
sg64
(lp1342
g57
(g78
g59
NtRp1343
(dp1344
g62
(dp1345
sg71
g1339
sg64
(lp1346
g57
(g58
g59
NtRp1347
(dp1348
g62
(dp1349
g70
I3
ssg71
g1343
sg64
(lp1350
S'datetime.datetime(2011, 11, 1, 8, 28, 28)'
p1351
asbasbasbag57
(g73
g59
NtRp1352
(dp1353
g62
(dp1354
sg71
g1298
sg64
(lp1355
g57
(g78
g59
NtRp1356
(dp1357
g62
(dp1358
sg71
g1352
sg64
(lp1359
g57
(g58
g59
NtRp1360
(dp1361
g62
(dp1362
g70
I3
ssg71
g1356
sg64
(lp1363
S'dev'
p1364
asbasbasbasbasbasbasbag57
(g73
g59
NtRp1365
(dp1366
g62
(dp1367
sg71
g637
sg64
(lp1368
g57
(g78
g59
NtRp1369
(dp1370
g62
(dp1371
g82
g83
ssg71
g1365
sg64
(lp1372
S'wsgi_errors'
p1373
asbag57
(g78
g59
NtRp1374
(dp1375
g62
(dp1376
g89
g90
ssg71
g1365
sg64
(lp1377
S':'
asbag57
(g78
g59
NtRp1378
(dp1379
g62
(dp1380
sg71
g1365
sg64
(lp1381
g57
(g58
g59
NtRp1382
(dp1383
g62
(dp1384
g70
I4
ssg71
g1378
sg64
(lp1385
S"<open file '<stderr>', mode 'w' at 0x005050D0>"
p1386
asbasbasbag57
(g73
g59
NtRp1387
(dp1388
g62
(dp1389
sg71
g637
sg64
(lp1390
g57
(g78
g59
NtRp1391
(dp1392
g62
(dp1393
g82
g83
ssg71
g1387
sg64
(lp1394
S'wsgi_file_wrapper'
p1395
asbag57
(g78
g59
NtRp1396
(dp1397
g62
(dp1398
g89
g90
ssg71
g1387
sg64
(lp1399
S':'
asbag57
(g78
g59
NtRp1400
(dp1401
g62
(dp1402
sg71
g1387
sg64
(lp1403
g57
(g58
g59
NtRp1404
(dp1405
g62
(dp1406
g70
I4
ssg71
g1400
sg64
(lp1407
S'<class wsgiref.util.FileWrapper at 0x037E1B20>'
p1408
asbasbasbag57
(g73
g59
NtRp1409
(dp1410
g62
(dp1411
sg71
g637
sg64
(lp1412
g57
(g78
g59
NtRp1413
(dp1414
g62
(dp1415
g82
g83
ssg71
g1409
sg64
(lp1416
S'wsgi_input'
p1417
asbag57
(g78
g59
NtRp1418
(dp1419
g62
(dp1420
g89
g90
ssg71
g1409
sg64
(lp1421
S':'
asbag57
(g78
g59
NtRp1422
(dp1423
g62
(dp1424
sg71
g1409
sg64
(lp1425
g57
(g58
g59
NtRp1426
(dp1427
g62
(dp1428
g70
I4
ssg71
g1422
sg64
(lp1429
S'<socket._fileobject object at 0x03E10CF0>'
p1430
asbasbasbag57
(g73
g59
NtRp1431
(dp1432
g62
(dp1433
sg71
g637
sg64
(lp1434
g57
(g78
g59
NtRp1435
(dp1436
g62
(dp1437
g82
g83
ssg71
g1431
sg64
(lp1438
S'wsgi_multiprocess'
p1439
asbag57
(g78
g59
NtRp1440
(dp1441
g62
(dp1442
g89
g90
ssg71
g1431
sg64
(lp1443
S':'
asbag57
(g78
g59
NtRp1444
(dp1445
g62
(dp1446
sg71
g1431
sg64
(lp1447
g57
(g58
g59
NtRp1448
(dp1449
g62
(dp1450
g70
I4
ssg71
g1444
sg64
(lp1451
g100
asbasbasbag57
(g73
g59
NtRp1452
(dp1453
g62
(dp1454
sg71
g637
sg64
(lp1455
g57
(g78
g59
NtRp1456
(dp1457
g62
(dp1458
g82
g83
ssg71
g1452
sg64
(lp1459
S'wsgi_multithread'
p1460
asbag57
(g78
g59
NtRp1461
(dp1462
g62
(dp1463
g89
g90
ssg71
g1452
sg64
(lp1464
S':'
asbag57
(g78
g59
NtRp1465
(dp1466
g62
(dp1467
sg71
g1452
sg64
(lp1468
g57
(g58
g59
NtRp1469
(dp1470
g62
(dp1471
g70
I4
ssg71
g1465
sg64
(lp1472
S'True'
p1473
asbasbasbag57
(g73
g59
NtRp1474
(dp1475
g62
(dp1476
sg71
g637
sg64
(lp1477
g57
(g78
g59
NtRp1478
(dp1479
g62
(dp1480
g82
g83
ssg71
g1474
sg64
(lp1481
S'wsgi_run_once'
p1482
asbag57
(g78
g59
NtRp1483
(dp1484
g62
(dp1485
g89
g90
ssg71
g1474
sg64
(lp1486
S':'
asbag57
(g78
g59
NtRp1487
(dp1488
g62
(dp1489
sg71
g1474
sg64
(lp1490
g57
(g58
g59
NtRp1491
(dp1492
g62
(dp1493
g70
I4
ssg71
g1487
sg64
(lp1494
g100
asbasbasbag57
(g73
g59
NtRp1495
(dp1496
g62
(dp1497
sg71
g637
sg64
(lp1498
g57
(g78
g59
NtRp1499
(dp1500
g62
(dp1501
g82
g83
ssg71
g1495
sg64
(lp1502
S'wsgi_url_scheme'
p1503
asbag57
(g78
g59
NtRp1504
(dp1505
g62
(dp1506
g89
g90
ssg71
g1495
sg64
(lp1507
S':'
asbag57
(g78
g59
NtRp1508
(dp1509
g62
(dp1510
sg71
g1495
sg64
(lp1511
g57
(g58
g59
NtRp1512
(dp1513
g62
(dp1514
g70
I4
ssg71
g1508
sg64
(lp1515
S'http'
p1516
asbasbasbag57
(g73
g59
NtRp1517
(dp1518
g62
(dp1519
sg71
g637
sg64
(lp1520
g57
(g78
g59
NtRp1521
(dp1522
g62
(dp1523
g82
g83
ssg71
g1517
sg64
(lp1524
S'wsgi_version'
p1525
asbag57
(g78
g59
NtRp1526
(dp1527
g62
(dp1528
g89
g90
ssg71
g1517
sg64
(lp1529
S':'
asbag57
(g78
g59
NtRp1530
(dp1531
g62
(dp1532
sg71
g1517
sg64
(lp1533
g57
(g58
g59
NtRp1534
(dp1535
g62
(dp1536
g70
I4
ssg71
g1530
sg64
(lp1537
g57
(g66
g59
NtRp1538
(dp1539
g62
(dp1540
g70
I3
ssg71
Nsg64
(lp1541
g57
(g73
g59
NtRp1542
(dp1543
g62
(dp1544
sg71
g1538
sg64
(lp1545
g57
(g78
g59
NtRp1546
(dp1547
g62
(dp1548
sg71
g1542
sg64
(lp1549
g57
(g58
g59
NtRp1550
(dp1551
g62
(dp1552
g70
I3
ssg71
g1546
sg64
(lp1553
S'1'
asbasbasbag57
(g73
g59
NtRp1554
(dp1555
g62
(dp1556
sg71
g1538
sg64
(lp1557
g57
(g78
g59
NtRp1558
(dp1559
g62
(dp1560
sg71
g1554
sg64
(lp1561
g57
(g58
g59
NtRp1562
(dp1563
g62
(dp1564
g70
I3
ssg71
g1558
sg64
(lp1565
S'0'
asbasbasbasbasbasbasbasbasbasbasbag57
(g73
g59
NtRp1566
(dp1567
g62
(dp1568
sg71
g67
sg64
(lp1569
g57
(g78
g59
NtRp1570
(dp1571
g62
(dp1572
g82
g83
ssg71
g1566
sg64
(lp1573
S'extension'
p1574
asbag57
(g78
g59
NtRp1575
(dp1576
g62
(dp1577
g89
g90
ssg71
g1566
sg64
(lp1578
S':'
asbag57
(g78
g59
NtRp1579
(dp1580
g62
(dp1581
sg71
g1566
sg64
(lp1582
g57
(g58
g59
NtRp1583
(dp1584
g62
(dp1585
g70
I5
ssg71
g1579
sg64
(lp1586
S'html'
p1587
asbasbasbag57
(g73
g59
NtRp1588
(dp1589
g62
(dp1590
sg71
g67
sg64
(lp1591
g57
(g78
g59
NtRp1592
(dp1593
g62
(dp1594
g82
g83
ssg71
g1588
sg64
(lp1595
S'folder'
p1596
asbag57
(g78
g59
NtRp1597
(dp1598
g62
(dp1599
g89
g90
ssg71
g1588
sg64
(lp1600
S':'
asbag57
(g78
g59
NtRp1601
(dp1602
g62
(dp1603
sg71
g1588
sg64
(lp1604
g57
(g58
g59
NtRp1605
(dp1606
g62
(dp1607
g70
I5
ssg71
g1601
sg64
(lp1608
S'P:\\School\\DePaul\\Projects\\CSC_438\\web2py\\applications\\init\\'
p1609
asbasbasbag57
(g73
g59
NtRp1610
(dp1611
g62
(dp1612
sg71
g67
sg64
(lp1613
g57
(g78
g59
NtRp1614
(dp1615
g62
(dp1616
g82
g83
ssg71
g1610
sg64
(lp1617
S'function'
p1618
asbag57
(g78
g59
NtRp1619
(dp1620
g62
(dp1621
g89
g90
ssg71
g1610
sg64
(lp1622
S':'
asbag57
(g78
g59
NtRp1623
(dp1624
g62
(dp1625
sg71
g1610
sg64
(lp1626
g57
(g58
g59
NtRp1627
(dp1628
g62
(dp1629
g70
I5
ssg71
g1623
sg64
(lp1630
S'edit'
p1631
asbasbasbag57
(g73
g59
NtRp1632
(dp1633
g62
(dp1634
sg71
g67
sg64
(lp1635
g57
(g78
g59
NtRp1636
(dp1637
g62
(dp1638
g82
g83
ssg71
g1632
sg64
(lp1639
S'get_vars'
p1640
asbag57
(g78
g59
NtRp1641
(dp1642
g62
(dp1643
g89
g90
ssg71
g1632
sg64
(lp1644
S':'
asbag57
(g78
g59
NtRp1645
(dp1646
g62
(dp1647
sg71
g1632
sg64
(lp1648
g57
(g58
g59
NtRp1649
(dp1650
g62
(dp1651
g70
I5
ssg71
g1645
sg64
(lp1652
g57
(g66
g59
NtRp1653
(dp1654
g62
(dp1655
g70
I4
ssg71
Nsg64
(lp1656
g57
(g73
g59
NtRp1657
(dp1658
g62
(dp1659
sg71
g1653
sg64
(lp1660
g57
(g78
g59
NtRp1661
(dp1662
g62
(dp1663
g82
g83
ssg71
g1657
sg64
(lp1664
S'event'
p1665
asbag57
(g78
g59
NtRp1666
(dp1667
g62
(dp1668
g89
g90
ssg71
g1657
sg64
(lp1669
S':'
asbag57
(g78
g59
NtRp1670
(dp1671
g62
(dp1672
sg71
g1657
sg64
(lp1673
g57
(g58
g59
NtRp1674
(dp1675
g62
(dp1676
g70
I4
ssg71
g1670
sg64
(lp1677
S'19'
p1678
asbasbasbasbasbasbasbag57
(g73
g59
NtRp1679
(dp1680
g62
(dp1681
sg71
g67
sg64
(lp1682
g57
(g78
g59
NtRp1683
(dp1684
g62
(dp1685
g82
g83
ssg71
g1679
sg64
(lp1686
S'global_settings'
p1687
asbag57
(g78
g59
NtRp1688
(dp1689
g62
(dp1690
g89
g90
ssg71
g1679
sg64
(lp1691
S':'
asbag57
(g78
g59
NtRp1692
(dp1693
g62
(dp1694
sg71
g1679
sg64
(lp1695
g57
(g58
g59
NtRp1696
(dp1697
g62
(dp1698
g70
I5
ssg71
g1692
sg64
(lp1699
g57
(g66
g59
NtRp1700
(dp1701
g62
(dp1702
g70
I4
ssg71
Nsg64
(lp1703
g57
(g73
g59
NtRp1704
(dp1705
g62
(dp1706
sg71
g1700
sg64
(lp1707
g57
(g78
g59
NtRp1708
(dp1709
g62
(dp1710
g82
g83
ssg71
g1704
sg64
(lp1711
g649
asbag57
(g78
g59
NtRp1712
(dp1713
g62
(dp1714
g89
g90
ssg71
g1704
sg64
(lp1715
S':'
asbag57
(g78
g59
NtRp1716
(dp1717
g62
(dp1718
sg71
g1704
sg64
(lp1719
g57
(g58
g59
NtRp1720
(dp1721
g62
(dp1722
g70
I4
ssg71
g1716
sg64
(lp1723
S"set(['P:\\\\School\\\\DePaul\\\\Projects\\\\CSC_438\\\\web2py\\\\applications\\\\init\\\\', 'P:\\\\School\\\\DePaul\\\\Projects\\\\CSC_438\\\\web2py\\\\applications\\\\admin\\\\'])"
p1724
asbasbasbag57
(g73
g59
NtRp1725
(dp1726
g62
(dp1727
sg71
g1700
sg64
(lp1728
g57
(g78
g59
NtRp1729
(dp1730
g62
(dp1731
g82
g83
ssg71
g1725
sg64
(lp1732
g671
asbag57
(g78
g59
NtRp1733
(dp1734
g62
(dp1735
g89
g90
ssg71
g1725
sg64
(lp1736
S':'
asbag57
(g78
g59
NtRp1737
(dp1738
g62
(dp1739
sg71
g1725
sg64
(lp1740
g57
(g58
g59
NtRp1741
(dp1742
g62
(dp1743
g70
I4
ssg71
g1737
sg64
(lp1744
g684
asbasbasbag57
(g73
g59
NtRp1745
(dp1746
g62
(dp1747
sg71
g1700
sg64
(lp1748
g57
(g78
g59
NtRp1749
(dp1750
g62
(dp1751
g82
g83
ssg71
g1745
sg64
(lp1752
g693
asbag57
(g78
g59
NtRp1753
(dp1754
g62
(dp1755
g89
g90
ssg71
g1745
sg64
(lp1756
S':'
asbag57
(g78
g59
NtRp1757
(dp1758
g62
(dp1759
sg71
g1745
sg64
(lp1760
g57
(g58
g59
NtRp1761
(dp1762
g62
(dp1763
g70
I4
ssg71
g1757
sg64
(lp1764
g57
(g66
g59
NtRp1765
(dp1766
g62
(dp1767
g70
I3
ssg71
Nsg64
(lp1768
sbasbasbasbag57
(g73
g59
NtRp1769
(dp1770
g62
(dp1771
sg71
g1700
sg64
(lp1772
g57
(g78
g59
NtRp1773
(dp1774
g62
(dp1775
g82
g83
ssg71
g1769
sg64
(lp1776
g718
asbag57
(g78
g59
NtRp1777
(dp1778
g62
(dp1779
g89
g90
ssg71
g1769
sg64
(lp1780
S':'
asbag57
(g78
g59
NtRp1781
(dp1782
g62
(dp1783
sg71
g1769
sg64
(lp1784
g57
(g58
g59
NtRp1785
(dp1786
g62
(dp1787
g70
I4
ssg71
g1781
sg64
(lp1788
S"<Values at 0x38dbee0: {'verbose': False, 'ip': '127.0.0.1', 'shutdown_timeout': 5, 'taskbar': False, 'nocron': False, 'pid_filename': 'httpserver.pid', 'maxthreads': None, 'softcron': False, 'server_name': 'Bishop-PC', 'bpython': False, 'nogui': False, 'port': 8000, 'extcron': False, 'debuglevel': 30, 'test': None, 'folder': 'P:\\\\School\\\\DePaul\\\\Projects\\\\CSC_438\\\\web2py', 'config': '', 'import_models': False, 'winservice': '', 'shell': None, 'run': '', 'log_filename': 'httpserver.log', 'args': [''], 'ssl_ca_certificate': None, 'scheduler': None, 'profiler_filename': None, 'ssl_private_key': '', 'password': '<ask>', 'request_queue_size': 5, 'ssl_certificate': '', 'cronjob': False, 'plain': False, 'quiet': False, 'interfaces': None, 'minthreads': None, 'timeout': 10, 'numthreads': None, 'nobanner': False}>"
p1789
asbasbasbag57
(g73
g59
NtRp1790
(dp1791
g62
(dp1792
sg71
g1700
sg64
(lp1793
g57
(g78
g59
NtRp1794
(dp1795
g62
(dp1796
g82
g83
ssg71
g1790
sg64
(lp1797
g740
asbag57
(g78
g59
NtRp1798
(dp1799
g62
(dp1800
g89
g90
ssg71
g1790
sg64
(lp1801
S':'
asbag57
(g78
g59
NtRp1802
(dp1803
g62
(dp1804
sg71
g1790
sg64
(lp1805
g57
(g58
g59
NtRp1806
(dp1807
g62
(dp1808
g70
I4
ssg71
g1802
sg64
(lp1809
S'set([])'
p1810
asbasbasbag57
(g73
g59
NtRp1811
(dp1812
g62
(dp1813
sg71
g1700
sg64
(lp1814
g57
(g78
g59
NtRp1815
(dp1816
g62
(dp1817
g82
g83
ssg71
g1811
sg64
(lp1818
g762
asbag57
(g78
g59
NtRp1819
(dp1820
g62
(dp1821
g89
g90
ssg71
g1811
sg64
(lp1822
S':'
asbag57
(g78
g59
NtRp1823
(dp1824
g62
(dp1825
sg71
g1811
sg64
(lp1826
g57
(g58
g59
NtRp1827
(dp1828
g62
(dp1829
g70
I4
ssg71
g1823
sg64
(lp1830
g100
asbasbasbag57
(g73
g59
NtRp1831
(dp1832
g62
(dp1833
sg71
g1700
sg64
(lp1834
g57
(g78
g59
NtRp1835
(dp1836
g62
(dp1837
g82
g83
ssg71
g1831
sg64
(lp1838
g783
asbag57
(g78
g59
NtRp1839
(dp1840
g62
(dp1841
g89
g90
ssg71
g1831
sg64
(lp1842
S':'
asbag57
(g78
g59
NtRp1843
(dp1844
g62
(dp1845
sg71
g1831
sg64
(lp1846
g57
(g58
g59
NtRp1847
(dp1848
g62
(dp1849
g70
I4
ssg71
g1843
sg64
(lp1850
g796
asbasbasbag57
(g73
g59
NtRp1851
(dp1852
g62
(dp1853
sg71
g1700
sg64
(lp1854
g57
(g78
g59
NtRp1855
(dp1856
g62
(dp1857
g82
g83
ssg71
g1851
sg64
(lp1858
g1003
asbag57
(g78
g59
NtRp1859
(dp1860
g62
(dp1861
g89
g90
ssg71
g1851
sg64
(lp1862
S':'
asbag57
(g78
g59
NtRp1863
(dp1864
g62
(dp1865
sg71
g1851
sg64
(lp1866
g57
(g58
g59
NtRp1867
(dp1868
g62
(dp1869
g70
I4
ssg71
g1863
sg64
(lp1870
g100
asbasbasbag57
(g73
g59
NtRp1871
(dp1872
g62
(dp1873
sg71
g1700
sg64
(lp1874
g57
(g78
g59
NtRp1875
(dp1876
g62
(dp1877
g82
g83
ssg71
g1871
sg64
(lp1878
g1242
asbag57
(g78
g59
NtRp1879
(dp1880
g62
(dp1881
g89
g90
ssg71
g1871
sg64
(lp1882
S':'
asbag57
(g78
g59
NtRp1883
(dp1884
g62
(dp1885
sg71
g1871
sg64
(lp1886
g57
(g58
g59
NtRp1887
(dp1888
g62
(dp1889
g70
I4
ssg71
g1883
sg64
(lp1890
g1255
asbasbasbag57
(g73
g59
NtRp1891
(dp1892
g62
(dp1893
sg71
g1700
sg64
(lp1894
g57
(g78
g59
NtRp1895
(dp1896
g62
(dp1897
g82
g83
ssg71
g1891
sg64
(lp1898
g1285
asbag57
(g78
g59
NtRp1899
(dp1900
g62
(dp1901
g89
g90
ssg71
g1891
sg64
(lp1902
S':'
asbag57
(g78
g59
NtRp1903
(dp1904
g62
(dp1905
sg71
g1891
sg64
(lp1906
g57
(g58
g59
NtRp1907
(dp1908
g62
(dp1909
g70
I4
ssg71
g1903
sg64
(lp1910
g57
(g66
g59
NtRp1911
(dp1912
g62
(dp1913
g70
I3
ssg71
Nsg64
(lp1914
g57
(g73
g59
NtRp1915
(dp1916
g62
(dp1917
sg71
g1911
sg64
(lp1918
g57
(g78
g59
NtRp1919
(dp1920
g62
(dp1921
sg71
g1915
sg64
(lp1922
g57
(g58
g59
NtRp1923
(dp1924
g62
(dp1925
g70
I3
ssg71
g1919
sg64
(lp1926
S'1'
asbasbasbag57
(g73
g59
NtRp1927
(dp1928
g62
(dp1929
sg71
g1911
sg64
(lp1930
g57
(g78
g59
NtRp1931
(dp1932
g62
(dp1933
sg71
g1927
sg64
(lp1934
g57
(g58
g59
NtRp1935
(dp1936
g62
(dp1937
g70
I3
ssg71
g1931
sg64
(lp1938
S'99'
p1939
asbasbasbag57
(g73
g59
NtRp1940
(dp1941
g62
(dp1942
sg71
g1911
sg64
(lp1943
g57
(g78
g59
NtRp1944
(dp1945
g62
(dp1946
sg71
g1940
sg64
(lp1947
g57
(g58
g59
NtRp1948
(dp1949
g62
(dp1950
g70
I3
ssg71
g1944
sg64
(lp1951
S'3'
asbasbasbag57
(g73
g59
NtRp1952
(dp1953
g62
(dp1954
sg71
g1911
sg64
(lp1955
g57
(g78
g59
NtRp1956
(dp1957
g62
(dp1958
sg71
g1952
sg64
(lp1959
g57
(g58
g59
NtRp1960
(dp1961
g62
(dp1962
g70
I3
ssg71
g1956
sg64
(lp1963
S'datetime.datetime(2011, 11, 1, 8, 28, 28)'
p1964
asbasbasbag57
(g73
g59
NtRp1965
(dp1966
g62
(dp1967
sg71
g1911
sg64
(lp1968
g57
(g78
g59
NtRp1969
(dp1970
g62
(dp1971
sg71
g1965
sg64
(lp1972
g57
(g58
g59
NtRp1973
(dp1974
g62
(dp1975
g70
I3
ssg71
g1969
sg64
(lp1976
g1364
asbasbasbasbasbasbasbasbasbasbasbag57
(g73
g59
NtRp1977
(dp1978
g62
(dp1979
sg71
g67
sg64
(lp1980
g57
(g78
g59
NtRp1981
(dp1982
g62
(dp1983
g82
g83
ssg71
g1977
sg64
(lp1984
S'is_https'
p1985
asbag57
(g78
g59
NtRp1986
(dp1987
g62
(dp1988
g89
g90
ssg71
g1977
sg64
(lp1989
S':'
asbag57
(g78
g59
NtRp1990
(dp1991
g62
(dp1992
sg71
g1977
sg64
(lp1993
g57
(g58
g59
NtRp1994
(dp1995
g62
(dp1996
g70
I5
ssg71
g1990
sg64
(lp1997
g100
asbasbasbag57
(g73
g59
NtRp1998
(dp1999
g62
(dp2000
sg71
g67
sg64
(lp2001
g57
(g78
g59
NtRp2002
(dp2003
g62
(dp2004
g82
g83
ssg71
g1998
sg64
(lp2005
S'is_local'
p2006
asbag57
(g78
g59
NtRp2007
(dp2008
g62
(dp2009
g89
g90
ssg71
g1998
sg64
(lp2010
S':'
asbag57
(g78
g59
NtRp2011
(dp2012
g62
(dp2013
sg71
g1998
sg64
(lp2014
g57
(g58
g59
NtRp2015
(dp2016
g62
(dp2017
g70
I5
ssg71
g2011
sg64
(lp2018
g1473
asbasbasbag57
(g73
g59
NtRp2019
(dp2020
g62
(dp2021
sg71
g67
sg64
(lp2022
g57
(g78
g59
NtRp2023
(dp2024
g62
(dp2025
g82
g83
ssg71
g2019
sg64
(lp2026
S'is_restful'
p2027
asbag57
(g78
g59
NtRp2028
(dp2029
g62
(dp2030
g89
g90
ssg71
g2019
sg64
(lp2031
S':'
asbag57
(g78
g59
NtRp2032
(dp2033
g62
(dp2034
sg71
g2019
sg64
(lp2035
g57
(g58
g59
NtRp2036
(dp2037
g62
(dp2038
g70
I5
ssg71
g2032
sg64
(lp2039
g100
asbasbasbag57
(g73
g59
NtRp2040
(dp2041
g62
(dp2042
sg71
g67
sg64
(lp2043
g57
(g78
g59
NtRp2044
(dp2045
g62
(dp2046
g82
g83
ssg71
g2040
sg64
(lp2047
S'now'
p2048
asbag57
(g78
g59
NtRp2049
(dp2050
g62
(dp2051
g89
g90
ssg71
g2040
sg64
(lp2052
S':'
asbag57
(g78
g59
NtRp2053
(dp2054
g62
(dp2055
sg71
g2040
sg64
(lp2056
g57
(g58
g59
NtRp2057
(dp2058
g62
(dp2059
g70
I5
ssg71
g2053
sg64
(lp2060
S'datetime.datetime(2011, 11, 22, 19, 37, 22, 125000)'
p2061
asbasbasbag57
(g73
g59
NtRp2062
(dp2063
g62
(dp2064
sg71
g67
sg64
(lp2065
g57
(g78
g59
NtRp2066
(dp2067
g62
(dp2068
g82
g83
ssg71
g2062
sg64
(lp2069
S'post_vars'
p2070
asbag57
(g78
g59
NtRp2071
(dp2072
g62
(dp2073
g89
g90
ssg71
g2062
sg64
(lp2074
S':'
asbag57
(g78
g59
NtRp2075
(dp2076
g62
(dp2077
sg71
g2062
sg64
(lp2078
g57
(g58
g59
NtRp2079
(dp2080
g62
(dp2081
g70
I5
ssg71
g2075
sg64
(lp2082
g57
(g66
g59
NtRp2083
(dp2084
g62
(dp2085
g70
I4
ssg71
Nsg64
(lp2086
sbasbasbasbag57
(g73
g59
NtRp2087
(dp2088
g62
(dp2089
sg71
g67
sg64
(lp2090
g57
(g78
g59
NtRp2091
(dp2092
g62
(dp2093
g82
g83
ssg71
g2087
sg64
(lp2094
S'url'
p2095
asbag57
(g78
g59
NtRp2096
(dp2097
g62
(dp2098
g89
g90
ssg71
g2087
sg64
(lp2099
S':'
asbag57
(g78
g59
NtRp2100
(dp2101
g62
(dp2102
sg71
g2087
sg64
(lp2103
g57
(g58
g59
NtRp2104
(dp2105
g62
(dp2106
g70
I5
ssg71
g2100
sg64
(lp2107
S'/init/default/edit'
p2108
asbasbasbag57
(g73
g59
NtRp2109
(dp2110
g62
(dp2111
sg71
g67
sg64
(lp2112
g57
(g78
g59
NtRp2113
(dp2114
g62
(dp2115
g82
g83
ssg71
g2109
sg64
(lp2116
S'utcnow'
p2117
asbag57
(g78
g59
NtRp2118
(dp2119
g62
(dp2120
g89
g90
ssg71
g2109
sg64
(lp2121
S':'
asbag57
(g78
g59
NtRp2122
(dp2123
g62
(dp2124
sg71
g2109
sg64
(lp2125
g57
(g58
g59
NtRp2126
(dp2127
g62
(dp2128
g70
I5
ssg71
g2122
sg64
(lp2129
S'datetime.datetime(2011, 11, 23, 0, 37, 22, 125000)'
p2130
asbasbasbag57
(g73
g59
NtRp2131
(dp2132
g62
(dp2133
sg71
g67
sg64
(lp2134
g57
(g78
g59
NtRp2135
(dp2136
g62
(dp2137
g82
g83
ssg71
g2131
sg64
(lp2138
S'uuid'
p2139
asbag57
(g78
g59
NtRp2140
(dp2141
g62
(dp2142
g89
g90
ssg71
g2131
sg64
(lp2143
S':'
asbag57
(g78
g59
NtRp2144
(dp2145
g62
(dp2146
sg71
g2131
sg64
(lp2147
g57
(g58
g59
NtRp2148
(dp2149
g62
(dp2150
g70
I5
ssg71
g2144
sg64
(lp2151
S'init/127.0.0.1.2011-11-22.19-37-22.de518b39-28d2-4102-be70-6ad974f54234'
p2152
asbasbasbag57
(g73
g59
NtRp2153
(dp2154
g62
(dp2155
sg71
g67
sg64
(lp2156
g57
(g78
g59
NtRp2157
(dp2158
g62
(dp2159
g82
g83
ssg71
g2153
sg64
(lp2160
S'vars'
p2161
asbag57
(g78
g59
NtRp2162
(dp2163
g62
(dp2164
g89
g90
ssg71
g2153
sg64
(lp2165
S':'
asbag57
(g78
g59
NtRp2166
(dp2167
g62
(dp2168
sg71
g2153
sg64
(lp2169
g57
(g58
g59
NtRp2170
(dp2171
g62
(dp2172
g70
I5
ssg71
g2166
sg64
(lp2173
g57
(g66
g59
NtRp2174
(dp2175
g62
(dp2176
g70
I4
ssg71
Nsg64
(lp2177
g57
(g73
g59
NtRp2178
(dp2179
g62
(dp2180
sg71
g2174
sg64
(lp2181
g57
(g78
g59
NtRp2182
(dp2183
g62
(dp2184
g82
g83
ssg71
g2178
sg64
(lp2185
g1665
asbag57
(g78
g59
NtRp2186
(dp2187
g62
(dp2188
g89
g90
ssg71
g2178
sg64
(lp2189
S':'
asbag57
(g78
g59
NtRp2190
(dp2191
g62
(dp2192
sg71
g2178
sg64
(lp2193
g57
(g58
g59
NtRp2194
(dp2195
g62
(dp2196
g70
I4
ssg71
g2190
sg64
(lp2197
g1678
asbasbasbasbasbasbasbag57
(g73
g59
NtRp2198
(dp2199
g62
(dp2200
sg71
g67
sg64
(lp2201
g57
(g78
g59
NtRp2202
(dp2203
g62
(dp2204
g82
g83
ssg71
g2198
sg64
(lp2205
S'wsgi'
p2206
asbag57
(g78
g59
NtRp2207
(dp2208
g62
(dp2209
g89
g90
ssg71
g2198
sg64
(lp2210
S':'
asbag57
(g78
g59
NtRp2211
(dp2212
g62
(dp2213
sg71
g2198
sg64
(lp2214
g57
(g58
g59
NtRp2215
(dp2216
g62
(dp2217
g70
I5
ssg71
g2211
sg64
(lp2218
g57
(g66
g59
NtRp2219
(dp2220
g62
(dp2221
g70
I4
ssg71
Nsg64
(lp2222
g57
(g73
g59
NtRp2223
(dp2224
g62
(dp2225
sg71
g2219
sg64
(lp2226
g57
(g78
g59
NtRp2227
(dp2228
g62
(dp2229
g82
g83
ssg71
g2223
sg64
(lp2230
S'environ'
p2231
asbag57
(g78
g59
NtRp2232
(dp2233
g62
(dp2234
g89
g90
ssg71
g2223
sg64
(lp2235
S':'
asbag57
(g78
g59
NtRp2236
(dp2237
g62
(dp2238
sg71
g2223
sg64
(lp2239
g57
(g58
g59
NtRp2240
(dp2241
g62
(dp2242
g70
I4
ssg71
g2236
sg64
(lp2243
g57
(g66
g59
NtRp2244
(dp2245
g62
(dp2246
g70
I3
ssg71
Nsg64
(lp2247
g57
(g73
g59
NtRp2248
(dp2249
g62
(dp2250
sg71
g2244
sg64
(lp2251
g57
(g78
g59
NtRp2252
(dp2253
g62
(dp2254
g82
g83
ssg71
g2248
sg64
(lp2255
S'HTTP_ACCEPT'
p2256
asbag57
(g78
g59
NtRp2257
(dp2258
g62
(dp2259
g89
g90
ssg71
g2248
sg64
(lp2260
S':'
asbag57
(g78
g59
NtRp2261
(dp2262
g62
(dp2263
sg71
g2248
sg64
(lp2264
g57
(g58
g59
NtRp2265
(dp2266
g62
(dp2267
g70
I3
ssg71
g2261
sg64
(lp2268
g818
asbasbasbag57
(g73
g59
NtRp2269
(dp2270
g62
(dp2271
sg71
g2244
sg64
(lp2272
g57
(g78
g59
NtRp2273
(dp2274
g62
(dp2275
g82
g83
ssg71
g2269
sg64
(lp2276
S'HTTP_ACCEPT_CHARSET'
p2277
asbag57
(g78
g59
NtRp2278
(dp2279
g62
(dp2280
g89
g90
ssg71
g2269
sg64
(lp2281
S':'
asbag57
(g78
g59
NtRp2282
(dp2283
g62
(dp2284
sg71
g2269
sg64
(lp2285
g57
(g58
g59
NtRp2286
(dp2287
g62
(dp2288
g70
I3
ssg71
g2282
sg64
(lp2289
g840
asbasbasbag57
(g73
g59
NtRp2290
(dp2291
g62
(dp2292
sg71
g2244
sg64
(lp2293
g57
(g78
g59
NtRp2294
(dp2295
g62
(dp2296
g82
g83
ssg71
g2290
sg64
(lp2297
S'HTTP_ACCEPT_ENCODING'
p2298
asbag57
(g78
g59
NtRp2299
(dp2300
g62
(dp2301
g89
g90
ssg71
g2290
sg64
(lp2302
S':'
asbag57
(g78
g59
NtRp2303
(dp2304
g62
(dp2305
sg71
g2290
sg64
(lp2306
g57
(g58
g59
NtRp2307
(dp2308
g62
(dp2309
g70
I3
ssg71
g2303
sg64
(lp2310
g862
asbasbasbag57
(g73
g59
NtRp2311
(dp2312
g62
(dp2313
sg71
g2244
sg64
(lp2314
g57
(g78
g59
NtRp2315
(dp2316
g62
(dp2317
g82
g83
ssg71
g2311
sg64
(lp2318
S'HTTP_ACCEPT_LANGUAGE'
p2319
asbag57
(g78
g59
NtRp2320
(dp2321
g62
(dp2322
g89
g90
ssg71
g2311
sg64
(lp2323
S':'
asbag57
(g78
g59
NtRp2324
(dp2325
g62
(dp2326
sg71
g2311
sg64
(lp2327
g57
(g58
g59
NtRp2328
(dp2329
g62
(dp2330
g70
I3
ssg71
g2324
sg64
(lp2331
g884
asbasbasbag57
(g73
g59
NtRp2332
(dp2333
g62
(dp2334
sg71
g2244
sg64
(lp2335
g57
(g78
g59
NtRp2336
(dp2337
g62
(dp2338
g82
g83
ssg71
g2332
sg64
(lp2339
S'HTTP_CONNECTION'
p2340
asbag57
(g78
g59
NtRp2341
(dp2342
g62
(dp2343
g89
g90
ssg71
g2332
sg64
(lp2344
S':'
asbag57
(g78
g59
NtRp2345
(dp2346
g62
(dp2347
sg71
g2332
sg64
(lp2348
g57
(g58
g59
NtRp2349
(dp2350
g62
(dp2351
g70
I3
ssg71
g2345
sg64
(lp2352
g906
asbasbasbag57
(g73
g59
NtRp2353
(dp2354
g62
(dp2355
sg71
g2244
sg64
(lp2356
g57
(g78
g59
NtRp2357
(dp2358
g62
(dp2359
g82
g83
ssg71
g2353
sg64
(lp2360
S'HTTP_COOKIE'
p2361
asbag57
(g78
g59
NtRp2362
(dp2363
g62
(dp2364
g89
g90
ssg71
g2353
sg64
(lp2365
S':'
asbag57
(g78
g59
NtRp2366
(dp2367
g62
(dp2368
sg71
g2353
sg64
(lp2369
g57
(g58
g59
NtRp2370
(dp2371
g62
(dp2372
g70
I3
ssg71
g2366
sg64
(lp2373
g928
asbasbasbag57
(g73
g59
NtRp2374
(dp2375
g62
(dp2376
sg71
g2244
sg64
(lp2377
g57
(g78
g59
NtRp2378
(dp2379
g62
(dp2380
g82
g83
ssg71
g2374
sg64
(lp2381
S'HTTP_HOST'
p2382
asbag57
(g78
g59
NtRp2383
(dp2384
g62
(dp2385
g89
g90
ssg71
g2374
sg64
(lp2386
S':'
asbag57
(g78
g59
NtRp2387
(dp2388
g62
(dp2389
sg71
g2374
sg64
(lp2390
g57
(g58
g59
NtRp2391
(dp2392
g62
(dp2393
g70
I3
ssg71
g2387
sg64
(lp2394
g950
asbasbasbag57
(g73
g59
NtRp2395
(dp2396
g62
(dp2397
sg71
g2244
sg64
(lp2398
g57
(g78
g59
NtRp2399
(dp2400
g62
(dp2401
g82
g83
ssg71
g2395
sg64
(lp2402
S'HTTP_KEEP_ALIVE'
p2403
asbag57
(g78
g59
NtRp2404
(dp2405
g62
(dp2406
g89
g90
ssg71
g2395
sg64
(lp2407
S':'
asbag57
(g78
g59
NtRp2408
(dp2409
g62
(dp2410
sg71
g2395
sg64
(lp2411
g57
(g58
g59
NtRp2412
(dp2413
g62
(dp2414
g70
I3
ssg71
g2408
sg64
(lp2415
g972
asbasbasbag57
(g73
g59
NtRp2416
(dp2417
g62
(dp2418
sg71
g2244
sg64
(lp2419
g57
(g78
g59
NtRp2420
(dp2421
g62
(dp2422
g82
g83
ssg71
g2416
sg64
(lp2423
S'HTTP_USER_AGENT'
p2424
asbag57
(g78
g59
NtRp2425
(dp2426
g62
(dp2427
g89
g90
ssg71
g2416
sg64
(lp2428
S':'
asbag57
(g78
g59
NtRp2429
(dp2430
g62
(dp2431
sg71
g2416
sg64
(lp2432
g57
(g58
g59
NtRp2433
(dp2434
g62
(dp2435
g70
I3
ssg71
g2429
sg64
(lp2436
g994
asbasbasbag57
(g73
g59
NtRp2437
(dp2438
g62
(dp2439
sg71
g2244
sg64
(lp2440
g57
(g78
g59
NtRp2441
(dp2442
g62
(dp2443
g82
g83
ssg71
g2437
sg64
(lp2444
S'PATH_INFO'
p2445
asbag57
(g78
g59
NtRp2446
(dp2447
g62
(dp2448
g89
g90
ssg71
g2437
sg64
(lp2449
S':'
asbag57
(g78
g59
NtRp2450
(dp2451
g62
(dp2452
sg71
g2437
sg64
(lp2453
g57
(g58
g59
NtRp2454
(dp2455
g62
(dp2456
g70
I3
ssg71
g2450
sg64
(lp2457
g1037
asbasbasbag57
(g73
g59
NtRp2458
(dp2459
g62
(dp2460
sg71
g2244
sg64
(lp2461
g57
(g78
g59
NtRp2462
(dp2463
g62
(dp2464
g82
g83
ssg71
g2458
sg64
(lp2465
S'QUERY_STRING'
p2466
asbag57
(g78
g59
NtRp2467
(dp2468
g62
(dp2469
g89
g90
ssg71
g2458
sg64
(lp2470
S':'
asbag57
(g78
g59
NtRp2471
(dp2472
g62
(dp2473
sg71
g2458
sg64
(lp2474
g57
(g58
g59
NtRp2475
(dp2476
g62
(dp2477
g70
I3
ssg71
g2471
sg64
(lp2478
g1059
asbasbasbag57
(g73
g59
NtRp2479
(dp2480
g62
(dp2481
sg71
g2244
sg64
(lp2482
g57
(g78
g59
NtRp2483
(dp2484
g62
(dp2485
g82
g83
ssg71
g2479
sg64
(lp2486
S'REMOTE_ADDR'
p2487
asbag57
(g78
g59
NtRp2488
(dp2489
g62
(dp2490
g89
g90
ssg71
g2479
sg64
(lp2491
S':'
asbag57
(g78
g59
NtRp2492
(dp2493
g62
(dp2494
sg71
g2479
sg64
(lp2495
g57
(g58
g59
NtRp2496
(dp2497
g62
(dp2498
g70
I3
ssg71
g2492
sg64
(lp2499
g190
asbasbasbag57
(g73
g59
NtRp2500
(dp2501
g62
(dp2502
sg71
g2244
sg64
(lp2503
g57
(g78
g59
NtRp2504
(dp2505
g62
(dp2506
g82
g83
ssg71
g2500
sg64
(lp2507
S'REMOTE_PORT'
p2508
asbag57
(g78
g59
NtRp2509
(dp2510
g62
(dp2511
g89
g90
ssg71
g2500
sg64
(lp2512
S':'
asbag57
(g78
g59
NtRp2513
(dp2514
g62
(dp2515
sg71
g2500
sg64
(lp2516
g57
(g58
g59
NtRp2517
(dp2518
g62
(dp2519
g70
I3
ssg71
g2513
sg64
(lp2520
g1102
asbasbasbag57
(g73
g59
NtRp2521
(dp2522
g62
(dp2523
sg71
g2244
sg64
(lp2524
g57
(g78
g59
NtRp2525
(dp2526
g62
(dp2527
g82
g83
ssg71
g2521
sg64
(lp2528
S'REQUEST_METHOD'
p2529
asbag57
(g78
g59
NtRp2530
(dp2531
g62
(dp2532
g89
g90
ssg71
g2521
sg64
(lp2533
S':'
asbag57
(g78
g59
NtRp2534
(dp2535
g62
(dp2536
sg71
g2521
sg64
(lp2537
g57
(g58
g59
NtRp2538
(dp2539
g62
(dp2540
g70
I3
ssg71
g2534
sg64
(lp2541
g1124
asbasbasbag57
(g73
g59
NtRp2542
(dp2543
g62
(dp2544
sg71
g2244
sg64
(lp2545
g57
(g78
g59
NtRp2546
(dp2547
g62
(dp2548
g82
g83
ssg71
g2542
sg64
(lp2549
S'SCRIPT_NAME'
p2550
asbag57
(g78
g59
NtRp2551
(dp2552
g62
(dp2553
g89
g90
ssg71
g2542
sg64
(lp2554
S':'
asbag57
(g78
g59
NtRp2555
(dp2556
g62
(dp2557
sg71
g2542
sg64
(lp2558
g57
(g58
g59
NtRp2559
(dp2560
g62
(dp2561
g70
I3
ssg71
g2555
sg64
(lp2562
S''
asbasbasbag57
(g73
g59
NtRp2563
(dp2564
g62
(dp2565
sg71
g2244
sg64
(lp2566
g57
(g78
g59
NtRp2567
(dp2568
g62
(dp2569
g82
g83
ssg71
g2563
sg64
(lp2570
S'SERVER_NAME'
p2571
asbag57
(g78
g59
NtRp2572
(dp2573
g62
(dp2574
g89
g90
ssg71
g2563
sg64
(lp2575
S':'
asbag57
(g78
g59
NtRp2576
(dp2577
g62
(dp2578
sg71
g2563
sg64
(lp2579
g57
(g58
g59
NtRp2580
(dp2581
g62
(dp2582
g70
I3
ssg71
g2576
sg64
(lp2583
g1167
asbasbasbag57
(g73
g59
NtRp2584
(dp2585
g62
(dp2586
sg71
g2244
sg64
(lp2587
g57
(g78
g59
NtRp2588
(dp2589
g62
(dp2590
g82
g83
ssg71
g2584
sg64
(lp2591
S'SERVER_PORT'
p2592
asbag57
(g78
g59
NtRp2593
(dp2594
g62
(dp2595
g89
g90
ssg71
g2584
sg64
(lp2596
S':'
asbag57
(g78
g59
NtRp2597
(dp2598
g62
(dp2599
sg71
g2584
sg64
(lp2600
g57
(g58
g59
NtRp2601
(dp2602
g62
(dp2603
g70
I3
ssg71
g2597
sg64
(lp2604
g1189
asbasbasbag57
(g73
g59
NtRp2605
(dp2606
g62
(dp2607
sg71
g2244
sg64
(lp2608
g57
(g78
g59
NtRp2609
(dp2610
g62
(dp2611
g82
g83
ssg71
g2605
sg64
(lp2612
S'SERVER_PROTOCOL'
p2613
asbag57
(g78
g59
NtRp2614
(dp2615
g62
(dp2616
g89
g90
ssg71
g2605
sg64
(lp2617
S':'
asbag57
(g78
g59
NtRp2618
(dp2619
g62
(dp2620
sg71
g2605
sg64
(lp2621
g57
(g58
g59
NtRp2622
(dp2623
g62
(dp2624
g70
I3
ssg71
g2618
sg64
(lp2625
g1211
asbasbasbag57
(g73
g59
NtRp2626
(dp2627
g62
(dp2628
sg71
g2244
sg64
(lp2629
g57
(g78
g59
NtRp2630
(dp2631
g62
(dp2632
g82
g83
ssg71
g2626
sg64
(lp2633
S'SERVER_SOFTWARE'
p2634
asbag57
(g78
g59
NtRp2635
(dp2636
g62
(dp2637
g89
g90
ssg71
g2626
sg64
(lp2638
S':'
asbag57
(g78
g59
NtRp2639
(dp2640
g62
(dp2641
sg71
g2626
sg64
(lp2642
g57
(g58
g59
NtRp2643
(dp2644
g62
(dp2645
g70
I3
ssg71
g2639
sg64
(lp2646
g1233
asbasbasbag57
(g73
g59
NtRp2647
(dp2648
g62
(dp2649
sg71
g2244
sg64
(lp2650
g57
(g78
g59
NtRp2651
(dp2652
g62
(dp2653
g82
g83
ssg71
g2647
sg64
(lp2654
S'wsgi.errors'
p2655
asbag57
(g78
g59
NtRp2656
(dp2657
g62
(dp2658
g89
g90
ssg71
g2647
sg64
(lp2659
S':'
asbag57
(g78
g59
NtRp2660
(dp2661
g62
(dp2662
sg71
g2647
sg64
(lp2663
g57
(g58
g59
NtRp2664
(dp2665
g62
(dp2666
g70
I3
ssg71
g2660
sg64
(lp2667
S"<open file '<stderr>', mode 'w' at 0x005050D0>"
p2668
asbasbasbag57
(g73
g59
NtRp2669
(dp2670
g62
(dp2671
sg71
g2244
sg64
(lp2672
g57
(g78
g59
NtRp2673
(dp2674
g62
(dp2675
g82
g83
ssg71
g2669
sg64
(lp2676
S'wsgi.file_wrapper'
p2677
asbag57
(g78
g59
NtRp2678
(dp2679
g62
(dp2680
g89
g90
ssg71
g2669
sg64
(lp2681
S':'
asbag57
(g78
g59
NtRp2682
(dp2683
g62
(dp2684
sg71
g2669
sg64
(lp2685
g57
(g58
g59
NtRp2686
(dp2687
g62
(dp2688
g70
I3
ssg71
g2682
sg64
(lp2689
S'<class wsgiref.util.FileWrapper at 0x037E1B20>'
p2690
asbasbasbag57
(g73
g59
NtRp2691
(dp2692
g62
(dp2693
sg71
g2244
sg64
(lp2694
g57
(g78
g59
NtRp2695
(dp2696
g62
(dp2697
g82
g83
ssg71
g2691
sg64
(lp2698
S'wsgi.input'
p2699
asbag57
(g78
g59
NtRp2700
(dp2701
g62
(dp2702
g89
g90
ssg71
g2691
sg64
(lp2703
S':'
asbag57
(g78
g59
NtRp2704
(dp2705
g62
(dp2706
sg71
g2691
sg64
(lp2707
g57
(g58
g59
NtRp2708
(dp2709
g62
(dp2710
g70
I3
ssg71
g2704
sg64
(lp2711
S'<cStringIO.StringO object at 0x08E46500>'
p2712
asbasbasbag57
(g73
g59
NtRp2713
(dp2714
g62
(dp2715
sg71
g2244
sg64
(lp2716
g57
(g78
g59
NtRp2717
(dp2718
g62
(dp2719
g82
g83
ssg71
g2713
sg64
(lp2720
S'wsgi.multiprocess'
p2721
asbag57
(g78
g59
NtRp2722
(dp2723
g62
(dp2724
g89
g90
ssg71
g2713
sg64
(lp2725
S':'
asbag57
(g78
g59
NtRp2726
(dp2727
g62
(dp2728
sg71
g2713
sg64
(lp2729
g57
(g58
g59
NtRp2730
(dp2731
g62
(dp2732
g70
I3
ssg71
g2726
sg64
(lp2733
g100
asbasbasbag57
(g73
g59
NtRp2734
(dp2735
g62
(dp2736
sg71
g2244
sg64
(lp2737
g57
(g78
g59
NtRp2738
(dp2739
g62
(dp2740
g82
g83
ssg71
g2734
sg64
(lp2741
S'wsgi.multithread'
p2742
asbag57
(g78
g59
NtRp2743
(dp2744
g62
(dp2745
g89
g90
ssg71
g2734
sg64
(lp2746
S':'
asbag57
(g78
g59
NtRp2747
(dp2748
g62
(dp2749
sg71
g2734
sg64
(lp2750
g57
(g58
g59
NtRp2751
(dp2752
g62
(dp2753
g70
I3
ssg71
g2747
sg64
(lp2754
g1473
asbasbasbag57
(g73
g59
NtRp2755
(dp2756
g62
(dp2757
sg71
g2244
sg64
(lp2758
g57
(g78
g59
NtRp2759
(dp2760
g62
(dp2761
g82
g83
ssg71
g2755
sg64
(lp2762
S'wsgi.run_once'
p2763
asbag57
(g78
g59
NtRp2764
(dp2765
g62
(dp2766
g89
g90
ssg71
g2755
sg64
(lp2767
S':'
asbag57
(g78
g59
NtRp2768
(dp2769
g62
(dp2770
sg71
g2755
sg64
(lp2771
g57
(g58
g59
NtRp2772
(dp2773
g62
(dp2774
g70
I3
ssg71
g2768
sg64
(lp2775
g100
asbasbasbag57
(g73
g59
NtRp2776
(dp2777
g62
(dp2778
sg71
g2244
sg64
(lp2779
g57
(g78
g59
NtRp2780
(dp2781
g62
(dp2782
g82
g83
ssg71
g2776
sg64
(lp2783
S'wsgi.url_scheme'
p2784
asbag57
(g78
g59
NtRp2785
(dp2786
g62
(dp2787
g89
g90
ssg71
g2776
sg64
(lp2788
S':'
asbag57
(g78
g59
NtRp2789
(dp2790
g62
(dp2791
sg71
g2776
sg64
(lp2792
g57
(g58
g59
NtRp2793
(dp2794
g62
(dp2795
g70
I3
ssg71
g2789
sg64
(lp2796
g1516
asbasbasbag57
(g73
g59
NtRp2797
(dp2798
g62
(dp2799
sg71
g2244
sg64
(lp2800
g57
(g78
g59
NtRp2801
(dp2802
g62
(dp2803
g82
g83
ssg71
g2797
sg64
(lp2804
S'wsgi.version'
p2805
asbag57
(g78
g59
NtRp2806
(dp2807
g62
(dp2808
g89
g90
ssg71
g2797
sg64
(lp2809
S':'
asbag57
(g78
g59
NtRp2810
(dp2811
g62
(dp2812
sg71
g2797
sg64
(lp2813
g57
(g58
g59
NtRp2814
(dp2815
g62
(dp2816
g70
I3
ssg71
g2810
sg64
(lp2817
S'1'
asbasbasbasbasbasbasbasbasbasbasbasbasbsS'frames'
p2818
(lp2819
(dp2820
S'file'
p2821
S'P:\\School\\DePaul\\Projects\\CSC_438\\web2py\\gluon\\restricted.py'
p2822
sS'dump'
p2823
(dp2824
S'environment'
p2825
S"{'A': <class 'gluon.html.A'>, 'Auth': <class 'gluon.tools.Auth'>, 'B': <class 'gluon.html.B'>, 'BEAUTIFY': <class 'gluon.html.BEAUTIFY'>, 'BODY': <class 'gluon.html.BODY'>, 'BR': <class 'gluon.html.BR'>, 'BUTTON': <class 'gluon.html.BUTTON'>, 'CAT': <class 'gluon.html.CAT'>, 'CENTER': <class 'gluon.html.CENTER'>, 'CLEANUP': <class 'gluon.validators.CLEANUP'>, ...}"
p2826
sS'ccode'
p2827
S'<code object <module> at 08E52068, file "P:\\Scho...pplications\\init\\controllers/default.py", line 5>'
p2828
ssS'lnum'
p2829
I204
sS'lines'
p2830
(dp2831
I199
S'    try:'
p2832
sI200
S'        if type(code) == types.CodeType:'
p2833
sI201
S'            ccode = code'
p2834
sI202
S'        else:'
p2835
sI203
S'            ccode = compile2(code,layer)'
p2836
sI204
S'        exec ccode in environment'
p2837
sI205
S'    except HTTP:'
p2838
sI206
S'        raise'
p2839
sI207
S'    except RestrictedError:'
p2840
sI208
S'        # do not encapsulate (obfuscate) the original RestrictedError'
p2841
ssS'call'
p2842
S"(code='# -*- coding: utf-8 -*-\\n# this file is released ...m=crud())\\n\\nresponse._vars=response._caller(edit)\\n', environment={'A': <class 'gluon.html.A'>, 'Auth': <class 'gluon.tools.Auth'>, 'B': <class 'gluon.html.B'>, 'BEAUTIFY': <class 'gluon.html.BEAUTIFY'>, 'BODY': <class 'gluon.html.BODY'>, 'BR': <class 'gluon.html.BR'>, 'BUTTON': <class 'gluon.html.BUTTON'>, 'CAT': <class 'gluon.html.CAT'>, 'CENTER': <class 'gluon.html.CENTER'>, 'CLEANUP': <class 'gluon.validators.CLEANUP'>, ...}, layer=r'P:\\School\\DePaul\\Projects\\CSC_438\\web2py\\applications\\init\\controllers/default.py')"
p2843
sS'func'
p2844
S'restricted'
p2845
sa(dp2846
g2821
S'P:\\School\\DePaul\\Projects\\CSC_438\\web2py\\applications\\init\\controllers\\default.py'
p2847
sg2823
(dp2848
sg2829
I314
sg2830
(dp2849
I303
S'    http://..../[app]/default/data/update/[table]/[id]'
p2850
sI304
S'    http://..../[app]/default/data/delete/[table]/[id]'
p2851
sI305
S'    http://..../[app]/default/data/select/[table]'
p2852
sI306
S'    http://..../[app]/default/data/search/[table]'
p2853
sI307
S'    but URLs bust be signed, i.e. linked with'
p2854
sI308
S"      A('table',_href=URL('data/tables',user_signature=True))"
p2855
sI309
S'    or with the signed load operator'
p2856
sI310
S"      LOAD('default','data.load',args='tables',ajax=True,user_signature=True)"
p2857
sI311
S'    """'
p2858
sI312
S'    return dict(form=crud())'
p2859
ssg2842
S'()'
p2860
sg2844
S'<module>'
p2861
sa(dp2862
g2821
S'P:\\School\\DePaul\\Projects\\CSC_438\\web2py\\gluon\\globals.py'
p2863
sg2823
(dp2864
S'self'
p2865
S'undefined'
p2866
sS'f'
S'<function edit>'
p2867
ssg2829
I149
sg2830
(dp2868
I144
S'        self.meta = Storage()      # used by web2py_ajax.html'
p2869
sI145
S'        self.menu = []             # used by the default view layout'
p2870
sI146
S'        self.files = []            # used by web2py_ajax.html'
p2871
sI147
S'        self.generic_patterns = [] # patterns to allow generic views'
p2872
sI148
S'        self._vars = None'
p2873
sI149
S'        self._caller = lambda f: f()'
p2874
sI150
S'        self._view_environment = None'
p2875
sI151
S'        self._custom_commit = None'
p2876
sI152
S'        self._custom_rollback = None'
p2877
sI153
S''
ssg2842
S'(f=<function edit>)'
p2878
sg2844
S'<lambda>'
p2879
sa(dp2880
g2821
S'P:\\School\\DePaul\\Projects\\CSC_438\\web2py\\gluon\\tools.py'
p2881
sg2823
(dp2882
S'action'
p2883
S'<function edit>'
p2884
sS'a'
S'()'
p2885
sS'b'
g45
ssg2829
I2483
sg2830
(dp2886
I2478
S'                # otherwise case 3 would be ok.'
p2887
sI2479
S'                if not (callable(condition) and condition() == True) and not condition == True:'
p2888
sI2480
S'                    current.session.flash = self.messages.access_denied'
p2889
sI2481
S'                    return call_or_redirect('
p2890
sI2482
S'                        self.settings.on_failed_authorization)'
p2891
sI2483
S'                return action(*a, **b)'
p2892
sI2484
S'            f.__doc__ = action.__doc__'
p2893
sI2485
S'            f.__name__ = action.__name__'
p2894
sI2486
S'            f.__dict__.update(action.__dict__)'
p2895
sI2487
S'            return f'
p2896
ssg2842
S'(*a=(), **b={})'
p2897
sg2844
S'f'
sa(dp2898
g2821
S'P:\\School\\DePaul\\Projects\\CSC_438\\web2py\\applications\\init\\controllers\\default.py'
p2899
sg2823
(dp2900
S'global db'
p2901
S"<DAL {'auth_event': <Table {'origin': <gluon.dal...'_id': <gluon.dal.Field object at 0x080F38B0>}>}>"
p2902
sS'global SQLFORM'
p2903
S"<class 'gluon.sqlhtml.SQLFORM'>"
p2904
sS'db.events'
p2905
S"<Table {'_db': <DAL {'auth_event': <Table {'orig..., '_id': <gluon.dal.Field object at 0x08E65C50>}>"
p2906
sS'form'
p2907
g2866
sS'event'
p2908
S"<Row {'status': None, 'modified_by': 6, 'descrip...da> at 0x08660DB0>, 'name': 'Test Weekly Entry'}>"
p2909
ssg2829
I61
sg2830
(dp2910
I64
S''
sI65
S"    if form.process(session=None, onvalidation=date_compare, formname='edit').accepted:"
p2911
sI56
S'def edit():'
p2912
sI57
S''
sI58
S'    event_id= request.vars.event'
p2913
sI59
S'    event_query = db.events.id == event_id'
p2914
sI60
S'    event = db(event_query).select().first()'
p2915
sI61
S'    db.event.participants.writable = False'
p2916
sI62
S''
sI63
S'    form= SQLFORM(db.events, event)'
p2917
ssg2842
S'()'
p2918
sg2844
S'edit'
p2919
sa(dp2920
g2821
S'P:\\School\\DePaul\\Projects\\CSC_438\\web2py\\gluon\\dal.py'
p2921
sg2823
(dp2922
S'self'
p2923
S"<DAL {'auth_event': <Table {'origin': <gluon.dal...'_id': <gluon.dal.Field object at 0x080F38B0>}>}>"
p2924
sS'key'
p2925
S"'event'"
p2926
ssg2829
I4583
sg2830
(dp2927
I4578
S''
sI4579
S'    def __setitem__(self, key, value):'
p2928
sI4580
S'        dict.__setitem__(self, str(key), value)'
p2929
sI4581
S''
sI4582
S'    def __getattr__(self, key):'
p2930
sI4583
S'        return self[key]'
p2931
sI4584
S''
sI4585
S'    def __setattr__(self, key, value):'
p2932
sI4586
S"        if key[:1]!='_' and key in self:"
p2933
sI4587
S'            raise SyntaxError, \\'
p2934
ssg2842
S"(self=<DAL {'auth_event': <Table {'origin': <gluon.dal...'_id': <gluon.dal.Field object at 0x080F38B0>}>}>, key='event')"
p2935
sg2844
S'__getattr__'
p2936
sa(dp2937
g2821
S'P:\\School\\DePaul\\Projects\\CSC_438\\web2py\\gluon\\dal.py'
p2938
sg2823
(dp2939
S'builtinstr'
p2940
S"<type 'str'>"
p2941
sS'self'
p2942
S"<DAL {'auth_event': <Table {'origin': <gluon.dal...'_id': <gluon.dal.Field object at 0x080F38B0>}>}>"
p2943
sS'dict.__getitem__'
p2944
S"<method '__getitem__' of 'dict' objects>"
p2945
sS'key'
p2946
S"'event'"
p2947
sS'builtindict'
p2948
S"<type 'dict'>"
p2949
ssg2829
I4577
sg2830
(dp2950
I4576
S'    def __getitem__(self, key):'
p2951
sI4577
S'        return dict.__getitem__(self, str(key))'
p2952
sI4578
S''
sI4579
S'    def __setitem__(self, key, value):'
p2953
sI4580
S'        dict.__setitem__(self, str(key), value)'
p2954
sI4581
S''
sI4572
S'    def __iter__(self):'
p2955
sI4573
S'        for tablename in self.tables:'
p2956
sI4574
S'            yield self[tablename]'
p2957
sI4575
S''
ssg2842
S"(self=<DAL {'auth_event': <Table {'origin': <gluon.dal...'_id': <gluon.dal.Field object at 0x080F38B0>}>}>, key='event')"
p2958
sg2844
g20
sasS'pyver'
p2959
S'Python 2.7.2: P:\\Workbench\\DevEnv\\Python27\\python.exe'
p2960
sS'session'
p2961
g57
(g58
g59
NtRp2962
(dp2963
g62
(dp2964
sg64
(lp2965
g57
(g66
g59
NtRp2966
(dp2967
g62
(dp2968
g70
I5
ssg71
Nsg64
(lp2969
g57
(g73
g59
NtRp2970
(dp2971
g62
(dp2972
sg71
g2966
sg64
(lp2973
g57
(g78
g59
NtRp2974
(dp2975
g62
(dp2976
g82
g83
ssg71
g2970
sg64
(lp2977
S'auth'
p2978
asbag57
(g78
g59
NtRp2979
(dp2980
g62
(dp2981
g89
g90
ssg71
g2970
sg64
(lp2982
S':'
asbag57
(g78
g59
NtRp2983
(dp2984
g62
(dp2985
sg71
g2970
sg64
(lp2986
g57
(g58
g59
NtRp2987
(dp2988
g62
(dp2989
g70
I5
ssg71
g2983
sg64
(lp2990
g57
(g66
g59
NtRp2991
(dp2992
g62
(dp2993
g70
I4
ssg71
Nsg64
(lp2994
g57
(g73
g59
NtRp2995
(dp2996
g62
(dp2997
sg71
g2991
sg64
(lp2998
g57
(g78
g59
NtRp2999
(dp3000
g62
(dp3001
g82
g83
ssg71
g2995
sg64
(lp3002
S'expiration'
p3003
asbag57
(g78
g59
NtRp3004
(dp3005
g62
(dp3006
g89
g90
ssg71
g2995
sg64
(lp3007
S':'
asbag57
(g78
g59
NtRp3008
(dp3009
g62
(dp3010
sg71
g2995
sg64
(lp3011
g57
(g58
g59
NtRp3012
(dp3013
g62
(dp3014
g70
I4
ssg71
g3008
sg64
(lp3015
S'2592000'
p3016
asbasbasbag57
(g73
g59
NtRp3017
(dp3018
g62
(dp3019
sg71
g2991
sg64
(lp3020
g57
(g78
g59
NtRp3021
(dp3022
g62
(dp3023
g82
g83
ssg71
g3017
sg64
(lp3024
S'hmac_key'
p3025
asbag57
(g78
g59
NtRp3026
(dp3027
g62
(dp3028
g89
g90
ssg71
g3017
sg64
(lp3029
S':'
asbag57
(g78
g59
NtRp3030
(dp3031
g62
(dp3032
sg71
g3017
sg64
(lp3033
g57
(g58
g59
NtRp3034
(dp3035
g62
(dp3036
g70
I4
ssg71
g3030
sg64
(lp3037
S'61cec2aa-de99-4dd4-9411-5b45cff07e9e'
p3038
asbasbasbag57
(g73
g59
NtRp3039
(dp3040
g62
(dp3041
sg71
g2991
sg64
(lp3042
g57
(g78
g59
NtRp3043
(dp3044
g62
(dp3045
g82
g83
ssg71
g3039
sg64
(lp3046
S'last_visit'
p3047
asbag57
(g78
g59
NtRp3048
(dp3049
g62
(dp3050
g89
g90
ssg71
g3039
sg64
(lp3051
S':'
asbag57
(g78
g59
NtRp3052
(dp3053
g62
(dp3054
sg71
g3039
sg64
(lp3055
g57
(g58
g59
NtRp3056
(dp3057
g62
(dp3058
g70
I4
ssg71
g3052
sg64
(lp3059
S'datetime.datetime(2011, 11, 22, 18, 19, 57, 181000)'
p3060
asbasbasbag57
(g73
g59
NtRp3061
(dp3062
g62
(dp3063
sg71
g2991
sg64
(lp3064
g57
(g78
g59
NtRp3065
(dp3066
g62
(dp3067
g82
g83
ssg71
g3061
sg64
(lp3068
S'remember'
p3069
asbag57
(g78
g59
NtRp3070
(dp3071
g62
(dp3072
g89
g90
ssg71
g3061
sg64
(lp3073
S':'
asbag57
(g78
g59
NtRp3074
(dp3075
g62
(dp3076
sg71
g3061
sg64
(lp3077
g57
(g58
g59
NtRp3078
(dp3079
g62
(dp3080
g70
I4
ssg71
g3074
sg64
(lp3081
g100
asbasbasbag57
(g73
g59
NtRp3082
(dp3083
g62
(dp3084
sg71
g2991
sg64
(lp3085
g57
(g78
g59
NtRp3086
(dp3087
g62
(dp3088
g82
g83
ssg71
g3082
sg64
(lp3089
S'user'
p3090
asbag57
(g78
g59
NtRp3091
(dp3092
g62
(dp3093
g89
g90
ssg71
g3082
sg64
(lp3094
S':'
asbag57
(g78
g59
NtRp3095
(dp3096
g62
(dp3097
sg71
g3082
sg64
(lp3098
g57
(g58
g59
NtRp3099
(dp3100
g62
(dp3101
g70
I4
ssg71
g3095
sg64
(lp3102
g57
(g66
g59
NtRp3103
(dp3104
g62
(dp3105
g70
I3
ssg71
Nsg64
(lp3106
g57
(g73
g59
NtRp3107
(dp3108
g62
(dp3109
sg71
g3103
sg64
(lp3110
g57
(g78
g59
NtRp3111
(dp3112
g62
(dp3113
g82
g83
ssg71
g3107
sg64
(lp3114
S'birthday'
p3115
asbag57
(g78
g59
NtRp3116
(dp3117
g62
(dp3118
g89
g90
ssg71
g3107
sg64
(lp3119
S':'
asbag57
(g78
g59
NtRp3120
(dp3121
g62
(dp3122
sg71
g3107
sg64
(lp3123
g57
(g58
g59
NtRp3124
(dp3125
g62
(dp3126
g70
I3
ssg71
g3120
sg64
(lp3127
S'datetime.date(1974, 5, 2)'
p3128
asbasbasbag57
(g73
g59
NtRp3129
(dp3130
g62
(dp3131
sg71
g3103
sg64
(lp3132
g57
(g78
g59
NtRp3133
(dp3134
g62
(dp3135
g82
g83
ssg71
g3129
sg64
(lp3136
S'challenges'
p3137
asbag57
(g78
g59
NtRp3138
(dp3139
g62
(dp3140
g89
g90
ssg71
g3129
sg64
(lp3141
S':'
asbag57
(g78
g59
NtRp3142
(dp3143
g62
(dp3144
sg71
g3129
sg64
(lp3145
g57
(g58
g59
NtRp3146
(dp3147
g62
(dp3148
g70
I3
ssg71
g3142
sg64
(lp3149
g57
(g66
g59
NtRp3150
(dp3151
g62
(dp3152
g70
I2
ssg71
Nsg64
(lp3153
sbasbasbasbag57
(g73
g59
NtRp3154
(dp3155
g62
(dp3156
sg71
g3103
sg64
(lp3157
g57
(g78
g59
NtRp3158
(dp3159
g62
(dp3160
g82
g83
ssg71
g3154
sg64
(lp3161
S'current_weight'
p3162
asbag57
(g78
g59
NtRp3163
(dp3164
g62
(dp3165
g89
g90
ssg71
g3154
sg64
(lp3166
S':'
asbag57
(g78
g59
NtRp3167
(dp3168
g62
(dp3169
sg71
g3154
sg64
(lp3170
g57
(g58
g59
NtRp3171
(dp3172
g62
(dp3173
g70
I3
ssg71
g3167
sg64
(lp3174
S'200'
p3175
asbasbasbag57
(g73
g59
NtRp3176
(dp3177
g62
(dp3178
sg71
g3103
sg64
(lp3179
g57
(g78
g59
NtRp3180
(dp3181
g62
(dp3182
g82
g83
ssg71
g3176
sg64
(lp3183
S'email'
p3184
asbag57
(g78
g59
NtRp3185
(dp3186
g62
(dp3187
g89
g90
ssg71
g3176
sg64
(lp3188
S':'
asbag57
(g78
g59
NtRp3189
(dp3190
g62
(dp3191
sg71
g3176
sg64
(lp3192
g57
(g58
g59
NtRp3193
(dp3194
g62
(dp3195
g70
I3
ssg71
g3189
sg64
(lp3196
S'aedwards92@gmail.com'
p3197
asbasbasbag57
(g73
g59
NtRp3198
(dp3199
g62
(dp3200
sg71
g3103
sg64
(lp3201
g57
(g78
g59
NtRp3202
(dp3203
g62
(dp3204
g82
g83
ssg71
g3198
sg64
(lp3205
S'first_name'
p3206
asbag57
(g78
g59
NtRp3207
(dp3208
g62
(dp3209
g89
g90
ssg71
g3198
sg64
(lp3210
S':'
asbag57
(g78
g59
NtRp3211
(dp3212
g62
(dp3213
sg71
g3198
sg64
(lp3214
g57
(g58
g59
NtRp3215
(dp3216
g62
(dp3217
g70
I3
ssg71
g3211
sg64
(lp3218
S'Adrian'
p3219
asbasbasbag57
(g73
g59
NtRp3220
(dp3221
g62
(dp3222
sg71
g3103
sg64
(lp3223
g57
(g78
g59
NtRp3224
(dp3225
g62
(dp3226
g82
g83
ssg71
g3220
sg64
(lp3227
S'gender'
p3228
asbag57
(g78
g59
NtRp3229
(dp3230
g62
(dp3231
g89
g90
ssg71
g3220
sg64
(lp3232
S':'
asbag57
(g78
g59
NtRp3233
(dp3234
g62
(dp3235
sg71
g3220
sg64
(lp3236
g57
(g58
g59
NtRp3237
(dp3238
g62
(dp3239
g70
I3
ssg71
g3233
sg64
(lp3240
S'Male'
p3241
asbasbasbag57
(g73
g59
NtRp3242
(dp3243
g62
(dp3244
sg71
g3103
sg64
(lp3245
g57
(g78
g59
NtRp3246
(dp3247
g62
(dp3248
g82
g83
ssg71
g3242
sg64
(lp3249
S'height'
p3250
asbag57
(g78
g59
NtRp3251
(dp3252
g62
(dp3253
g89
g90
ssg71
g3242
sg64
(lp3254
S':'
asbag57
(g78
g59
NtRp3255
(dp3256
g62
(dp3257
sg71
g3242
sg64
(lp3258
g57
(g58
g59
NtRp3259
(dp3260
g62
(dp3261
g70
I3
ssg71
g3255
sg64
(lp3262
S'72'
p3263
asbasbasbag57
(g73
g59
NtRp3264
(dp3265
g62
(dp3266
sg71
g3103
sg64
(lp3267
g57
(g78
g59
NtRp3268
(dp3269
g62
(dp3270
g82
g83
ssg71
g3264
sg64
(lp3271
S'id'
p3272
asbag57
(g78
g59
NtRp3273
(dp3274
g62
(dp3275
g89
g90
ssg71
g3264
sg64
(lp3276
S':'
asbag57
(g78
g59
NtRp3277
(dp3278
g62
(dp3279
sg71
g3264
sg64
(lp3280
g57
(g58
g59
NtRp3281
(dp3282
g62
(dp3283
g70
I3
ssg71
g3277
sg64
(lp3284
S'6'
asbasbasbag57
(g73
g59
NtRp3285
(dp3286
g62
(dp3287
sg71
g3103
sg64
(lp3288
g57
(g78
g59
NtRp3289
(dp3290
g62
(dp3291
g82
g83
ssg71
g3285
sg64
(lp3292
S'image'
p3293
asbag57
(g78
g59
NtRp3294
(dp3295
g62
(dp3296
g89
g90
ssg71
g3285
sg64
(lp3297
S':'
asbag57
(g78
g59
NtRp3298
(dp3299
g62
(dp3300
sg71
g3285
sg64
(lp3301
g57
(g58
g59
NtRp3302
(dp3303
g62
(dp3304
g70
I3
ssg71
g3298
sg64
(lp3305
S''
asbasbasbag57
(g73
g59
NtRp3306
(dp3307
g62
(dp3308
sg71
g3103
sg64
(lp3309
g57
(g78
g59
NtRp3310
(dp3311
g62
(dp3312
g82
g83
ssg71
g3306
sg64
(lp3313
S'last_name'
p3314
asbag57
(g78
g59
NtRp3315
(dp3316
g62
(dp3317
g89
g90
ssg71
g3306
sg64
(lp3318
S':'
asbag57
(g78
g59
NtRp3319
(dp3320
g62
(dp3321
sg71
g3306
sg64
(lp3322
g57
(g58
g59
NtRp3323
(dp3324
g62
(dp3325
g70
I3
ssg71
g3319
sg64
(lp3326
S'Edwards'
p3327
asbasbasbag57
(g73
g59
NtRp3328
(dp3329
g62
(dp3330
sg71
g3103
sg64
(lp3331
g57
(g78
g59
NtRp3332
(dp3333
g62
(dp3334
g82
g83
ssg71
g3328
sg64
(lp3335
S'password'
p3336
asbag57
(g78
g59
NtRp3337
(dp3338
g62
(dp3339
g89
g90
ssg71
g3328
sg64
(lp3340
S':'
asbag57
(g78
g59
NtRp3341
(dp3342
g62
(dp3343
sg71
g3328
sg64
(lp3344
g57
(g58
g59
NtRp3345
(dp3346
g62
(dp3347
g70
I3
ssg71
g3341
sg64
(lp3348
S'12923092f4d9e86e56018b9cdd790947'
p3349
asbasbasbag57
(g73
g59
NtRp3350
(dp3351
g62
(dp3352
sg71
g3103
sg64
(lp3353
g57
(g78
g59
NtRp3354
(dp3355
g62
(dp3356
g82
g83
ssg71
g3350
sg64
(lp3357
S'registration_id'
p3358
asbag57
(g78
g59
NtRp3359
(dp3360
g62
(dp3361
g89
g90
ssg71
g3350
sg64
(lp3362
S':'
asbag57
(g78
g59
NtRp3363
(dp3364
g62
(dp3365
sg71
g3350
sg64
(lp3366
g57
(g58
g59
NtRp3367
(dp3368
g62
(dp3369
g70
I3
ssg71
g3363
sg64
(lp3370
S''
asbasbasbag57
(g73
g59
NtRp3371
(dp3372
g62
(dp3373
sg71
g3103
sg64
(lp3374
g57
(g78
g59
NtRp3375
(dp3376
g62
(dp3377
g82
g83
ssg71
g3371
sg64
(lp3378
S'registration_key'
p3379
asbag57
(g78
g59
NtRp3380
(dp3381
g62
(dp3382
g89
g90
ssg71
g3371
sg64
(lp3383
S':'
asbag57
(g78
g59
NtRp3384
(dp3385
g62
(dp3386
sg71
g3371
sg64
(lp3387
g57
(g58
g59
NtRp3388
(dp3389
g62
(dp3390
g70
I3
ssg71
g3384
sg64
(lp3391
S''
asbasbasbag57
(g73
g59
NtRp3392
(dp3393
g62
(dp3394
sg71
g3103
sg64
(lp3395
g57
(g78
g59
NtRp3396
(dp3397
g62
(dp3398
g82
g83
ssg71
g3392
sg64
(lp3399
S'reset_password_key'
p3400
asbag57
(g78
g59
NtRp3401
(dp3402
g62
(dp3403
g89
g90
ssg71
g3392
sg64
(lp3404
S':'
asbag57
(g78
g59
NtRp3405
(dp3406
g62
(dp3407
sg71
g3392
sg64
(lp3408
g57
(g58
g59
NtRp3409
(dp3410
g62
(dp3411
g70
I3
ssg71
g3405
sg64
(lp3412
S''
asbasbasbasbasbasbasbasbasbasbasbag57
(g73
g59
NtRp3413
(dp3414
g62
(dp3415
sg71
g2966
sg64
(lp3416
g57
(g78
g59
NtRp3417
(dp3418
g62
(dp3419
g82
g83
ssg71
g3413
sg64
(lp3420
S'last_query'
p3421
asbag57
(g78
g59
NtRp3422
(dp3423
g62
(dp3424
g89
g90
ssg71
g3413
sg64
(lp3425
S':'
asbag57
(g78
g59
NtRp3426
(dp3427
g62
(dp3428
sg71
g3413
sg64
(lp3429
g57
(g58
g59
NtRp3430
(dp3431
g62
(dp3432
g70
I5
ssg71
g3426
sg64
(lp3433
S'db.entries.id>0'
p3434
asbasbasbasbasbsS'etype'
p3435
S"<type 'exceptions.KeyError'>"
p3436
sS'date'
p3437
S'Tue Nov 22 19:37:22 2011'
p3438
sS'response'
p3439
g57
(g58
g59
NtRp3440
(dp3441
g62
(dp3442
sg64
(lp3443
g57
(g66
g59
NtRp3444
(dp3445
g62
(dp3446
g70
I5
ssg71
Nsg64
(lp3447
g57
(g73
g59
NtRp3448
(dp3449
g62
(dp3450
sg71
g3444
sg64
(lp3451
g57
(g78
g59
NtRp3452
(dp3453
g62
(dp3454
g82
g83
ssg71
g3448
sg64
(lp3455
g155
asbag57
(g78
g59
NtRp3456
(dp3457
g62
(dp3458
g89
g90
ssg71
g3448
sg64
(lp3459
S':'
asbag57
(g78
g59
NtRp3460
(dp3461
g62
(dp3462
sg71
g3448
sg64
(lp3463
g57
(g58
g59
NtRp3464
(dp3465
g62
(dp3466
g70
I5
ssg71
g3460
sg64
(lp3467
S'<cStringIO.StringO object at 0x08127B20>'
p3468
asbasbasbag57
(g73
g59
NtRp3469
(dp3470
g62
(dp3471
sg71
g3444
sg64
(lp3472
g57
(g78
g59
NtRp3473
(dp3474
g62
(dp3475
g82
g83
ssg71
g3469
sg64
(lp3476
g221
asbag57
(g78
g59
NtRp3477
(dp3478
g62
(dp3479
g89
g90
ssg71
g3469
sg64
(lp3480
S':'
asbag57
(g78
g59
NtRp3481
(dp3482
g62
(dp3483
sg71
g3469
sg64
(lp3484
g57
(g58
g59
NtRp3485
(dp3486
g62
(dp3487
g70
I5
ssg71
g3481
sg64
(lp3488
g57
(g66
g59
NtRp3489
(dp3490
g62
(dp3491
g70
I4
ssg71
Nsg64
(lp3492
g57
(g73
g59
NtRp3493
(dp3494
g62
(dp3495
sg71
g3489
sg64
(lp3496
g57
(g78
g59
NtRp3497
(dp3498
g62
(dp3499
g82
g83
ssg71
g3493
sg64
(lp3500
S'session_id_init'
p3501
asbag57
(g78
g59
NtRp3502
(dp3503
g62
(dp3504
g89
g90
ssg71
g3493
sg64
(lp3505
S':'
asbag57
(g78
g59
NtRp3506
(dp3507
g62
(dp3508
sg71
g3493
sg64
(lp3509
g57
(g58
g59
NtRp3510
(dp3511
g62
(dp3512
g70
I4
ssg71
g3506
sg64
(lp3513
g57
(g66
g59
NtRp3514
(dp3515
g62
(dp3516
g70
I3
ssg71
Nsg64
(lp3517
g57
(g73
g59
NtRp3518
(dp3519
g62
(dp3520
sg71
g3514
sg64
(lp3521
g57
(g78
g59
NtRp3522
(dp3523
g62
(dp3524
g82
g83
ssg71
g3518
sg64
(lp3525
g271
asbag57
(g78
g59
NtRp3526
(dp3527
g62
(dp3528
g89
g90
ssg71
g3518
sg64
(lp3529
S':'
asbag57
(g78
g59
NtRp3530
(dp3531
g62
(dp3532
sg71
g3518
sg64
(lp3533
g57
(g58
g59
NtRp3534
(dp3535
g62
(dp3536
g70
I3
ssg71
g3530
sg64
(lp3537
S''
asbasbasbag57
(g73
g59
NtRp3538
(dp3539
g62
(dp3540
sg71
g3514
sg64
(lp3541
g57
(g78
g59
NtRp3542
(dp3543
g62
(dp3544
g82
g83
ssg71
g3538
sg64
(lp3545
g292
asbag57
(g78
g59
NtRp3546
(dp3547
g62
(dp3548
g89
g90
ssg71
g3538
sg64
(lp3549
S':'
asbag57
(g78
g59
NtRp3550
(dp3551
g62
(dp3552
sg71
g3538
sg64
(lp3553
g57
(g58
g59
NtRp3554
(dp3555
g62
(dp3556
g70
I3
ssg71
g3550
sg64
(lp3557
S''
asbasbasbag57
(g73
g59
NtRp3558
(dp3559
g62
(dp3560
sg71
g3514
sg64
(lp3561
g57
(g78
g59
NtRp3562
(dp3563
g62
(dp3564
g82
g83
ssg71
g3558
sg64
(lp3565
g313
asbag57
(g78
g59
NtRp3566
(dp3567
g62
(dp3568
g89
g90
ssg71
g3558
sg64
(lp3569
S':'
asbag57
(g78
g59
NtRp3570
(dp3571
g62
(dp3572
sg71
g3558
sg64
(lp3573
g57
(g58
g59
NtRp3574
(dp3575
g62
(dp3576
g70
I3
ssg71
g3570
sg64
(lp3577
S''
asbasbasbag57
(g73
g59
NtRp3578
(dp3579
g62
(dp3580
sg71
g3514
sg64
(lp3581
g57
(g78
g59
NtRp3582
(dp3583
g62
(dp3584
g82
g83
ssg71
g3578
sg64
(lp3585
g334
asbag57
(g78
g59
NtRp3586
(dp3587
g62
(dp3588
g89
g90
ssg71
g3578
sg64
(lp3589
S':'
asbag57
(g78
g59
NtRp3590
(dp3591
g62
(dp3592
sg71
g3578
sg64
(lp3593
g57
(g58
g59
NtRp3594
(dp3595
g62
(dp3596
g70
I3
ssg71
g3590
sg64
(lp3597
S''
asbasbasbag57
(g73
g59
NtRp3598
(dp3599
g62
(dp3600
sg71
g3514
sg64
(lp3601
g57
(g78
g59
NtRp3602
(dp3603
g62
(dp3604
g82
g83
ssg71
g3598
sg64
(lp3605
g355
asbag57
(g78
g59
NtRp3606
(dp3607
g62
(dp3608
g89
g90
ssg71
g3598
sg64
(lp3609
S':'
asbag57
(g78
g59
NtRp3610
(dp3611
g62
(dp3612
sg71
g3598
sg64
(lp3613
g57
(g58
g59
NtRp3614
(dp3615
g62
(dp3616
g70
I3
ssg71
g3610
sg64
(lp3617
S''
asbasbasbag57
(g73
g59
NtRp3618
(dp3619
g62
(dp3620
sg71
g3514
sg64
(lp3621
g57
(g78
g59
NtRp3622
(dp3623
g62
(dp3624
g82
g83
ssg71
g3618
sg64
(lp3625
g376
asbag57
(g78
g59
NtRp3626
(dp3627
g62
(dp3628
g89
g90
ssg71
g3618
sg64
(lp3629
S':'
asbag57
(g78
g59
NtRp3630
(dp3631
g62
(dp3632
sg71
g3618
sg64
(lp3633
g57
(g58
g59
NtRp3634
(dp3635
g62
(dp3636
g70
I3
ssg71
g3630
sg64
(lp3637
S'/'
asbasbasbag57
(g73
g59
NtRp3638
(dp3639
g62
(dp3640
sg71
g3514
sg64
(lp3641
g57
(g78
g59
NtRp3642
(dp3643
g62
(dp3644
g82
g83
ssg71
g3638
sg64
(lp3645
g397
asbag57
(g78
g59
NtRp3646
(dp3647
g62
(dp3648
g89
g90
ssg71
g3638
sg64
(lp3649
S':'
asbag57
(g78
g59
NtRp3650
(dp3651
g62
(dp3652
sg71
g3638
sg64
(lp3653
g57
(g58
g59
NtRp3654
(dp3655
g62
(dp3656
g70
I3
ssg71
g3650
sg64
(lp3657
S''
asbasbasbag57
(g73
g59
NtRp3658
(dp3659
g62
(dp3660
sg71
g3514
sg64
(lp3661
g57
(g78
g59
NtRp3662
(dp3663
g62
(dp3664
g82
g83
ssg71
g3658
sg64
(lp3665
g418
asbag57
(g78
g59
NtRp3666
(dp3667
g62
(dp3668
g89
g90
ssg71
g3658
sg64
(lp3669
S':'
asbag57
(g78
g59
NtRp3670
(dp3671
g62
(dp3672
sg71
g3658
sg64
(lp3673
g57
(g58
g59
NtRp3674
(dp3675
g62
(dp3676
g70
I3
ssg71
g3670
sg64
(lp3677
S''
asbasbasbasbasbasbasbasbasbasbasbag57
(g73
g59
NtRp3678
(dp3679
g62
(dp3680
sg71
g3444
sg64
(lp3681
g57
(g78
g59
NtRp3682
(dp3683
g62
(dp3684
g82
g83
ssg71
g3678
sg64
(lp3685
S'files'
p3686
asbag57
(g78
g59
NtRp3687
(dp3688
g62
(dp3689
g89
g90
ssg71
g3678
sg64
(lp3690
S':'
asbag57
(g78
g59
NtRp3691
(dp3692
g62
(dp3693
sg71
g3678
sg64
(lp3694
g57
(g58
g59
NtRp3695
(dp3696
g62
(dp3697
g70
I5
ssg71
g3691
sg64
(lp3698
g57
(g66
g59
NtRp3699
(dp3700
g62
(dp3701
g70
I4
ssg71
Nsg64
(lp3702
sbasbasbasbag57
(g73
g59
NtRp3703
(dp3704
g62
(dp3705
sg71
g3444
sg64
(lp3706
g57
(g78
g59
NtRp3707
(dp3708
g62
(dp3709
g82
g83
ssg71
g3703
sg64
(lp3710
S'flash'
p3711
asbag57
(g78
g59
NtRp3712
(dp3713
g62
(dp3714
g89
g90
ssg71
g3703
sg64
(lp3715
S':'
asbag57
(g78
g59
NtRp3716
(dp3717
g62
(dp3718
sg71
g3703
sg64
(lp3719
g57
(g58
g59
NtRp3720
(dp3721
g62
(dp3722
g70
I5
ssg71
g3716
sg64
(lp3723
S''
asbasbasbag57
(g73
g59
NtRp3724
(dp3725
g62
(dp3726
sg71
g3444
sg64
(lp3727
g57
(g78
g59
NtRp3728
(dp3729
g62
(dp3730
g82
g83
ssg71
g3724
sg64
(lp3731
S'generic_patterns'
p3732
asbag57
(g78
g59
NtRp3733
(dp3734
g62
(dp3735
g89
g90
ssg71
g3724
sg64
(lp3736
S':'
asbag57
(g78
g59
NtRp3737
(dp3738
g62
(dp3739
sg71
g3724
sg64
(lp3740
g57
(g58
g59
NtRp3741
(dp3742
g62
(dp3743
g70
I5
ssg71
g3737
sg64
(lp3744
g57
(g66
g59
NtRp3745
(dp3746
g62
(dp3747
g70
I4
ssg71
Nsg64
(lp3748
g57
(g73
g59
NtRp3749
(dp3750
g62
(dp3751
sg71
g3745
sg64
(lp3752
g57
(g78
g59
NtRp3753
(dp3754
g62
(dp3755
sg71
g3749
sg64
(lp3756
g57
(g58
g59
NtRp3757
(dp3758
g62
(dp3759
g70
I4
ssg71
g3753
sg64
(lp3760
S'*'
asbasbasbasbasbasbasbag57
(g73
g59
NtRp3761
(dp3762
g62
(dp3763
sg71
g3444
sg64
(lp3764
g57
(g78
g59
NtRp3765
(dp3766
g62
(dp3767
g82
g83
ssg71
g3761
sg64
(lp3768
S'headers'
p3769
asbag57
(g78
g59
NtRp3770
(dp3771
g62
(dp3772
g89
g90
ssg71
g3761
sg64
(lp3773
S':'
asbag57
(g78
g59
NtRp3774
(dp3775
g62
(dp3776
sg71
g3761
sg64
(lp3777
g57
(g58
g59
NtRp3778
(dp3779
g62
(dp3780
g70
I5
ssg71
g3774
sg64
(lp3781
g57
(g66
g59
NtRp3782
(dp3783
g62
(dp3784
g70
I4
ssg71
Nsg64
(lp3785
g57
(g73
g59
NtRp3786
(dp3787
g62
(dp3788
sg71
g3782
sg64
(lp3789
g57
(g78
g59
NtRp3790
(dp3791
g62
(dp3792
g82
g83
ssg71
g3786
sg64
(lp3793
S'Cache-Control'
p3794
asbag57
(g78
g59
NtRp3795
(dp3796
g62
(dp3797
g89
g90
ssg71
g3786
sg64
(lp3798
S':'
asbag57
(g78
g59
NtRp3799
(dp3800
g62
(dp3801
sg71
g3786
sg64
(lp3802
g57
(g58
g59
NtRp3803
(dp3804
g62
(dp3805
g70
I4
ssg71
g3799
sg64
(lp3806
S'no-store, no-cache, must-revalidate, post-check=0, pre-check=0'
p3807
asbasbasbag57
(g73
g59
NtRp3808
(dp3809
g62
(dp3810
sg71
g3782
sg64
(lp3811
g57
(g78
g59
NtRp3812
(dp3813
g62
(dp3814
g82
g83
ssg71
g3808
sg64
(lp3815
S'Content-Type'
p3816
asbag57
(g78
g59
NtRp3817
(dp3818
g62
(dp3819
g89
g90
ssg71
g3808
sg64
(lp3820
S':'
asbag57
(g78
g59
NtRp3821
(dp3822
g62
(dp3823
sg71
g3808
sg64
(lp3824
g57
(g58
g59
NtRp3825
(dp3826
g62
(dp3827
g70
I4
ssg71
g3821
sg64
(lp3828
S'text/html; charset=utf-8'
p3829
asbasbasbag57
(g73
g59
NtRp3830
(dp3831
g62
(dp3832
sg71
g3782
sg64
(lp3833
g57
(g78
g59
NtRp3834
(dp3835
g62
(dp3836
g82
g83
ssg71
g3830
sg64
(lp3837
S'Expires'
p3838
asbag57
(g78
g59
NtRp3839
(dp3840
g62
(dp3841
g89
g90
ssg71
g3830
sg64
(lp3842
S':'
asbag57
(g78
g59
NtRp3843
(dp3844
g62
(dp3845
sg71
g3830
sg64
(lp3846
g57
(g58
g59
NtRp3847
(dp3848
g62
(dp3849
g70
I4
ssg71
g3843
sg64
(lp3850
S'Wed, 23 Nov 2011 00:37:22 GMT'
p3851
asbasbasbag57
(g73
g59
NtRp3852
(dp3853
g62
(dp3854
sg71
g3782
sg64
(lp3855
g57
(g78
g59
NtRp3856
(dp3857
g62
(dp3858
g82
g83
ssg71
g3852
sg64
(lp3859
S'Pragma'
p3860
asbag57
(g78
g59
NtRp3861
(dp3862
g62
(dp3863
g89
g90
ssg71
g3852
sg64
(lp3864
S':'
asbag57
(g78
g59
NtRp3865
(dp3866
g62
(dp3867
sg71
g3852
sg64
(lp3868
g57
(g58
g59
NtRp3869
(dp3870
g62
(dp3871
g70
I4
ssg71
g3865
sg64
(lp3872
S'no-cache'
p3873
asbasbasbag57
(g73
g59
NtRp3874
(dp3875
g62
(dp3876
sg71
g3782
sg64
(lp3877
g57
(g78
g59
NtRp3878
(dp3879
g62
(dp3880
g82
g83
ssg71
g3874
sg64
(lp3881
S'X-Powered-By'
p3882
asbag57
(g78
g59
NtRp3883
(dp3884
g62
(dp3885
g89
g90
ssg71
g3874
sg64
(lp3886
S':'
asbag57
(g78
g59
NtRp3887
(dp3888
g62
(dp3889
sg71
g3874
sg64
(lp3890
g57
(g58
g59
NtRp3891
(dp3892
g62
(dp3893
g70
I4
ssg71
g3887
sg64
(lp3894
S'web2py'
p3895
asbasbasbasbasbasbasbag57
(g73
g59
NtRp3896
(dp3897
g62
(dp3898
sg71
g3444
sg64
(lp3899
g57
(g78
g59
NtRp3900
(dp3901
g62
(dp3902
g82
g83
ssg71
g3896
sg64
(lp3903
S'menu'
p3904
asbag57
(g78
g59
NtRp3905
(dp3906
g62
(dp3907
g89
g90
ssg71
g3896
sg64
(lp3908
S':'
asbag57
(g78
g59
NtRp3909
(dp3910
g62
(dp3911
sg71
g3896
sg64
(lp3912
g57
(g58
g59
NtRp3913
(dp3914
g62
(dp3915
g70
I5
ssg71
g3909
sg64
(lp3916
g57
(g66
g59
NtRp3917
(dp3918
g62
(dp3919
g70
I4
ssg71
Nsg64
(lp3920
g57
(g73
g59
NtRp3921
(dp3922
g62
(dp3923
sg71
g3917
sg64
(lp3924
g57
(g78
g59
NtRp3925
(dp3926
g62
(dp3927
sg71
g3921
sg64
(lp3928
g57
(g58
g59
NtRp3929
(dp3930
g62
(dp3931
g70
I4
ssg71
g3925
sg64
(lp3932
g57
(g66
g59
NtRp3933
(dp3934
g62
(dp3935
g70
I3
ssg71
Nsg64
(lp3936
g57
(g73
g59
NtRp3937
(dp3938
g62
(dp3939
sg71
g3933
sg64
(lp3940
g57
(g78
g59
NtRp3941
(dp3942
g62
(dp3943
sg71
g3937
sg64
(lp3944
g57
(g58
g59
NtRp3945
(dp3946
g62
(dp3947
g70
I3
ssg71
g3941
sg64
(lp3948
cgluon.languages
lazyT_unpickle
p3949
(S't\x04\x00\x00\x00Home'
tRp3950
asbasbasbag57
(g73
g59
NtRp3951
(dp3952
g62
(dp3953
sg71
g3933
sg64
(lp3954
g57
(g78
g59
NtRp3955
(dp3956
g62
(dp3957
sg71
g3951
sg64
(lp3958
g57
(g58
g59
NtRp3959
(dp3960
g62
(dp3961
g70
I3
ssg71
g3955
sg64
(lp3962
g100
asbasbasbag57
(g73
g59
NtRp3963
(dp3964
g62
(dp3965
sg71
g3933
sg64
(lp3966
g57
(g78
g59
NtRp3967
(dp3968
g62
(dp3969
sg71
g3963
sg64
(lp3970
g57
(g58
g59
NtRp3971
(dp3972
g62
(dp3973
g70
I3
ssg71
g3967
sg64
(lp3974
S'/init/default/index'
p3975
asbasbasbag57
(g73
g59
NtRp3976
(dp3977
g62
(dp3978
sg71
g3933
sg64
(lp3979
g57
(g78
g59
NtRp3980
(dp3981
g62
(dp3982
sg71
g3976
sg64
(lp3983
g57
(g58
g59
NtRp3984
(dp3985
g62
(dp3986
g70
I3
ssg71
g3980
sg64
(lp3987
g57
(g66
g59
NtRp3988
(dp3989
g62
(dp3990
g70
I2
ssg71
Nsg64
(lp3991
sbasbasbasbasbasbasbasbag57
(g73
g59
NtRp3992
(dp3993
g62
(dp3994
sg71
g3917
sg64
(lp3995
g57
(g78
g59
NtRp3996
(dp3997
g62
(dp3998
sg71
g3992
sg64
(lp3999
g57
(g58
g59
NtRp4000
(dp4001
g62
(dp4002
g70
I4
ssg71
g3996
sg64
(lp4003
g57
(g66
g59
NtRp4004
(dp4005
g62
(dp4006
g70
I3
ssg71
Nsg64
(lp4007
g57
(g73
g59
NtRp4008
(dp4009
g62
(dp4010
sg71
g4004
sg64
(lp4011
g57
(g78
g59
NtRp4012
(dp4013
g62
(dp4014
sg71
g4008
sg64
(lp4015
g57
(g58
g59
NtRp4016
(dp4017
g62
(dp4018
g70
I3
ssg71
g4012
sg64
(lp4019
g3949
(S's\x08\x00\x00\x00This App'
tRp4020
asbasbasbag57
(g73
g59
NtRp4021
(dp4022
g62
(dp4023
sg71
g4004
sg64
(lp4024
g57
(g78
g59
NtRp4025
(dp4026
g62
(dp4027
sg71
g4021
sg64
(lp4028
g57
(g58
g59
NtRp4029
(dp4030
g62
(dp4031
g70
I3
ssg71
g4025
sg64
(lp4032
g100
asbasbasbag57
(g73
g59
NtRp4033
(dp4034
g62
(dp4035
sg71
g4004
sg64
(lp4036
g57
(g78
g59
NtRp4037
(dp4038
g62
(dp4039
sg71
g4033
sg64
(lp4040
g57
(g58
g59
NtRp4041
(dp4042
g62
(dp4043
g70
I3
ssg71
g4037
sg64
(lp4044
S'/admin/default/design/init'
p4045
asbasbasbag57
(g73
g59
NtRp4046
(dp4047
g62
(dp4048
sg71
g4004
sg64
(lp4049
g57
(g78
g59
NtRp4050
(dp4051
g62
(dp4052
sg71
g4046
sg64
(lp4053
g57
(g58
g59
NtRp4054
(dp4055
g62
(dp4056
g70
I3
ssg71
g4050
sg64
(lp4057
g57
(g66
g59
NtRp4058
(dp4059
g62
(dp4060
g70
I2
ssg71
Nsg64
(lp4061
g57
(g73
g59
NtRp4062
(dp4063
g62
(dp4064
sg71
g4058
sg64
(lp4065
g57
(g78
g59
NtRp4066
(dp4067
g62
(dp4068
sg71
g4062
sg64
(lp4069
g57
(g58
g59
NtRp4070
(dp4071
g62
(dp4072
g70
I2
ssg71
g4066
sg64
(lp4073
g57
(g66
g59
NtRp4074
(dp4075
g62
(dp4076
g70
I1
ssg71
Nsg64
(lp4077
g57
(g73
g59
NtRp4078
(dp4079
g62
(dp4080
sg71
g4074
sg64
(lp4081
g57
(g78
g59
NtRp4082
(dp4083
g62
(dp4084
sg71
g4078
sg64
(lp4085
g57
(g58
g59
NtRp4086
(dp4087
g62
(dp4088
g70
I1
ssg71
g4082
sg64
(lp4089
g3949
(S't\n\x00\x00\x00Controller'
tRp4090
asbasbasbag57
(g73
g59
NtRp4091
(dp4092
g62
(dp4093
sg71
g4074
sg64
(lp4094
g57
(g78
g59
NtRp4095
(dp4096
g62
(dp4097
sg71
g4091
sg64
(lp4098
g57
(g58
g59
NtRp4099
(dp4100
g62
(dp4101
g70
I1
ssg71
g4095
sg64
(lp4102
I00
asbasbasbag57
(g73
g59
NtRp4103
(dp4104
g62
(dp4105
sg71
g4074
sg64
(lp4106
g57
(g78
g59
NtRp4107
(dp4108
g62
(dp4109
sg71
g4103
sg64
(lp4110
g57
(g58
g59
NtRp4111
(dp4112
g62
(dp4113
g70
I1
ssg71
g4107
sg64
(lp4114
S'/admin/default/edit/init/controllers/default.py'
p4115
asbasbasbasbasbasbasbag57
(g73
g59
NtRp4116
(dp4117
g62
(dp4118
sg71
g4058
sg64
(lp4119
g57
(g78
g59
NtRp4120
(dp4121
g62
(dp4122
sg71
g4116
sg64
(lp4123
g57
(g58
g59
NtRp4124
(dp4125
g62
(dp4126
g70
I2
ssg71
g4120
sg64
(lp4127
g57
(g66
g59
NtRp4128
(dp4129
g62
(dp4130
g70
I1
ssg71
Nsg64
(lp4131
g57
(g73
g59
NtRp4132
(dp4133
g62
(dp4134
sg71
g4128
sg64
(lp4135
g57
(g78
g59
NtRp4136
(dp4137
g62
(dp4138
sg71
g4132
sg64
(lp4139
g57
(g58
g59
NtRp4140
(dp4141
g62
(dp4142
g70
I1
ssg71
g4136
sg64
(lp4143
g3949
(S't\x04\x00\x00\x00View'
tRp4144
asbasbasbag57
(g73
g59
NtRp4145
(dp4146
g62
(dp4147
sg71
g4128
sg64
(lp4148
g57
(g78
g59
NtRp4149
(dp4150
g62
(dp4151
sg71
g4145
sg64
(lp4152
g57
(g58
g59
NtRp4153
(dp4154
g62
(dp4155
g70
I1
ssg71
g4149
sg64
(lp4156
I00
asbasbasbag57
(g73
g59
NtRp4157
(dp4158
g62
(dp4159
sg71
g4128
sg64
(lp4160
g57
(g78
g59
NtRp4161
(dp4162
g62
(dp4163
sg71
g4157
sg64
(lp4164
g57
(g58
g59
NtRp4165
(dp4166
g62
(dp4167
g70
I1
ssg71
g4161
sg64
(lp4168
S'/admin/default/edit/init/views/default/edit.html'
p4169
asbasbasbasbasbasbasbag57
(g73
g59
NtRp4170
(dp4171
g62
(dp4172
sg71
g4058
sg64
(lp4173
g57
(g78
g59
NtRp4174
(dp4175
g62
(dp4176
sg71
g4170
sg64
(lp4177
g57
(g58
g59
NtRp4178
(dp4179
g62
(dp4180
g70
I2
ssg71
g4174
sg64
(lp4181
g57
(g66
g59
NtRp4182
(dp4183
g62
(dp4184
g70
I1
ssg71
Nsg64
(lp4185
g57
(g73
g59
NtRp4186
(dp4187
g62
(dp4188
sg71
g4182
sg64
(lp4189
g57
(g78
g59
NtRp4190
(dp4191
g62
(dp4192
sg71
g4186
sg64
(lp4193
g57
(g58
g59
NtRp4194
(dp4195
g62
(dp4196
g70
I1
ssg71
g4190
sg64
(lp4197
g3949
(S't\x06\x00\x00\x00Layout'
tRp4198
asbasbasbag57
(g73
g59
NtRp4199
(dp4200
g62
(dp4201
sg71
g4182
sg64
(lp4202
g57
(g78
g59
NtRp4203
(dp4204
g62
(dp4205
sg71
g4199
sg64
(lp4206
g57
(g58
g59
NtRp4207
(dp4208
g62
(dp4209
g70
I1
ssg71
g4203
sg64
(lp4210
I00
asbasbasbag57
(g73
g59
NtRp4211
(dp4212
g62
(dp4213
sg71
g4182
sg64
(lp4214
g57
(g78
g59
NtRp4215
(dp4216
g62
(dp4217
sg71
g4211
sg64
(lp4218
g57
(g58
g59
NtRp4219
(dp4220
g62
(dp4221
g70
I1
ssg71
g4215
sg64
(lp4222
S'/admin/default/edit/init/views/layout.html'
p4223
asbasbasbasbasbasbasbag57
(g73
g59
NtRp4224
(dp4225
g62
(dp4226
sg71
g4058
sg64
(lp4227
g57
(g78
g59
NtRp4228
(dp4229
g62
(dp4230
sg71
g4224
sg64
(lp4231
g57
(g58
g59
NtRp4232
(dp4233
g62
(dp4234
g70
I2
ssg71
g4228
sg64
(lp4235
g57
(g66
g59
NtRp4236
(dp4237
g62
(dp4238
g70
I1
ssg71
Nsg64
(lp4239
g57
(g73
g59
NtRp4240
(dp4241
g62
(dp4242
sg71
g4236
sg64
(lp4243
g57
(g78
g59
NtRp4244
(dp4245
g62
(dp4246
sg71
g4240
sg64
(lp4247
g57
(g58
g59
NtRp4248
(dp4249
g62
(dp4250
g70
I1
ssg71
g4244
sg64
(lp4251
g3949
(S't\n\x00\x00\x00Stylesheet'
tRp4252
asbasbasbag57
(g73
g59
NtRp4253
(dp4254
g62
(dp4255
sg71
g4236
sg64
(lp4256
g57
(g78
g59
NtRp4257
(dp4258
g62
(dp4259
sg71
g4253
sg64
(lp4260
g57
(g58
g59
NtRp4261
(dp4262
g62
(dp4263
g70
I1
ssg71
g4257
sg64
(lp4264
I00
asbasbasbag57
(g73
g59
NtRp4265
(dp4266
g62
(dp4267
sg71
g4236
sg64
(lp4268
g57
(g78
g59
NtRp4269
(dp4270
g62
(dp4271
sg71
g4265
sg64
(lp4272
g57
(g58
g59
NtRp4273
(dp4274
g62
(dp4275
g70
I1
ssg71
g4269
sg64
(lp4276
S'/admin/default/edit/init/static/base.css'
p4277
asbasbasbasbasbasbasbag57
(g73
g59
NtRp4278
(dp4279
g62
(dp4280
sg71
g4058
sg64
(lp4281
g57
(g78
g59
NtRp4282
(dp4283
g62
(dp4284
sg71
g4278
sg64
(lp4285
g57
(g58
g59
NtRp4286
(dp4287
g62
(dp4288
g70
I2
ssg71
g4282
sg64
(lp4289
g57
(g66
g59
NtRp4290
(dp4291
g62
(dp4292
g70
I1
ssg71
Nsg64
(lp4293
g57
(g73
g59
NtRp4294
(dp4295
g62
(dp4296
sg71
g4290
sg64
(lp4297
g57
(g78
g59
NtRp4298
(dp4299
g62
(dp4300
sg71
g4294
sg64
(lp4301
g57
(g58
g59
NtRp4302
(dp4303
g62
(dp4304
g70
I1
ssg71
g4298
sg64
(lp4305
g3949
(S's\x08\x00\x00\x00DB Model'
tRp4306
asbasbasbag57
(g73
g59
NtRp4307
(dp4308
g62
(dp4309
sg71
g4290
sg64
(lp4310
g57
(g78
g59
NtRp4311
(dp4312
g62
(dp4313
sg71
g4307
sg64
(lp4314
g57
(g58
g59
NtRp4315
(dp4316
g62
(dp4317
g70
I1
ssg71
g4311
sg64
(lp4318
I00
asbasbasbag57
(g73
g59
NtRp4319
(dp4320
g62
(dp4321
sg71
g4290
sg64
(lp4322
g57
(g78
g59
NtRp4323
(dp4324
g62
(dp4325
sg71
g4319
sg64
(lp4326
g57
(g58
g59
NtRp4327
(dp4328
g62
(dp4329
g70
I1
ssg71
g4323
sg64
(lp4330
S'/admin/default/edit/init/models/db.py'
p4331
asbasbasbasbasbasbasbag57
(g73
g59
NtRp4332
(dp4333
g62
(dp4334
sg71
g4058
sg64
(lp4335
g57
(g78
g59
NtRp4336
(dp4337
g62
(dp4338
sg71
g4332
sg64
(lp4339
g57
(g58
g59
NtRp4340
(dp4341
g62
(dp4342
g70
I2
ssg71
g4336
sg64
(lp4343
g57
(g66
g59
NtRp4344
(dp4345
g62
(dp4346
g70
I1
ssg71
Nsg64
(lp4347
g57
(g73
g59
NtRp4348
(dp4349
g62
(dp4350
sg71
g4344
sg64
(lp4351
g57
(g78
g59
NtRp4352
(dp4353
g62
(dp4354
sg71
g4348
sg64
(lp4355
g57
(g58
g59
NtRp4356
(dp4357
g62
(dp4358
g70
I1
ssg71
g4352
sg64
(lp4359
g3949
(S's\n\x00\x00\x00Menu Model'
tRp4360
asbasbasbag57
(g73
g59
NtRp4361
(dp4362
g62
(dp4363
sg71
g4344
sg64
(lp4364
g57
(g78
g59
NtRp4365
(dp4366
g62
(dp4367
sg71
g4361
sg64
(lp4368
g57
(g58
g59
NtRp4369
(dp4370
g62
(dp4371
g70
I1
ssg71
g4365
sg64
(lp4372
I00
asbasbasbag57
(g73
g59
NtRp4373
(dp4374
g62
(dp4375
sg71
g4344
sg64
(lp4376
g57
(g78
g59
NtRp4377
(dp4378
g62
(dp4379
sg71
g4373
sg64
(lp4380
g57
(g58
g59
NtRp4381
(dp4382
g62
(dp4383
g70
I1
ssg71
g4377
sg64
(lp4384
S'/admin/default/edit/init/models/menu.py'
p4385
asbasbasbasbasbasbasbag57
(g73
g59
NtRp4386
(dp4387
g62
(dp4388
sg71
g4058
sg64
(lp4389
g57
(g78
g59
NtRp4390
(dp4391
g62
(dp4392
sg71
g4386
sg64
(lp4393
g57
(g58
g59
NtRp4394
(dp4395
g62
(dp4396
g70
I2
ssg71
g4390
sg64
(lp4397
g57
(g66
g59
NtRp4398
(dp4399
g62
(dp4400
g70
I1
ssg71
Nsg64
(lp4401
g57
(g73
g59
NtRp4402
(dp4403
g62
(dp4404
sg71
g4398
sg64
(lp4405
g57
(g78
g59
NtRp4406
(dp4407
g62
(dp4408
sg71
g4402
sg64
(lp4409
g57
(g58
g59
NtRp4410
(dp4411
g62
(dp4412
g70
I1
ssg71
g4406
sg64
(lp4413
g3949
(S't\x08\x00\x00\x00Database'
tRp4414
asbasbasbag57
(g73
g59
NtRp4415
(dp4416
g62
(dp4417
sg71
g4398
sg64
(lp4418
g57
(g78
g59
NtRp4419
(dp4420
g62
(dp4421
sg71
g4415
sg64
(lp4422
g57
(g58
g59
NtRp4423
(dp4424
g62
(dp4425
g70
I1
ssg71
g4419
sg64
(lp4426
I00
asbasbasbag57
(g73
g59
NtRp4427
(dp4428
g62
(dp4429
sg71
g4398
sg64
(lp4430
g57
(g78
g59
NtRp4431
(dp4432
g62
(dp4433
sg71
g4427
sg64
(lp4434
g57
(g58
g59
NtRp4435
(dp4436
g62
(dp4437
g70
I1
ssg71
g4431
sg64
(lp4438
S'/init/appadmin/index'
p4439
asbasbasbasbasbasbasbag57
(g73
g59
NtRp4440
(dp4441
g62
(dp4442
sg71
g4058
sg64
(lp4443
g57
(g78
g59
NtRp4444
(dp4445
g62
(dp4446
sg71
g4440
sg64
(lp4447
g57
(g58
g59
NtRp4448
(dp4449
g62
(dp4450
g70
I2
ssg71
g4444
sg64
(lp4451
g57
(g66
g59
NtRp4452
(dp4453
g62
(dp4454
g70
I1
ssg71
Nsg64
(lp4455
g57
(g73
g59
NtRp4456
(dp4457
g62
(dp4458
sg71
g4452
sg64
(lp4459
g57
(g78
g59
NtRp4460
(dp4461
g62
(dp4462
sg71
g4456
sg64
(lp4463
g57
(g58
g59
NtRp4464
(dp4465
g62
(dp4466
g70
I1
ssg71
g4460
sg64
(lp4467
g3949
(S't\x06\x00\x00\x00Errors'
tRp4468
asbasbasbag57
(g73
g59
NtRp4469
(dp4470
g62
(dp4471
sg71
g4452
sg64
(lp4472
g57
(g78
g59
NtRp4473
(dp4474
g62
(dp4475
sg71
g4469
sg64
(lp4476
g57
(g58
g59
NtRp4477
(dp4478
g62
(dp4479
g70
I1
ssg71
g4473
sg64
(lp4480
I00
asbasbasbag57
(g73
g59
NtRp4481
(dp4482
g62
(dp4483
sg71
g4452
sg64
(lp4484
g57
(g78
g59
NtRp4485
(dp4486
g62
(dp4487
sg71
g4481
sg64
(lp4488
g57
(g58
g59
NtRp4489
(dp4490
g62
(dp4491
g70
I1
ssg71
g4485
sg64
(lp4492
S'/admin/default/errors/init'
p4493
asbasbasbasbasbasbasbag57
(g73
g59
NtRp4494
(dp4495
g62
(dp4496
sg71
g4058
sg64
(lp4497
g57
(g78
g59
NtRp4498
(dp4499
g62
(dp4500
sg71
g4494
sg64
(lp4501
g57
(g58
g59
NtRp4502
(dp4503
g62
(dp4504
g70
I2
ssg71
g4498
sg64
(lp4505
g57
(g66
g59
NtRp4506
(dp4507
g62
(dp4508
g70
I1
ssg71
Nsg64
(lp4509
g57
(g73
g59
NtRp4510
(dp4511
g62
(dp4512
sg71
g4506
sg64
(lp4513
g57
(g78
g59
NtRp4514
(dp4515
g62
(dp4516
sg71
g4510
sg64
(lp4517
g57
(g58
g59
NtRp4518
(dp4519
g62
(dp4520
g70
I1
ssg71
g4514
sg64
(lp4521
g3949
(S't\x05\x00\x00\x00About'
tRp4522
asbasbasbag57
(g73
g59
NtRp4523
(dp4524
g62
(dp4525
sg71
g4506
sg64
(lp4526
g57
(g78
g59
NtRp4527
(dp4528
g62
(dp4529
sg71
g4523
sg64
(lp4530
g57
(g58
g59
NtRp4531
(dp4532
g62
(dp4533
g70
I1
ssg71
g4527
sg64
(lp4534
I00
asbasbasbag57
(g73
g59
NtRp4535
(dp4536
g62
(dp4537
sg71
g4506
sg64
(lp4538
g57
(g78
g59
NtRp4539
(dp4540
g62
(dp4541
sg71
g4535
sg64
(lp4542
g57
(g58
g59
NtRp4543
(dp4544
g62
(dp4545
g70
I1
ssg71
g4539
sg64
(lp4546
S'/admin/default/about/init'
p4547
asbasbasbasbasbasbasbasbasbasbasbasbasbasbasbag57
(g73
g59
NtRp4548
(dp4549
g62
(dp4550
sg71
g3917
sg64
(lp4551
g57
(g78
g59
NtRp4552
(dp4553
g62
(dp4554
sg71
g4548
sg64
(lp4555
g57
(g58
g59
NtRp4556
(dp4557
g62
(dp4558
g70
I4
ssg71
g4552
sg64
(lp4559
g57
(g66
g59
NtRp4560
(dp4561
g62
(dp4562
g70
I3
ssg71
Nsg64
(lp4563
g57
(g73
g59
NtRp4564
(dp4565
g62
(dp4566
sg71
g4560
sg64
(lp4567
g57
(g78
g59
NtRp4568
(dp4569
g62
(dp4570
sg71
g4564
sg64
(lp4571
g57
(g58
g59
NtRp4572
(dp4573
g62
(dp4574
g70
I3
ssg71
g4568
sg64
(lp4575
g3949
(S't\t\x00\x00\x00Resources'
tRp4576
asbasbasbag57
(g73
g59
NtRp4577
(dp4578
g62
(dp4579
sg71
g4560
sg64
(lp4580
g57
(g78
g59
NtRp4581
(dp4582
g62
(dp4583
sg71
g4577
sg64
(lp4584
g57
(g58
g59
NtRp4585
(dp4586
g62
(dp4587
g70
I3
ssg71
g4581
sg64
(lp4588
g100
asbasbasbag57
(g73
g59
NtRp4589
(dp4590
g62
(dp4591
sg71
g4560
sg64
(lp4592
g57
(g78
g59
NtRp4593
(dp4594
g62
(dp4595
sg71
g4589
sg64
(lp4596
g57
(g58
g59
NtRp4597
(dp4598
g62
(dp4599
g70
I3
ssg71
g4593
sg64
(lp4600
S'None'
p4601
asbasbasbag57
(g73
g59
NtRp4602
(dp4603
g62
(dp4604
sg71
g4560
sg64
(lp4605
g57
(g78
g59
NtRp4606
(dp4607
g62
(dp4608
sg71
g4602
sg64
(lp4609
g57
(g58
g59
NtRp4610
(dp4611
g62
(dp4612
g70
I3
ssg71
g4606
sg64
(lp4613
g57
(g66
g59
NtRp4614
(dp4615
g62
(dp4616
g70
I2
ssg71
Nsg64
(lp4617
g57
(g73
g59
NtRp4618
(dp4619
g62
(dp4620
sg71
g4614
sg64
(lp4621
g57
(g78
g59
NtRp4622
(dp4623
g62
(dp4624
sg71
g4618
sg64
(lp4625
g57
(g58
g59
NtRp4626
(dp4627
g62
(dp4628
g70
I2
ssg71
g4622
sg64
(lp4629
g57
(g66
g59
NtRp4630
(dp4631
g62
(dp4632
g70
I1
ssg71
Nsg64
(lp4633
g57
(g73
g59
NtRp4634
(dp4635
g62
(dp4636
sg71
g4630
sg64
(lp4637
g57
(g78
g59
NtRp4638
(dp4639
g62
(dp4640
sg71
g4634
sg64
(lp4641
g57
(g58
g59
NtRp4642
(dp4643
g62
(dp4644
g70
I1
ssg71
g4638
sg64
(lp4645
g3949
(S't\r\x00\x00\x00Documentation'
tRp4646
asbasbasbag57
(g73
g59
NtRp4647
(dp4648
g62
(dp4649
sg71
g4630
sg64
(lp4650
g57
(g78
g59
NtRp4651
(dp4652
g62
(dp4653
sg71
g4647
sg64
(lp4654
g57
(g58
g59
NtRp4655
(dp4656
g62
(dp4657
g70
I1
ssg71
g4651
sg64
(lp4658
I00
asbasbasbag57
(g73
g59
NtRp4659
(dp4660
g62
(dp4661
sg71
g4630
sg64
(lp4662
g57
(g78
g59
NtRp4663
(dp4664
g62
(dp4665
sg71
g4659
sg64
(lp4666
g57
(g58
g59
NtRp4667
(dp4668
g62
(dp4669
g70
I1
ssg71
g4663
sg64
(lp4670
S'http://www.web2py.com/book'
p4671
asbasbasbag57
(g73
g59
NtRp4672
(dp4673
g62
(dp4674
sg71
g4630
sg64
(lp4675
g57
(g78
g59
NtRp4676
(dp4677
g62
(dp4678
sg71
g4672
sg64
(lp4679
g57
(g58
g59
NtRp4680
(dp4681
g62
(dp4682
g70
I1
ssg71
g4676
sg64
(lp4683
(lp4684
(g3949
(S't\x07\x00\x00\x00Preface'
tRp4685
I00
S'http://www.web2py.com/book/default/chapter/00'
p4686
tp4687
a(g3949
(S't\x0c\x00\x00\x00Introduction'
tRp4688
I00
S'http://www.web2py.com/book/default/chapter/01'
p4689
tp4690
a(g3949
(S't\x06\x00\x00\x00Python'
tRp4691
I00
S'http://www.web2py.com/book/default/chapter/02'
p4692
tp4693
a(g3949
(S't\x08\x00\x00\x00Overview'
tRp4694
I00
S'http://www.web2py.com/book/default/chapter/03'
p4695
tp4696
a(g3949
(S's\x08\x00\x00\x00The Core'
tRp4697
I00
S'http://www.web2py.com/book/default/chapter/04'
p4698
tp4699
a(g3949
(S's\t\x00\x00\x00The Views'
tRp4700
I00
S'http://www.web2py.com/book/default/chapter/05'
p4701
tp4702
a(g3949
(S't\x08\x00\x00\x00Database'
tRp4703
I00
S'http://www.web2py.com/book/default/chapter/06'
p4704
tp4705
a(g3949
(S's\x14\x00\x00\x00Forms and Validators'
tRp4706
I00
S'http://www.web2py.com/book/default/chapter/07'
p4707
tp4708
a(g3949
(S's\x0e\x00\x00\x00Access Control'
tRp4709
I00
S'http://www.web2py.com/book/default/chapter/08'
p4710
tp4711
a(g3949
(S't\x08\x00\x00\x00Services'
tRp4712
I00
S'http://www.web2py.com/book/default/chapter/09'
p4713
tp4714
a(g3949
(S's\x0c\x00\x00\x00Ajax Recipes'
tRp4715
I00
S'http://www.web2py.com/book/default/chapter/10'
p4716
tp4717
a(g3949
(S's\x12\x00\x00\x00Deployment Recipes'
tRp4718
I00
S'http://www.web2py.com/book/default/chapter/11'
p4719
tp4720
a(g3949
(S's\r\x00\x00\x00Other Recipes'
tRp4721
I00
S'http://www.web2py.com/book/default/chapter/12'
p4722
tp4723
a(g3949
(S's\r\x00\x00\x00Buy this book'
tRp4724
I00
S'http://stores.lulu.com/web2py'
p4725
tp4726
aasbasbasbasbasbasbasbag57
(g73
g59
NtRp4727
(dp4728
g62
(dp4729
sg71
g4614
sg64
(lp4730
g57
(g78
g59
NtRp4731
(dp4732
g62
(dp4733
sg71
g4727
sg64
(lp4734
g57
(g58
g59
NtRp4735
(dp4736
g62
(dp4737
g70
I2
ssg71
g4731
sg64
(lp4738
g57
(g66
g59
NtRp4739
(dp4740
g62
(dp4741
g70
I1
ssg71
Nsg64
(lp4742
g57
(g73
g59
NtRp4743
(dp4744
g62
(dp4745
sg71
g4739
sg64
(lp4746
g57
(g78
g59
NtRp4747
(dp4748
g62
(dp4749
sg71
g4743
sg64
(lp4750
g57
(g58
g59
NtRp4751
(dp4752
g62
(dp4753
g70
I1
ssg71
g4747
sg64
(lp4754
g3949
(S't\t\x00\x00\x00Community'
tRp4755
asbasbasbag57
(g73
g59
NtRp4756
(dp4757
g62
(dp4758
sg71
g4739
sg64
(lp4759
g57
(g78
g59
NtRp4760
(dp4761
g62
(dp4762
sg71
g4756
sg64
(lp4763
g57
(g58
g59
NtRp4764
(dp4765
g62
(dp4766
g70
I1
ssg71
g4760
sg64
(lp4767
I00
asbasbasbag57
(g73
g59
NtRp4768
(dp4769
g62
(dp4770
sg71
g4739
sg64
(lp4771
g57
(g78
g59
NtRp4772
(dp4773
g62
(dp4774
sg71
g4768
sg64
(lp4775
g57
(g58
g59
NtRp4776
(dp4777
g62
(dp4778
g70
I1
ssg71
g4772
sg64
(lp4779
Nasbasbasbag57
(g73
g59
NtRp4780
(dp4781
g62
(dp4782
sg71
g4739
sg64
(lp4783
g57
(g78
g59
NtRp4784
(dp4785
g62
(dp4786
sg71
g4780
sg64
(lp4787
g57
(g58
g59
NtRp4788
(dp4789
g62
(dp4790
g70
I1
ssg71
g4784
sg64
(lp4791
(lp4792
(g3949
(S't\x06\x00\x00\x00Groups'
tRp4793
I00
S'http://www.web2py.com/examples/default/usergroups'
p4794
tp4795
a(g3949
(S't\x07\x00\x00\x00Twitter'
tRp4796
I00
S'http://twitter.com/web2py'
p4797
tp4798
a(g3949
(S's\t\x00\x00\x00Live chat'
tRp4799
I00
S'http://mibbit.com/?channel=%23web2py&server=irc.mibbit.net'
p4800
tp4801
a(g3949
(S's\n\x00\x00\x00User Voice'
tRp4802
I00
S'http://web2py.uservoice.com/'
p4803
tp4804
aasbasbasbasbasbasbasbag57
(g73
g59
NtRp4805
(dp4806
g62
(dp4807
sg71
g4614
sg64
(lp4808
g57
(g78
g59
NtRp4809
(dp4810
g62
(dp4811
sg71
g4805
sg64
(lp4812
g57
(g58
g59
NtRp4813
(dp4814
g62
(dp4815
g70
I2
ssg71
g4809
sg64
(lp4816
g57
(g66
g59
NtRp4817
(dp4818
g62
(dp4819
g70
I1
ssg71
Nsg64
(lp4820
g57
(g73
g59
NtRp4821
(dp4822
g62
(dp4823
sg71
g4817
sg64
(lp4824
g57
(g78
g59
NtRp4825
(dp4826
g62
(dp4827
sg71
g4821
sg64
(lp4828
g57
(g58
g59
NtRp4829
(dp4830
g62
(dp4831
g70
I1
ssg71
g4825
sg64
(lp4832
g3949
(S't\x06\x00\x00\x00Web2py'
tRp4833
asbasbasbag57
(g73
g59
NtRp4834
(dp4835
g62
(dp4836
sg71
g4817
sg64
(lp4837
g57
(g78
g59
NtRp4838
(dp4839
g62
(dp4840
sg71
g4834
sg64
(lp4841
g57
(g58
g59
NtRp4842
(dp4843
g62
(dp4844
g70
I1
ssg71
g4838
sg64
(lp4845
I00
asbasbasbag57
(g73
g59
NtRp4846
(dp4847
g62
(dp4848
sg71
g4817
sg64
(lp4849
g57
(g78
g59
NtRp4850
(dp4851
g62
(dp4852
sg71
g4846
sg64
(lp4853
g57
(g58
g59
NtRp4854
(dp4855
g62
(dp4856
g70
I1
ssg71
g4850
sg64
(lp4857
S'http://www.web2py.com'
p4858
asbasbasbag57
(g73
g59
NtRp4859
(dp4860
g62
(dp4861
sg71
g4817
sg64
(lp4862
g57
(g78
g59
NtRp4863
(dp4864
g62
(dp4865
sg71
g4859
sg64
(lp4866
g57
(g58
g59
NtRp4867
(dp4868
g62
(dp4869
g70
I1
ssg71
g4863
sg64
(lp4870
(lp4871
(g3949
(S't\x08\x00\x00\x00Download'
tRp4872
I00
S'http://www.web2py.com/examples/default/download'
p4873
tp4874
a(g3949
(S't\x07\x00\x00\x00Support'
tRp4875
I00
S'http://www.web2py.com/examples/default/support'
p4876
tp4877
a(g3949
(S's\x0e\x00\x00\x00Quick Examples'
tRp4878
I00
S'http://web2py.com/examples/default/examples'
p4879
tp4880
a(g3949
(S't\x03\x00\x00\x00FAQ'
tRp4881
I00
S'http://web2py.com/AlterEgo'
p4882
tp4883
a(g3949
(S's\x11\x00\x00\x00Free Applications'
tRp4884
I00
S'http://web2py.com/appliances'
p4885
tp4886
a(g3949
(S't\x07\x00\x00\x00Plugins'
tRp4887
I00
S'http://web2py.com/plugins'
p4888
tp4889
a(g3949
(S't\x07\x00\x00\x00Recipes'
tRp4890
I00
S'http://web2pyslices.com/'
p4891
tp4892
a(g3949
(S't\x04\x00\x00\x00Demo'
tRp4893
I00
S'http://web2py.com/demo_admin'
p4894
tp4895
a(g3949
(S't\x08\x00\x00\x00Semantic'
tRp4896
I00
S'http://web2py.com/semantic'
p4897
tp4898
a(g3949
(S't\x07\x00\x00\x00Layouts'
tRp4899
I00
S'http://web2py.com/layouts'
p4900
tp4901
a(g3949
(S't\x06\x00\x00\x00Videos'
tRp4902
I00
S'http://www.web2py.com/examples/default/videos/'
p4903
tp4904
aasbasbasbasbasbasbasbasbasbasbasbasbasbasbasbasbasbasbasbag57
(g73
g59
NtRp4905
(dp4906
g62
(dp4907
sg71
g3444
sg64
(lp4908
g57
(g78
g59
NtRp4909
(dp4910
g62
(dp4911
g82
g83
ssg71
g4905
sg64
(lp4912
S'meta'
p4913
asbag57
(g78
g59
NtRp4914
(dp4915
g62
(dp4916
g89
g90
ssg71
g4905
sg64
(lp4917
S':'
asbag57
(g78
g59
NtRp4918
(dp4919
g62
(dp4920
sg71
g4905
sg64
(lp4921
g57
(g58
g59
NtRp4922
(dp4923
g62
(dp4924
g70
I5
ssg71
g4918
sg64
(lp4925
g57
(g66
g59
NtRp4926
(dp4927
g62
(dp4928
g70
I4
ssg71
Nsg64
(lp4929
g57
(g73
g59
NtRp4930
(dp4931
g62
(dp4932
sg71
g4926
sg64
(lp4933
g57
(g78
g59
NtRp4934
(dp4935
g62
(dp4936
g82
g83
ssg71
g4930
sg64
(lp4937
S'author'
p4938
asbag57
(g78
g59
NtRp4939
(dp4940
g62
(dp4941
g89
g90
ssg71
g4930
sg64
(lp4942
S':'
asbag57
(g78
g59
NtRp4943
(dp4944
g62
(dp4945
sg71
g4930
sg64
(lp4946
g57
(g58
g59
NtRp4947
(dp4948
g62
(dp4949
g70
I4
ssg71
g4943
sg64
(lp4950
S'Adrian Edwards'
p4951
asbasbasbag57
(g73
g59
NtRp4952
(dp4953
g62
(dp4954
sg71
g4926
sg64
(lp4955
g57
(g78
g59
NtRp4956
(dp4957
g62
(dp4958
g82
g83
ssg71
g4952
sg64
(lp4959
S'copyright'
p4960
asbag57
(g78
g59
NtRp4961
(dp4962
g62
(dp4963
g89
g90
ssg71
g4952
sg64
(lp4964
S':'
asbag57
(g78
g59
NtRp4965
(dp4966
g62
(dp4967
sg71
g4952
sg64
(lp4968
g57
(g58
g59
NtRp4969
(dp4970
g62
(dp4971
g70
I4
ssg71
g4965
sg64
(lp4972
S'Copyright 2011'
p4973
asbasbasbag57
(g73
g59
NtRp4974
(dp4975
g62
(dp4976
sg71
g4926
sg64
(lp4977
g57
(g78
g59
NtRp4978
(dp4979
g62
(dp4980
g82
g83
ssg71
g4974
sg64
(lp4981
S'description'
p4982
asbag57
(g78
g59
NtRp4983
(dp4984
g62
(dp4985
g89
g90
ssg71
g4974
sg64
(lp4986
S':'
asbag57
(g78
g59
NtRp4987
(dp4988
g62
(dp4989
sg71
g4974
sg64
(lp4990
g57
(g58
g59
NtRp4991
(dp4992
g62
(dp4993
g70
I4
ssg71
g4987
sg64
(lp4994
S'Fitness Challenge'
p4995
asbasbasbag57
(g73
g59
NtRp4996
(dp4997
g62
(dp4998
sg71
g4926
sg64
(lp4999
g57
(g78
g59
NtRp5000
(dp5001
g62
(dp5002
g82
g83
ssg71
g4996
sg64
(lp5003
S'generator'
p5004
asbag57
(g78
g59
NtRp5005
(dp5006
g62
(dp5007
g89
g90
ssg71
g4996
sg64
(lp5008
S':'
asbag57
(g78
g59
NtRp5009
(dp5010
g62
(dp5011
sg71
g4996
sg64
(lp5012
g57
(g58
g59
NtRp5013
(dp5014
g62
(dp5015
g70
I4
ssg71
g5009
sg64
(lp5016
S'Web2py Web Framework'
p5017
asbasbasbag57
(g73
g59
NtRp5018
(dp5019
g62
(dp5020
sg71
g4926
sg64
(lp5021
g57
(g78
g59
NtRp5022
(dp5023
g62
(dp5024
g82
g83
ssg71
g5018
sg64
(lp5025
S'keywords'
p5026
asbag57
(g78
g59
NtRp5027
(dp5028
g62
(dp5029
g89
g90
ssg71
g5018
sg64
(lp5030
S':'
asbag57
(g78
g59
NtRp5031
(dp5032
g62
(dp5033
sg71
g5018
sg64
(lp5034
g57
(g58
g59
NtRp5035
(dp5036
g62
(dp5037
g70
I4
ssg71
g5031
sg64
(lp5038
S'web2py, python, framework'
p5039
asbasbasbasbasbasbasbag57
(g73
g59
NtRp5040
(dp5041
g62
(dp5042
sg71
g3444
sg64
(lp5043
g57
(g78
g59
NtRp5044
(dp5045
g62
(dp5046
g82
g83
ssg71
g5040
sg64
(lp5047
S'postprocessing'
p5048
asbag57
(g78
g59
NtRp5049
(dp5050
g62
(dp5051
g89
g90
ssg71
g5040
sg64
(lp5052
S':'
asbag57
(g78
g59
NtRp5053
(dp5054
g62
(dp5055
sg71
g5040
sg64
(lp5056
g57
(g58
g59
NtRp5057
(dp5058
g62
(dp5059
g70
I5
ssg71
g5053
sg64
(lp5060
g57
(g66
g59
NtRp5061
(dp5062
g62
(dp5063
g70
I4
ssg71
Nsg64
(lp5064
sbasbasbasbag57
(g73
g59
NtRp5065
(dp5066
g62
(dp5067
sg71
g3444
sg64
(lp5068
g57
(g78
g59
NtRp5069
(dp5070
g62
(dp5071
g82
g83
ssg71
g5065
sg64
(lp5072
S'session_file'
p5073
asbag57
(g78
g59
NtRp5074
(dp5075
g62
(dp5076
g89
g90
ssg71
g5065
sg64
(lp5077
S':'
asbag57
(g78
g59
NtRp5078
(dp5079
g62
(dp5080
sg71
g5065
sg64
(lp5081
g57
(g58
g59
NtRp5082
(dp5083
g62
(dp5084
g70
I5
ssg71
g5078
sg64
(lp5085
S"<open file 'P:\\School\\DePaul\\Projects\\CSC_438\\web2py\\applications\\init\\sessions\\127.0.0.1-9ead22f2-1805-4695-8fc2-fa60ce6a0930', mode 'rb+' at 0x03BB9D88>"
p5086
asbasbasbag57
(g73
g59
NtRp5087
(dp5088
g62
(dp5089
sg71
g3444
sg64
(lp5090
g57
(g78
g59
NtRp5091
(dp5092
g62
(dp5093
g82
g83
ssg71
g5087
sg64
(lp5094
S'session_filename'
p5095
asbag57
(g78
g59
NtRp5096
(dp5097
g62
(dp5098
g89
g90
ssg71
g5087
sg64
(lp5099
S':'
asbag57
(g78
g59
NtRp5100
(dp5101
g62
(dp5102
sg71
g5087
sg64
(lp5103
g57
(g58
g59
NtRp5104
(dp5105
g62
(dp5106
g70
I5
ssg71
g5100
sg64
(lp5107
S'P:\\School\\DePaul\\Projects\\CSC_438\\web2py\\applications\\init\\sessions\\127.0.0.1-9ead22f2-1805-4695-8fc2-fa60ce6a0930'
p5108
asbasbasbag57
(g73
g59
NtRp5109
(dp5110
g62
(dp5111
sg71
g3444
sg64
(lp5112
g57
(g78
g59
NtRp5113
(dp5114
g62
(dp5115
g82
g83
ssg71
g5109
sg64
(lp5116
S'session_id'
p5117
asbag57
(g78
g59
NtRp5118
(dp5119
g62
(dp5120
g89
g90
ssg71
g5109
sg64
(lp5121
S':'
asbag57
(g78
g59
NtRp5122
(dp5123
g62
(dp5124
sg71
g5109
sg64
(lp5125
g57
(g58
g59
NtRp5126
(dp5127
g62
(dp5128
g70
I5
ssg71
g5122
sg64
(lp5129
S'127.0.0.1-9ead22f2-1805-4695-8fc2-fa60ce6a0930'
p5130
asbasbasbag57
(g73
g59
NtRp5131
(dp5132
g62
(dp5133
sg71
g3444
sg64
(lp5134
g57
(g78
g59
NtRp5135
(dp5136
g62
(dp5137
g82
g83
ssg71
g5131
sg64
(lp5138
S'session_id_name'
p5139
asbag57
(g78
g59
NtRp5140
(dp5141
g62
(dp5142
g89
g90
ssg71
g5131
sg64
(lp5143
S':'
asbag57
(g78
g59
NtRp5144
(dp5145
g62
(dp5146
sg71
g5131
sg64
(lp5147
g57
(g58
g59
NtRp5148
(dp5149
g62
(dp5150
g70
I5
ssg71
g5144
sg64
(lp5151
g3501
asbasbasbag57
(g73
g59
NtRp5152
(dp5153
g62
(dp5154
sg71
g3444
sg64
(lp5155
g57
(g78
g59
NtRp5156
(dp5157
g62
(dp5158
g82
g83
ssg71
g5152
sg64
(lp5159
S'session_locked'
p5160
asbag57
(g78
g59
NtRp5161
(dp5162
g62
(dp5163
g89
g90
ssg71
g5152
sg64
(lp5164
S':'
asbag57
(g78
g59
NtRp5165
(dp5166
g62
(dp5167
sg71
g5152
sg64
(lp5168
g57
(g58
g59
NtRp5169
(dp5170
g62
(dp5171
g70
I5
ssg71
g5165
sg64
(lp5172
g1473
asbasbasbag57
(g73
g59
NtRp5173
(dp5174
g62
(dp5175
sg71
g3444
sg64
(lp5176
g57
(g78
g59
NtRp5177
(dp5178
g62
(dp5179
g82
g83
ssg71
g5173
sg64
(lp5180
S'session_new'
p5181
asbag57
(g78
g59
NtRp5182
(dp5183
g62
(dp5184
g89
g90
ssg71
g5173
sg64
(lp5185
S':'
asbag57
(g78
g59
NtRp5186
(dp5187
g62
(dp5188
sg71
g5173
sg64
(lp5189
g57
(g58
g59
NtRp5190
(dp5191
g62
(dp5192
g70
I5
ssg71
g5186
sg64
(lp5193
g100
asbasbasbag57
(g73
g59
NtRp5194
(dp5195
g62
(dp5196
sg71
g3444
sg64
(lp5197
g57
(g78
g59
NtRp5198
(dp5199
g62
(dp5200
g82
g83
ssg71
g5194
sg64
(lp5201
S'status'
p5202
asbag57
(g78
g59
NtRp5203
(dp5204
g62
(dp5205
g89
g90
ssg71
g5194
sg64
(lp5206
S':'
asbag57
(g78
g59
NtRp5207
(dp5208
g62
(dp5209
sg71
g5194
sg64
(lp5210
g57
(g58
g59
NtRp5211
(dp5212
g62
(dp5213
g70
I5
ssg71
g5207
sg64
(lp5214
S'200'
p5215
asbasbasbag57
(g73
g59
NtRp5216
(dp5217
g62
(dp5218
sg71
g3444
sg64
(lp5219
g57
(g78
g59
NtRp5220
(dp5221
g62
(dp5222
g82
g83
ssg71
g5216
sg64
(lp5223
S'subtitle'
p5224
asbag57
(g78
g59
NtRp5225
(dp5226
g62
(dp5227
g89
g90
ssg71
g5216
sg64
(lp5228
S':'
asbag57
(g78
g59
NtRp5229
(dp5230
g62
(dp5231
sg71
g5216
sg64
(lp5232
g57
(g58
g59
NtRp5233
(dp5234
g62
(dp5235
g70
I5
ssg71
g5229
sg64
(lp5236
g3949
(S's\r\x00\x00\x00customize me!'
tRp5237
asbasbasbag57
(g73
g59
NtRp5238
(dp5239
g62
(dp5240
sg71
g3444
sg64
(lp5241
g57
(g78
g59
NtRp5242
(dp5243
g62
(dp5244
g82
g83
ssg71
g5238
sg64
(lp5245
S'title'
p5246
asbag57
(g78
g59
NtRp5247
(dp5248
g62
(dp5249
g89
g90
ssg71
g5238
sg64
(lp5250
S':'
asbag57
(g78
g59
NtRp5251
(dp5252
g62
(dp5253
sg71
g5238
sg64
(lp5254
g57
(g58
g59
NtRp5255
(dp5256
g62
(dp5257
g70
I5
ssg71
g5251
sg64
(lp5258
g122
asbasbasbag57
(g73
g59
NtRp5259
(dp5260
g62
(dp5261
sg71
g3444
sg64
(lp5262
g57
(g78
g59
NtRp5263
(dp5264
g62
(dp5265
g82
g83
ssg71
g5259
sg64
(lp5266
g2139
asbag57
(g78
g59
NtRp5267
(dp5268
g62
(dp5269
g89
g90
ssg71
g5259
sg64
(lp5270
S':'
asbag57
(g78
g59
NtRp5271
(dp5272
g62
(dp5273
sg71
g5259
sg64
(lp5274
g57
(g58
g59
NtRp5275
(dp5276
g62
(dp5277
g70
I5
ssg71
g5271
sg64
(lp5278
g2152
asbasbasbag57
(g73
g59
NtRp5279
(dp5280
g62
(dp5281
sg71
g3444
sg64
(lp5282
g57
(g78
g59
NtRp5283
(dp5284
g62
(dp5285
g82
g83
ssg71
g5279
sg64
(lp5286
S'view'
p5287
asbag57
(g78
g59
NtRp5288
(dp5289
g62
(dp5290
g89
g90
ssg71
g5279
sg64
(lp5291
S':'
asbag57
(g78
g59
NtRp5292
(dp5293
g62
(dp5294
sg71
g5279
sg64
(lp5295
g57
(g58
g59
NtRp5296
(dp5297
g62
(dp5298
g70
I5
ssg71
g5292
sg64
(lp5299
S'default/edit.html'
p5300
asbasbasbasbasbsS'locals'
p5301
(dp5302
S'self'
p5303
S"<DAL {'auth_event': <Table {'origin': <gluon.dal...'_id': <gluon.dal.Field object at 0x080F38B0>}>}>"
p5304
sS'key'
p5305
S"'event'"
p5306
sssS'traceback'
p5307
S'Traceback (most recent call last):\n  File "P:\\School\\DePaul\\Projects\\CSC_438\\web2py\\gluon\\restricted.py", line 204, in restricted\n    exec ccode in environment\n  File "P:\\School\\DePaul\\Projects\\CSC_438\\web2py\\applications\\init\\controllers/default.py", line 314, in <module>\n  File "P:\\School\\DePaul\\Projects\\CSC_438\\web2py\\gluon\\globals.py", line 149, in <lambda>\n    self._caller = lambda f: f()\n  File "P:\\School\\DePaul\\Projects\\CSC_438\\web2py\\gluon\\tools.py", line 2483, in f\n    return action(*a, **b)\n  File "P:\\School\\DePaul\\Projects\\CSC_438\\web2py\\applications\\init\\controllers/default.py", line 61, in edit\n    db.event.participants.writable = False\n  File "P:\\School\\DePaul\\Projects\\CSC_438\\web2py\\gluon\\dal.py", line 4583, in __getattr__\n    return self[key]\n  File "P:\\School\\DePaul\\Projects\\CSC_438\\web2py\\gluon\\dal.py", line 4577, in __getitem__\n    return dict.__getitem__(self, str(key))\nKeyError: \'event\'\n'
p5308
s.