(dp1
S'output'
p2
S"<type 'exceptions.IndentationError'> expected an indented block (controllers/default.py, line 209)"
p3
sS'layer'
p4
S'P:\\School\\DePaul\\Projects\\CSC_438\\web2py\\applications\\init\\controllers/default.py'
p5
sS'code'
p6
S'# -*- coding: utf-8 -*-\n# this file is released under public domain and you can use without limitations\n\n##### Page Functions #####\n@auth.requires_login()\ndef index():\n   redirect(URL(\'home\'))\n\ndef user():\n    """\n    exposes:\n    http://..../[app]/default/user/login\n    http://..../[app]/default/user/logout\n    http://..../[app]/default/user/register\n    http://..../[app]/default/user/profile\n    http://..../[app]/default/user/retrieve_password\n    http://..../[app]/default/user/change_password\n    use @auth.requires_login()\n        @auth.requires_membership(\'group name\')\n        @auth.requires_permission(\'read\',\'table name\',record_id)\n    to decorate functions that need access control\n    """\n\n    return dict(form=auth())\n\n## Users home page.\n@auth.requires_login()\ndef home():\n\n    db.events.name.represent = lambda name, row: A(name, _href=URL(\'home\'))\n        \n    ## get the challenges the users is currently enrolled in\n    query = db.events.participants.contains(auth.user.id)\n    events = db(query).select(orderby=db.events.name)\n\n    return dict(events=events)\n\n# Create a new challenge\n@auth.requires_login()\ndef create():\n\n    form = SQLFORM(db.events)\n         \n    if form.process(session=None, onvalidation=date_compare, formname=\'create\').accepted:\n        response.flash = \'form accepted\'\n        redirect(URL(\'home\'))\n    elif form.errors:\n        response.flash = \'form has errors\'\n    else:\n        response.flash = \'please fill the form\'\n \n    return dict(form = form)\n\n# Edit an existing Challenge. You can only edit challenges you created\n@auth.requires_login()\ndef edit():\n\n    event_id= request.vars.event\n    event_query = db.events.id == event_id\n    event = db(event_query).select().first()\n    db.events.participants.writable = False\n    \n    form= SQLFORM(db.events, event)\n    \n    if form.process(session=None, onvalidation=date_compare, formname=\'edit\').accepted:\n        response.flash = \'form accepted\'\n        redirect(URL(\'home\'))\n    elif form.errors:\n        response.flash = \'form has errors\'\n    else:\n        response.flash = \'please fill the form\'\n\n    return dict(form = form)\n    \n## View the details of a challenge        \n@auth.requires_login()\ndef challenge():\n\n    event_id= request.vars.event\n    event_query = db.events.id == event_id\n    form= db(event_query).select().first()\n    users = db(db.event_users.event == event_id).select()\n    \n    # Get the registered users for this event\n\n    # a bunch of selects used while testing the leaders board\n    # keeping them here for reference for now\n#    entries = db().select(db.entries.user, distinct=True)\n#    entries = db(db.event_users.event==event_id).select(db.event_users.event)\n#    entries = db(db.event_users.event==event_id).select(db.event_users.event, db.event_users.user_name)\n#    entries = db(db.event_users.event==event_id).select()      \n    \n    entries = db(db.entries.user.belongs(db(db.event_users.event==event_id).select())).\\\n        select(groupby=db.entries.user, orderby=~db.entries.date_entered)\n\n    num_users = len(users)        \n    form.writable = False\n\n    return dict(form=form, entries=entries, num_users=num_users)\n\n# User joins an existing Challenge\n@auth.requires_login()\ndef join():\n \n    event_id = request.vars.event\n    user = auth.user.id\n    goal = \'0\'\n    \n    # add this user to the event_users table\n    db.event_users.insert(event=event_id, user_name=user, goal=goal)\n \n    # update the event participants list with this user\n    event_update = db.events.id == event_id\n    event = db(event_update).select().first()\n    partcipants = event.participants\n    partcipants.append(auth.user.id)\n    update = db(event_update).update(participants=partcipants)\n        \n    redirect(URL(\'home\'))\n \n# User can see their entries and make a new entry\n@auth.requires_login()\ndef check_in():\n    import time\n    from datetime import date\n\n    event_id = request.vars.event\n    \n    # Get data for this Event\n    event = __get_event(event_id)\n    metric_name = event.metric_name\n    metric_type = event.metric_type\n    \n    # Get this users entries for this event\n    entries = __get_entries(event_id)\n    \n    # Get users registered for this Event\n    event_users = __get_event_users(event_id)\n    user = event_users.id\n    \n    # Check frequency\n    freq_result, err_msg = __check_frequency(event)\n    \n    # Check the date range of the event\n    if __check_date_range(event):\n        # Check the frequency range \n        if freq_result:\n            # check if there\'s already been an entry today\n            entry = db((db.entries.user == user) & (db.entries.date_entered == date.today())).select().first()\n        \n            if entry is None:\n                id = db.entries.insert(user=user, date_entered=date.today())                 \n                entry = db(db.entries.id == id).select().first()\n                exists = False\n            elif entry.value is not None:\n                exists = True\n        \n            db.entries.user.writable = False\n            db.entries.date_entered.writable = False\n    \n            form = SQLFORM(db.entries, entry)\n            \n#            if metric_type == \'BMI\':\n                #form = __calculate_BMI(entry)\n                \n            if form.process().accepted:\n                response.flash = \'form accepted\'\n                redirect(URL(r=request, f=\'challenge\', vars=dict(event=event.id)))\n            elif form.errors:\n                response.flash = \'form has errors\'\n            else:\n                response.flash = \'please fill the form\'\n    \n        # Out of frequency range, send the error message\n        else:\n            form = err_msg\n    # Out of date range so send error message\n    else:\n        form = "This Challenge is not currently active. You can not submit any entries"\n        \n    return dict(entries=entries, metric_name=metric_name, form=form)\n\n@auth.requires_login()\ndef search():\n\n    ## get all challenges\n    events = db(db.events).select(orderby=db.events.name)\n\n    return dict(events=events)\n        \n# display the contact page        \ndef contact():\n\n    return dict()\n\n# display the about page\ndef about():\n    \n    return dict()\n    \n##### Utility Functions #####    \n\n# Calculate BMI value\ndef __calculate_BMI(entry):\n    \n    \n\n# Check the frequency\ndef __check_frequency(event):\n    import time\n    from datetime import date\n    \n    date_entered = date.today()\n    start_date = event.start_date\n    todays_date = date.today()\n    timedelta = todays_date.day - start_date.day\n    \n    frequency = event.frequency\n    \n    if frequency == "Daily": \n        if timedelta % 1 == 0:\n            return(True, "")\n        else:\n            remainder = timedelta % 1\n            return(False, "It is not time to check-in yet. Check back in " + str(remainder) + " day")\n    if frequency == "Weekly":\n        if timedelta % 7 == 0:\n            return(True, "")\n        else:\n            remainder = timedelta % 7\n            return(False, "It is not time to check-in yet. Check back in " + str(remainder) + " days")\n        \n    # need to figure out a better way to handle months\n    if frequency == "Monthly":\n        if timedelta % 30 == 0:\n            return(True, "")\n        else:\n            remainder = timedelta % 30\n            return(False, "It is not time to check-in yet. Check back in " + str(remainder) + " days")\n\n    if frequency == "Single Day":\n        if timedelta % 1 == 0:\n            return(True, "")\n        else:\n            # this should never happen\n            remainder = timedelta % 1\n            return(False, "It is not time to check-in yet. Check back in " + str(remainder) + " day")\n\n# check if today is in between the start and end date of the challenge \ndef __check_date_range(event):\n    import time\n    from datetime import date\n    \n    start_date = event.start_date\n    end_date = event.end_date\n    result = False\n    if date.today() >= start_date:\n        if date.today() <= end_date:\n            result = True\n        \n    return(result)\n        \n# Get the users registered for this event\ndef get_users(event_id):\n\n    user_query = db.event_users.event == event_id\n    users = db(user_query).select()\n            \n    return (users)\n    \n# Get this users entries for the given event\ndef __get_entries(event_id):\n    \n    return(db(db.entries.user.belongs(db((db.event_users.event==event_id) & (db.event_users.user_name==auth.user.id)).select())).\\\n        select(orderby=db.entries.date_entered))\n\n# Get event users\ndef __get_event_users(event_id):\n    \n    return(db((db.event_users.event==event_id) & (db.event_users.user_name==auth.user.id)).select(groupby=db.event_users.user_name).first())\n\n    \n# Get event data for selected event\ndef __get_event(event_id):\n    \n    event_query = db.events.id == event_id\n    return (db(event_query).select().first())\n    \n\n# Make sure Start Date is less then End Date\ndef date_compare(form):\n    if form.vars.start_date > form.vars.end_date:\n        form.errors.end_date = \'End Date must be after Start Date\'\n\ndef download():\n    """\n    allows downloading of uploaded files\n    http://..../[app]/default/download/[filename]\n    """\n    return response.download(request,db)\n\n\ndef call():\n    """\n    exposes services. for example:\n    http://..../[app]/default/call/jsonrpc\n    decorate with @services.jsonrpc the functions to expose\n    supports xml, json, xmlrpc, jsonrpc, amfrpc, rss, csv\n    """\n    return service()\n\n\n@auth.requires_signature()\ndef data():\n    """\n    http://..../[app]/default/data/tables\n    http://..../[app]/default/data/create/[table]\n    http://..../[app]/default/data/read/[table]/[id]\n    http://..../[app]/default/data/update/[table]/[id]\n    http://..../[app]/default/data/delete/[table]/[id]\n    http://..../[app]/default/data/select/[table]\n    http://..../[app]/default/data/search/[table]\n    but URLs bust be signed, i.e. linked with\n      A(\'table\',_href=URL(\'data/tables\',user_signature=True))\n    or with the signed load operator\n      LOAD(\'default\',\'data.load\',args=\'tables\',ajax=True,user_signature=True)\n    """\n    return dict(form=crud())\n\nresponse._vars=response._caller(user)\n'
p7
sS'snapshot'
p8
(dp9
S'exception'
p10
(dp11
S'__getslice__'
p12
S"<method-wrapper '__getslice__' of exceptions.IndentationError object>"
p13
sS'text'
p14
S"'def __check_frequency(event):\\n'"
p15
sS'__str__'
p16
S"<method-wrapper '__str__' of exceptions.IndentationError object>"
p17
sS'__reduce__'
p18
S'<built-in method __reduce__ of exceptions.IndentationError object>'
p19
sS'__dict__'
p20
S'{}'
p21
sS'__sizeof__'
p22
S'<built-in method __sizeof__ of exceptions.IndentationError object>'
p23
sS'__init__'
p24
S"<method-wrapper '__init__' of exceptions.IndentationError object>"
p25
sS'__setattr__'
p26
S"<method-wrapper '__setattr__' of exceptions.IndentationError object>"
p27
sS'__reduce_ex__'
p28
S'<built-in method __reduce_ex__ of exceptions.IndentationError object>'
p29
sS'__new__'
p30
S'<built-in method __new__ of type object>'
p31
sS'__format__'
p32
S'<built-in method __format__ of exceptions.IndentationError object>'
p33
sS'__class__'
p34
S"<type 'exceptions.IndentationError'>"
p35
sS'filename'
p36
S"r'P:\\School\\DePaul\\Projects\\CSC_438\\web2py\\applications\\init\\controllers/default.py'"
p37
sS'lineno'
p38
S'209'
p39
sS'msg'
p40
S"'expected an indented block'"
p41
sS'__doc__'
p42
S"'Improper indentation.'"
p43
sS'__getitem__'
p44
S"<method-wrapper '__getitem__' of exceptions.IndentationError object>"
p45
sS'__setstate__'
p46
S'<built-in method __setstate__ of exceptions.IndentationError object>'
p47
sS'__getattribute__'
p48
S"<method-wrapper '__getattribute__' of exceptions.IndentationError object>"
p49
sS'print_file_and_line'
p50
S'None'
p51
sS'args'
p52
S"('expected an indented block', (r'P:\\School\\DePaul\\Projects\\CSC_438\\web2py\\applications\\init\\controllers/default.py', 209, 3, 'def __check_frequency(event):\\n'))"
p53
sS'__subclasshook__'
p54
S'<built-in method __subclasshook__ of type object>'
p55
sS'offset'
p56
S'3'
sS'__unicode__'
p57
S'<built-in method __unicode__ of exceptions.IndentationError object>'
p58
sS'__delattr__'
p59
S"<method-wrapper '__delattr__' of exceptions.IndentationError object>"
p60
sS'__repr__'
p61
S"<method-wrapper '__repr__' of exceptions.IndentationError object>"
p62
sS'__hash__'
p63
S"<method-wrapper '__hash__' of exceptions.IndentationError object>"
p64
ssS'evalue'
p65
S'expected an indented block (controllers/default.py, line 209)'
p66
sS'request'
p67
ccopy_reg
_reconstructor
p68
(cgluon.html
BEAUTIFY
p69
c__builtin__
object
p70
NtRp71
(dp72
S'attributes'
p73
(dp74
sS'components'
p75
(lp76
g68
(cgluon.html
TABLE
p77
g70
NtRp78
(dp79
g73
(dp80
S'level'
p81
I5
ssS'parent'
p82
Nsg75
(lp83
g68
(cgluon.html
TR
p84
g70
NtRp85
(dp86
g73
(dp87
sg82
g78
sg75
(lp88
g68
(cgluon.html
TD
p89
g70
NtRp90
(dp91
g73
(dp92
S'_style'
p93
S'font-weight:bold;vertical-align:top'
p94
ssg82
g85
sg75
(lp95
S'ajax'
p96
asbag68
(g89
g70
NtRp97
(dp98
g73
(dp99
S'_valign'
p100
S'top'
p101
ssg82
g85
sg75
(lp102
S':'
asbag68
(g89
g70
NtRp103
(dp104
g73
(dp105
sg82
g85
sg75
(lp106
g68
(g69
g70
NtRp107
(dp108
g73
(dp109
g81
I5
ssg82
g103
sg75
(lp110
S'False'
p111
asbasbasbag68
(g84
g70
NtRp112
(dp113
g73
(dp114
sg82
g78
sg75
(lp115
g68
(g89
g70
NtRp116
(dp117
g73
(dp118
g93
g94
ssg82
g112
sg75
(lp119
S'application'
p120
asbag68
(g89
g70
NtRp121
(dp122
g73
(dp123
g100
g101
ssg82
g112
sg75
(lp124
S':'
asbag68
(g89
g70
NtRp125
(dp126
g73
(dp127
sg82
g112
sg75
(lp128
g68
(g69
g70
NtRp129
(dp130
g73
(dp131
g81
I5
ssg82
g125
sg75
(lp132
S'init'
p133
asbasbasbag68
(g84
g70
NtRp134
(dp135
g73
(dp136
sg82
g78
sg75
(lp137
g68
(g89
g70
NtRp138
(dp139
g73
(dp140
g93
g94
ssg82
g134
sg75
(lp141
g52
asbag68
(g89
g70
NtRp142
(dp143
g73
(dp144
g100
g101
ssg82
g134
sg75
(lp145
S':'
asbag68
(g89
g70
NtRp146
(dp147
g73
(dp148
sg82
g134
sg75
(lp149
g68
(g69
g70
NtRp150
(dp151
g73
(dp152
g81
I5
ssg82
g146
sg75
(lp153
g68
(g77
g70
NtRp154
(dp155
g73
(dp156
g81
I4
ssg82
Nsg75
(lp157
g68
(g84
g70
NtRp158
(dp159
g73
(dp160
sg82
g154
sg75
(lp161
g68
(g89
g70
NtRp162
(dp163
g73
(dp164
sg82
g158
sg75
(lp165
g68
(g69
g70
NtRp166
(dp167
g73
(dp168
g81
I4
ssg82
g162
sg75
(lp169
S'login'
p170
asbasbasbasbasbasbasbag68
(g84
g70
NtRp171
(dp172
g73
(dp173
sg82
g78
sg75
(lp174
g68
(g89
g70
NtRp175
(dp176
g73
(dp177
g93
g94
ssg82
g171
sg75
(lp178
S'body'
p179
asbag68
(g89
g70
NtRp180
(dp181
g73
(dp182
g100
g101
ssg82
g171
sg75
(lp183
S':'
asbag68
(g89
g70
NtRp184
(dp185
g73
(dp186
sg82
g171
sg75
(lp187
g68
(g69
g70
NtRp188
(dp189
g73
(dp190
g81
I5
ssg82
g184
sg75
(lp191
S'<cStringIO.StringO object at 0x08CC7560>'
p192
asbasbasbag68
(g84
g70
NtRp193
(dp194
g73
(dp195
sg82
g78
sg75
(lp196
g68
(g89
g70
NtRp197
(dp198
g73
(dp199
g93
g94
ssg82
g193
sg75
(lp200
S'client'
p201
asbag68
(g89
g70
NtRp202
(dp203
g73
(dp204
g100
g101
ssg82
g193
sg75
(lp205
S':'
asbag68
(g89
g70
NtRp206
(dp207
g73
(dp208
sg82
g193
sg75
(lp209
g68
(g69
g70
NtRp210
(dp211
g73
(dp212
g81
I5
ssg82
g206
sg75
(lp213
S'127.0.0.1'
p214
asbasbasbag68
(g84
g70
NtRp215
(dp216
g73
(dp217
sg82
g78
sg75
(lp218
g68
(g89
g70
NtRp219
(dp220
g73
(dp221
g93
g94
ssg82
g215
sg75
(lp222
S'controller'
p223
asbag68
(g89
g70
NtRp224
(dp225
g73
(dp226
g100
g101
ssg82
g215
sg75
(lp227
S':'
asbag68
(g89
g70
NtRp228
(dp229
g73
(dp230
sg82
g215
sg75
(lp231
g68
(g69
g70
NtRp232
(dp233
g73
(dp234
g81
I5
ssg82
g228
sg75
(lp235
S'default'
p236
asbasbasbag68
(g84
g70
NtRp237
(dp238
g73
(dp239
sg82
g78
sg75
(lp240
g68
(g89
g70
NtRp241
(dp242
g73
(dp243
g93
g94
ssg82
g237
sg75
(lp244
S'cookies'
p245
asbag68
(g89
g70
NtRp246
(dp247
g73
(dp248
g100
g101
ssg82
g237
sg75
(lp249
S':'
asbag68
(g89
g70
NtRp250
(dp251
g73
(dp252
sg82
g237
sg75
(lp253
g68
(g69
g70
NtRp254
(dp255
g73
(dp256
g81
I5
ssg82
g250
sg75
(lp257
g68
(g77
g70
NtRp258
(dp259
g73
(dp260
g81
I4
ssg82
Nsg75
(lp261
g68
(g84
g70
NtRp262
(dp263
g73
(dp264
sg82
g258
sg75
(lp265
g68
(g89
g70
NtRp266
(dp267
g73
(dp268
g93
g94
ssg82
g262
sg75
(lp269
S'session_id_admin'
p270
asbag68
(g89
g70
NtRp271
(dp272
g73
(dp273
g100
g101
ssg82
g262
sg75
(lp274
S':'
asbag68
(g89
g70
NtRp275
(dp276
g73
(dp277
sg82
g262
sg75
(lp278
g68
(g69
g70
NtRp279
(dp280
g73
(dp281
g81
I4
ssg82
g275
sg75
(lp282
g68
(g77
g70
NtRp283
(dp284
g73
(dp285
g81
I3
ssg82
Nsg75
(lp286
g68
(g84
g70
NtRp287
(dp288
g73
(dp289
sg82
g283
sg75
(lp290
g68
(g89
g70
NtRp291
(dp292
g73
(dp293
g93
g94
ssg82
g287
sg75
(lp294
S'comment'
p295
asbag68
(g89
g70
NtRp296
(dp297
g73
(dp298
g100
g101
ssg82
g287
sg75
(lp299
S':'
asbag68
(g89
g70
NtRp300
(dp301
g73
(dp302
sg82
g287
sg75
(lp303
g68
(g69
g70
NtRp304
(dp305
g73
(dp306
g81
I3
ssg82
g300
sg75
(lp307
S''
asbasbasbag68
(g84
g70
NtRp308
(dp309
g73
(dp310
sg82
g283
sg75
(lp311
g68
(g89
g70
NtRp312
(dp313
g73
(dp314
g93
g94
ssg82
g308
sg75
(lp315
S'domain'
p316
asbag68
(g89
g70
NtRp317
(dp318
g73
(dp319
g100
g101
ssg82
g308
sg75
(lp320
S':'
asbag68
(g89
g70
NtRp321
(dp322
g73
(dp323
sg82
g308
sg75
(lp324
g68
(g69
g70
NtRp325
(dp326
g73
(dp327
g81
I3
ssg82
g321
sg75
(lp328
S''
asbasbasbag68
(g84
g70
NtRp329
(dp330
g73
(dp331
sg82
g283
sg75
(lp332
g68
(g89
g70
NtRp333
(dp334
g73
(dp335
g93
g94
ssg82
g329
sg75
(lp336
S'expires'
p337
asbag68
(g89
g70
NtRp338
(dp339
g73
(dp340
g100
g101
ssg82
g329
sg75
(lp341
S':'
asbag68
(g89
g70
NtRp342
(dp343
g73
(dp344
sg82
g329
sg75
(lp345
g68
(g69
g70
NtRp346
(dp347
g73
(dp348
g81
I3
ssg82
g342
sg75
(lp349
S''
asbasbasbag68
(g84
g70
NtRp350
(dp351
g73
(dp352
sg82
g283
sg75
(lp353
g68
(g89
g70
NtRp354
(dp355
g73
(dp356
g93
g94
ssg82
g350
sg75
(lp357
S'httponly'
p358
asbag68
(g89
g70
NtRp359
(dp360
g73
(dp361
g100
g101
ssg82
g350
sg75
(lp362
S':'
asbag68
(g89
g70
NtRp363
(dp364
g73
(dp365
sg82
g350
sg75
(lp366
g68
(g69
g70
NtRp367
(dp368
g73
(dp369
g81
I3
ssg82
g363
sg75
(lp370
S''
asbasbasbag68
(g84
g70
NtRp371
(dp372
g73
(dp373
sg82
g283
sg75
(lp374
g68
(g89
g70
NtRp375
(dp376
g73
(dp377
g93
g94
ssg82
g371
sg75
(lp378
S'max-age'
p379
asbag68
(g89
g70
NtRp380
(dp381
g73
(dp382
g100
g101
ssg82
g371
sg75
(lp383
S':'
asbag68
(g89
g70
NtRp384
(dp385
g73
(dp386
sg82
g371
sg75
(lp387
g68
(g69
g70
NtRp388
(dp389
g73
(dp390
g81
I3
ssg82
g384
sg75
(lp391
S''
asbasbasbag68
(g84
g70
NtRp392
(dp393
g73
(dp394
sg82
g283
sg75
(lp395
g68
(g89
g70
NtRp396
(dp397
g73
(dp398
g93
g94
ssg82
g392
sg75
(lp399
S'path'
p400
asbag68
(g89
g70
NtRp401
(dp402
g73
(dp403
g100
g101
ssg82
g392
sg75
(lp404
S':'
asbag68
(g89
g70
NtRp405
(dp406
g73
(dp407
sg82
g392
sg75
(lp408
g68
(g69
g70
NtRp409
(dp410
g73
(dp411
g81
I3
ssg82
g405
sg75
(lp412
S''
asbasbasbag68
(g84
g70
NtRp413
(dp414
g73
(dp415
sg82
g283
sg75
(lp416
g68
(g89
g70
NtRp417
(dp418
g73
(dp419
g93
g94
ssg82
g413
sg75
(lp420
S'secure'
p421
asbag68
(g89
g70
NtRp422
(dp423
g73
(dp424
g100
g101
ssg82
g413
sg75
(lp425
S':'
asbag68
(g89
g70
NtRp426
(dp427
g73
(dp428
sg82
g413
sg75
(lp429
g68
(g69
g70
NtRp430
(dp431
g73
(dp432
g81
I3
ssg82
g426
sg75
(lp433
S''
asbasbasbag68
(g84
g70
NtRp434
(dp435
g73
(dp436
sg82
g283
sg75
(lp437
g68
(g89
g70
NtRp438
(dp439
g73
(dp440
g93
g94
ssg82
g434
sg75
(lp441
S'version'
p442
asbag68
(g89
g70
NtRp443
(dp444
g73
(dp445
g100
g101
ssg82
g434
sg75
(lp446
S':'
asbag68
(g89
g70
NtRp447
(dp448
g73
(dp449
sg82
g434
sg75
(lp450
g68
(g69
g70
NtRp451
(dp452
g73
(dp453
g81
I3
ssg82
g447
sg75
(lp454
S''
asbasbasbasbasbasbasbag68
(g84
g70
NtRp455
(dp456
g73
(dp457
sg82
g258
sg75
(lp458
g68
(g89
g70
NtRp459
(dp460
g73
(dp461
g93
g94
ssg82
g455
sg75
(lp462
S'session_id_ff'
p463
asbag68
(g89
g70
NtRp464
(dp465
g73
(dp466
g100
g101
ssg82
g455
sg75
(lp467
S':'
asbag68
(g89
g70
NtRp468
(dp469
g73
(dp470
sg82
g455
sg75
(lp471
g68
(g69
g70
NtRp472
(dp473
g73
(dp474
g81
I4
ssg82
g468
sg75
(lp475
g68
(g77
g70
NtRp476
(dp477
g73
(dp478
g81
I3
ssg82
Nsg75
(lp479
g68
(g84
g70
NtRp480
(dp481
g73
(dp482
sg82
g476
sg75
(lp483
g68
(g89
g70
NtRp484
(dp485
g73
(dp486
g93
g94
ssg82
g480
sg75
(lp487
g295
asbag68
(g89
g70
NtRp488
(dp489
g73
(dp490
g100
g101
ssg82
g480
sg75
(lp491
S':'
asbag68
(g89
g70
NtRp492
(dp493
g73
(dp494
sg82
g480
sg75
(lp495
g68
(g69
g70
NtRp496
(dp497
g73
(dp498
g81
I3
ssg82
g492
sg75
(lp499
S''
asbasbasbag68
(g84
g70
NtRp500
(dp501
g73
(dp502
sg82
g476
sg75
(lp503
g68
(g89
g70
NtRp504
(dp505
g73
(dp506
g93
g94
ssg82
g500
sg75
(lp507
g316
asbag68
(g89
g70
NtRp508
(dp509
g73
(dp510
g100
g101
ssg82
g500
sg75
(lp511
S':'
asbag68
(g89
g70
NtRp512
(dp513
g73
(dp514
sg82
g500
sg75
(lp515
g68
(g69
g70
NtRp516
(dp517
g73
(dp518
g81
I3
ssg82
g512
sg75
(lp519
S''
asbasbasbag68
(g84
g70
NtRp520
(dp521
g73
(dp522
sg82
g476
sg75
(lp523
g68
(g89
g70
NtRp524
(dp525
g73
(dp526
g93
g94
ssg82
g520
sg75
(lp527
g337
asbag68
(g89
g70
NtRp528
(dp529
g73
(dp530
g100
g101
ssg82
g520
sg75
(lp531
S':'
asbag68
(g89
g70
NtRp532
(dp533
g73
(dp534
sg82
g520
sg75
(lp535
g68
(g69
g70
NtRp536
(dp537
g73
(dp538
g81
I3
ssg82
g532
sg75
(lp539
S''
asbasbasbag68
(g84
g70
NtRp540
(dp541
g73
(dp542
sg82
g476
sg75
(lp543
g68
(g89
g70
NtRp544
(dp545
g73
(dp546
g93
g94
ssg82
g540
sg75
(lp547
g358
asbag68
(g89
g70
NtRp548
(dp549
g73
(dp550
g100
g101
ssg82
g540
sg75
(lp551
S':'
asbag68
(g89
g70
NtRp552
(dp553
g73
(dp554
sg82
g540
sg75
(lp555
g68
(g69
g70
NtRp556
(dp557
g73
(dp558
g81
I3
ssg82
g552
sg75
(lp559
S''
asbasbasbag68
(g84
g70
NtRp560
(dp561
g73
(dp562
sg82
g476
sg75
(lp563
g68
(g89
g70
NtRp564
(dp565
g73
(dp566
g93
g94
ssg82
g560
sg75
(lp567
g379
asbag68
(g89
g70
NtRp568
(dp569
g73
(dp570
g100
g101
ssg82
g560
sg75
(lp571
S':'
asbag68
(g89
g70
NtRp572
(dp573
g73
(dp574
sg82
g560
sg75
(lp575
g68
(g69
g70
NtRp576
(dp577
g73
(dp578
g81
I3
ssg82
g572
sg75
(lp579
S''
asbasbasbag68
(g84
g70
NtRp580
(dp581
g73
(dp582
sg82
g476
sg75
(lp583
g68
(g89
g70
NtRp584
(dp585
g73
(dp586
g93
g94
ssg82
g580
sg75
(lp587
g400
asbag68
(g89
g70
NtRp588
(dp589
g73
(dp590
g100
g101
ssg82
g580
sg75
(lp591
S':'
asbag68
(g89
g70
NtRp592
(dp593
g73
(dp594
sg82
g580
sg75
(lp595
g68
(g69
g70
NtRp596
(dp597
g73
(dp598
g81
I3
ssg82
g592
sg75
(lp599
S''
asbasbasbag68
(g84
g70
NtRp600
(dp601
g73
(dp602
sg82
g476
sg75
(lp603
g68
(g89
g70
NtRp604
(dp605
g73
(dp606
g93
g94
ssg82
g600
sg75
(lp607
g421
asbag68
(g89
g70
NtRp608
(dp609
g73
(dp610
g100
g101
ssg82
g600
sg75
(lp611
S':'
asbag68
(g89
g70
NtRp612
(dp613
g73
(dp614
sg82
g600
sg75
(lp615
g68
(g69
g70
NtRp616
(dp617
g73
(dp618
g81
I3
ssg82
g612
sg75
(lp619
S''
asbasbasbag68
(g84
g70
NtRp620
(dp621
g73
(dp622
sg82
g476
sg75
(lp623
g68
(g89
g70
NtRp624
(dp625
g73
(dp626
g93
g94
ssg82
g620
sg75
(lp627
g442
asbag68
(g89
g70
NtRp628
(dp629
g73
(dp630
g100
g101
ssg82
g620
sg75
(lp631
S':'
asbag68
(g89
g70
NtRp632
(dp633
g73
(dp634
sg82
g620
sg75
(lp635
g68
(g69
g70
NtRp636
(dp637
g73
(dp638
g81
I3
ssg82
g632
sg75
(lp639
S''
asbasbasbasbasbasbasbag68
(g84
g70
NtRp640
(dp641
g73
(dp642
sg82
g258
sg75
(lp643
g68
(g89
g70
NtRp644
(dp645
g73
(dp646
g93
g94
ssg82
g640
sg75
(lp647
S'session_id_init'
p648
asbag68
(g89
g70
NtRp649
(dp650
g73
(dp651
g100
g101
ssg82
g640
sg75
(lp652
S':'
asbag68
(g89
g70
NtRp653
(dp654
g73
(dp655
sg82
g640
sg75
(lp656
g68
(g69
g70
NtRp657
(dp658
g73
(dp659
g81
I4
ssg82
g653
sg75
(lp660
g68
(g77
g70
NtRp661
(dp662
g73
(dp663
g81
I3
ssg82
Nsg75
(lp664
g68
(g84
g70
NtRp665
(dp666
g73
(dp667
sg82
g661
sg75
(lp668
g68
(g89
g70
NtRp669
(dp670
g73
(dp671
g93
g94
ssg82
g665
sg75
(lp672
g295
asbag68
(g89
g70
NtRp673
(dp674
g73
(dp675
g100
g101
ssg82
g665
sg75
(lp676
S':'
asbag68
(g89
g70
NtRp677
(dp678
g73
(dp679
sg82
g665
sg75
(lp680
g68
(g69
g70
NtRp681
(dp682
g73
(dp683
g81
I3
ssg82
g677
sg75
(lp684
S''
asbasbasbag68
(g84
g70
NtRp685
(dp686
g73
(dp687
sg82
g661
sg75
(lp688
g68
(g89
g70
NtRp689
(dp690
g73
(dp691
g93
g94
ssg82
g685
sg75
(lp692
g316
asbag68
(g89
g70
NtRp693
(dp694
g73
(dp695
g100
g101
ssg82
g685
sg75
(lp696
S':'
asbag68
(g89
g70
NtRp697
(dp698
g73
(dp699
sg82
g685
sg75
(lp700
g68
(g69
g70
NtRp701
(dp702
g73
(dp703
g81
I3
ssg82
g697
sg75
(lp704
S''
asbasbasbag68
(g84
g70
NtRp705
(dp706
g73
(dp707
sg82
g661
sg75
(lp708
g68
(g89
g70
NtRp709
(dp710
g73
(dp711
g93
g94
ssg82
g705
sg75
(lp712
g337
asbag68
(g89
g70
NtRp713
(dp714
g73
(dp715
g100
g101
ssg82
g705
sg75
(lp716
S':'
asbag68
(g89
g70
NtRp717
(dp718
g73
(dp719
sg82
g705
sg75
(lp720
g68
(g69
g70
NtRp721
(dp722
g73
(dp723
g81
I3
ssg82
g717
sg75
(lp724
S''
asbasbasbag68
(g84
g70
NtRp725
(dp726
g73
(dp727
sg82
g661
sg75
(lp728
g68
(g89
g70
NtRp729
(dp730
g73
(dp731
g93
g94
ssg82
g725
sg75
(lp732
g358
asbag68
(g89
g70
NtRp733
(dp734
g73
(dp735
g100
g101
ssg82
g725
sg75
(lp736
S':'
asbag68
(g89
g70
NtRp737
(dp738
g73
(dp739
sg82
g725
sg75
(lp740
g68
(g69
g70
NtRp741
(dp742
g73
(dp743
g81
I3
ssg82
g737
sg75
(lp744
S''
asbasbasbag68
(g84
g70
NtRp745
(dp746
g73
(dp747
sg82
g661
sg75
(lp748
g68
(g89
g70
NtRp749
(dp750
g73
(dp751
g93
g94
ssg82
g745
sg75
(lp752
g379
asbag68
(g89
g70
NtRp753
(dp754
g73
(dp755
g100
g101
ssg82
g745
sg75
(lp756
S':'
asbag68
(g89
g70
NtRp757
(dp758
g73
(dp759
sg82
g745
sg75
(lp760
g68
(g69
g70
NtRp761
(dp762
g73
(dp763
g81
I3
ssg82
g757
sg75
(lp764
S''
asbasbasbag68
(g84
g70
NtRp765
(dp766
g73
(dp767
sg82
g661
sg75
(lp768
g68
(g89
g70
NtRp769
(dp770
g73
(dp771
g93
g94
ssg82
g765
sg75
(lp772
g400
asbag68
(g89
g70
NtRp773
(dp774
g73
(dp775
g100
g101
ssg82
g765
sg75
(lp776
S':'
asbag68
(g89
g70
NtRp777
(dp778
g73
(dp779
sg82
g765
sg75
(lp780
g68
(g69
g70
NtRp781
(dp782
g73
(dp783
g81
I3
ssg82
g777
sg75
(lp784
S''
asbasbasbag68
(g84
g70
NtRp785
(dp786
g73
(dp787
sg82
g661
sg75
(lp788
g68
(g89
g70
NtRp789
(dp790
g73
(dp791
g93
g94
ssg82
g785
sg75
(lp792
g421
asbag68
(g89
g70
NtRp793
(dp794
g73
(dp795
g100
g101
ssg82
g785
sg75
(lp796
S':'
asbag68
(g89
g70
NtRp797
(dp798
g73
(dp799
sg82
g785
sg75
(lp800
g68
(g69
g70
NtRp801
(dp802
g73
(dp803
g81
I3
ssg82
g797
sg75
(lp804
S''
asbasbasbag68
(g84
g70
NtRp805
(dp806
g73
(dp807
sg82
g661
sg75
(lp808
g68
(g89
g70
NtRp809
(dp810
g73
(dp811
g93
g94
ssg82
g805
sg75
(lp812
g442
asbag68
(g89
g70
NtRp813
(dp814
g73
(dp815
g100
g101
ssg82
g805
sg75
(lp816
S':'
asbag68
(g89
g70
NtRp817
(dp818
g73
(dp819
sg82
g805
sg75
(lp820
g68
(g69
g70
NtRp821
(dp822
g73
(dp823
g81
I3
ssg82
g817
sg75
(lp824
S''
asbasbasbasbasbasbasbasbasbasbasbag68
(g84
g70
NtRp825
(dp826
g73
(dp827
sg82
g78
sg75
(lp828
g68
(g89
g70
NtRp829
(dp830
g73
(dp831
g93
g94
ssg82
g825
sg75
(lp832
S'env'
p833
asbag68
(g89
g70
NtRp834
(dp835
g73
(dp836
g100
g101
ssg82
g825
sg75
(lp837
S':'
asbag68
(g89
g70
NtRp838
(dp839
g73
(dp840
sg82
g825
sg75
(lp841
g68
(g69
g70
NtRp842
(dp843
g73
(dp844
g81
I5
ssg82
g838
sg75
(lp845
g68
(g77
g70
NtRp846
(dp847
g73
(dp848
g81
I4
ssg82
Nsg75
(lp849
g68
(g84
g70
NtRp850
(dp851
g73
(dp852
sg82
g846
sg75
(lp853
g68
(g89
g70
NtRp854
(dp855
g73
(dp856
g93
g94
ssg82
g850
sg75
(lp857
S'app_folders'
p858
asbag68
(g89
g70
NtRp859
(dp860
g73
(dp861
g100
g101
ssg82
g850
sg75
(lp862
S':'
asbag68
(g89
g70
NtRp863
(dp864
g73
(dp865
sg82
g850
sg75
(lp866
g68
(g69
g70
NtRp867
(dp868
g73
(dp869
g81
I4
ssg82
g863
sg75
(lp870
S"set(['P:\\\\School\\\\DePaul\\\\Projects\\\\CSC_438\\\\web2py\\\\applications\\\\init\\\\', 'P:\\\\School\\\\DePaul\\\\Projects\\\\CSC_438\\\\web2py\\\\applications\\\\admin\\\\', 'P:\\\\School\\\\DePaul\\\\Projects\\\\CSC_438\\\\web2py\\\\applications\\\\ff\\\\'])"
p871
asbasbasbag68
(g84
g70
NtRp872
(dp873
g73
(dp874
sg82
g846
sg75
(lp875
g68
(g89
g70
NtRp876
(dp877
g73
(dp878
g93
g94
ssg82
g872
sg75
(lp879
S'applications_parent'
p880
asbag68
(g89
g70
NtRp881
(dp882
g73
(dp883
g100
g101
ssg82
g872
sg75
(lp884
S':'
asbag68
(g89
g70
NtRp885
(dp886
g73
(dp887
sg82
g872
sg75
(lp888
g68
(g69
g70
NtRp889
(dp890
g73
(dp891
g81
I4
ssg82
g885
sg75
(lp892
S'P:\\School\\DePaul\\Projects\\CSC_438\\web2py'
p893
asbasbasbag68
(g84
g70
NtRp894
(dp895
g73
(dp896
sg82
g846
sg75
(lp897
g68
(g89
g70
NtRp898
(dp899
g73
(dp900
g93
g94
ssg82
g894
sg75
(lp901
S'cmd_args'
p902
asbag68
(g89
g70
NtRp903
(dp904
g73
(dp905
g100
g101
ssg82
g894
sg75
(lp906
S':'
asbag68
(g89
g70
NtRp907
(dp908
g73
(dp909
sg82
g894
sg75
(lp910
g68
(g69
g70
NtRp911
(dp912
g73
(dp913
g81
I4
ssg82
g907
sg75
(lp914
g68
(g77
g70
NtRp915
(dp916
g73
(dp917
g81
I3
ssg82
Nsg75
(lp918
sbasbasbasbag68
(g84
g70
NtRp919
(dp920
g73
(dp921
sg82
g846
sg75
(lp922
g68
(g89
g70
NtRp923
(dp924
g73
(dp925
g93
g94
ssg82
g919
sg75
(lp926
S'cmd_options'
p927
asbag68
(g89
g70
NtRp928
(dp929
g73
(dp930
g100
g101
ssg82
g919
sg75
(lp931
S':'
asbag68
(g89
g70
NtRp932
(dp933
g73
(dp934
sg82
g919
sg75
(lp935
g68
(g69
g70
NtRp936
(dp937
g73
(dp938
g81
I4
ssg82
g932
sg75
(lp939
S"<Values at 0x3504530: {'verbose': False, 'ip': '127.0.0.1', 'shutdown_timeout': 5, 'taskbar': False, 'nocron': False, 'pid_filename': 'httpserver.pid', 'maxthreads': None, 'softcron': False, 'server_name': 'Bishop-PC', 'bpython': False, 'nogui': False, 'port': 8000, 'extcron': False, 'debuglevel': 30, 'test': None, 'folder': 'P:\\\\School\\\\DePaul\\\\Projects\\\\CSC_438\\\\web2py', 'config': '', 'import_models': False, 'winservice': '', 'shell': None, 'run': '', 'log_filename': 'httpserver.log', 'args': [''], 'ssl_ca_certificate': None, 'scheduler': None, 'profiler_filename': None, 'ssl_private_key': '', 'password': '<ask>', 'request_queue_size': 5, 'ssl_certificate': '', 'cronjob': False, 'plain': False, 'quiet': False, 'interfaces': None, 'minthreads': None, 'timeout': 10, 'numthreads': None, 'nobanner': False}>"
p940
asbasbasbag68
(g84
g70
NtRp941
(dp942
g73
(dp943
sg82
g846
sg75
(lp944
g68
(g89
g70
NtRp945
(dp946
g73
(dp947
g93
g94
ssg82
g941
sg75
(lp948
S'db_sessions'
p949
asbag68
(g89
g70
NtRp950
(dp951
g73
(dp952
g100
g101
ssg82
g941
sg75
(lp953
S':'
asbag68
(g89
g70
NtRp954
(dp955
g73
(dp956
sg82
g941
sg75
(lp957
g68
(g69
g70
NtRp958
(dp959
g73
(dp960
g81
I4
ssg82
g954
sg75
(lp961
S'set([])'
p962
asbasbasbag68
(g84
g70
NtRp963
(dp964
g73
(dp965
sg82
g846
sg75
(lp966
g68
(g89
g70
NtRp967
(dp968
g73
(dp969
g93
g94
ssg82
g963
sg75
(lp970
S'debugging'
p971
asbag68
(g89
g70
NtRp972
(dp973
g73
(dp974
g100
g101
ssg82
g963
sg75
(lp975
S':'
asbag68
(g89
g70
NtRp976
(dp977
g73
(dp978
sg82
g963
sg75
(lp979
g68
(g69
g70
NtRp980
(dp981
g73
(dp982
g81
I4
ssg82
g976
sg75
(lp983
g111
asbasbasbag68
(g84
g70
NtRp984
(dp985
g73
(dp986
sg82
g846
sg75
(lp987
g68
(g89
g70
NtRp988
(dp989
g73
(dp990
g93
g94
ssg82
g984
sg75
(lp991
S'gluon_parent'
p992
asbag68
(g89
g70
NtRp993
(dp994
g73
(dp995
g100
g101
ssg82
g984
sg75
(lp996
S':'
asbag68
(g89
g70
NtRp997
(dp998
g73
(dp999
sg82
g984
sg75
(lp1000
g68
(g69
g70
NtRp1001
(dp1002
g73
(dp1003
g81
I4
ssg82
g997
sg75
(lp1004
S'P:\\School\\DePaul\\Projects\\CSC_438\\web2py'
p1005
asbasbasbag68
(g84
g70
NtRp1006
(dp1007
g73
(dp1008
sg82
g846
sg75
(lp1009
g68
(g89
g70
NtRp1010
(dp1011
g73
(dp1012
g93
g94
ssg82
g1006
sg75
(lp1013
S'http_accept'
p1014
asbag68
(g89
g70
NtRp1015
(dp1016
g73
(dp1017
g100
g101
ssg82
g1006
sg75
(lp1018
S':'
asbag68
(g89
g70
NtRp1019
(dp1020
g73
(dp1021
sg82
g1006
sg75
(lp1022
g68
(g69
g70
NtRp1023
(dp1024
g73
(dp1025
g81
I4
ssg82
g1019
sg75
(lp1026
S'text/html,application/xhtml+xml,application/xml;q=0.9,*/*;q=0.8'
p1027
asbasbasbag68
(g84
g70
NtRp1028
(dp1029
g73
(dp1030
sg82
g846
sg75
(lp1031
g68
(g89
g70
NtRp1032
(dp1033
g73
(dp1034
g93
g94
ssg82
g1028
sg75
(lp1035
S'http_accept_charset'
p1036
asbag68
(g89
g70
NtRp1037
(dp1038
g73
(dp1039
g100
g101
ssg82
g1028
sg75
(lp1040
S':'
asbag68
(g89
g70
NtRp1041
(dp1042
g73
(dp1043
sg82
g1028
sg75
(lp1044
g68
(g69
g70
NtRp1045
(dp1046
g73
(dp1047
g81
I4
ssg82
g1041
sg75
(lp1048
S'ISO-8859-1,utf-8;q=0.7,*;q=0.7'
p1049
asbasbasbag68
(g84
g70
NtRp1050
(dp1051
g73
(dp1052
sg82
g846
sg75
(lp1053
g68
(g89
g70
NtRp1054
(dp1055
g73
(dp1056
g93
g94
ssg82
g1050
sg75
(lp1057
S'http_accept_encoding'
p1058
asbag68
(g89
g70
NtRp1059
(dp1060
g73
(dp1061
g100
g101
ssg82
g1050
sg75
(lp1062
S':'
asbag68
(g89
g70
NtRp1063
(dp1064
g73
(dp1065
sg82
g1050
sg75
(lp1066
g68
(g69
g70
NtRp1067
(dp1068
g73
(dp1069
g81
I4
ssg82
g1063
sg75
(lp1070
S'gzip, deflate'
p1071
asbasbasbag68
(g84
g70
NtRp1072
(dp1073
g73
(dp1074
sg82
g846
sg75
(lp1075
g68
(g89
g70
NtRp1076
(dp1077
g73
(dp1078
g93
g94
ssg82
g1072
sg75
(lp1079
S'http_accept_language'
p1080
asbag68
(g89
g70
NtRp1081
(dp1082
g73
(dp1083
g100
g101
ssg82
g1072
sg75
(lp1084
S':'
asbag68
(g89
g70
NtRp1085
(dp1086
g73
(dp1087
sg82
g1072
sg75
(lp1088
g68
(g69
g70
NtRp1089
(dp1090
g73
(dp1091
g81
I4
ssg82
g1085
sg75
(lp1092
S'en-us,en;q=0.5'
p1093
asbasbasbag68
(g84
g70
NtRp1094
(dp1095
g73
(dp1096
sg82
g846
sg75
(lp1097
g68
(g89
g70
NtRp1098
(dp1099
g73
(dp1100
g93
g94
ssg82
g1094
sg75
(lp1101
S'http_cache_control'
p1102
asbag68
(g89
g70
NtRp1103
(dp1104
g73
(dp1105
g100
g101
ssg82
g1094
sg75
(lp1106
S':'
asbag68
(g89
g70
NtRp1107
(dp1108
g73
(dp1109
sg82
g1094
sg75
(lp1110
g68
(g69
g70
NtRp1111
(dp1112
g73
(dp1113
g81
I4
ssg82
g1107
sg75
(lp1114
S'max-age=0'
p1115
asbasbasbag68
(g84
g70
NtRp1116
(dp1117
g73
(dp1118
sg82
g846
sg75
(lp1119
g68
(g89
g70
NtRp1120
(dp1121
g73
(dp1122
g93
g94
ssg82
g1116
sg75
(lp1123
S'http_connection'
p1124
asbag68
(g89
g70
NtRp1125
(dp1126
g73
(dp1127
g100
g101
ssg82
g1116
sg75
(lp1128
S':'
asbag68
(g89
g70
NtRp1129
(dp1130
g73
(dp1131
sg82
g1116
sg75
(lp1132
g68
(g69
g70
NtRp1133
(dp1134
g73
(dp1135
g81
I4
ssg82
g1129
sg75
(lp1136
S'keep-alive'
p1137
asbasbasbag68
(g84
g70
NtRp1138
(dp1139
g73
(dp1140
sg82
g846
sg75
(lp1141
g68
(g89
g70
NtRp1142
(dp1143
g73
(dp1144
g93
g94
ssg82
g1138
sg75
(lp1145
S'http_cookie'
p1146
asbag68
(g89
g70
NtRp1147
(dp1148
g73
(dp1149
g100
g101
ssg82
g1138
sg75
(lp1150
S':'
asbag68
(g89
g70
NtRp1151
(dp1152
g73
(dp1153
sg82
g1138
sg75
(lp1154
g68
(g69
g70
NtRp1155
(dp1156
g73
(dp1157
g81
I4
ssg82
g1151
sg75
(lp1158
S'__utma_a2a=4518867300.1350888199.1319331273.1319375111.1319375111.5; session_id_init=127.0.0.1-36e39bc8-c9da-4df0-b68c-0d43564cf466; session_id_admin=127.0.0.1-675f482f-d27c-46c2-af94-4fefd58bcd96; session_id_ff=127.0.0.1-6af604a2-1532-423a-9e7d-8c33c1ef6c2c'
p1159
asbasbasbag68
(g84
g70
NtRp1160
(dp1161
g73
(dp1162
sg82
g846
sg75
(lp1163
g68
(g89
g70
NtRp1164
(dp1165
g73
(dp1166
g93
g94
ssg82
g1160
sg75
(lp1167
S'http_host'
p1168
asbag68
(g89
g70
NtRp1169
(dp1170
g73
(dp1171
g100
g101
ssg82
g1160
sg75
(lp1172
S':'
asbag68
(g89
g70
NtRp1173
(dp1174
g73
(dp1175
sg82
g1160
sg75
(lp1176
g68
(g69
g70
NtRp1177
(dp1178
g73
(dp1179
g81
I4
ssg82
g1173
sg75
(lp1180
S'127.0.0.1:8000'
p1181
asbasbasbag68
(g84
g70
NtRp1182
(dp1183
g73
(dp1184
sg82
g846
sg75
(lp1185
g68
(g89
g70
NtRp1186
(dp1187
g73
(dp1188
g93
g94
ssg82
g1182
sg75
(lp1189
S'http_referer'
p1190
asbag68
(g89
g70
NtRp1191
(dp1192
g73
(dp1193
g100
g101
ssg82
g1182
sg75
(lp1194
S':'
asbag68
(g89
g70
NtRp1195
(dp1196
g73
(dp1197
sg82
g1182
sg75
(lp1198
g68
(g69
g70
NtRp1199
(dp1200
g73
(dp1201
g81
I4
ssg82
g1195
sg75
(lp1202
S'http://127.0.0.1:8000/init/default/user/register'
p1203
asbasbasbag68
(g84
g70
NtRp1204
(dp1205
g73
(dp1206
sg82
g846
sg75
(lp1207
g68
(g89
g70
NtRp1208
(dp1209
g73
(dp1210
g93
g94
ssg82
g1204
sg75
(lp1211
S'http_user_agent'
p1212
asbag68
(g89
g70
NtRp1213
(dp1214
g73
(dp1215
g100
g101
ssg82
g1204
sg75
(lp1216
S':'
asbag68
(g89
g70
NtRp1217
(dp1218
g73
(dp1219
sg82
g1204
sg75
(lp1220
g68
(g69
g70
NtRp1221
(dp1222
g73
(dp1223
g81
I4
ssg82
g1217
sg75
(lp1224
S'Mozilla/5.0 (Windows NT 6.1; WOW64; rv:8.0.1) Gecko/20100101 Firefox/8.0.1'
p1225
asbasbasbag68
(g84
g70
NtRp1226
(dp1227
g73
(dp1228
sg82
g846
sg75
(lp1229
g68
(g89
g70
NtRp1230
(dp1231
g73
(dp1232
g93
g94
ssg82
g1226
sg75
(lp1233
S'is_jython'
p1234
asbag68
(g89
g70
NtRp1235
(dp1236
g73
(dp1237
g100
g101
ssg82
g1226
sg75
(lp1238
S':'
asbag68
(g89
g70
NtRp1239
(dp1240
g73
(dp1241
sg82
g1226
sg75
(lp1242
g68
(g69
g70
NtRp1243
(dp1244
g73
(dp1245
g81
I4
ssg82
g1239
sg75
(lp1246
g111
asbasbasbag68
(g84
g70
NtRp1247
(dp1248
g73
(dp1249
sg82
g846
sg75
(lp1250
g68
(g89
g70
NtRp1251
(dp1252
g73
(dp1253
g93
g94
ssg82
g1247
sg75
(lp1254
S'path_info'
p1255
asbag68
(g89
g70
NtRp1256
(dp1257
g73
(dp1258
g100
g101
ssg82
g1247
sg75
(lp1259
S':'
asbag68
(g89
g70
NtRp1260
(dp1261
g73
(dp1262
sg82
g1247
sg75
(lp1263
g68
(g69
g70
NtRp1264
(dp1265
g73
(dp1266
g81
I4
ssg82
g1260
sg75
(lp1267
S'/init/default/user/login'
p1268
asbasbasbag68
(g84
g70
NtRp1269
(dp1270
g73
(dp1271
sg82
g846
sg75
(lp1272
g68
(g89
g70
NtRp1273
(dp1274
g73
(dp1275
g93
g94
ssg82
g1269
sg75
(lp1276
S'query_string'
p1277
asbag68
(g89
g70
NtRp1278
(dp1279
g73
(dp1280
g100
g101
ssg82
g1269
sg75
(lp1281
S':'
asbag68
(g89
g70
NtRp1282
(dp1283
g73
(dp1284
sg82
g1269
sg75
(lp1285
g68
(g69
g70
NtRp1286
(dp1287
g73
(dp1288
g81
I4
ssg82
g1282
sg75
(lp1289
S'_next=/init/default/index'
p1290
asbasbasbag68
(g84
g70
NtRp1291
(dp1292
g73
(dp1293
sg82
g846
sg75
(lp1294
g68
(g89
g70
NtRp1295
(dp1296
g73
(dp1297
g93
g94
ssg82
g1291
sg75
(lp1298
S'remote_addr'
p1299
asbag68
(g89
g70
NtRp1300
(dp1301
g73
(dp1302
g100
g101
ssg82
g1291
sg75
(lp1303
S':'
asbag68
(g89
g70
NtRp1304
(dp1305
g73
(dp1306
sg82
g1291
sg75
(lp1307
g68
(g69
g70
NtRp1308
(dp1309
g73
(dp1310
g81
I4
ssg82
g1304
sg75
(lp1311
g214
asbasbasbag68
(g84
g70
NtRp1312
(dp1313
g73
(dp1314
sg82
g846
sg75
(lp1315
g68
(g89
g70
NtRp1316
(dp1317
g73
(dp1318
g93
g94
ssg82
g1312
sg75
(lp1319
S'remote_port'
p1320
asbag68
(g89
g70
NtRp1321
(dp1322
g73
(dp1323
g100
g101
ssg82
g1312
sg75
(lp1324
S':'
asbag68
(g89
g70
NtRp1325
(dp1326
g73
(dp1327
sg82
g1312
sg75
(lp1328
g68
(g69
g70
NtRp1329
(dp1330
g73
(dp1331
g81
I4
ssg82
g1325
sg75
(lp1332
S'51816'
p1333
asbasbasbag68
(g84
g70
NtRp1334
(dp1335
g73
(dp1336
sg82
g846
sg75
(lp1337
g68
(g89
g70
NtRp1338
(dp1339
g73
(dp1340
g93
g94
ssg82
g1334
sg75
(lp1341
S'request_method'
p1342
asbag68
(g89
g70
NtRp1343
(dp1344
g73
(dp1345
g100
g101
ssg82
g1334
sg75
(lp1346
S':'
asbag68
(g89
g70
NtRp1347
(dp1348
g73
(dp1349
sg82
g1334
sg75
(lp1350
g68
(g69
g70
NtRp1351
(dp1352
g73
(dp1353
g81
I4
ssg82
g1347
sg75
(lp1354
S'GET'
p1355
asbasbasbag68
(g84
g70
NtRp1356
(dp1357
g73
(dp1358
sg82
g846
sg75
(lp1359
g68
(g89
g70
NtRp1360
(dp1361
g73
(dp1362
g93
g94
ssg82
g1356
sg75
(lp1363
S'script_name'
p1364
asbag68
(g89
g70
NtRp1365
(dp1366
g73
(dp1367
g100
g101
ssg82
g1356
sg75
(lp1368
S':'
asbag68
(g89
g70
NtRp1369
(dp1370
g73
(dp1371
sg82
g1356
sg75
(lp1372
g68
(g69
g70
NtRp1373
(dp1374
g73
(dp1375
g81
I4
ssg82
g1369
sg75
(lp1376
S''
asbasbasbag68
(g84
g70
NtRp1377
(dp1378
g73
(dp1379
sg82
g846
sg75
(lp1380
g68
(g89
g70
NtRp1381
(dp1382
g73
(dp1383
g93
g94
ssg82
g1377
sg75
(lp1384
S'server_name'
p1385
asbag68
(g89
g70
NtRp1386
(dp1387
g73
(dp1388
g100
g101
ssg82
g1377
sg75
(lp1389
S':'
asbag68
(g89
g70
NtRp1390
(dp1391
g73
(dp1392
sg82
g1377
sg75
(lp1393
g68
(g69
g70
NtRp1394
(dp1395
g73
(dp1396
g81
I4
ssg82
g1390
sg75
(lp1397
S'Bishop-PC'
p1398
asbasbasbag68
(g84
g70
NtRp1399
(dp1400
g73
(dp1401
sg82
g846
sg75
(lp1402
g68
(g89
g70
NtRp1403
(dp1404
g73
(dp1405
g93
g94
ssg82
g1399
sg75
(lp1406
S'server_port'
p1407
asbag68
(g89
g70
NtRp1408
(dp1409
g73
(dp1410
g100
g101
ssg82
g1399
sg75
(lp1411
S':'
asbag68
(g89
g70
NtRp1412
(dp1413
g73
(dp1414
sg82
g1399
sg75
(lp1415
g68
(g69
g70
NtRp1416
(dp1417
g73
(dp1418
g81
I4
ssg82
g1412
sg75
(lp1419
S'8000'
p1420
asbasbasbag68
(g84
g70
NtRp1421
(dp1422
g73
(dp1423
sg82
g846
sg75
(lp1424
g68
(g89
g70
NtRp1425
(dp1426
g73
(dp1427
g93
g94
ssg82
g1421
sg75
(lp1428
S'server_protocol'
p1429
asbag68
(g89
g70
NtRp1430
(dp1431
g73
(dp1432
g100
g101
ssg82
g1421
sg75
(lp1433
S':'
asbag68
(g89
g70
NtRp1434
(dp1435
g73
(dp1436
sg82
g1421
sg75
(lp1437
g68
(g69
g70
NtRp1438
(dp1439
g73
(dp1440
g81
I4
ssg82
g1434
sg75
(lp1441
S'HTTP/1.1'
p1442
asbasbasbag68
(g84
g70
NtRp1443
(dp1444
g73
(dp1445
sg82
g846
sg75
(lp1446
g68
(g89
g70
NtRp1447
(dp1448
g73
(dp1449
g93
g94
ssg82
g1443
sg75
(lp1450
S'server_software'
p1451
asbag68
(g89
g70
NtRp1452
(dp1453
g73
(dp1454
g100
g101
ssg82
g1443
sg75
(lp1455
S':'
asbag68
(g89
g70
NtRp1456
(dp1457
g73
(dp1458
sg82
g1443
sg75
(lp1459
g68
(g69
g70
NtRp1460
(dp1461
g73
(dp1462
g81
I4
ssg82
g1456
sg75
(lp1463
S'Rocket 1.2.4'
p1464
asbasbasbag68
(g84
g70
NtRp1465
(dp1466
g73
(dp1467
sg82
g846
sg75
(lp1468
g68
(g89
g70
NtRp1469
(dp1470
g73
(dp1471
g93
g94
ssg82
g1465
sg75
(lp1472
S'web2py_crontype'
p1473
asbag68
(g89
g70
NtRp1474
(dp1475
g73
(dp1476
g100
g101
ssg82
g1465
sg75
(lp1477
S':'
asbag68
(g89
g70
NtRp1478
(dp1479
g73
(dp1480
sg82
g1465
sg75
(lp1481
g68
(g69
g70
NtRp1482
(dp1483
g73
(dp1484
g81
I4
ssg82
g1478
sg75
(lp1485
S'hard'
p1486
asbasbasbag68
(g84
g70
NtRp1487
(dp1488
g73
(dp1489
sg82
g846
sg75
(lp1490
g68
(g89
g70
NtRp1491
(dp1492
g73
(dp1493
g93
g94
ssg82
g1487
sg75
(lp1494
S'web2py_path'
p1495
asbag68
(g89
g70
NtRp1496
(dp1497
g73
(dp1498
g100
g101
ssg82
g1487
sg75
(lp1499
S':'
asbag68
(g89
g70
NtRp1500
(dp1501
g73
(dp1502
sg82
g1487
sg75
(lp1503
g68
(g69
g70
NtRp1504
(dp1505
g73
(dp1506
g81
I4
ssg82
g1500
sg75
(lp1507
g893
asbasbasbag68
(g84
g70
NtRp1508
(dp1509
g73
(dp1510
sg82
g846
sg75
(lp1511
g68
(g89
g70
NtRp1512
(dp1513
g73
(dp1514
g93
g94
ssg82
g1508
sg75
(lp1515
S'web2py_version'
p1516
asbag68
(g89
g70
NtRp1517
(dp1518
g73
(dp1519
g100
g101
ssg82
g1508
sg75
(lp1520
S':'
asbag68
(g89
g70
NtRp1521
(dp1522
g73
(dp1523
sg82
g1508
sg75
(lp1524
g68
(g69
g70
NtRp1525
(dp1526
g73
(dp1527
g81
I4
ssg82
g1521
sg75
(lp1528
g68
(g77
g70
NtRp1529
(dp1530
g73
(dp1531
g81
I3
ssg82
Nsg75
(lp1532
g68
(g84
g70
NtRp1533
(dp1534
g73
(dp1535
sg82
g1529
sg75
(lp1536
g68
(g89
g70
NtRp1537
(dp1538
g73
(dp1539
sg82
g1533
sg75
(lp1540
g68
(g69
g70
NtRp1541
(dp1542
g73
(dp1543
g81
I3
ssg82
g1537
sg75
(lp1544
S'1'
asbasbasbag68
(g84
g70
NtRp1545
(dp1546
g73
(dp1547
sg82
g1529
sg75
(lp1548
g68
(g89
g70
NtRp1549
(dp1550
g73
(dp1551
sg82
g1545
sg75
(lp1552
g68
(g69
g70
NtRp1553
(dp1554
g73
(dp1555
g81
I3
ssg82
g1549
sg75
(lp1556
S'99'
p1557
asbasbasbag68
(g84
g70
NtRp1558
(dp1559
g73
(dp1560
sg82
g1529
sg75
(lp1561
g68
(g89
g70
NtRp1562
(dp1563
g73
(dp1564
sg82
g1558
sg75
(lp1565
g68
(g69
g70
NtRp1566
(dp1567
g73
(dp1568
g81
I3
ssg82
g1562
sg75
(lp1569
S'3'
asbasbasbag68
(g84
g70
NtRp1570
(dp1571
g73
(dp1572
sg82
g1529
sg75
(lp1573
g68
(g89
g70
NtRp1574
(dp1575
g73
(dp1576
sg82
g1570
sg75
(lp1577
g68
(g69
g70
NtRp1578
(dp1579
g73
(dp1580
g81
I3
ssg82
g1574
sg75
(lp1581
S'datetime.datetime(2011, 11, 1, 8, 28, 28)'
p1582
asbasbasbag68
(g84
g70
NtRp1583
(dp1584
g73
(dp1585
sg82
g1529
sg75
(lp1586
g68
(g89
g70
NtRp1587
(dp1588
g73
(dp1589
sg82
g1583
sg75
(lp1590
g68
(g69
g70
NtRp1591
(dp1592
g73
(dp1593
g81
I3
ssg82
g1587
sg75
(lp1594
S'dev'
p1595
asbasbasbasbasbasbasbag68
(g84
g70
NtRp1596
(dp1597
g73
(dp1598
sg82
g846
sg75
(lp1599
g68
(g89
g70
NtRp1600
(dp1601
g73
(dp1602
g93
g94
ssg82
g1596
sg75
(lp1603
S'wsgi_errors'
p1604
asbag68
(g89
g70
NtRp1605
(dp1606
g73
(dp1607
g100
g101
ssg82
g1596
sg75
(lp1608
S':'
asbag68
(g89
g70
NtRp1609
(dp1610
g73
(dp1611
sg82
g1596
sg75
(lp1612
g68
(g69
g70
NtRp1613
(dp1614
g73
(dp1615
g81
I4
ssg82
g1609
sg75
(lp1616
S"<open file '<stderr>', mode 'w' at 0x01D650D0>"
p1617
asbasbasbag68
(g84
g70
NtRp1618
(dp1619
g73
(dp1620
sg82
g846
sg75
(lp1621
g68
(g89
g70
NtRp1622
(dp1623
g73
(dp1624
g93
g94
ssg82
g1618
sg75
(lp1625
S'wsgi_file_wrapper'
p1626
asbag68
(g89
g70
NtRp1627
(dp1628
g73
(dp1629
g100
g101
ssg82
g1618
sg75
(lp1630
S':'
asbag68
(g89
g70
NtRp1631
(dp1632
g73
(dp1633
sg82
g1618
sg75
(lp1634
g68
(g69
g70
NtRp1635
(dp1636
g73
(dp1637
g81
I4
ssg82
g1631
sg75
(lp1638
S'<class wsgiref.util.FileWrapper at 0x03126998>'
p1639
asbasbasbag68
(g84
g70
NtRp1640
(dp1641
g73
(dp1642
sg82
g846
sg75
(lp1643
g68
(g89
g70
NtRp1644
(dp1645
g73
(dp1646
g93
g94
ssg82
g1640
sg75
(lp1647
S'wsgi_input'
p1648
asbag68
(g89
g70
NtRp1649
(dp1650
g73
(dp1651
g100
g101
ssg82
g1640
sg75
(lp1652
S':'
asbag68
(g89
g70
NtRp1653
(dp1654
g73
(dp1655
sg82
g1640
sg75
(lp1656
g68
(g69
g70
NtRp1657
(dp1658
g73
(dp1659
g81
I4
ssg82
g1653
sg75
(lp1660
S'<socket._fileobject object at 0x0383B5F0>'
p1661
asbasbasbag68
(g84
g70
NtRp1662
(dp1663
g73
(dp1664
sg82
g846
sg75
(lp1665
g68
(g89
g70
NtRp1666
(dp1667
g73
(dp1668
g93
g94
ssg82
g1662
sg75
(lp1669
S'wsgi_multiprocess'
p1670
asbag68
(g89
g70
NtRp1671
(dp1672
g73
(dp1673
g100
g101
ssg82
g1662
sg75
(lp1674
S':'
asbag68
(g89
g70
NtRp1675
(dp1676
g73
(dp1677
sg82
g1662
sg75
(lp1678
g68
(g69
g70
NtRp1679
(dp1680
g73
(dp1681
g81
I4
ssg82
g1675
sg75
(lp1682
g111
asbasbasbag68
(g84
g70
NtRp1683
(dp1684
g73
(dp1685
sg82
g846
sg75
(lp1686
g68
(g89
g70
NtRp1687
(dp1688
g73
(dp1689
g93
g94
ssg82
g1683
sg75
(lp1690
S'wsgi_multithread'
p1691
asbag68
(g89
g70
NtRp1692
(dp1693
g73
(dp1694
g100
g101
ssg82
g1683
sg75
(lp1695
S':'
asbag68
(g89
g70
NtRp1696
(dp1697
g73
(dp1698
sg82
g1683
sg75
(lp1699
g68
(g69
g70
NtRp1700
(dp1701
g73
(dp1702
g81
I4
ssg82
g1696
sg75
(lp1703
S'True'
p1704
asbasbasbag68
(g84
g70
NtRp1705
(dp1706
g73
(dp1707
sg82
g846
sg75
(lp1708
g68
(g89
g70
NtRp1709
(dp1710
g73
(dp1711
g93
g94
ssg82
g1705
sg75
(lp1712
S'wsgi_run_once'
p1713
asbag68
(g89
g70
NtRp1714
(dp1715
g73
(dp1716
g100
g101
ssg82
g1705
sg75
(lp1717
S':'
asbag68
(g89
g70
NtRp1718
(dp1719
g73
(dp1720
sg82
g1705
sg75
(lp1721
g68
(g69
g70
NtRp1722
(dp1723
g73
(dp1724
g81
I4
ssg82
g1718
sg75
(lp1725
g111
asbasbasbag68
(g84
g70
NtRp1726
(dp1727
g73
(dp1728
sg82
g846
sg75
(lp1729
g68
(g89
g70
NtRp1730
(dp1731
g73
(dp1732
g93
g94
ssg82
g1726
sg75
(lp1733
S'wsgi_url_scheme'
p1734
asbag68
(g89
g70
NtRp1735
(dp1736
g73
(dp1737
g100
g101
ssg82
g1726
sg75
(lp1738
S':'
asbag68
(g89
g70
NtRp1739
(dp1740
g73
(dp1741
sg82
g1726
sg75
(lp1742
g68
(g69
g70
NtRp1743
(dp1744
g73
(dp1745
g81
I4
ssg82
g1739
sg75
(lp1746
S'http'
p1747
asbasbasbag68
(g84
g70
NtRp1748
(dp1749
g73
(dp1750
sg82
g846
sg75
(lp1751
g68
(g89
g70
NtRp1752
(dp1753
g73
(dp1754
g93
g94
ssg82
g1748
sg75
(lp1755
S'wsgi_version'
p1756
asbag68
(g89
g70
NtRp1757
(dp1758
g73
(dp1759
g100
g101
ssg82
g1748
sg75
(lp1760
S':'
asbag68
(g89
g70
NtRp1761
(dp1762
g73
(dp1763
sg82
g1748
sg75
(lp1764
g68
(g69
g70
NtRp1765
(dp1766
g73
(dp1767
g81
I4
ssg82
g1761
sg75
(lp1768
g68
(g77
g70
NtRp1769
(dp1770
g73
(dp1771
g81
I3
ssg82
Nsg75
(lp1772
g68
(g84
g70
NtRp1773
(dp1774
g73
(dp1775
sg82
g1769
sg75
(lp1776
g68
(g89
g70
NtRp1777
(dp1778
g73
(dp1779
sg82
g1773
sg75
(lp1780
g68
(g69
g70
NtRp1781
(dp1782
g73
(dp1783
g81
I3
ssg82
g1777
sg75
(lp1784
S'1'
asbasbasbag68
(g84
g70
NtRp1785
(dp1786
g73
(dp1787
sg82
g1769
sg75
(lp1788
g68
(g89
g70
NtRp1789
(dp1790
g73
(dp1791
sg82
g1785
sg75
(lp1792
g68
(g69
g70
NtRp1793
(dp1794
g73
(dp1795
g81
I3
ssg82
g1789
sg75
(lp1796
S'0'
asbasbasbasbasbasbasbasbasbasbasbag68
(g84
g70
NtRp1797
(dp1798
g73
(dp1799
sg82
g78
sg75
(lp1800
g68
(g89
g70
NtRp1801
(dp1802
g73
(dp1803
g93
g94
ssg82
g1797
sg75
(lp1804
S'extension'
p1805
asbag68
(g89
g70
NtRp1806
(dp1807
g73
(dp1808
g100
g101
ssg82
g1797
sg75
(lp1809
S':'
asbag68
(g89
g70
NtRp1810
(dp1811
g73
(dp1812
sg82
g1797
sg75
(lp1813
g68
(g69
g70
NtRp1814
(dp1815
g73
(dp1816
g81
I5
ssg82
g1810
sg75
(lp1817
S'html'
p1818
asbasbasbag68
(g84
g70
NtRp1819
(dp1820
g73
(dp1821
sg82
g78
sg75
(lp1822
g68
(g89
g70
NtRp1823
(dp1824
g73
(dp1825
g93
g94
ssg82
g1819
sg75
(lp1826
S'folder'
p1827
asbag68
(g89
g70
NtRp1828
(dp1829
g73
(dp1830
g100
g101
ssg82
g1819
sg75
(lp1831
S':'
asbag68
(g89
g70
NtRp1832
(dp1833
g73
(dp1834
sg82
g1819
sg75
(lp1835
g68
(g69
g70
NtRp1836
(dp1837
g73
(dp1838
g81
I5
ssg82
g1832
sg75
(lp1839
S'P:\\School\\DePaul\\Projects\\CSC_438\\web2py\\applications\\init\\'
p1840
asbasbasbag68
(g84
g70
NtRp1841
(dp1842
g73
(dp1843
sg82
g78
sg75
(lp1844
g68
(g89
g70
NtRp1845
(dp1846
g73
(dp1847
g93
g94
ssg82
g1841
sg75
(lp1848
S'function'
p1849
asbag68
(g89
g70
NtRp1850
(dp1851
g73
(dp1852
g100
g101
ssg82
g1841
sg75
(lp1853
S':'
asbag68
(g89
g70
NtRp1854
(dp1855
g73
(dp1856
sg82
g1841
sg75
(lp1857
g68
(g69
g70
NtRp1858
(dp1859
g73
(dp1860
g81
I5
ssg82
g1854
sg75
(lp1861
S'user'
p1862
asbasbasbag68
(g84
g70
NtRp1863
(dp1864
g73
(dp1865
sg82
g78
sg75
(lp1866
g68
(g89
g70
NtRp1867
(dp1868
g73
(dp1869
g93
g94
ssg82
g1863
sg75
(lp1870
S'get_vars'
p1871
asbag68
(g89
g70
NtRp1872
(dp1873
g73
(dp1874
g100
g101
ssg82
g1863
sg75
(lp1875
S':'
asbag68
(g89
g70
NtRp1876
(dp1877
g73
(dp1878
sg82
g1863
sg75
(lp1879
g68
(g69
g70
NtRp1880
(dp1881
g73
(dp1882
g81
I5
ssg82
g1876
sg75
(lp1883
g68
(g77
g70
NtRp1884
(dp1885
g73
(dp1886
g81
I4
ssg82
Nsg75
(lp1887
sbasbasbasbag68
(g84
g70
NtRp1888
(dp1889
g73
(dp1890
sg82
g78
sg75
(lp1891
g68
(g89
g70
NtRp1892
(dp1893
g73
(dp1894
g93
g94
ssg82
g1888
sg75
(lp1895
S'global_settings'
p1896
asbag68
(g89
g70
NtRp1897
(dp1898
g73
(dp1899
g100
g101
ssg82
g1888
sg75
(lp1900
S':'
asbag68
(g89
g70
NtRp1901
(dp1902
g73
(dp1903
sg82
g1888
sg75
(lp1904
g68
(g69
g70
NtRp1905
(dp1906
g73
(dp1907
g81
I5
ssg82
g1901
sg75
(lp1908
g68
(g77
g70
NtRp1909
(dp1910
g73
(dp1911
g81
I4
ssg82
Nsg75
(lp1912
g68
(g84
g70
NtRp1913
(dp1914
g73
(dp1915
sg82
g1909
sg75
(lp1916
g68
(g89
g70
NtRp1917
(dp1918
g73
(dp1919
g93
g94
ssg82
g1913
sg75
(lp1920
g858
asbag68
(g89
g70
NtRp1921
(dp1922
g73
(dp1923
g100
g101
ssg82
g1913
sg75
(lp1924
S':'
asbag68
(g89
g70
NtRp1925
(dp1926
g73
(dp1927
sg82
g1913
sg75
(lp1928
g68
(g69
g70
NtRp1929
(dp1930
g73
(dp1931
g81
I4
ssg82
g1925
sg75
(lp1932
S"set(['P:\\\\School\\\\DePaul\\\\Projects\\\\CSC_438\\\\web2py\\\\applications\\\\init\\\\', 'P:\\\\School\\\\DePaul\\\\Projects\\\\CSC_438\\\\web2py\\\\applications\\\\admin\\\\', 'P:\\\\School\\\\DePaul\\\\Projects\\\\CSC_438\\\\web2py\\\\applications\\\\ff\\\\'])"
p1933
asbasbasbag68
(g84
g70
NtRp1934
(dp1935
g73
(dp1936
sg82
g1909
sg75
(lp1937
g68
(g89
g70
NtRp1938
(dp1939
g73
(dp1940
g93
g94
ssg82
g1934
sg75
(lp1941
g880
asbag68
(g89
g70
NtRp1942
(dp1943
g73
(dp1944
g100
g101
ssg82
g1934
sg75
(lp1945
S':'
asbag68
(g89
g70
NtRp1946
(dp1947
g73
(dp1948
sg82
g1934
sg75
(lp1949
g68
(g69
g70
NtRp1950
(dp1951
g73
(dp1952
g81
I4
ssg82
g1946
sg75
(lp1953
g893
asbasbasbag68
(g84
g70
NtRp1954
(dp1955
g73
(dp1956
sg82
g1909
sg75
(lp1957
g68
(g89
g70
NtRp1958
(dp1959
g73
(dp1960
g93
g94
ssg82
g1954
sg75
(lp1961
g902
asbag68
(g89
g70
NtRp1962
(dp1963
g73
(dp1964
g100
g101
ssg82
g1954
sg75
(lp1965
S':'
asbag68
(g89
g70
NtRp1966
(dp1967
g73
(dp1968
sg82
g1954
sg75
(lp1969
g68
(g69
g70
NtRp1970
(dp1971
g73
(dp1972
g81
I4
ssg82
g1966
sg75
(lp1973
g68
(g77
g70
NtRp1974
(dp1975
g73
(dp1976
g81
I3
ssg82
Nsg75
(lp1977
sbasbasbasbag68
(g84
g70
NtRp1978
(dp1979
g73
(dp1980
sg82
g1909
sg75
(lp1981
g68
(g89
g70
NtRp1982
(dp1983
g73
(dp1984
g93
g94
ssg82
g1978
sg75
(lp1985
g927
asbag68
(g89
g70
NtRp1986
(dp1987
g73
(dp1988
g100
g101
ssg82
g1978
sg75
(lp1989
S':'
asbag68
(g89
g70
NtRp1990
(dp1991
g73
(dp1992
sg82
g1978
sg75
(lp1993
g68
(g69
g70
NtRp1994
(dp1995
g73
(dp1996
g81
I4
ssg82
g1990
sg75
(lp1997
S"<Values at 0x3504530: {'verbose': False, 'ip': '127.0.0.1', 'shutdown_timeout': 5, 'taskbar': False, 'nocron': False, 'pid_filename': 'httpserver.pid', 'maxthreads': None, 'softcron': False, 'server_name': 'Bishop-PC', 'bpython': False, 'nogui': False, 'port': 8000, 'extcron': False, 'debuglevel': 30, 'test': None, 'folder': 'P:\\\\School\\\\DePaul\\\\Projects\\\\CSC_438\\\\web2py', 'config': '', 'import_models': False, 'winservice': '', 'shell': None, 'run': '', 'log_filename': 'httpserver.log', 'args': [''], 'ssl_ca_certificate': None, 'scheduler': None, 'profiler_filename': None, 'ssl_private_key': '', 'password': '<ask>', 'request_queue_size': 5, 'ssl_certificate': '', 'cronjob': False, 'plain': False, 'quiet': False, 'interfaces': None, 'minthreads': None, 'timeout': 10, 'numthreads': None, 'nobanner': False}>"
p1998
asbasbasbag68
(g84
g70
NtRp1999
(dp2000
g73
(dp2001
sg82
g1909
sg75
(lp2002
g68
(g89
g70
NtRp2003
(dp2004
g73
(dp2005
g93
g94
ssg82
g1999
sg75
(lp2006
g949
asbag68
(g89
g70
NtRp2007
(dp2008
g73
(dp2009
g100
g101
ssg82
g1999
sg75
(lp2010
S':'
asbag68
(g89
g70
NtRp2011
(dp2012
g73
(dp2013
sg82
g1999
sg75
(lp2014
g68
(g69
g70
NtRp2015
(dp2016
g73
(dp2017
g81
I4
ssg82
g2011
sg75
(lp2018
S'set([])'
p2019
asbasbasbag68
(g84
g70
NtRp2020
(dp2021
g73
(dp2022
sg82
g1909
sg75
(lp2023
g68
(g89
g70
NtRp2024
(dp2025
g73
(dp2026
g93
g94
ssg82
g2020
sg75
(lp2027
g971
asbag68
(g89
g70
NtRp2028
(dp2029
g73
(dp2030
g100
g101
ssg82
g2020
sg75
(lp2031
S':'
asbag68
(g89
g70
NtRp2032
(dp2033
g73
(dp2034
sg82
g2020
sg75
(lp2035
g68
(g69
g70
NtRp2036
(dp2037
g73
(dp2038
g81
I4
ssg82
g2032
sg75
(lp2039
g111
asbasbasbag68
(g84
g70
NtRp2040
(dp2041
g73
(dp2042
sg82
g1909
sg75
(lp2043
g68
(g89
g70
NtRp2044
(dp2045
g73
(dp2046
g93
g94
ssg82
g2040
sg75
(lp2047
g992
asbag68
(g89
g70
NtRp2048
(dp2049
g73
(dp2050
g100
g101
ssg82
g2040
sg75
(lp2051
S':'
asbag68
(g89
g70
NtRp2052
(dp2053
g73
(dp2054
sg82
g2040
sg75
(lp2055
g68
(g69
g70
NtRp2056
(dp2057
g73
(dp2058
g81
I4
ssg82
g2052
sg75
(lp2059
g1005
asbasbasbag68
(g84
g70
NtRp2060
(dp2061
g73
(dp2062
sg82
g1909
sg75
(lp2063
g68
(g89
g70
NtRp2064
(dp2065
g73
(dp2066
g93
g94
ssg82
g2060
sg75
(lp2067
g1234
asbag68
(g89
g70
NtRp2068
(dp2069
g73
(dp2070
g100
g101
ssg82
g2060
sg75
(lp2071
S':'
asbag68
(g89
g70
NtRp2072
(dp2073
g73
(dp2074
sg82
g2060
sg75
(lp2075
g68
(g69
g70
NtRp2076
(dp2077
g73
(dp2078
g81
I4
ssg82
g2072
sg75
(lp2079
g111
asbasbasbag68
(g84
g70
NtRp2080
(dp2081
g73
(dp2082
sg82
g1909
sg75
(lp2083
g68
(g89
g70
NtRp2084
(dp2085
g73
(dp2086
g93
g94
ssg82
g2080
sg75
(lp2087
g1473
asbag68
(g89
g70
NtRp2088
(dp2089
g73
(dp2090
g100
g101
ssg82
g2080
sg75
(lp2091
S':'
asbag68
(g89
g70
NtRp2092
(dp2093
g73
(dp2094
sg82
g2080
sg75
(lp2095
g68
(g69
g70
NtRp2096
(dp2097
g73
(dp2098
g81
I4
ssg82
g2092
sg75
(lp2099
g1486
asbasbasbag68
(g84
g70
NtRp2100
(dp2101
g73
(dp2102
sg82
g1909
sg75
(lp2103
g68
(g89
g70
NtRp2104
(dp2105
g73
(dp2106
g93
g94
ssg82
g2100
sg75
(lp2107
g1516
asbag68
(g89
g70
NtRp2108
(dp2109
g73
(dp2110
g100
g101
ssg82
g2100
sg75
(lp2111
S':'
asbag68
(g89
g70
NtRp2112
(dp2113
g73
(dp2114
sg82
g2100
sg75
(lp2115
g68
(g69
g70
NtRp2116
(dp2117
g73
(dp2118
g81
I4
ssg82
g2112
sg75
(lp2119
g68
(g77
g70
NtRp2120
(dp2121
g73
(dp2122
g81
I3
ssg82
Nsg75
(lp2123
g68
(g84
g70
NtRp2124
(dp2125
g73
(dp2126
sg82
g2120
sg75
(lp2127
g68
(g89
g70
NtRp2128
(dp2129
g73
(dp2130
sg82
g2124
sg75
(lp2131
g68
(g69
g70
NtRp2132
(dp2133
g73
(dp2134
g81
I3
ssg82
g2128
sg75
(lp2135
S'1'
asbasbasbag68
(g84
g70
NtRp2136
(dp2137
g73
(dp2138
sg82
g2120
sg75
(lp2139
g68
(g89
g70
NtRp2140
(dp2141
g73
(dp2142
sg82
g2136
sg75
(lp2143
g68
(g69
g70
NtRp2144
(dp2145
g73
(dp2146
g81
I3
ssg82
g2140
sg75
(lp2147
S'99'
p2148
asbasbasbag68
(g84
g70
NtRp2149
(dp2150
g73
(dp2151
sg82
g2120
sg75
(lp2152
g68
(g89
g70
NtRp2153
(dp2154
g73
(dp2155
sg82
g2149
sg75
(lp2156
g68
(g69
g70
NtRp2157
(dp2158
g73
(dp2159
g81
I3
ssg82
g2153
sg75
(lp2160
S'3'
asbasbasbag68
(g84
g70
NtRp2161
(dp2162
g73
(dp2163
sg82
g2120
sg75
(lp2164
g68
(g89
g70
NtRp2165
(dp2166
g73
(dp2167
sg82
g2161
sg75
(lp2168
g68
(g69
g70
NtRp2169
(dp2170
g73
(dp2171
g81
I3
ssg82
g2165
sg75
(lp2172
S'datetime.datetime(2011, 11, 1, 8, 28, 28)'
p2173
asbasbasbag68
(g84
g70
NtRp2174
(dp2175
g73
(dp2176
sg82
g2120
sg75
(lp2177
g68
(g89
g70
NtRp2178
(dp2179
g73
(dp2180
sg82
g2174
sg75
(lp2181
g68
(g69
g70
NtRp2182
(dp2183
g73
(dp2184
g81
I3
ssg82
g2178
sg75
(lp2185
g1595
asbasbasbasbasbasbasbasbasbasbasbag68
(g84
g70
NtRp2186
(dp2187
g73
(dp2188
sg82
g78
sg75
(lp2189
g68
(g89
g70
NtRp2190
(dp2191
g73
(dp2192
g93
g94
ssg82
g2186
sg75
(lp2193
S'is_https'
p2194
asbag68
(g89
g70
NtRp2195
(dp2196
g73
(dp2197
g100
g101
ssg82
g2186
sg75
(lp2198
S':'
asbag68
(g89
g70
NtRp2199
(dp2200
g73
(dp2201
sg82
g2186
sg75
(lp2202
g68
(g69
g70
NtRp2203
(dp2204
g73
(dp2205
g81
I5
ssg82
g2199
sg75
(lp2206
g111
asbasbasbag68
(g84
g70
NtRp2207
(dp2208
g73
(dp2209
sg82
g78
sg75
(lp2210
g68
(g89
g70
NtRp2211
(dp2212
g73
(dp2213
g93
g94
ssg82
g2207
sg75
(lp2214
S'is_local'
p2215
asbag68
(g89
g70
NtRp2216
(dp2217
g73
(dp2218
g100
g101
ssg82
g2207
sg75
(lp2219
S':'
asbag68
(g89
g70
NtRp2220
(dp2221
g73
(dp2222
sg82
g2207
sg75
(lp2223
g68
(g69
g70
NtRp2224
(dp2225
g73
(dp2226
g81
I5
ssg82
g2220
sg75
(lp2227
g1704
asbasbasbag68
(g84
g70
NtRp2228
(dp2229
g73
(dp2230
sg82
g78
sg75
(lp2231
g68
(g89
g70
NtRp2232
(dp2233
g73
(dp2234
g93
g94
ssg82
g2228
sg75
(lp2235
S'is_restful'
p2236
asbag68
(g89
g70
NtRp2237
(dp2238
g73
(dp2239
g100
g101
ssg82
g2228
sg75
(lp2240
S':'
asbag68
(g89
g70
NtRp2241
(dp2242
g73
(dp2243
sg82
g2228
sg75
(lp2244
g68
(g69
g70
NtRp2245
(dp2246
g73
(dp2247
g81
I5
ssg82
g2241
sg75
(lp2248
g111
asbasbasbag68
(g84
g70
NtRp2249
(dp2250
g73
(dp2251
sg82
g78
sg75
(lp2252
g68
(g89
g70
NtRp2253
(dp2254
g73
(dp2255
g93
g94
ssg82
g2249
sg75
(lp2256
S'now'
p2257
asbag68
(g89
g70
NtRp2258
(dp2259
g73
(dp2260
g100
g101
ssg82
g2249
sg75
(lp2261
S':'
asbag68
(g89
g70
NtRp2262
(dp2263
g73
(dp2264
sg82
g2249
sg75
(lp2265
g68
(g69
g70
NtRp2266
(dp2267
g73
(dp2268
g81
I5
ssg82
g2262
sg75
(lp2269
S'datetime.datetime(2011, 12, 29, 18, 24, 51, 229000)'
p2270
asbasbasbag68
(g84
g70
NtRp2271
(dp2272
g73
(dp2273
sg82
g78
sg75
(lp2274
g68
(g89
g70
NtRp2275
(dp2276
g73
(dp2277
g93
g94
ssg82
g2271
sg75
(lp2278
S'post_vars'
p2279
asbag68
(g89
g70
NtRp2280
(dp2281
g73
(dp2282
g100
g101
ssg82
g2271
sg75
(lp2283
S':'
asbag68
(g89
g70
NtRp2284
(dp2285
g73
(dp2286
sg82
g2271
sg75
(lp2287
g68
(g69
g70
NtRp2288
(dp2289
g73
(dp2290
g81
I5
ssg82
g2284
sg75
(lp2291
g68
(g77
g70
NtRp2292
(dp2293
g73
(dp2294
g81
I4
ssg82
Nsg75
(lp2295
sbasbasbasbag68
(g84
g70
NtRp2296
(dp2297
g73
(dp2298
sg82
g78
sg75
(lp2299
g68
(g89
g70
NtRp2300
(dp2301
g73
(dp2302
g93
g94
ssg82
g2296
sg75
(lp2303
S'raw_args'
p2304
asbag68
(g89
g70
NtRp2305
(dp2306
g73
(dp2307
g100
g101
ssg82
g2296
sg75
(lp2308
S':'
asbag68
(g89
g70
NtRp2309
(dp2310
g73
(dp2311
sg82
g2296
sg75
(lp2312
g68
(g69
g70
NtRp2313
(dp2314
g73
(dp2315
g81
I5
ssg82
g2309
sg75
(lp2316
g170
asbasbasbag68
(g84
g70
NtRp2317
(dp2318
g73
(dp2319
sg82
g78
sg75
(lp2320
g68
(g89
g70
NtRp2321
(dp2322
g73
(dp2323
g93
g94
ssg82
g2317
sg75
(lp2324
S'url'
p2325
asbag68
(g89
g70
NtRp2326
(dp2327
g73
(dp2328
g100
g101
ssg82
g2317
sg75
(lp2329
S':'
asbag68
(g89
g70
NtRp2330
(dp2331
g73
(dp2332
sg82
g2317
sg75
(lp2333
g68
(g69
g70
NtRp2334
(dp2335
g73
(dp2336
g81
I5
ssg82
g2330
sg75
(lp2337
S'/init/default/user/login'
p2338
asbasbasbag68
(g84
g70
NtRp2339
(dp2340
g73
(dp2341
sg82
g78
sg75
(lp2342
g68
(g89
g70
NtRp2343
(dp2344
g73
(dp2345
g93
g94
ssg82
g2339
sg75
(lp2346
S'utcnow'
p2347
asbag68
(g89
g70
NtRp2348
(dp2349
g73
(dp2350
g100
g101
ssg82
g2339
sg75
(lp2351
S':'
asbag68
(g89
g70
NtRp2352
(dp2353
g73
(dp2354
sg82
g2339
sg75
(lp2355
g68
(g69
g70
NtRp2356
(dp2357
g73
(dp2358
g81
I5
ssg82
g2352
sg75
(lp2359
S'datetime.datetime(2011, 12, 29, 23, 24, 51, 229000)'
p2360
asbasbasbag68
(g84
g70
NtRp2361
(dp2362
g73
(dp2363
sg82
g78
sg75
(lp2364
g68
(g89
g70
NtRp2365
(dp2366
g73
(dp2367
g93
g94
ssg82
g2361
sg75
(lp2368
S'uuid'
p2369
asbag68
(g89
g70
NtRp2370
(dp2371
g73
(dp2372
g100
g101
ssg82
g2361
sg75
(lp2373
S':'
asbag68
(g89
g70
NtRp2374
(dp2375
g73
(dp2376
sg82
g2361
sg75
(lp2377
g68
(g69
g70
NtRp2378
(dp2379
g73
(dp2380
g81
I5
ssg82
g2374
sg75
(lp2381
S'init/127.0.0.1.2011-12-29.18-24-51.e7b2fefa-14a5-4b8c-93ec-2f04522d7ab7'
p2382
asbasbasbag68
(g84
g70
NtRp2383
(dp2384
g73
(dp2385
sg82
g78
sg75
(lp2386
g68
(g89
g70
NtRp2387
(dp2388
g73
(dp2389
g93
g94
ssg82
g2383
sg75
(lp2390
S'vars'
p2391
asbag68
(g89
g70
NtRp2392
(dp2393
g73
(dp2394
g100
g101
ssg82
g2383
sg75
(lp2395
S':'
asbag68
(g89
g70
NtRp2396
(dp2397
g73
(dp2398
sg82
g2383
sg75
(lp2399
g68
(g69
g70
NtRp2400
(dp2401
g73
(dp2402
g81
I5
ssg82
g2396
sg75
(lp2403
g68
(g77
g70
NtRp2404
(dp2405
g73
(dp2406
g81
I4
ssg82
Nsg75
(lp2407
sbasbasbasbag68
(g84
g70
NtRp2408
(dp2409
g73
(dp2410
sg82
g78
sg75
(lp2411
g68
(g89
g70
NtRp2412
(dp2413
g73
(dp2414
g93
g94
ssg82
g2408
sg75
(lp2415
S'wsgi'
p2416
asbag68
(g89
g70
NtRp2417
(dp2418
g73
(dp2419
g100
g101
ssg82
g2408
sg75
(lp2420
S':'
asbag68
(g89
g70
NtRp2421
(dp2422
g73
(dp2423
sg82
g2408
sg75
(lp2424
g68
(g69
g70
NtRp2425
(dp2426
g73
(dp2427
g81
I5
ssg82
g2421
sg75
(lp2428
g68
(g77
g70
NtRp2429
(dp2430
g73
(dp2431
g81
I4
ssg82
Nsg75
(lp2432
g68
(g84
g70
NtRp2433
(dp2434
g73
(dp2435
sg82
g2429
sg75
(lp2436
g68
(g89
g70
NtRp2437
(dp2438
g73
(dp2439
g93
g94
ssg82
g2433
sg75
(lp2440
S'environ'
p2441
asbag68
(g89
g70
NtRp2442
(dp2443
g73
(dp2444
g100
g101
ssg82
g2433
sg75
(lp2445
S':'
asbag68
(g89
g70
NtRp2446
(dp2447
g73
(dp2448
sg82
g2433
sg75
(lp2449
g68
(g69
g70
NtRp2450
(dp2451
g73
(dp2452
g81
I4
ssg82
g2446
sg75
(lp2453
g68
(g77
g70
NtRp2454
(dp2455
g73
(dp2456
g81
I3
ssg82
Nsg75
(lp2457
g68
(g84
g70
NtRp2458
(dp2459
g73
(dp2460
sg82
g2454
sg75
(lp2461
g68
(g89
g70
NtRp2462
(dp2463
g73
(dp2464
g93
g94
ssg82
g2458
sg75
(lp2465
S'HTTP_ACCEPT'
p2466
asbag68
(g89
g70
NtRp2467
(dp2468
g73
(dp2469
g100
g101
ssg82
g2458
sg75
(lp2470
S':'
asbag68
(g89
g70
NtRp2471
(dp2472
g73
(dp2473
sg82
g2458
sg75
(lp2474
g68
(g69
g70
NtRp2475
(dp2476
g73
(dp2477
g81
I3
ssg82
g2471
sg75
(lp2478
g1027
asbasbasbag68
(g84
g70
NtRp2479
(dp2480
g73
(dp2481
sg82
g2454
sg75
(lp2482
g68
(g89
g70
NtRp2483
(dp2484
g73
(dp2485
g93
g94
ssg82
g2479
sg75
(lp2486
S'HTTP_ACCEPT_CHARSET'
p2487
asbag68
(g89
g70
NtRp2488
(dp2489
g73
(dp2490
g100
g101
ssg82
g2479
sg75
(lp2491
S':'
asbag68
(g89
g70
NtRp2492
(dp2493
g73
(dp2494
sg82
g2479
sg75
(lp2495
g68
(g69
g70
NtRp2496
(dp2497
g73
(dp2498
g81
I3
ssg82
g2492
sg75
(lp2499
g1049
asbasbasbag68
(g84
g70
NtRp2500
(dp2501
g73
(dp2502
sg82
g2454
sg75
(lp2503
g68
(g89
g70
NtRp2504
(dp2505
g73
(dp2506
g93
g94
ssg82
g2500
sg75
(lp2507
S'HTTP_ACCEPT_ENCODING'
p2508
asbag68
(g89
g70
NtRp2509
(dp2510
g73
(dp2511
g100
g101
ssg82
g2500
sg75
(lp2512
S':'
asbag68
(g89
g70
NtRp2513
(dp2514
g73
(dp2515
sg82
g2500
sg75
(lp2516
g68
(g69
g70
NtRp2517
(dp2518
g73
(dp2519
g81
I3
ssg82
g2513
sg75
(lp2520
g1071
asbasbasbag68
(g84
g70
NtRp2521
(dp2522
g73
(dp2523
sg82
g2454
sg75
(lp2524
g68
(g89
g70
NtRp2525
(dp2526
g73
(dp2527
g93
g94
ssg82
g2521
sg75
(lp2528
S'HTTP_ACCEPT_LANGUAGE'
p2529
asbag68
(g89
g70
NtRp2530
(dp2531
g73
(dp2532
g100
g101
ssg82
g2521
sg75
(lp2533
S':'
asbag68
(g89
g70
NtRp2534
(dp2535
g73
(dp2536
sg82
g2521
sg75
(lp2537
g68
(g69
g70
NtRp2538
(dp2539
g73
(dp2540
g81
I3
ssg82
g2534
sg75
(lp2541
g1093
asbasbasbag68
(g84
g70
NtRp2542
(dp2543
g73
(dp2544
sg82
g2454
sg75
(lp2545
g68
(g89
g70
NtRp2546
(dp2547
g73
(dp2548
g93
g94
ssg82
g2542
sg75
(lp2549
S'HTTP_CACHE_CONTROL'
p2550
asbag68
(g89
g70
NtRp2551
(dp2552
g73
(dp2553
g100
g101
ssg82
g2542
sg75
(lp2554
S':'
asbag68
(g89
g70
NtRp2555
(dp2556
g73
(dp2557
sg82
g2542
sg75
(lp2558
g68
(g69
g70
NtRp2559
(dp2560
g73
(dp2561
g81
I3
ssg82
g2555
sg75
(lp2562
g1115
asbasbasbag68
(g84
g70
NtRp2563
(dp2564
g73
(dp2565
sg82
g2454
sg75
(lp2566
g68
(g89
g70
NtRp2567
(dp2568
g73
(dp2569
g93
g94
ssg82
g2563
sg75
(lp2570
S'HTTP_CONNECTION'
p2571
asbag68
(g89
g70
NtRp2572
(dp2573
g73
(dp2574
g100
g101
ssg82
g2563
sg75
(lp2575
S':'
asbag68
(g89
g70
NtRp2576
(dp2577
g73
(dp2578
sg82
g2563
sg75
(lp2579
g68
(g69
g70
NtRp2580
(dp2581
g73
(dp2582
g81
I3
ssg82
g2576
sg75
(lp2583
g1137
asbasbasbag68
(g84
g70
NtRp2584
(dp2585
g73
(dp2586
sg82
g2454
sg75
(lp2587
g68
(g89
g70
NtRp2588
(dp2589
g73
(dp2590
g93
g94
ssg82
g2584
sg75
(lp2591
S'HTTP_COOKIE'
p2592
asbag68
(g89
g70
NtRp2593
(dp2594
g73
(dp2595
g100
g101
ssg82
g2584
sg75
(lp2596
S':'
asbag68
(g89
g70
NtRp2597
(dp2598
g73
(dp2599
sg82
g2584
sg75
(lp2600
g68
(g69
g70
NtRp2601
(dp2602
g73
(dp2603
g81
I3
ssg82
g2597
sg75
(lp2604
g1159
asbasbasbag68
(g84
g70
NtRp2605
(dp2606
g73
(dp2607
sg82
g2454
sg75
(lp2608
g68
(g89
g70
NtRp2609
(dp2610
g73
(dp2611
g93
g94
ssg82
g2605
sg75
(lp2612
S'HTTP_HOST'
p2613
asbag68
(g89
g70
NtRp2614
(dp2615
g73
(dp2616
g100
g101
ssg82
g2605
sg75
(lp2617
S':'
asbag68
(g89
g70
NtRp2618
(dp2619
g73
(dp2620
sg82
g2605
sg75
(lp2621
g68
(g69
g70
NtRp2622
(dp2623
g73
(dp2624
g81
I3
ssg82
g2618
sg75
(lp2625
g1181
asbasbasbag68
(g84
g70
NtRp2626
(dp2627
g73
(dp2628
sg82
g2454
sg75
(lp2629
g68
(g89
g70
NtRp2630
(dp2631
g73
(dp2632
g93
g94
ssg82
g2626
sg75
(lp2633
S'HTTP_REFERER'
p2634
asbag68
(g89
g70
NtRp2635
(dp2636
g73
(dp2637
g100
g101
ssg82
g2626
sg75
(lp2638
S':'
asbag68
(g89
g70
NtRp2639
(dp2640
g73
(dp2641
sg82
g2626
sg75
(lp2642
g68
(g69
g70
NtRp2643
(dp2644
g73
(dp2645
g81
I3
ssg82
g2639
sg75
(lp2646
g1203
asbasbasbag68
(g84
g70
NtRp2647
(dp2648
g73
(dp2649
sg82
g2454
sg75
(lp2650
g68
(g89
g70
NtRp2651
(dp2652
g73
(dp2653
g93
g94
ssg82
g2647
sg75
(lp2654
S'HTTP_USER_AGENT'
p2655
asbag68
(g89
g70
NtRp2656
(dp2657
g73
(dp2658
g100
g101
ssg82
g2647
sg75
(lp2659
S':'
asbag68
(g89
g70
NtRp2660
(dp2661
g73
(dp2662
sg82
g2647
sg75
(lp2663
g68
(g69
g70
NtRp2664
(dp2665
g73
(dp2666
g81
I3
ssg82
g2660
sg75
(lp2667
g1225
asbasbasbag68
(g84
g70
NtRp2668
(dp2669
g73
(dp2670
sg82
g2454
sg75
(lp2671
g68
(g89
g70
NtRp2672
(dp2673
g73
(dp2674
g93
g94
ssg82
g2668
sg75
(lp2675
S'PATH_INFO'
p2676
asbag68
(g89
g70
NtRp2677
(dp2678
g73
(dp2679
g100
g101
ssg82
g2668
sg75
(lp2680
S':'
asbag68
(g89
g70
NtRp2681
(dp2682
g73
(dp2683
sg82
g2668
sg75
(lp2684
g68
(g69
g70
NtRp2685
(dp2686
g73
(dp2687
g81
I3
ssg82
g2681
sg75
(lp2688
g1268
asbasbasbag68
(g84
g70
NtRp2689
(dp2690
g73
(dp2691
sg82
g2454
sg75
(lp2692
g68
(g89
g70
NtRp2693
(dp2694
g73
(dp2695
g93
g94
ssg82
g2689
sg75
(lp2696
S'QUERY_STRING'
p2697
asbag68
(g89
g70
NtRp2698
(dp2699
g73
(dp2700
g100
g101
ssg82
g2689
sg75
(lp2701
S':'
asbag68
(g89
g70
NtRp2702
(dp2703
g73
(dp2704
sg82
g2689
sg75
(lp2705
g68
(g69
g70
NtRp2706
(dp2707
g73
(dp2708
g81
I3
ssg82
g2702
sg75
(lp2709
g1290
asbasbasbag68
(g84
g70
NtRp2710
(dp2711
g73
(dp2712
sg82
g2454
sg75
(lp2713
g68
(g89
g70
NtRp2714
(dp2715
g73
(dp2716
g93
g94
ssg82
g2710
sg75
(lp2717
S'REMOTE_ADDR'
p2718
asbag68
(g89
g70
NtRp2719
(dp2720
g73
(dp2721
g100
g101
ssg82
g2710
sg75
(lp2722
S':'
asbag68
(g89
g70
NtRp2723
(dp2724
g73
(dp2725
sg82
g2710
sg75
(lp2726
g68
(g69
g70
NtRp2727
(dp2728
g73
(dp2729
g81
I3
ssg82
g2723
sg75
(lp2730
g214
asbasbasbag68
(g84
g70
NtRp2731
(dp2732
g73
(dp2733
sg82
g2454
sg75
(lp2734
g68
(g89
g70
NtRp2735
(dp2736
g73
(dp2737
g93
g94
ssg82
g2731
sg75
(lp2738
S'REMOTE_PORT'
p2739
asbag68
(g89
g70
NtRp2740
(dp2741
g73
(dp2742
g100
g101
ssg82
g2731
sg75
(lp2743
S':'
asbag68
(g89
g70
NtRp2744
(dp2745
g73
(dp2746
sg82
g2731
sg75
(lp2747
g68
(g69
g70
NtRp2748
(dp2749
g73
(dp2750
g81
I3
ssg82
g2744
sg75
(lp2751
g1333
asbasbasbag68
(g84
g70
NtRp2752
(dp2753
g73
(dp2754
sg82
g2454
sg75
(lp2755
g68
(g89
g70
NtRp2756
(dp2757
g73
(dp2758
g93
g94
ssg82
g2752
sg75
(lp2759
S'REQUEST_METHOD'
p2760
asbag68
(g89
g70
NtRp2761
(dp2762
g73
(dp2763
g100
g101
ssg82
g2752
sg75
(lp2764
S':'
asbag68
(g89
g70
NtRp2765
(dp2766
g73
(dp2767
sg82
g2752
sg75
(lp2768
g68
(g69
g70
NtRp2769
(dp2770
g73
(dp2771
g81
I3
ssg82
g2765
sg75
(lp2772
g1355
asbasbasbag68
(g84
g70
NtRp2773
(dp2774
g73
(dp2775
sg82
g2454
sg75
(lp2776
g68
(g89
g70
NtRp2777
(dp2778
g73
(dp2779
g93
g94
ssg82
g2773
sg75
(lp2780
S'SCRIPT_NAME'
p2781
asbag68
(g89
g70
NtRp2782
(dp2783
g73
(dp2784
g100
g101
ssg82
g2773
sg75
(lp2785
S':'
asbag68
(g89
g70
NtRp2786
(dp2787
g73
(dp2788
sg82
g2773
sg75
(lp2789
g68
(g69
g70
NtRp2790
(dp2791
g73
(dp2792
g81
I3
ssg82
g2786
sg75
(lp2793
S''
asbasbasbag68
(g84
g70
NtRp2794
(dp2795
g73
(dp2796
sg82
g2454
sg75
(lp2797
g68
(g89
g70
NtRp2798
(dp2799
g73
(dp2800
g93
g94
ssg82
g2794
sg75
(lp2801
S'SERVER_NAME'
p2802
asbag68
(g89
g70
NtRp2803
(dp2804
g73
(dp2805
g100
g101
ssg82
g2794
sg75
(lp2806
S':'
asbag68
(g89
g70
NtRp2807
(dp2808
g73
(dp2809
sg82
g2794
sg75
(lp2810
g68
(g69
g70
NtRp2811
(dp2812
g73
(dp2813
g81
I3
ssg82
g2807
sg75
(lp2814
g1398
asbasbasbag68
(g84
g70
NtRp2815
(dp2816
g73
(dp2817
sg82
g2454
sg75
(lp2818
g68
(g89
g70
NtRp2819
(dp2820
g73
(dp2821
g93
g94
ssg82
g2815
sg75
(lp2822
S'SERVER_PORT'
p2823
asbag68
(g89
g70
NtRp2824
(dp2825
g73
(dp2826
g100
g101
ssg82
g2815
sg75
(lp2827
S':'
asbag68
(g89
g70
NtRp2828
(dp2829
g73
(dp2830
sg82
g2815
sg75
(lp2831
g68
(g69
g70
NtRp2832
(dp2833
g73
(dp2834
g81
I3
ssg82
g2828
sg75
(lp2835
g1420
asbasbasbag68
(g84
g70
NtRp2836
(dp2837
g73
(dp2838
sg82
g2454
sg75
(lp2839
g68
(g89
g70
NtRp2840
(dp2841
g73
(dp2842
g93
g94
ssg82
g2836
sg75
(lp2843
S'SERVER_PROTOCOL'
p2844
asbag68
(g89
g70
NtRp2845
(dp2846
g73
(dp2847
g100
g101
ssg82
g2836
sg75
(lp2848
S':'
asbag68
(g89
g70
NtRp2849
(dp2850
g73
(dp2851
sg82
g2836
sg75
(lp2852
g68
(g69
g70
NtRp2853
(dp2854
g73
(dp2855
g81
I3
ssg82
g2849
sg75
(lp2856
g1442
asbasbasbag68
(g84
g70
NtRp2857
(dp2858
g73
(dp2859
sg82
g2454
sg75
(lp2860
g68
(g89
g70
NtRp2861
(dp2862
g73
(dp2863
g93
g94
ssg82
g2857
sg75
(lp2864
S'SERVER_SOFTWARE'
p2865
asbag68
(g89
g70
NtRp2866
(dp2867
g73
(dp2868
g100
g101
ssg82
g2857
sg75
(lp2869
S':'
asbag68
(g89
g70
NtRp2870
(dp2871
g73
(dp2872
sg82
g2857
sg75
(lp2873
g68
(g69
g70
NtRp2874
(dp2875
g73
(dp2876
g81
I3
ssg82
g2870
sg75
(lp2877
g1464
asbasbasbag68
(g84
g70
NtRp2878
(dp2879
g73
(dp2880
sg82
g2454
sg75
(lp2881
g68
(g89
g70
NtRp2882
(dp2883
g73
(dp2884
g93
g94
ssg82
g2878
sg75
(lp2885
S'wsgi.errors'
p2886
asbag68
(g89
g70
NtRp2887
(dp2888
g73
(dp2889
g100
g101
ssg82
g2878
sg75
(lp2890
S':'
asbag68
(g89
g70
NtRp2891
(dp2892
g73
(dp2893
sg82
g2878
sg75
(lp2894
g68
(g69
g70
NtRp2895
(dp2896
g73
(dp2897
g81
I3
ssg82
g2891
sg75
(lp2898
S"<open file '<stderr>', mode 'w' at 0x01D650D0>"
p2899
asbasbasbag68
(g84
g70
NtRp2900
(dp2901
g73
(dp2902
sg82
g2454
sg75
(lp2903
g68
(g89
g70
NtRp2904
(dp2905
g73
(dp2906
g93
g94
ssg82
g2900
sg75
(lp2907
S'wsgi.file_wrapper'
p2908
asbag68
(g89
g70
NtRp2909
(dp2910
g73
(dp2911
g100
g101
ssg82
g2900
sg75
(lp2912
S':'
asbag68
(g89
g70
NtRp2913
(dp2914
g73
(dp2915
sg82
g2900
sg75
(lp2916
g68
(g69
g70
NtRp2917
(dp2918
g73
(dp2919
g81
I3
ssg82
g2913
sg75
(lp2920
S'<class wsgiref.util.FileWrapper at 0x03126998>'
p2921
asbasbasbag68
(g84
g70
NtRp2922
(dp2923
g73
(dp2924
sg82
g2454
sg75
(lp2925
g68
(g89
g70
NtRp2926
(dp2927
g73
(dp2928
g93
g94
ssg82
g2922
sg75
(lp2929
S'wsgi.input'
p2930
asbag68
(g89
g70
NtRp2931
(dp2932
g73
(dp2933
g100
g101
ssg82
g2922
sg75
(lp2934
S':'
asbag68
(g89
g70
NtRp2935
(dp2936
g73
(dp2937
sg82
g2922
sg75
(lp2938
g68
(g69
g70
NtRp2939
(dp2940
g73
(dp2941
g81
I3
ssg82
g2935
sg75
(lp2942
S'<cStringIO.StringO object at 0x08CC7560>'
p2943
asbasbasbag68
(g84
g70
NtRp2944
(dp2945
g73
(dp2946
sg82
g2454
sg75
(lp2947
g68
(g89
g70
NtRp2948
(dp2949
g73
(dp2950
g93
g94
ssg82
g2944
sg75
(lp2951
S'wsgi.multiprocess'
p2952
asbag68
(g89
g70
NtRp2953
(dp2954
g73
(dp2955
g100
g101
ssg82
g2944
sg75
(lp2956
S':'
asbag68
(g89
g70
NtRp2957
(dp2958
g73
(dp2959
sg82
g2944
sg75
(lp2960
g68
(g69
g70
NtRp2961
(dp2962
g73
(dp2963
g81
I3
ssg82
g2957
sg75
(lp2964
g111
asbasbasbag68
(g84
g70
NtRp2965
(dp2966
g73
(dp2967
sg82
g2454
sg75
(lp2968
g68
(g89
g70
NtRp2969
(dp2970
g73
(dp2971
g93
g94
ssg82
g2965
sg75
(lp2972
S'wsgi.multithread'
p2973
asbag68
(g89
g70
NtRp2974
(dp2975
g73
(dp2976
g100
g101
ssg82
g2965
sg75
(lp2977
S':'
asbag68
(g89
g70
NtRp2978
(dp2979
g73
(dp2980
sg82
g2965
sg75
(lp2981
g68
(g69
g70
NtRp2982
(dp2983
g73
(dp2984
g81
I3
ssg82
g2978
sg75
(lp2985
g1704
asbasbasbag68
(g84
g70
NtRp2986
(dp2987
g73
(dp2988
sg82
g2454
sg75
(lp2989
g68
(g89
g70
NtRp2990
(dp2991
g73
(dp2992
g93
g94
ssg82
g2986
sg75
(lp2993
S'wsgi.run_once'
p2994
asbag68
(g89
g70
NtRp2995
(dp2996
g73
(dp2997
g100
g101
ssg82
g2986
sg75
(lp2998
S':'
asbag68
(g89
g70
NtRp2999
(dp3000
g73
(dp3001
sg82
g2986
sg75
(lp3002
g68
(g69
g70
NtRp3003
(dp3004
g73
(dp3005
g81
I3
ssg82
g2999
sg75
(lp3006
g111
asbasbasbag68
(g84
g70
NtRp3007
(dp3008
g73
(dp3009
sg82
g2454
sg75
(lp3010
g68
(g89
g70
NtRp3011
(dp3012
g73
(dp3013
g93
g94
ssg82
g3007
sg75
(lp3014
S'wsgi.url_scheme'
p3015
asbag68
(g89
g70
NtRp3016
(dp3017
g73
(dp3018
g100
g101
ssg82
g3007
sg75
(lp3019
S':'
asbag68
(g89
g70
NtRp3020
(dp3021
g73
(dp3022
sg82
g3007
sg75
(lp3023
g68
(g69
g70
NtRp3024
(dp3025
g73
(dp3026
g81
I3
ssg82
g3020
sg75
(lp3027
g1747
asbasbasbag68
(g84
g70
NtRp3028
(dp3029
g73
(dp3030
sg82
g2454
sg75
(lp3031
g68
(g89
g70
NtRp3032
(dp3033
g73
(dp3034
g93
g94
ssg82
g3028
sg75
(lp3035
S'wsgi.version'
p3036
asbag68
(g89
g70
NtRp3037
(dp3038
g73
(dp3039
g100
g101
ssg82
g3028
sg75
(lp3040
S':'
asbag68
(g89
g70
NtRp3041
(dp3042
g73
(dp3043
sg82
g3028
sg75
(lp3044
g68
(g69
g70
NtRp3045
(dp3046
g73
(dp3047
g81
I3
ssg82
g3041
sg75
(lp3048
S'1'
asbasbasbasbasbasbasbasbasbasbasbasbasbsS'frames'
p3049
(lp3050
(dp3051
S'file'
p3052
S'P:\\School\\DePaul\\Projects\\CSC_438\\web2py\\gluon\\restricted.py'
p3053
sS'dump'
p3054
(dp3055
S'code'
p3056
S"'# -*- coding: utf-8 -*-\\n# this file is released ...m=crud())\\n\\nresponse._vars=response._caller(user)\\n'"
p3057
sS'layer'
p3058
S"r'P:\\School\\DePaul\\Projects\\CSC_438\\web2py\\applications\\init\\controllers/default.py'"
p3059
sS'global compile2'
p3060
S'<function compile2>'
p3061
sS'ccode'
p3062
S'undefined'
p3063
ssS'lnum'
p3064
I203
sS'lines'
p3065
(dp3066
I198
S"    environment['__file__'] = layer"
p3067
sI199
S'    try:'
p3068
sI200
S'        if type(code) == types.CodeType:'
p3069
sI201
S'            ccode = code'
p3070
sI202
S'        else:'
p3071
sI203
S'            ccode = compile2(code,layer)'
p3072
sI204
S'        exec ccode in environment'
p3073
sI205
S'    except HTTP:'
p3074
sI206
S'        raise'
p3075
sI207
S'    except RestrictedError:'
p3076
ssS'call'
p3077
S"(code='# -*- coding: utf-8 -*-\\n# this file is released ...m=crud())\\n\\nresponse._vars=response._caller(user)\\n', environment={'A': <class 'gluon.html.A'>, 'Auth': <class 'gluon.tools.Auth'>, 'B': <class 'gluon.html.B'>, 'BEAUTIFY': <class 'gluon.html.BEAUTIFY'>, 'BODY': <class 'gluon.html.BODY'>, 'BR': <class 'gluon.html.BR'>, 'BUTTON': <class 'gluon.html.BUTTON'>, 'CAT': <class 'gluon.html.CAT'>, 'CENTER': <class 'gluon.html.CENTER'>, 'CLEANUP': <class 'gluon.validators.CLEANUP'>, ...}, layer=r'P:\\School\\DePaul\\Projects\\CSC_438\\web2py\\applications\\init\\controllers/default.py')"
p3078
sS'func'
p3079
S'restricted'
p3080
sa(dp3081
g3052
S'P:\\School\\DePaul\\Projects\\CSC_438\\web2py\\gluon\\restricted.py'
p3082
sg3054
(dp3083
S'builtincompile'
p3084
S'<built-in function compile>'
p3085
sS'code'
p3086
S"'# -*- coding: utf-8 -*-\\n# this file is released ...m=crud())\\n\\nresponse._vars=response._caller(user)\\n'"
p3087
sS'code.rstrip'
p3088
S'<built-in method rstrip of str object>'
p3089
sS').replace'
p3090
g3063
sS'layer'
p3091
S"r'P:\\School\\DePaul\\Projects\\CSC_438\\web2py\\applications\\init\\controllers/default.py'"
p3092
ssg3064
I189
sg3065
(dp3093
I192
S'    """'
p3094
sI193
S'    runs code in environment and returns the output. if an exception occurs'
p3095
sI184
S''
sI185
S'def compile2(code,layer):'
p3096
sI186
S'    """'
p3097
sI187
S"    The +'\\n' is necessary else compile fails when code ends in a comment."
p3098
sI188
S'    """'
p3099
sI189
S"    return compile(code.rstrip().replace('\\r\\n','\\n')+'\\n', layer, 'exec')"
p3100
sI190
S''
sI191
S"def restricted(code, environment=None, layer='Unknown'):"
p3101
ssg3077
S"(code='# -*- coding: utf-8 -*-\\n# this file is released ...m=crud())\\n\\nresponse._vars=response._caller(user)\\n', layer=r'P:\\School\\DePaul\\Projects\\CSC_438\\web2py\\applications\\init\\controllers/default.py')"
p3102
sg3079
S'compile2'
p3103
sasS'pyver'
p3104
S'Python 2.7.2: P:\\Workbench\\DevEnv\\Python27\\python.exe'
p3105
sS'session'
p3106
g68
(g69
g70
NtRp3107
(dp3108
g73
(dp3109
sg75
(lp3110
g68
(g77
g70
NtRp3111
(dp3112
g73
(dp3113
g81
I5
ssg82
Nsg75
(lp3114
g68
(g84
g70
NtRp3115
(dp3116
g73
(dp3117
sg82
g3111
sg75
(lp3118
g68
(g89
g70
NtRp3119
(dp3120
g73
(dp3121
g93
g94
ssg82
g3115
sg75
(lp3122
S'auth'
p3123
asbag68
(g89
g70
NtRp3124
(dp3125
g73
(dp3126
g100
g101
ssg82
g3115
sg75
(lp3127
S':'
asbag68
(g89
g70
NtRp3128
(dp3129
g73
(dp3130
sg82
g3115
sg75
(lp3131
g68
(g69
g70
NtRp3132
(dp3133
g73
(dp3134
g81
I5
ssg82
g3128
sg75
(lp3135
g68
(g77
g70
NtRp3136
(dp3137
g73
(dp3138
g81
I4
ssg82
Nsg75
(lp3139
g68
(g84
g70
NtRp3140
(dp3141
g73
(dp3142
sg82
g3136
sg75
(lp3143
g68
(g89
g70
NtRp3144
(dp3145
g73
(dp3146
g93
g94
ssg82
g3140
sg75
(lp3147
S'expiration'
p3148
asbag68
(g89
g70
NtRp3149
(dp3150
g73
(dp3151
g100
g101
ssg82
g3140
sg75
(lp3152
S':'
asbag68
(g89
g70
NtRp3153
(dp3154
g73
(dp3155
sg82
g3140
sg75
(lp3156
g68
(g69
g70
NtRp3157
(dp3158
g73
(dp3159
g81
I4
ssg82
g3153
sg75
(lp3160
S'2592000'
p3161
asbasbasbag68
(g84
g70
NtRp3162
(dp3163
g73
(dp3164
sg82
g3136
sg75
(lp3165
g68
(g89
g70
NtRp3166
(dp3167
g73
(dp3168
g93
g94
ssg82
g3162
sg75
(lp3169
S'hmac_key'
p3170
asbag68
(g89
g70
NtRp3171
(dp3172
g73
(dp3173
g100
g101
ssg82
g3162
sg75
(lp3174
S':'
asbag68
(g89
g70
NtRp3175
(dp3176
g73
(dp3177
sg82
g3162
sg75
(lp3178
g68
(g69
g70
NtRp3179
(dp3180
g73
(dp3181
g81
I4
ssg82
g3175
sg75
(lp3182
S'fecbb653-2809-4721-94d2-21791124365c'
p3183
asbasbasbag68
(g84
g70
NtRp3184
(dp3185
g73
(dp3186
sg82
g3136
sg75
(lp3187
g68
(g89
g70
NtRp3188
(dp3189
g73
(dp3190
g93
g94
ssg82
g3184
sg75
(lp3191
S'last_visit'
p3192
asbag68
(g89
g70
NtRp3193
(dp3194
g73
(dp3195
g100
g101
ssg82
g3184
sg75
(lp3196
S':'
asbag68
(g89
g70
NtRp3197
(dp3198
g73
(dp3199
sg82
g3184
sg75
(lp3200
g68
(g69
g70
NtRp3201
(dp3202
g73
(dp3203
g81
I4
ssg82
g3197
sg75
(lp3204
S'datetime.datetime(2011, 12, 29, 18, 0, 50, 733000)'
p3205
asbasbasbag68
(g84
g70
NtRp3206
(dp3207
g73
(dp3208
sg82
g3136
sg75
(lp3209
g68
(g89
g70
NtRp3210
(dp3211
g73
(dp3212
g93
g94
ssg82
g3206
sg75
(lp3213
S'remember'
p3214
asbag68
(g89
g70
NtRp3215
(dp3216
g73
(dp3217
g100
g101
ssg82
g3206
sg75
(lp3218
S':'
asbag68
(g89
g70
NtRp3219
(dp3220
g73
(dp3221
sg82
g3206
sg75
(lp3222
g68
(g69
g70
NtRp3223
(dp3224
g73
(dp3225
g81
I4
ssg82
g3219
sg75
(lp3226
g111
asbasbasbag68
(g84
g70
NtRp3227
(dp3228
g73
(dp3229
sg82
g3136
sg75
(lp3230
g68
(g89
g70
NtRp3231
(dp3232
g73
(dp3233
g93
g94
ssg82
g3227
sg75
(lp3234
S'user'
p3235
asbag68
(g89
g70
NtRp3236
(dp3237
g73
(dp3238
g100
g101
ssg82
g3227
sg75
(lp3239
S':'
asbag68
(g89
g70
NtRp3240
(dp3241
g73
(dp3242
sg82
g3227
sg75
(lp3243
g68
(g69
g70
NtRp3244
(dp3245
g73
(dp3246
g81
I4
ssg82
g3240
sg75
(lp3247
g68
(g77
g70
NtRp3248
(dp3249
g73
(dp3250
g81
I3
ssg82
Nsg75
(lp3251
g68
(g84
g70
NtRp3252
(dp3253
g73
(dp3254
sg82
g3248
sg75
(lp3255
g68
(g89
g70
NtRp3256
(dp3257
g73
(dp3258
g93
g94
ssg82
g3252
sg75
(lp3259
S'birthday'
p3260
asbag68
(g89
g70
NtRp3261
(dp3262
g73
(dp3263
g100
g101
ssg82
g3252
sg75
(lp3264
S':'
asbag68
(g89
g70
NtRp3265
(dp3266
g73
(dp3267
sg82
g3252
sg75
(lp3268
g68
(g69
g70
NtRp3269
(dp3270
g73
(dp3271
g81
I3
ssg82
g3265
sg75
(lp3272
S'datetime.date(1974, 5, 2)'
p3273
asbasbasbag68
(g84
g70
NtRp3274
(dp3275
g73
(dp3276
sg82
g3248
sg75
(lp3277
g68
(g89
g70
NtRp3278
(dp3279
g73
(dp3280
g93
g94
ssg82
g3274
sg75
(lp3281
S'challenges'
p3282
asbag68
(g89
g70
NtRp3283
(dp3284
g73
(dp3285
g100
g101
ssg82
g3274
sg75
(lp3286
S':'
asbag68
(g89
g70
NtRp3287
(dp3288
g73
(dp3289
sg82
g3274
sg75
(lp3290
g68
(g69
g70
NtRp3291
(dp3292
g73
(dp3293
g81
I3
ssg82
g3287
sg75
(lp3294
g68
(g77
g70
NtRp3295
(dp3296
g73
(dp3297
g81
I2
ssg82
Nsg75
(lp3298
sbasbasbasbag68
(g84
g70
NtRp3299
(dp3300
g73
(dp3301
sg82
g3248
sg75
(lp3302
g68
(g89
g70
NtRp3303
(dp3304
g73
(dp3305
g93
g94
ssg82
g3299
sg75
(lp3306
S'current_weight'
p3307
asbag68
(g89
g70
NtRp3308
(dp3309
g73
(dp3310
g100
g101
ssg82
g3299
sg75
(lp3311
S':'
asbag68
(g89
g70
NtRp3312
(dp3313
g73
(dp3314
sg82
g3299
sg75
(lp3315
g68
(g69
g70
NtRp3316
(dp3317
g73
(dp3318
g81
I3
ssg82
g3312
sg75
(lp3319
S'200'
p3320
asbasbasbag68
(g84
g70
NtRp3321
(dp3322
g73
(dp3323
sg82
g3248
sg75
(lp3324
g68
(g89
g70
NtRp3325
(dp3326
g73
(dp3327
g93
g94
ssg82
g3321
sg75
(lp3328
S'email'
p3329
asbag68
(g89
g70
NtRp3330
(dp3331
g73
(dp3332
g100
g101
ssg82
g3321
sg75
(lp3333
S':'
asbag68
(g89
g70
NtRp3334
(dp3335
g73
(dp3336
sg82
g3321
sg75
(lp3337
g68
(g69
g70
NtRp3338
(dp3339
g73
(dp3340
g81
I3
ssg82
g3334
sg75
(lp3341
S'aedwards92@gmail.com'
p3342
asbasbasbag68
(g84
g70
NtRp3343
(dp3344
g73
(dp3345
sg82
g3248
sg75
(lp3346
g68
(g89
g70
NtRp3347
(dp3348
g73
(dp3349
g93
g94
ssg82
g3343
sg75
(lp3350
S'first_name'
p3351
asbag68
(g89
g70
NtRp3352
(dp3353
g73
(dp3354
g100
g101
ssg82
g3343
sg75
(lp3355
S':'
asbag68
(g89
g70
NtRp3356
(dp3357
g73
(dp3358
sg82
g3343
sg75
(lp3359
g68
(g69
g70
NtRp3360
(dp3361
g73
(dp3362
g81
I3
ssg82
g3356
sg75
(lp3363
S'Adrian'
p3364
asbasbasbag68
(g84
g70
NtRp3365
(dp3366
g73
(dp3367
sg82
g3248
sg75
(lp3368
g68
(g89
g70
NtRp3369
(dp3370
g73
(dp3371
g93
g94
ssg82
g3365
sg75
(lp3372
S'gender'
p3373
asbag68
(g89
g70
NtRp3374
(dp3375
g73
(dp3376
g100
g101
ssg82
g3365
sg75
(lp3377
S':'
asbag68
(g89
g70
NtRp3378
(dp3379
g73
(dp3380
sg82
g3365
sg75
(lp3381
g68
(g69
g70
NtRp3382
(dp3383
g73
(dp3384
g81
I3
ssg82
g3378
sg75
(lp3385
S'Male'
p3386
asbasbasbag68
(g84
g70
NtRp3387
(dp3388
g73
(dp3389
sg82
g3248
sg75
(lp3390
g68
(g89
g70
NtRp3391
(dp3392
g73
(dp3393
g93
g94
ssg82
g3387
sg75
(lp3394
S'height'
p3395
asbag68
(g89
g70
NtRp3396
(dp3397
g73
(dp3398
g100
g101
ssg82
g3387
sg75
(lp3399
S':'
asbag68
(g89
g70
NtRp3400
(dp3401
g73
(dp3402
sg82
g3387
sg75
(lp3403
g68
(g69
g70
NtRp3404
(dp3405
g73
(dp3406
g81
I3
ssg82
g3400
sg75
(lp3407
S'72'
p3408
asbasbasbag68
(g84
g70
NtRp3409
(dp3410
g73
(dp3411
sg82
g3248
sg75
(lp3412
g68
(g89
g70
NtRp3413
(dp3414
g73
(dp3415
g93
g94
ssg82
g3409
sg75
(lp3416
S'id'
p3417
asbag68
(g89
g70
NtRp3418
(dp3419
g73
(dp3420
g100
g101
ssg82
g3409
sg75
(lp3421
S':'
asbag68
(g89
g70
NtRp3422
(dp3423
g73
(dp3424
sg82
g3409
sg75
(lp3425
g68
(g69
g70
NtRp3426
(dp3427
g73
(dp3428
g81
I3
ssg82
g3422
sg75
(lp3429
S'6'
asbasbasbag68
(g84
g70
NtRp3430
(dp3431
g73
(dp3432
sg82
g3248
sg75
(lp3433
g68
(g89
g70
NtRp3434
(dp3435
g73
(dp3436
g93
g94
ssg82
g3430
sg75
(lp3437
S'image'
p3438
asbag68
(g89
g70
NtRp3439
(dp3440
g73
(dp3441
g100
g101
ssg82
g3430
sg75
(lp3442
S':'
asbag68
(g89
g70
NtRp3443
(dp3444
g73
(dp3445
sg82
g3430
sg75
(lp3446
g68
(g69
g70
NtRp3447
(dp3448
g73
(dp3449
g81
I3
ssg82
g3443
sg75
(lp3450
S'auth_user.image.8baf4a6c018af91f.77696c6c792d776f6e6b612e706e67.png'
p3451
asbasbasbag68
(g84
g70
NtRp3452
(dp3453
g73
(dp3454
sg82
g3248
sg75
(lp3455
g68
(g89
g70
NtRp3456
(dp3457
g73
(dp3458
g93
g94
ssg82
g3452
sg75
(lp3459
S'last_name'
p3460
asbag68
(g89
g70
NtRp3461
(dp3462
g73
(dp3463
g100
g101
ssg82
g3452
sg75
(lp3464
S':'
asbag68
(g89
g70
NtRp3465
(dp3466
g73
(dp3467
sg82
g3452
sg75
(lp3468
g68
(g69
g70
NtRp3469
(dp3470
g73
(dp3471
g81
I3
ssg82
g3465
sg75
(lp3472
S'Edwards'
p3473
asbasbasbag68
(g84
g70
NtRp3474
(dp3475
g73
(dp3476
sg82
g3248
sg75
(lp3477
g68
(g89
g70
NtRp3478
(dp3479
g73
(dp3480
g93
g94
ssg82
g3474
sg75
(lp3481
S'password'
p3482
asbag68
(g89
g70
NtRp3483
(dp3484
g73
(dp3485
g100
g101
ssg82
g3474
sg75
(lp3486
S':'
asbag68
(g89
g70
NtRp3487
(dp3488
g73
(dp3489
sg82
g3474
sg75
(lp3490
g68
(g69
g70
NtRp3491
(dp3492
g73
(dp3493
g81
I3
ssg82
g3487
sg75
(lp3494
S'9a88d59f451be76137bbea7e483d504f'
p3495
asbasbasbag68
(g84
g70
NtRp3496
(dp3497
g73
(dp3498
sg82
g3248
sg75
(lp3499
g68
(g89
g70
NtRp3500
(dp3501
g73
(dp3502
g93
g94
ssg82
g3496
sg75
(lp3503
S'registration_id'
p3504
asbag68
(g89
g70
NtRp3505
(dp3506
g73
(dp3507
g100
g101
ssg82
g3496
sg75
(lp3508
S':'
asbag68
(g89
g70
NtRp3509
(dp3510
g73
(dp3511
sg82
g3496
sg75
(lp3512
g68
(g69
g70
NtRp3513
(dp3514
g73
(dp3515
g81
I3
ssg82
g3509
sg75
(lp3516
S''
asbasbasbag68
(g84
g70
NtRp3517
(dp3518
g73
(dp3519
sg82
g3248
sg75
(lp3520
g68
(g89
g70
NtRp3521
(dp3522
g73
(dp3523
g93
g94
ssg82
g3517
sg75
(lp3524
S'registration_key'
p3525
asbag68
(g89
g70
NtRp3526
(dp3527
g73
(dp3528
g100
g101
ssg82
g3517
sg75
(lp3529
S':'
asbag68
(g89
g70
NtRp3530
(dp3531
g73
(dp3532
sg82
g3517
sg75
(lp3533
g68
(g69
g70
NtRp3534
(dp3535
g73
(dp3536
g81
I3
ssg82
g3530
sg75
(lp3537
S''
asbasbasbag68
(g84
g70
NtRp3538
(dp3539
g73
(dp3540
sg82
g3248
sg75
(lp3541
g68
(g89
g70
NtRp3542
(dp3543
g73
(dp3544
g93
g94
ssg82
g3538
sg75
(lp3545
S'reset_password_key'
p3546
asbag68
(g89
g70
NtRp3547
(dp3548
g73
(dp3549
g100
g101
ssg82
g3538
sg75
(lp3550
S':'
asbag68
(g89
g70
NtRp3551
(dp3552
g73
(dp3553
sg82
g3538
sg75
(lp3554
g68
(g69
g70
NtRp3555
(dp3556
g73
(dp3557
g81
I3
ssg82
g3551
sg75
(lp3558
S'1325199492-0d9da731-e633-4d0a-bbca-f9527063d134'
p3559
asbasbasbasbasbasbasbasbasbasbasbag68
(g84
g70
NtRp3560
(dp3561
g73
(dp3562
sg82
g3111
sg75
(lp3563
g68
(g89
g70
NtRp3564
(dp3565
g73
(dp3566
g93
g94
ssg82
g3560
sg75
(lp3567
S'last_query'
p3568
asbag68
(g89
g70
NtRp3569
(dp3570
g73
(dp3571
g100
g101
ssg82
g3560
sg75
(lp3572
S':'
asbag68
(g89
g70
NtRp3573
(dp3574
g73
(dp3575
sg82
g3560
sg75
(lp3576
g68
(g69
g70
NtRp3577
(dp3578
g73
(dp3579
g81
I5
ssg82
g3573
sg75
(lp3580
S'db.auth_user.id>0'
p3581
asbasbasbasbasbsS'etype'
p3582
S"<type 'exceptions.IndentationError'>"
p3583
sS'date'
p3584
S'Thu Dec 29 18:24:51 2011'
p3585
sS'response'
p3586
g68
(g69
g70
NtRp3587
(dp3588
g73
(dp3589
sg75
(lp3590
g68
(g77
g70
NtRp3591
(dp3592
g73
(dp3593
g81
I5
ssg82
Nsg75
(lp3594
g68
(g84
g70
NtRp3595
(dp3596
g73
(dp3597
sg82
g3591
sg75
(lp3598
g68
(g89
g70
NtRp3599
(dp3600
g73
(dp3601
g93
g94
ssg82
g3595
sg75
(lp3602
g179
asbag68
(g89
g70
NtRp3603
(dp3604
g73
(dp3605
g100
g101
ssg82
g3595
sg75
(lp3606
S':'
asbag68
(g89
g70
NtRp3607
(dp3608
g73
(dp3609
sg82
g3595
sg75
(lp3610
g68
(g69
g70
NtRp3611
(dp3612
g73
(dp3613
g81
I5
ssg82
g3607
sg75
(lp3614
S'<cStringIO.StringO object at 0x08CC7240>'
p3615
asbasbasbag68
(g84
g70
NtRp3616
(dp3617
g73
(dp3618
sg82
g3591
sg75
(lp3619
g68
(g89
g70
NtRp3620
(dp3621
g73
(dp3622
g93
g94
ssg82
g3616
sg75
(lp3623
g245
asbag68
(g89
g70
NtRp3624
(dp3625
g73
(dp3626
g100
g101
ssg82
g3616
sg75
(lp3627
S':'
asbag68
(g89
g70
NtRp3628
(dp3629
g73
(dp3630
sg82
g3616
sg75
(lp3631
g68
(g69
g70
NtRp3632
(dp3633
g73
(dp3634
g81
I5
ssg82
g3628
sg75
(lp3635
g68
(g77
g70
NtRp3636
(dp3637
g73
(dp3638
g81
I4
ssg82
Nsg75
(lp3639
g68
(g84
g70
NtRp3640
(dp3641
g73
(dp3642
sg82
g3636
sg75
(lp3643
g68
(g89
g70
NtRp3644
(dp3645
g73
(dp3646
g93
g94
ssg82
g3640
sg75
(lp3647
S'session_id_init'
p3648
asbag68
(g89
g70
NtRp3649
(dp3650
g73
(dp3651
g100
g101
ssg82
g3640
sg75
(lp3652
S':'
asbag68
(g89
g70
NtRp3653
(dp3654
g73
(dp3655
sg82
g3640
sg75
(lp3656
g68
(g69
g70
NtRp3657
(dp3658
g73
(dp3659
g81
I4
ssg82
g3653
sg75
(lp3660
g68
(g77
g70
NtRp3661
(dp3662
g73
(dp3663
g81
I3
ssg82
Nsg75
(lp3664
g68
(g84
g70
NtRp3665
(dp3666
g73
(dp3667
sg82
g3661
sg75
(lp3668
g68
(g89
g70
NtRp3669
(dp3670
g73
(dp3671
g93
g94
ssg82
g3665
sg75
(lp3672
g295
asbag68
(g89
g70
NtRp3673
(dp3674
g73
(dp3675
g100
g101
ssg82
g3665
sg75
(lp3676
S':'
asbag68
(g89
g70
NtRp3677
(dp3678
g73
(dp3679
sg82
g3665
sg75
(lp3680
g68
(g69
g70
NtRp3681
(dp3682
g73
(dp3683
g81
I3
ssg82
g3677
sg75
(lp3684
S''
asbasbasbag68
(g84
g70
NtRp3685
(dp3686
g73
(dp3687
sg82
g3661
sg75
(lp3688
g68
(g89
g70
NtRp3689
(dp3690
g73
(dp3691
g93
g94
ssg82
g3685
sg75
(lp3692
g316
asbag68
(g89
g70
NtRp3693
(dp3694
g73
(dp3695
g100
g101
ssg82
g3685
sg75
(lp3696
S':'
asbag68
(g89
g70
NtRp3697
(dp3698
g73
(dp3699
sg82
g3685
sg75
(lp3700
g68
(g69
g70
NtRp3701
(dp3702
g73
(dp3703
g81
I3
ssg82
g3697
sg75
(lp3704
S''
asbasbasbag68
(g84
g70
NtRp3705
(dp3706
g73
(dp3707
sg82
g3661
sg75
(lp3708
g68
(g89
g70
NtRp3709
(dp3710
g73
(dp3711
g93
g94
ssg82
g3705
sg75
(lp3712
g337
asbag68
(g89
g70
NtRp3713
(dp3714
g73
(dp3715
g100
g101
ssg82
g3705
sg75
(lp3716
S':'
asbag68
(g89
g70
NtRp3717
(dp3718
g73
(dp3719
sg82
g3705
sg75
(lp3720
g68
(g69
g70
NtRp3721
(dp3722
g73
(dp3723
g81
I3
ssg82
g3717
sg75
(lp3724
S''
asbasbasbag68
(g84
g70
NtRp3725
(dp3726
g73
(dp3727
sg82
g3661
sg75
(lp3728
g68
(g89
g70
NtRp3729
(dp3730
g73
(dp3731
g93
g94
ssg82
g3725
sg75
(lp3732
g358
asbag68
(g89
g70
NtRp3733
(dp3734
g73
(dp3735
g100
g101
ssg82
g3725
sg75
(lp3736
S':'
asbag68
(g89
g70
NtRp3737
(dp3738
g73
(dp3739
sg82
g3725
sg75
(lp3740
g68
(g69
g70
NtRp3741
(dp3742
g73
(dp3743
g81
I3
ssg82
g3737
sg75
(lp3744
S''
asbasbasbag68
(g84
g70
NtRp3745
(dp3746
g73
(dp3747
sg82
g3661
sg75
(lp3748
g68
(g89
g70
NtRp3749
(dp3750
g73
(dp3751
g93
g94
ssg82
g3745
sg75
(lp3752
g379
asbag68
(g89
g70
NtRp3753
(dp3754
g73
(dp3755
g100
g101
ssg82
g3745
sg75
(lp3756
S':'
asbag68
(g89
g70
NtRp3757
(dp3758
g73
(dp3759
sg82
g3745
sg75
(lp3760
g68
(g69
g70
NtRp3761
(dp3762
g73
(dp3763
g81
I3
ssg82
g3757
sg75
(lp3764
S''
asbasbasbag68
(g84
g70
NtRp3765
(dp3766
g73
(dp3767
sg82
g3661
sg75
(lp3768
g68
(g89
g70
NtRp3769
(dp3770
g73
(dp3771
g93
g94
ssg82
g3765
sg75
(lp3772
g400
asbag68
(g89
g70
NtRp3773
(dp3774
g73
(dp3775
g100
g101
ssg82
g3765
sg75
(lp3776
S':'
asbag68
(g89
g70
NtRp3777
(dp3778
g73
(dp3779
sg82
g3765
sg75
(lp3780
g68
(g69
g70
NtRp3781
(dp3782
g73
(dp3783
g81
I3
ssg82
g3777
sg75
(lp3784
S'/'
asbasbasbag68
(g84
g70
NtRp3785
(dp3786
g73
(dp3787
sg82
g3661
sg75
(lp3788
g68
(g89
g70
NtRp3789
(dp3790
g73
(dp3791
g93
g94
ssg82
g3785
sg75
(lp3792
g421
asbag68
(g89
g70
NtRp3793
(dp3794
g73
(dp3795
g100
g101
ssg82
g3785
sg75
(lp3796
S':'
asbag68
(g89
g70
NtRp3797
(dp3798
g73
(dp3799
sg82
g3785
sg75
(lp3800
g68
(g69
g70
NtRp3801
(dp3802
g73
(dp3803
g81
I3
ssg82
g3797
sg75
(lp3804
S''
asbasbasbag68
(g84
g70
NtRp3805
(dp3806
g73
(dp3807
sg82
g3661
sg75
(lp3808
g68
(g89
g70
NtRp3809
(dp3810
g73
(dp3811
g93
g94
ssg82
g3805
sg75
(lp3812
g442
asbag68
(g89
g70
NtRp3813
(dp3814
g73
(dp3815
g100
g101
ssg82
g3805
sg75
(lp3816
S':'
asbag68
(g89
g70
NtRp3817
(dp3818
g73
(dp3819
sg82
g3805
sg75
(lp3820
g68
(g69
g70
NtRp3821
(dp3822
g73
(dp3823
g81
I3
ssg82
g3817
sg75
(lp3824
S''
asbasbasbasbasbasbasbasbasbasbasbag68
(g84
g70
NtRp3825
(dp3826
g73
(dp3827
sg82
g3591
sg75
(lp3828
g68
(g89
g70
NtRp3829
(dp3830
g73
(dp3831
g93
g94
ssg82
g3825
sg75
(lp3832
S'files'
p3833
asbag68
(g89
g70
NtRp3834
(dp3835
g73
(dp3836
g100
g101
ssg82
g3825
sg75
(lp3837
S':'
asbag68
(g89
g70
NtRp3838
(dp3839
g73
(dp3840
sg82
g3825
sg75
(lp3841
g68
(g69
g70
NtRp3842
(dp3843
g73
(dp3844
g81
I5
ssg82
g3838
sg75
(lp3845
g68
(g77
g70
NtRp3846
(dp3847
g73
(dp3848
g81
I4
ssg82
Nsg75
(lp3849
sbasbasbasbag68
(g84
g70
NtRp3850
(dp3851
g73
(dp3852
sg82
g3591
sg75
(lp3853
g68
(g89
g70
NtRp3854
(dp3855
g73
(dp3856
g93
g94
ssg82
g3850
sg75
(lp3857
S'flash'
p3858
asbag68
(g89
g70
NtRp3859
(dp3860
g73
(dp3861
g100
g101
ssg82
g3850
sg75
(lp3862
S':'
asbag68
(g89
g70
NtRp3863
(dp3864
g73
(dp3865
sg82
g3850
sg75
(lp3866
g68
(g69
g70
NtRp3867
(dp3868
g73
(dp3869
g81
I5
ssg82
g3863
sg75
(lp3870
S''
asbasbasbag68
(g84
g70
NtRp3871
(dp3872
g73
(dp3873
sg82
g3591
sg75
(lp3874
g68
(g89
g70
NtRp3875
(dp3876
g73
(dp3877
g93
g94
ssg82
g3871
sg75
(lp3878
S'generic_patterns'
p3879
asbag68
(g89
g70
NtRp3880
(dp3881
g73
(dp3882
g100
g101
ssg82
g3871
sg75
(lp3883
S':'
asbag68
(g89
g70
NtRp3884
(dp3885
g73
(dp3886
sg82
g3871
sg75
(lp3887
g68
(g69
g70
NtRp3888
(dp3889
g73
(dp3890
g81
I5
ssg82
g3884
sg75
(lp3891
g68
(g77
g70
NtRp3892
(dp3893
g73
(dp3894
g81
I4
ssg82
Nsg75
(lp3895
g68
(g84
g70
NtRp3896
(dp3897
g73
(dp3898
sg82
g3892
sg75
(lp3899
g68
(g89
g70
NtRp3900
(dp3901
g73
(dp3902
sg82
g3896
sg75
(lp3903
g68
(g69
g70
NtRp3904
(dp3905
g73
(dp3906
g81
I4
ssg82
g3900
sg75
(lp3907
S'*'
asbasbasbasbasbasbasbag68
(g84
g70
NtRp3908
(dp3909
g73
(dp3910
sg82
g3591
sg75
(lp3911
g68
(g89
g70
NtRp3912
(dp3913
g73
(dp3914
g93
g94
ssg82
g3908
sg75
(lp3915
S'headers'
p3916
asbag68
(g89
g70
NtRp3917
(dp3918
g73
(dp3919
g100
g101
ssg82
g3908
sg75
(lp3920
S':'
asbag68
(g89
g70
NtRp3921
(dp3922
g73
(dp3923
sg82
g3908
sg75
(lp3924
g68
(g69
g70
NtRp3925
(dp3926
g73
(dp3927
g81
I5
ssg82
g3921
sg75
(lp3928
g68
(g77
g70
NtRp3929
(dp3930
g73
(dp3931
g81
I4
ssg82
Nsg75
(lp3932
g68
(g84
g70
NtRp3933
(dp3934
g73
(dp3935
sg82
g3929
sg75
(lp3936
g68
(g89
g70
NtRp3937
(dp3938
g73
(dp3939
g93
g94
ssg82
g3933
sg75
(lp3940
S'Cache-Control'
p3941
asbag68
(g89
g70
NtRp3942
(dp3943
g73
(dp3944
g100
g101
ssg82
g3933
sg75
(lp3945
S':'
asbag68
(g89
g70
NtRp3946
(dp3947
g73
(dp3948
sg82
g3933
sg75
(lp3949
g68
(g69
g70
NtRp3950
(dp3951
g73
(dp3952
g81
I4
ssg82
g3946
sg75
(lp3953
S'no-store, no-cache, must-revalidate, post-check=0, pre-check=0'
p3954
asbasbasbag68
(g84
g70
NtRp3955
(dp3956
g73
(dp3957
sg82
g3929
sg75
(lp3958
g68
(g89
g70
NtRp3959
(dp3960
g73
(dp3961
g93
g94
ssg82
g3955
sg75
(lp3962
S'Content-Type'
p3963
asbag68
(g89
g70
NtRp3964
(dp3965
g73
(dp3966
g100
g101
ssg82
g3955
sg75
(lp3967
S':'
asbag68
(g89
g70
NtRp3968
(dp3969
g73
(dp3970
sg82
g3955
sg75
(lp3971
g68
(g69
g70
NtRp3972
(dp3973
g73
(dp3974
g81
I4
ssg82
g3968
sg75
(lp3975
S'text/html; charset=utf-8'
p3976
asbasbasbag68
(g84
g70
NtRp3977
(dp3978
g73
(dp3979
sg82
g3929
sg75
(lp3980
g68
(g89
g70
NtRp3981
(dp3982
g73
(dp3983
g93
g94
ssg82
g3977
sg75
(lp3984
S'Expires'
p3985
asbag68
(g89
g70
NtRp3986
(dp3987
g73
(dp3988
g100
g101
ssg82
g3977
sg75
(lp3989
S':'
asbag68
(g89
g70
NtRp3990
(dp3991
g73
(dp3992
sg82
g3977
sg75
(lp3993
g68
(g69
g70
NtRp3994
(dp3995
g73
(dp3996
g81
I4
ssg82
g3990
sg75
(lp3997
S'Thu, 29 Dec 2011 23:24:51 GMT'
p3998
asbasbasbag68
(g84
g70
NtRp3999
(dp4000
g73
(dp4001
sg82
g3929
sg75
(lp4002
g68
(g89
g70
NtRp4003
(dp4004
g73
(dp4005
g93
g94
ssg82
g3999
sg75
(lp4006
S'Pragma'
p4007
asbag68
(g89
g70
NtRp4008
(dp4009
g73
(dp4010
g100
g101
ssg82
g3999
sg75
(lp4011
S':'
asbag68
(g89
g70
NtRp4012
(dp4013
g73
(dp4014
sg82
g3999
sg75
(lp4015
g68
(g69
g70
NtRp4016
(dp4017
g73
(dp4018
g81
I4
ssg82
g4012
sg75
(lp4019
S'no-cache'
p4020
asbasbasbag68
(g84
g70
NtRp4021
(dp4022
g73
(dp4023
sg82
g3929
sg75
(lp4024
g68
(g89
g70
NtRp4025
(dp4026
g73
(dp4027
g93
g94
ssg82
g4021
sg75
(lp4028
S'X-Powered-By'
p4029
asbag68
(g89
g70
NtRp4030
(dp4031
g73
(dp4032
g100
g101
ssg82
g4021
sg75
(lp4033
S':'
asbag68
(g89
g70
NtRp4034
(dp4035
g73
(dp4036
sg82
g4021
sg75
(lp4037
g68
(g69
g70
NtRp4038
(dp4039
g73
(dp4040
g81
I4
ssg82
g4034
sg75
(lp4041
S'web2py'
p4042
asbasbasbasbasbasbasbag68
(g84
g70
NtRp4043
(dp4044
g73
(dp4045
sg82
g3591
sg75
(lp4046
g68
(g89
g70
NtRp4047
(dp4048
g73
(dp4049
g93
g94
ssg82
g4043
sg75
(lp4050
S'menu'
p4051
asbag68
(g89
g70
NtRp4052
(dp4053
g73
(dp4054
g100
g101
ssg82
g4043
sg75
(lp4055
S':'
asbag68
(g89
g70
NtRp4056
(dp4057
g73
(dp4058
sg82
g4043
sg75
(lp4059
g68
(g69
g70
NtRp4060
(dp4061
g73
(dp4062
g81
I5
ssg82
g4056
sg75
(lp4063
g68
(g77
g70
NtRp4064
(dp4065
g73
(dp4066
g81
I4
ssg82
Nsg75
(lp4067
g68
(g84
g70
NtRp4068
(dp4069
g73
(dp4070
sg82
g4064
sg75
(lp4071
g68
(g89
g70
NtRp4072
(dp4073
g73
(dp4074
sg82
g4068
sg75
(lp4075
g68
(g69
g70
NtRp4076
(dp4077
g73
(dp4078
g81
I4
ssg82
g4072
sg75
(lp4079
g68
(g77
g70
NtRp4080
(dp4081
g73
(dp4082
g81
I3
ssg82
Nsg75
(lp4083
g68
(g84
g70
NtRp4084
(dp4085
g73
(dp4086
sg82
g4080
sg75
(lp4087
g68
(g89
g70
NtRp4088
(dp4089
g73
(dp4090
sg82
g4084
sg75
(lp4091
g68
(g69
g70
NtRp4092
(dp4093
g73
(dp4094
g81
I3
ssg82
g4088
sg75
(lp4095
cgluon.languages
lazyT_unpickle
p4096
(S't\x04\x00\x00\x00Home'
tRp4097
asbasbasbag68
(g84
g70
NtRp4098
(dp4099
g73
(dp4100
sg82
g4080
sg75
(lp4101
g68
(g89
g70
NtRp4102
(dp4103
g73
(dp4104
sg82
g4098
sg75
(lp4105
g68
(g69
g70
NtRp4106
(dp4107
g73
(dp4108
g81
I3
ssg82
g4102
sg75
(lp4109
g111
asbasbasbag68
(g84
g70
NtRp4110
(dp4111
g73
(dp4112
sg82
g4080
sg75
(lp4113
g68
(g89
g70
NtRp4114
(dp4115
g73
(dp4116
sg82
g4110
sg75
(lp4117
g68
(g69
g70
NtRp4118
(dp4119
g73
(dp4120
g81
I3
ssg82
g4114
sg75
(lp4121
S'/init/default/index'
p4122
asbasbasbag68
(g84
g70
NtRp4123
(dp4124
g73
(dp4125
sg82
g4080
sg75
(lp4126
g68
(g89
g70
NtRp4127
(dp4128
g73
(dp4129
sg82
g4123
sg75
(lp4130
g68
(g69
g70
NtRp4131
(dp4132
g73
(dp4133
g81
I3
ssg82
g4127
sg75
(lp4134
g68
(g77
g70
NtRp4135
(dp4136
g73
(dp4137
g81
I2
ssg82
Nsg75
(lp4138
sbasbasbasbasbasbasbasbag68
(g84
g70
NtRp4139
(dp4140
g73
(dp4141
sg82
g4064
sg75
(lp4142
g68
(g89
g70
NtRp4143
(dp4144
g73
(dp4145
sg82
g4139
sg75
(lp4146
g68
(g69
g70
NtRp4147
(dp4148
g73
(dp4149
g81
I4
ssg82
g4143
sg75
(lp4150
g68
(g77
g70
NtRp4151
(dp4152
g73
(dp4153
g81
I3
ssg82
Nsg75
(lp4154
g68
(g84
g70
NtRp4155
(dp4156
g73
(dp4157
sg82
g4151
sg75
(lp4158
g68
(g89
g70
NtRp4159
(dp4160
g73
(dp4161
sg82
g4155
sg75
(lp4162
g68
(g69
g70
NtRp4163
(dp4164
g73
(dp4165
g81
I3
ssg82
g4159
sg75
(lp4166
g4096
(S's\x08\x00\x00\x00This App'
tRp4167
asbasbasbag68
(g84
g70
NtRp4168
(dp4169
g73
(dp4170
sg82
g4151
sg75
(lp4171
g68
(g89
g70
NtRp4172
(dp4173
g73
(dp4174
sg82
g4168
sg75
(lp4175
g68
(g69
g70
NtRp4176
(dp4177
g73
(dp4178
g81
I3
ssg82
g4172
sg75
(lp4179
g111
asbasbasbag68
(g84
g70
NtRp4180
(dp4181
g73
(dp4182
sg82
g4151
sg75
(lp4183
g68
(g89
g70
NtRp4184
(dp4185
g73
(dp4186
sg82
g4180
sg75
(lp4187
g68
(g69
g70
NtRp4188
(dp4189
g73
(dp4190
g81
I3
ssg82
g4184
sg75
(lp4191
S'/admin/default/design/init'
p4192
asbasbasbag68
(g84
g70
NtRp4193
(dp4194
g73
(dp4195
sg82
g4151
sg75
(lp4196
g68
(g89
g70
NtRp4197
(dp4198
g73
(dp4199
sg82
g4193
sg75
(lp4200
g68
(g69
g70
NtRp4201
(dp4202
g73
(dp4203
g81
I3
ssg82
g4197
sg75
(lp4204
g68
(g77
g70
NtRp4205
(dp4206
g73
(dp4207
g81
I2
ssg82
Nsg75
(lp4208
g68
(g84
g70
NtRp4209
(dp4210
g73
(dp4211
sg82
g4205
sg75
(lp4212
g68
(g89
g70
NtRp4213
(dp4214
g73
(dp4215
sg82
g4209
sg75
(lp4216
g68
(g69
g70
NtRp4217
(dp4218
g73
(dp4219
g81
I2
ssg82
g4213
sg75
(lp4220
g68
(g77
g70
NtRp4221
(dp4222
g73
(dp4223
g81
I1
ssg82
Nsg75
(lp4224
g68
(g84
g70
NtRp4225
(dp4226
g73
(dp4227
sg82
g4221
sg75
(lp4228
g68
(g89
g70
NtRp4229
(dp4230
g73
(dp4231
sg82
g4225
sg75
(lp4232
g68
(g69
g70
NtRp4233
(dp4234
g73
(dp4235
g81
I1
ssg82
g4229
sg75
(lp4236
g4096
(S't\n\x00\x00\x00Controller'
tRp4237
asbasbasbag68
(g84
g70
NtRp4238
(dp4239
g73
(dp4240
sg82
g4221
sg75
(lp4241
g68
(g89
g70
NtRp4242
(dp4243
g73
(dp4244
sg82
g4238
sg75
(lp4245
g68
(g69
g70
NtRp4246
(dp4247
g73
(dp4248
g81
I1
ssg82
g4242
sg75
(lp4249
I00
asbasbasbag68
(g84
g70
NtRp4250
(dp4251
g73
(dp4252
sg82
g4221
sg75
(lp4253
g68
(g89
g70
NtRp4254
(dp4255
g73
(dp4256
sg82
g4250
sg75
(lp4257
g68
(g69
g70
NtRp4258
(dp4259
g73
(dp4260
g81
I1
ssg82
g4254
sg75
(lp4261
S'/admin/default/edit/init/controllers/default.py'
p4262
asbasbasbasbasbasbasbag68
(g84
g70
NtRp4263
(dp4264
g73
(dp4265
sg82
g4205
sg75
(lp4266
g68
(g89
g70
NtRp4267
(dp4268
g73
(dp4269
sg82
g4263
sg75
(lp4270
g68
(g69
g70
NtRp4271
(dp4272
g73
(dp4273
g81
I2
ssg82
g4267
sg75
(lp4274
g68
(g77
g70
NtRp4275
(dp4276
g73
(dp4277
g81
I1
ssg82
Nsg75
(lp4278
g68
(g84
g70
NtRp4279
(dp4280
g73
(dp4281
sg82
g4275
sg75
(lp4282
g68
(g89
g70
NtRp4283
(dp4284
g73
(dp4285
sg82
g4279
sg75
(lp4286
g68
(g69
g70
NtRp4287
(dp4288
g73
(dp4289
g81
I1
ssg82
g4283
sg75
(lp4290
g4096
(S't\x04\x00\x00\x00View'
tRp4291
asbasbasbag68
(g84
g70
NtRp4292
(dp4293
g73
(dp4294
sg82
g4275
sg75
(lp4295
g68
(g89
g70
NtRp4296
(dp4297
g73
(dp4298
sg82
g4292
sg75
(lp4299
g68
(g69
g70
NtRp4300
(dp4301
g73
(dp4302
g81
I1
ssg82
g4296
sg75
(lp4303
I00
asbasbasbag68
(g84
g70
NtRp4304
(dp4305
g73
(dp4306
sg82
g4275
sg75
(lp4307
g68
(g89
g70
NtRp4308
(dp4309
g73
(dp4310
sg82
g4304
sg75
(lp4311
g68
(g69
g70
NtRp4312
(dp4313
g73
(dp4314
g81
I1
ssg82
g4308
sg75
(lp4315
S'/admin/default/edit/init/views/default/user.html'
p4316
asbasbasbasbasbasbasbag68
(g84
g70
NtRp4317
(dp4318
g73
(dp4319
sg82
g4205
sg75
(lp4320
g68
(g89
g70
NtRp4321
(dp4322
g73
(dp4323
sg82
g4317
sg75
(lp4324
g68
(g69
g70
NtRp4325
(dp4326
g73
(dp4327
g81
I2
ssg82
g4321
sg75
(lp4328
g68
(g77
g70
NtRp4329
(dp4330
g73
(dp4331
g81
I1
ssg82
Nsg75
(lp4332
g68
(g84
g70
NtRp4333
(dp4334
g73
(dp4335
sg82
g4329
sg75
(lp4336
g68
(g89
g70
NtRp4337
(dp4338
g73
(dp4339
sg82
g4333
sg75
(lp4340
g68
(g69
g70
NtRp4341
(dp4342
g73
(dp4343
g81
I1
ssg82
g4337
sg75
(lp4344
g4096
(S't\x06\x00\x00\x00Layout'
tRp4345
asbasbasbag68
(g84
g70
NtRp4346
(dp4347
g73
(dp4348
sg82
g4329
sg75
(lp4349
g68
(g89
g70
NtRp4350
(dp4351
g73
(dp4352
sg82
g4346
sg75
(lp4353
g68
(g69
g70
NtRp4354
(dp4355
g73
(dp4356
g81
I1
ssg82
g4350
sg75
(lp4357
I00
asbasbasbag68
(g84
g70
NtRp4358
(dp4359
g73
(dp4360
sg82
g4329
sg75
(lp4361
g68
(g89
g70
NtRp4362
(dp4363
g73
(dp4364
sg82
g4358
sg75
(lp4365
g68
(g69
g70
NtRp4366
(dp4367
g73
(dp4368
g81
I1
ssg82
g4362
sg75
(lp4369
S'/admin/default/edit/init/views/layout.html'
p4370
asbasbasbasbasbasbasbag68
(g84
g70
NtRp4371
(dp4372
g73
(dp4373
sg82
g4205
sg75
(lp4374
g68
(g89
g70
NtRp4375
(dp4376
g73
(dp4377
sg82
g4371
sg75
(lp4378
g68
(g69
g70
NtRp4379
(dp4380
g73
(dp4381
g81
I2
ssg82
g4375
sg75
(lp4382
g68
(g77
g70
NtRp4383
(dp4384
g73
(dp4385
g81
I1
ssg82
Nsg75
(lp4386
g68
(g84
g70
NtRp4387
(dp4388
g73
(dp4389
sg82
g4383
sg75
(lp4390
g68
(g89
g70
NtRp4391
(dp4392
g73
(dp4393
sg82
g4387
sg75
(lp4394
g68
(g69
g70
NtRp4395
(dp4396
g73
(dp4397
g81
I1
ssg82
g4391
sg75
(lp4398
g4096
(S't\n\x00\x00\x00Stylesheet'
tRp4399
asbasbasbag68
(g84
g70
NtRp4400
(dp4401
g73
(dp4402
sg82
g4383
sg75
(lp4403
g68
(g89
g70
NtRp4404
(dp4405
g73
(dp4406
sg82
g4400
sg75
(lp4407
g68
(g69
g70
NtRp4408
(dp4409
g73
(dp4410
g81
I1
ssg82
g4404
sg75
(lp4411
I00
asbasbasbag68
(g84
g70
NtRp4412
(dp4413
g73
(dp4414
sg82
g4383
sg75
(lp4415
g68
(g89
g70
NtRp4416
(dp4417
g73
(dp4418
sg82
g4412
sg75
(lp4419
g68
(g69
g70
NtRp4420
(dp4421
g73
(dp4422
g81
I1
ssg82
g4416
sg75
(lp4423
S'/admin/default/edit/init/static/base.css'
p4424
asbasbasbasbasbasbasbag68
(g84
g70
NtRp4425
(dp4426
g73
(dp4427
sg82
g4205
sg75
(lp4428
g68
(g89
g70
NtRp4429
(dp4430
g73
(dp4431
sg82
g4425
sg75
(lp4432
g68
(g69
g70
NtRp4433
(dp4434
g73
(dp4435
g81
I2
ssg82
g4429
sg75
(lp4436
g68
(g77
g70
NtRp4437
(dp4438
g73
(dp4439
g81
I1
ssg82
Nsg75
(lp4440
g68
(g84
g70
NtRp4441
(dp4442
g73
(dp4443
sg82
g4437
sg75
(lp4444
g68
(g89
g70
NtRp4445
(dp4446
g73
(dp4447
sg82
g4441
sg75
(lp4448
g68
(g69
g70
NtRp4449
(dp4450
g73
(dp4451
g81
I1
ssg82
g4445
sg75
(lp4452
g4096
(S's\x08\x00\x00\x00DB Model'
tRp4453
asbasbasbag68
(g84
g70
NtRp4454
(dp4455
g73
(dp4456
sg82
g4437
sg75
(lp4457
g68
(g89
g70
NtRp4458
(dp4459
g73
(dp4460
sg82
g4454
sg75
(lp4461
g68
(g69
g70
NtRp4462
(dp4463
g73
(dp4464
g81
I1
ssg82
g4458
sg75
(lp4465
I00
asbasbasbag68
(g84
g70
NtRp4466
(dp4467
g73
(dp4468
sg82
g4437
sg75
(lp4469
g68
(g89
g70
NtRp4470
(dp4471
g73
(dp4472
sg82
g4466
sg75
(lp4473
g68
(g69
g70
NtRp4474
(dp4475
g73
(dp4476
g81
I1
ssg82
g4470
sg75
(lp4477
S'/admin/default/edit/init/models/db.py'
p4478
asbasbasbasbasbasbasbag68
(g84
g70
NtRp4479
(dp4480
g73
(dp4481
sg82
g4205
sg75
(lp4482
g68
(g89
g70
NtRp4483
(dp4484
g73
(dp4485
sg82
g4479
sg75
(lp4486
g68
(g69
g70
NtRp4487
(dp4488
g73
(dp4489
g81
I2
ssg82
g4483
sg75
(lp4490
g68
(g77
g70
NtRp4491
(dp4492
g73
(dp4493
g81
I1
ssg82
Nsg75
(lp4494
g68
(g84
g70
NtRp4495
(dp4496
g73
(dp4497
sg82
g4491
sg75
(lp4498
g68
(g89
g70
NtRp4499
(dp4500
g73
(dp4501
sg82
g4495
sg75
(lp4502
g68
(g69
g70
NtRp4503
(dp4504
g73
(dp4505
g81
I1
ssg82
g4499
sg75
(lp4506
g4096
(S's\n\x00\x00\x00Menu Model'
tRp4507
asbasbasbag68
(g84
g70
NtRp4508
(dp4509
g73
(dp4510
sg82
g4491
sg75
(lp4511
g68
(g89
g70
NtRp4512
(dp4513
g73
(dp4514
sg82
g4508
sg75
(lp4515
g68
(g69
g70
NtRp4516
(dp4517
g73
(dp4518
g81
I1
ssg82
g4512
sg75
(lp4519
I00
asbasbasbag68
(g84
g70
NtRp4520
(dp4521
g73
(dp4522
sg82
g4491
sg75
(lp4523
g68
(g89
g70
NtRp4524
(dp4525
g73
(dp4526
sg82
g4520
sg75
(lp4527
g68
(g69
g70
NtRp4528
(dp4529
g73
(dp4530
g81
I1
ssg82
g4524
sg75
(lp4531
S'/admin/default/edit/init/models/menu.py'
p4532
asbasbasbasbasbasbasbag68
(g84
g70
NtRp4533
(dp4534
g73
(dp4535
sg82
g4205
sg75
(lp4536
g68
(g89
g70
NtRp4537
(dp4538
g73
(dp4539
sg82
g4533
sg75
(lp4540
g68
(g69
g70
NtRp4541
(dp4542
g73
(dp4543
g81
I2
ssg82
g4537
sg75
(lp4544
g68
(g77
g70
NtRp4545
(dp4546
g73
(dp4547
g81
I1
ssg82
Nsg75
(lp4548
g68
(g84
g70
NtRp4549
(dp4550
g73
(dp4551
sg82
g4545
sg75
(lp4552
g68
(g89
g70
NtRp4553
(dp4554
g73
(dp4555
sg82
g4549
sg75
(lp4556
g68
(g69
g70
NtRp4557
(dp4558
g73
(dp4559
g81
I1
ssg82
g4553
sg75
(lp4560
g4096
(S't\x08\x00\x00\x00Database'
tRp4561
asbasbasbag68
(g84
g70
NtRp4562
(dp4563
g73
(dp4564
sg82
g4545
sg75
(lp4565
g68
(g89
g70
NtRp4566
(dp4567
g73
(dp4568
sg82
g4562
sg75
(lp4569
g68
(g69
g70
NtRp4570
(dp4571
g73
(dp4572
g81
I1
ssg82
g4566
sg75
(lp4573
I00
asbasbasbag68
(g84
g70
NtRp4574
(dp4575
g73
(dp4576
sg82
g4545
sg75
(lp4577
g68
(g89
g70
NtRp4578
(dp4579
g73
(dp4580
sg82
g4574
sg75
(lp4581
g68
(g69
g70
NtRp4582
(dp4583
g73
(dp4584
g81
I1
ssg82
g4578
sg75
(lp4585
S'/init/appadmin/index'
p4586
asbasbasbasbasbasbasbag68
(g84
g70
NtRp4587
(dp4588
g73
(dp4589
sg82
g4205
sg75
(lp4590
g68
(g89
g70
NtRp4591
(dp4592
g73
(dp4593
sg82
g4587
sg75
(lp4594
g68
(g69
g70
NtRp4595
(dp4596
g73
(dp4597
g81
I2
ssg82
g4591
sg75
(lp4598
g68
(g77
g70
NtRp4599
(dp4600
g73
(dp4601
g81
I1
ssg82
Nsg75
(lp4602
g68
(g84
g70
NtRp4603
(dp4604
g73
(dp4605
sg82
g4599
sg75
(lp4606
g68
(g89
g70
NtRp4607
(dp4608
g73
(dp4609
sg82
g4603
sg75
(lp4610
g68
(g69
g70
NtRp4611
(dp4612
g73
(dp4613
g81
I1
ssg82
g4607
sg75
(lp4614
g4096
(S't\x06\x00\x00\x00Errors'
tRp4615
asbasbasbag68
(g84
g70
NtRp4616
(dp4617
g73
(dp4618
sg82
g4599
sg75
(lp4619
g68
(g89
g70
NtRp4620
(dp4621
g73
(dp4622
sg82
g4616
sg75
(lp4623
g68
(g69
g70
NtRp4624
(dp4625
g73
(dp4626
g81
I1
ssg82
g4620
sg75
(lp4627
I00
asbasbasbag68
(g84
g70
NtRp4628
(dp4629
g73
(dp4630
sg82
g4599
sg75
(lp4631
g68
(g89
g70
NtRp4632
(dp4633
g73
(dp4634
sg82
g4628
sg75
(lp4635
g68
(g69
g70
NtRp4636
(dp4637
g73
(dp4638
g81
I1
ssg82
g4632
sg75
(lp4639
S'/admin/default/errors/init'
p4640
asbasbasbasbasbasbasbag68
(g84
g70
NtRp4641
(dp4642
g73
(dp4643
sg82
g4205
sg75
(lp4644
g68
(g89
g70
NtRp4645
(dp4646
g73
(dp4647
sg82
g4641
sg75
(lp4648
g68
(g69
g70
NtRp4649
(dp4650
g73
(dp4651
g81
I2
ssg82
g4645
sg75
(lp4652
g68
(g77
g70
NtRp4653
(dp4654
g73
(dp4655
g81
I1
ssg82
Nsg75
(lp4656
g68
(g84
g70
NtRp4657
(dp4658
g73
(dp4659
sg82
g4653
sg75
(lp4660
g68
(g89
g70
NtRp4661
(dp4662
g73
(dp4663
sg82
g4657
sg75
(lp4664
g68
(g69
g70
NtRp4665
(dp4666
g73
(dp4667
g81
I1
ssg82
g4661
sg75
(lp4668
g4096
(S't\x05\x00\x00\x00About'
tRp4669
asbasbasbag68
(g84
g70
NtRp4670
(dp4671
g73
(dp4672
sg82
g4653
sg75
(lp4673
g68
(g89
g70
NtRp4674
(dp4675
g73
(dp4676
sg82
g4670
sg75
(lp4677
g68
(g69
g70
NtRp4678
(dp4679
g73
(dp4680
g81
I1
ssg82
g4674
sg75
(lp4681
I00
asbasbasbag68
(g84
g70
NtRp4682
(dp4683
g73
(dp4684
sg82
g4653
sg75
(lp4685
g68
(g89
g70
NtRp4686
(dp4687
g73
(dp4688
sg82
g4682
sg75
(lp4689
g68
(g69
g70
NtRp4690
(dp4691
g73
(dp4692
g81
I1
ssg82
g4686
sg75
(lp4693
S'/admin/default/about/init'
p4694
asbasbasbasbasbasbasbasbasbasbasbasbasbasbasbag68
(g84
g70
NtRp4695
(dp4696
g73
(dp4697
sg82
g4064
sg75
(lp4698
g68
(g89
g70
NtRp4699
(dp4700
g73
(dp4701
sg82
g4695
sg75
(lp4702
g68
(g69
g70
NtRp4703
(dp4704
g73
(dp4705
g81
I4
ssg82
g4699
sg75
(lp4706
g68
(g77
g70
NtRp4707
(dp4708
g73
(dp4709
g81
I3
ssg82
Nsg75
(lp4710
g68
(g84
g70
NtRp4711
(dp4712
g73
(dp4713
sg82
g4707
sg75
(lp4714
g68
(g89
g70
NtRp4715
(dp4716
g73
(dp4717
sg82
g4711
sg75
(lp4718
g68
(g69
g70
NtRp4719
(dp4720
g73
(dp4721
g81
I3
ssg82
g4715
sg75
(lp4722
g4096
(S't\t\x00\x00\x00Resources'
tRp4723
asbasbasbag68
(g84
g70
NtRp4724
(dp4725
g73
(dp4726
sg82
g4707
sg75
(lp4727
g68
(g89
g70
NtRp4728
(dp4729
g73
(dp4730
sg82
g4724
sg75
(lp4731
g68
(g69
g70
NtRp4732
(dp4733
g73
(dp4734
g81
I3
ssg82
g4728
sg75
(lp4735
g111
asbasbasbag68
(g84
g70
NtRp4736
(dp4737
g73
(dp4738
sg82
g4707
sg75
(lp4739
g68
(g89
g70
NtRp4740
(dp4741
g73
(dp4742
sg82
g4736
sg75
(lp4743
g68
(g69
g70
NtRp4744
(dp4745
g73
(dp4746
g81
I3
ssg82
g4740
sg75
(lp4747
S'None'
p4748
asbasbasbag68
(g84
g70
NtRp4749
(dp4750
g73
(dp4751
sg82
g4707
sg75
(lp4752
g68
(g89
g70
NtRp4753
(dp4754
g73
(dp4755
sg82
g4749
sg75
(lp4756
g68
(g69
g70
NtRp4757
(dp4758
g73
(dp4759
g81
I3
ssg82
g4753
sg75
(lp4760
g68
(g77
g70
NtRp4761
(dp4762
g73
(dp4763
g81
I2
ssg82
Nsg75
(lp4764
g68
(g84
g70
NtRp4765
(dp4766
g73
(dp4767
sg82
g4761
sg75
(lp4768
g68
(g89
g70
NtRp4769
(dp4770
g73
(dp4771
sg82
g4765
sg75
(lp4772
g68
(g69
g70
NtRp4773
(dp4774
g73
(dp4775
g81
I2
ssg82
g4769
sg75
(lp4776
g68
(g77
g70
NtRp4777
(dp4778
g73
(dp4779
g81
I1
ssg82
Nsg75
(lp4780
g68
(g84
g70
NtRp4781
(dp4782
g73
(dp4783
sg82
g4777
sg75
(lp4784
g68
(g89
g70
NtRp4785
(dp4786
g73
(dp4787
sg82
g4781
sg75
(lp4788
g68
(g69
g70
NtRp4789
(dp4790
g73
(dp4791
g81
I1
ssg82
g4785
sg75
(lp4792
g4096
(S't\r\x00\x00\x00Documentation'
tRp4793
asbasbasbag68
(g84
g70
NtRp4794
(dp4795
g73
(dp4796
sg82
g4777
sg75
(lp4797
g68
(g89
g70
NtRp4798
(dp4799
g73
(dp4800
sg82
g4794
sg75
(lp4801
g68
(g69
g70
NtRp4802
(dp4803
g73
(dp4804
g81
I1
ssg82
g4798
sg75
(lp4805
I00
asbasbasbag68
(g84
g70
NtRp4806
(dp4807
g73
(dp4808
sg82
g4777
sg75
(lp4809
g68
(g89
g70
NtRp4810
(dp4811
g73
(dp4812
sg82
g4806
sg75
(lp4813
g68
(g69
g70
NtRp4814
(dp4815
g73
(dp4816
g81
I1
ssg82
g4810
sg75
(lp4817
S'http://www.web2py.com/book'
p4818
asbasbasbag68
(g84
g70
NtRp4819
(dp4820
g73
(dp4821
sg82
g4777
sg75
(lp4822
g68
(g89
g70
NtRp4823
(dp4824
g73
(dp4825
sg82
g4819
sg75
(lp4826
g68
(g69
g70
NtRp4827
(dp4828
g73
(dp4829
g81
I1
ssg82
g4823
sg75
(lp4830
(lp4831
(g4096
(S't\x07\x00\x00\x00Preface'
tRp4832
I00
S'http://www.web2py.com/book/default/chapter/00'
p4833
tp4834
a(g4096
(S't\x0c\x00\x00\x00Introduction'
tRp4835
I00
S'http://www.web2py.com/book/default/chapter/01'
p4836
tp4837
a(g4096
(S't\x06\x00\x00\x00Python'
tRp4838
I00
S'http://www.web2py.com/book/default/chapter/02'
p4839
tp4840
a(g4096
(S't\x08\x00\x00\x00Overview'
tRp4841
I00
S'http://www.web2py.com/book/default/chapter/03'
p4842
tp4843
a(g4096
(S's\x08\x00\x00\x00The Core'
tRp4844
I00
S'http://www.web2py.com/book/default/chapter/04'
p4845
tp4846
a(g4096
(S's\t\x00\x00\x00The Views'
tRp4847
I00
S'http://www.web2py.com/book/default/chapter/05'
p4848
tp4849
a(g4096
(S't\x08\x00\x00\x00Database'
tRp4850
I00
S'http://www.web2py.com/book/default/chapter/06'
p4851
tp4852
a(g4096
(S's\x14\x00\x00\x00Forms and Validators'
tRp4853
I00
S'http://www.web2py.com/book/default/chapter/07'
p4854
tp4855
a(g4096
(S's\x0e\x00\x00\x00Access Control'
tRp4856
I00
S'http://www.web2py.com/book/default/chapter/08'
p4857
tp4858
a(g4096
(S't\x08\x00\x00\x00Services'
tRp4859
I00
S'http://www.web2py.com/book/default/chapter/09'
p4860
tp4861
a(g4096
(S's\x0c\x00\x00\x00Ajax Recipes'
tRp4862
I00
S'http://www.web2py.com/book/default/chapter/10'
p4863
tp4864
a(g4096
(S's\x12\x00\x00\x00Deployment Recipes'
tRp4865
I00
S'http://www.web2py.com/book/default/chapter/11'
p4866
tp4867
a(g4096
(S's\r\x00\x00\x00Other Recipes'
tRp4868
I00
S'http://www.web2py.com/book/default/chapter/12'
p4869
tp4870
a(g4096
(S's\r\x00\x00\x00Buy this book'
tRp4871
I00
S'http://stores.lulu.com/web2py'
p4872
tp4873
aasbasbasbasbasbasbasbag68
(g84
g70
NtRp4874
(dp4875
g73
(dp4876
sg82
g4761
sg75
(lp4877
g68
(g89
g70
NtRp4878
(dp4879
g73
(dp4880
sg82
g4874
sg75
(lp4881
g68
(g69
g70
NtRp4882
(dp4883
g73
(dp4884
g81
I2
ssg82
g4878
sg75
(lp4885
g68
(g77
g70
NtRp4886
(dp4887
g73
(dp4888
g81
I1
ssg82
Nsg75
(lp4889
g68
(g84
g70
NtRp4890
(dp4891
g73
(dp4892
sg82
g4886
sg75
(lp4893
g68
(g89
g70
NtRp4894
(dp4895
g73
(dp4896
sg82
g4890
sg75
(lp4897
g68
(g69
g70
NtRp4898
(dp4899
g73
(dp4900
g81
I1
ssg82
g4894
sg75
(lp4901
g4096
(S't\t\x00\x00\x00Community'
tRp4902
asbasbasbag68
(g84
g70
NtRp4903
(dp4904
g73
(dp4905
sg82
g4886
sg75
(lp4906
g68
(g89
g70
NtRp4907
(dp4908
g73
(dp4909
sg82
g4903
sg75
(lp4910
g68
(g69
g70
NtRp4911
(dp4912
g73
(dp4913
g81
I1
ssg82
g4907
sg75
(lp4914
I00
asbasbasbag68
(g84
g70
NtRp4915
(dp4916
g73
(dp4917
sg82
g4886
sg75
(lp4918
g68
(g89
g70
NtRp4919
(dp4920
g73
(dp4921
sg82
g4915
sg75
(lp4922
g68
(g69
g70
NtRp4923
(dp4924
g73
(dp4925
g81
I1
ssg82
g4919
sg75
(lp4926
Nasbasbasbag68
(g84
g70
NtRp4927
(dp4928
g73
(dp4929
sg82
g4886
sg75
(lp4930
g68
(g89
g70
NtRp4931
(dp4932
g73
(dp4933
sg82
g4927
sg75
(lp4934
g68
(g69
g70
NtRp4935
(dp4936
g73
(dp4937
g81
I1
ssg82
g4931
sg75
(lp4938
(lp4939
(g4096
(S't\x06\x00\x00\x00Groups'
tRp4940
I00
S'http://www.web2py.com/examples/default/usergroups'
p4941
tp4942
a(g4096
(S't\x07\x00\x00\x00Twitter'
tRp4943
I00
S'http://twitter.com/web2py'
p4944
tp4945
a(g4096
(S's\t\x00\x00\x00Live chat'
tRp4946
I00
S'http://mibbit.com/?channel=%23web2py&server=irc.mibbit.net'
p4947
tp4948
a(g4096
(S's\n\x00\x00\x00User Voice'
tRp4949
I00
S'http://web2py.uservoice.com/'
p4950
tp4951
aasbasbasbasbasbasbasbag68
(g84
g70
NtRp4952
(dp4953
g73
(dp4954
sg82
g4761
sg75
(lp4955
g68
(g89
g70
NtRp4956
(dp4957
g73
(dp4958
sg82
g4952
sg75
(lp4959
g68
(g69
g70
NtRp4960
(dp4961
g73
(dp4962
g81
I2
ssg82
g4956
sg75
(lp4963
g68
(g77
g70
NtRp4964
(dp4965
g73
(dp4966
g81
I1
ssg82
Nsg75
(lp4967
g68
(g84
g70
NtRp4968
(dp4969
g73
(dp4970
sg82
g4964
sg75
(lp4971
g68
(g89
g70
NtRp4972
(dp4973
g73
(dp4974
sg82
g4968
sg75
(lp4975
g68
(g69
g70
NtRp4976
(dp4977
g73
(dp4978
g81
I1
ssg82
g4972
sg75
(lp4979
g4096
(S't\x06\x00\x00\x00Web2py'
tRp4980
asbasbasbag68
(g84
g70
NtRp4981
(dp4982
g73
(dp4983
sg82
g4964
sg75
(lp4984
g68
(g89
g70
NtRp4985
(dp4986
g73
(dp4987
sg82
g4981
sg75
(lp4988
g68
(g69
g70
NtRp4989
(dp4990
g73
(dp4991
g81
I1
ssg82
g4985
sg75
(lp4992
I00
asbasbasbag68
(g84
g70
NtRp4993
(dp4994
g73
(dp4995
sg82
g4964
sg75
(lp4996
g68
(g89
g70
NtRp4997
(dp4998
g73
(dp4999
sg82
g4993
sg75
(lp5000
g68
(g69
g70
NtRp5001
(dp5002
g73
(dp5003
g81
I1
ssg82
g4997
sg75
(lp5004
S'http://www.web2py.com'
p5005
asbasbasbag68
(g84
g70
NtRp5006
(dp5007
g73
(dp5008
sg82
g4964
sg75
(lp5009
g68
(g89
g70
NtRp5010
(dp5011
g73
(dp5012
sg82
g5006
sg75
(lp5013
g68
(g69
g70
NtRp5014
(dp5015
g73
(dp5016
g81
I1
ssg82
g5010
sg75
(lp5017
(lp5018
(g4096
(S't\x08\x00\x00\x00Download'
tRp5019
I00
S'http://www.web2py.com/examples/default/download'
p5020
tp5021
a(g4096
(S't\x07\x00\x00\x00Support'
tRp5022
I00
S'http://www.web2py.com/examples/default/support'
p5023
tp5024
a(g4096
(S's\x0e\x00\x00\x00Quick Examples'
tRp5025
I00
S'http://web2py.com/examples/default/examples'
p5026
tp5027
a(g4096
(S't\x03\x00\x00\x00FAQ'
tRp5028
I00
S'http://web2py.com/AlterEgo'
p5029
tp5030
a(g4096
(S's\x11\x00\x00\x00Free Applications'
tRp5031
I00
S'http://web2py.com/appliances'
p5032
tp5033
a(g4096
(S't\x07\x00\x00\x00Plugins'
tRp5034
I00
S'http://web2py.com/plugins'
p5035
tp5036
a(g4096
(S't\x07\x00\x00\x00Recipes'
tRp5037
I00
S'http://web2pyslices.com/'
p5038
tp5039
a(g4096
(S't\x04\x00\x00\x00Demo'
tRp5040
I00
S'http://web2py.com/demo_admin'
p5041
tp5042
a(g4096
(S't\x08\x00\x00\x00Semantic'
tRp5043
I00
S'http://web2py.com/semantic'
p5044
tp5045
a(g4096
(S't\x07\x00\x00\x00Layouts'
tRp5046
I00
S'http://web2py.com/layouts'
p5047
tp5048
a(g4096
(S't\x06\x00\x00\x00Videos'
tRp5049
I00
S'http://www.web2py.com/examples/default/videos/'
p5050
tp5051
aasbasbasbasbasbasbasbasbasbasbasbasbasbasbasbasbasbasbasbag68
(g84
g70
NtRp5052
(dp5053
g73
(dp5054
sg82
g3591
sg75
(lp5055
g68
(g89
g70
NtRp5056
(dp5057
g73
(dp5058
g93
g94
ssg82
g5052
sg75
(lp5059
S'meta'
p5060
asbag68
(g89
g70
NtRp5061
(dp5062
g73
(dp5063
g100
g101
ssg82
g5052
sg75
(lp5064
S':'
asbag68
(g89
g70
NtRp5065
(dp5066
g73
(dp5067
sg82
g5052
sg75
(lp5068
g68
(g69
g70
NtRp5069
(dp5070
g73
(dp5071
g81
I5
ssg82
g5065
sg75
(lp5072
g68
(g77
g70
NtRp5073
(dp5074
g73
(dp5075
g81
I4
ssg82
Nsg75
(lp5076
g68
(g84
g70
NtRp5077
(dp5078
g73
(dp5079
sg82
g5073
sg75
(lp5080
g68
(g89
g70
NtRp5081
(dp5082
g73
(dp5083
g93
g94
ssg82
g5077
sg75
(lp5084
S'author'
p5085
asbag68
(g89
g70
NtRp5086
(dp5087
g73
(dp5088
g100
g101
ssg82
g5077
sg75
(lp5089
S':'
asbag68
(g89
g70
NtRp5090
(dp5091
g73
(dp5092
sg82
g5077
sg75
(lp5093
g68
(g69
g70
NtRp5094
(dp5095
g73
(dp5096
g81
I4
ssg82
g5090
sg75
(lp5097
S'Adrian Edwards'
p5098
asbasbasbag68
(g84
g70
NtRp5099
(dp5100
g73
(dp5101
sg82
g5073
sg75
(lp5102
g68
(g89
g70
NtRp5103
(dp5104
g73
(dp5105
g93
g94
ssg82
g5099
sg75
(lp5106
S'copyright'
p5107
asbag68
(g89
g70
NtRp5108
(dp5109
g73
(dp5110
g100
g101
ssg82
g5099
sg75
(lp5111
S':'
asbag68
(g89
g70
NtRp5112
(dp5113
g73
(dp5114
sg82
g5099
sg75
(lp5115
g68
(g69
g70
NtRp5116
(dp5117
g73
(dp5118
g81
I4
ssg82
g5112
sg75
(lp5119
S'Copyright 2011'
p5120
asbasbasbag68
(g84
g70
NtRp5121
(dp5122
g73
(dp5123
sg82
g5073
sg75
(lp5124
g68
(g89
g70
NtRp5125
(dp5126
g73
(dp5127
g93
g94
ssg82
g5121
sg75
(lp5128
S'description'
p5129
asbag68
(g89
g70
NtRp5130
(dp5131
g73
(dp5132
g100
g101
ssg82
g5121
sg75
(lp5133
S':'
asbag68
(g89
g70
NtRp5134
(dp5135
g73
(dp5136
sg82
g5121
sg75
(lp5137
g68
(g69
g70
NtRp5138
(dp5139
g73
(dp5140
g81
I4
ssg82
g5134
sg75
(lp5141
S'Fitness Challenge'
p5142
asbasbasbag68
(g84
g70
NtRp5143
(dp5144
g73
(dp5145
sg82
g5073
sg75
(lp5146
g68
(g89
g70
NtRp5147
(dp5148
g73
(dp5149
g93
g94
ssg82
g5143
sg75
(lp5150
S'generator'
p5151
asbag68
(g89
g70
NtRp5152
(dp5153
g73
(dp5154
g100
g101
ssg82
g5143
sg75
(lp5155
S':'
asbag68
(g89
g70
NtRp5156
(dp5157
g73
(dp5158
sg82
g5143
sg75
(lp5159
g68
(g69
g70
NtRp5160
(dp5161
g73
(dp5162
g81
I4
ssg82
g5156
sg75
(lp5163
S'Web2py Web Framework'
p5164
asbasbasbag68
(g84
g70
NtRp5165
(dp5166
g73
(dp5167
sg82
g5073
sg75
(lp5168
g68
(g89
g70
NtRp5169
(dp5170
g73
(dp5171
g93
g94
ssg82
g5165
sg75
(lp5172
S'keywords'
p5173
asbag68
(g89
g70
NtRp5174
(dp5175
g73
(dp5176
g100
g101
ssg82
g5165
sg75
(lp5177
S':'
asbag68
(g89
g70
NtRp5178
(dp5179
g73
(dp5180
sg82
g5165
sg75
(lp5181
g68
(g69
g70
NtRp5182
(dp5183
g73
(dp5184
g81
I4
ssg82
g5178
sg75
(lp5185
S'web2py, python, framework'
p5186
asbasbasbasbasbasbasbag68
(g84
g70
NtRp5187
(dp5188
g73
(dp5189
sg82
g3591
sg75
(lp5190
g68
(g89
g70
NtRp5191
(dp5192
g73
(dp5193
g93
g94
ssg82
g5187
sg75
(lp5194
S'postprocessing'
p5195
asbag68
(g89
g70
NtRp5196
(dp5197
g73
(dp5198
g100
g101
ssg82
g5187
sg75
(lp5199
S':'
asbag68
(g89
g70
NtRp5200
(dp5201
g73
(dp5202
sg82
g5187
sg75
(lp5203
g68
(g69
g70
NtRp5204
(dp5205
g73
(dp5206
g81
I5
ssg82
g5200
sg75
(lp5207
g68
(g77
g70
NtRp5208
(dp5209
g73
(dp5210
g81
I4
ssg82
Nsg75
(lp5211
sbasbasbasbag68
(g84
g70
NtRp5212
(dp5213
g73
(dp5214
sg82
g3591
sg75
(lp5215
g68
(g89
g70
NtRp5216
(dp5217
g73
(dp5218
g93
g94
ssg82
g5212
sg75
(lp5219
S'session_file'
p5220
asbag68
(g89
g70
NtRp5221
(dp5222
g73
(dp5223
g100
g101
ssg82
g5212
sg75
(lp5224
S':'
asbag68
(g89
g70
NtRp5225
(dp5226
g73
(dp5227
sg82
g5212
sg75
(lp5228
g68
(g69
g70
NtRp5229
(dp5230
g73
(dp5231
g81
I5
ssg82
g5225
sg75
(lp5232
S"<open file 'P:\\School\\DePaul\\Projects\\CSC_438\\web2py\\applications\\init\\sessions\\127.0.0.1-36e39bc8-c9da-4df0-b68c-0d43564cf466', mode 'rb+' at 0x037CA1D8>"
p5233
asbasbasbag68
(g84
g70
NtRp5234
(dp5235
g73
(dp5236
sg82
g3591
sg75
(lp5237
g68
(g89
g70
NtRp5238
(dp5239
g73
(dp5240
g93
g94
ssg82
g5234
sg75
(lp5241
S'session_filename'
p5242
asbag68
(g89
g70
NtRp5243
(dp5244
g73
(dp5245
g100
g101
ssg82
g5234
sg75
(lp5246
S':'
asbag68
(g89
g70
NtRp5247
(dp5248
g73
(dp5249
sg82
g5234
sg75
(lp5250
g68
(g69
g70
NtRp5251
(dp5252
g73
(dp5253
g81
I5
ssg82
g5247
sg75
(lp5254
S'P:\\School\\DePaul\\Projects\\CSC_438\\web2py\\applications\\init\\sessions\\127.0.0.1-36e39bc8-c9da-4df0-b68c-0d43564cf466'
p5255
asbasbasbag68
(g84
g70
NtRp5256
(dp5257
g73
(dp5258
sg82
g3591
sg75
(lp5259
g68
(g89
g70
NtRp5260
(dp5261
g73
(dp5262
g93
g94
ssg82
g5256
sg75
(lp5263
S'session_id'
p5264
asbag68
(g89
g70
NtRp5265
(dp5266
g73
(dp5267
g100
g101
ssg82
g5256
sg75
(lp5268
S':'
asbag68
(g89
g70
NtRp5269
(dp5270
g73
(dp5271
sg82
g5256
sg75
(lp5272
g68
(g69
g70
NtRp5273
(dp5274
g73
(dp5275
g81
I5
ssg82
g5269
sg75
(lp5276
S'127.0.0.1-36e39bc8-c9da-4df0-b68c-0d43564cf466'
p5277
asbasbasbag68
(g84
g70
NtRp5278
(dp5279
g73
(dp5280
sg82
g3591
sg75
(lp5281
g68
(g89
g70
NtRp5282
(dp5283
g73
(dp5284
g93
g94
ssg82
g5278
sg75
(lp5285
S'session_id_name'
p5286
asbag68
(g89
g70
NtRp5287
(dp5288
g73
(dp5289
g100
g101
ssg82
g5278
sg75
(lp5290
S':'
asbag68
(g89
g70
NtRp5291
(dp5292
g73
(dp5293
sg82
g5278
sg75
(lp5294
g68
(g69
g70
NtRp5295
(dp5296
g73
(dp5297
g81
I5
ssg82
g5291
sg75
(lp5298
g3648
asbasbasbag68
(g84
g70
NtRp5299
(dp5300
g73
(dp5301
sg82
g3591
sg75
(lp5302
g68
(g89
g70
NtRp5303
(dp5304
g73
(dp5305
g93
g94
ssg82
g5299
sg75
(lp5306
S'session_locked'
p5307
asbag68
(g89
g70
NtRp5308
(dp5309
g73
(dp5310
g100
g101
ssg82
g5299
sg75
(lp5311
S':'
asbag68
(g89
g70
NtRp5312
(dp5313
g73
(dp5314
sg82
g5299
sg75
(lp5315
g68
(g69
g70
NtRp5316
(dp5317
g73
(dp5318
g81
I5
ssg82
g5312
sg75
(lp5319
g1704
asbasbasbag68
(g84
g70
NtRp5320
(dp5321
g73
(dp5322
sg82
g3591
sg75
(lp5323
g68
(g89
g70
NtRp5324
(dp5325
g73
(dp5326
g93
g94
ssg82
g5320
sg75
(lp5327
S'session_new'
p5328
asbag68
(g89
g70
NtRp5329
(dp5330
g73
(dp5331
g100
g101
ssg82
g5320
sg75
(lp5332
S':'
asbag68
(g89
g70
NtRp5333
(dp5334
g73
(dp5335
sg82
g5320
sg75
(lp5336
g68
(g69
g70
NtRp5337
(dp5338
g73
(dp5339
g81
I5
ssg82
g5333
sg75
(lp5340
g111
asbasbasbag68
(g84
g70
NtRp5341
(dp5342
g73
(dp5343
sg82
g3591
sg75
(lp5344
g68
(g89
g70
NtRp5345
(dp5346
g73
(dp5347
g93
g94
ssg82
g5341
sg75
(lp5348
S'status'
p5349
asbag68
(g89
g70
NtRp5350
(dp5351
g73
(dp5352
g100
g101
ssg82
g5341
sg75
(lp5353
S':'
asbag68
(g89
g70
NtRp5354
(dp5355
g73
(dp5356
sg82
g5341
sg75
(lp5357
g68
(g69
g70
NtRp5358
(dp5359
g73
(dp5360
g81
I5
ssg82
g5354
sg75
(lp5361
S'200'
p5362
asbasbasbag68
(g84
g70
NtRp5363
(dp5364
g73
(dp5365
sg82
g3591
sg75
(lp5366
g68
(g89
g70
NtRp5367
(dp5368
g73
(dp5369
g93
g94
ssg82
g5363
sg75
(lp5370
S'subtitle'
p5371
asbag68
(g89
g70
NtRp5372
(dp5373
g73
(dp5374
g100
g101
ssg82
g5363
sg75
(lp5375
S':'
asbag68
(g89
g70
NtRp5376
(dp5377
g73
(dp5378
sg82
g5363
sg75
(lp5379
g68
(g69
g70
NtRp5380
(dp5381
g73
(dp5382
g81
I5
ssg82
g5376
sg75
(lp5383
g4096
(S's\r\x00\x00\x00customize me!'
tRp5384
asbasbasbag68
(g84
g70
NtRp5385
(dp5386
g73
(dp5387
sg82
g3591
sg75
(lp5388
g68
(g89
g70
NtRp5389
(dp5390
g73
(dp5391
g93
g94
ssg82
g5385
sg75
(lp5392
S'title'
p5393
asbag68
(g89
g70
NtRp5394
(dp5395
g73
(dp5396
g100
g101
ssg82
g5385
sg75
(lp5397
S':'
asbag68
(g89
g70
NtRp5398
(dp5399
g73
(dp5400
sg82
g5385
sg75
(lp5401
g68
(g69
g70
NtRp5402
(dp5403
g73
(dp5404
g81
I5
ssg82
g5398
sg75
(lp5405
g133
asbasbasbag68
(g84
g70
NtRp5406
(dp5407
g73
(dp5408
sg82
g3591
sg75
(lp5409
g68
(g89
g70
NtRp5410
(dp5411
g73
(dp5412
g93
g94
ssg82
g5406
sg75
(lp5413
g2369
asbag68
(g89
g70
NtRp5414
(dp5415
g73
(dp5416
g100
g101
ssg82
g5406
sg75
(lp5417
S':'
asbag68
(g89
g70
NtRp5418
(dp5419
g73
(dp5420
sg82
g5406
sg75
(lp5421
g68
(g69
g70
NtRp5422
(dp5423
g73
(dp5424
g81
I5
ssg82
g5418
sg75
(lp5425
g2382
asbasbasbag68
(g84
g70
NtRp5426
(dp5427
g73
(dp5428
sg82
g3591
sg75
(lp5429
g68
(g89
g70
NtRp5430
(dp5431
g73
(dp5432
g93
g94
ssg82
g5426
sg75
(lp5433
S'view'
p5434
asbag68
(g89
g70
NtRp5435
(dp5436
g73
(dp5437
g100
g101
ssg82
g5426
sg75
(lp5438
S':'
asbag68
(g89
g70
NtRp5439
(dp5440
g73
(dp5441
sg82
g5426
sg75
(lp5442
g68
(g69
g70
NtRp5443
(dp5444
g73
(dp5445
g81
I5
ssg82
g5439
sg75
(lp5446
S'default/user.html'
p5447
asbasbasbasbasbsS'locals'
p5448
(dp5449
g4
S"r'P:\\School\\DePaul\\Projects\\CSC_438\\web2py\\applications\\init\\controllers/default.py'"
p5450
sg6
S"'# -*- coding: utf-8 -*-\\n# this file is released ...m=crud())\\n\\nresponse._vars=response._caller(user)\\n'"
p5451
sssS'traceback'
p5452
S'Traceback (most recent call last):\n  File "P:\\School\\DePaul\\Projects\\CSC_438\\web2py\\gluon\\restricted.py", line 203, in restricted\n    ccode = compile2(code,layer)\n  File "P:\\School\\DePaul\\Projects\\CSC_438\\web2py\\gluon\\restricted.py", line 189, in compile2\n    return compile(code.rstrip().replace(\'\\r\\n\',\'\\n\')+\'\\n\', layer, \'exec\')\n  File "P:\\School\\DePaul\\Projects\\CSC_438\\web2py\\applications\\init\\controllers/default.py", line 209\n    def __check_frequency(event):\n      ^\nIndentationError: expected an indented block\n'
p5453
s.