(dp1
S'output'
p2
S''
sS'layer'
p3
S'P:\\Workbench\\DevEnv\\web2py\\applications\\init\\views\\default/user.html'
p4
sS'code'
p5
S'response.write(\'<!DOCTYPE html>\\r\\n<html lang="\', escape=False)\nresponse.write(T.accepted_language or \'en\')\nresponse.write(\'" class="no-js"><!-- no-js need it for modernzr -->\\r\\n  <head>\\r\\n    \\r\\n    <meta charset="utf-8" />        \\r\\n    <!-- www.phpied.com/conditional-comments-block-downloads/ -->\\r\\n    <!--[if IE]>\\r\\n      <!-- Always force latest IE rendering engine \\r\\n       (even in intranet) & Chrome Frame \\r\\n       Remove this if you use the .htaccess -->\\r\\n      <meta http-equiv="X-UA-Compatible" content="IE=edge,chrome=1">\\r\\n    <![endif]-->    \\r\\n    \\r\\n    <!-- http://dev.w3.org/html5/markup/meta.name.html -->\\r\\n    <meta name="application-name" content="\', escape=False)\nresponse.write(request.application)\nresponse.write(\'" /> \\r\\n    \\r\\n    <!--  Mobile Viewport Fix\\r\\n      j.mp/mobileviewport & davidbcalhoun.com/2010/viewport-metatag \\r\\n      device-width: Occupy full width of the screen in its current orientation\\r\\n      initial-scale = 1.0 retains dimensions instead of zooming out if page height > device height\\r\\n      maximum-scale = 1.0 retains dimensions instead of zooming in if page width < device width\\r\\n      -->\\r\\n    <meta name="viewport" content="width=device-width, initial-scale=1.0, maximum-scale=1.0">\\r\\n    \\r\\n    <!-- Place favicon.ico and apple-touch-icon.png in the root of your domain and delete these references -->\\r\\n    <link rel="shortcut icon" href="\', escape=False)\nresponse.write(URL(\'static\',\'favicon.ico\'))\nresponse.write(\'" type="image/x-icon">\\r\\n    <link rel="apple-touch-icon" href="\', escape=False)\nresponse.write(URL(\'static\',\'favicon.png\'))\nresponse.write(\'">\\r\\n\\r\\n    <!-- For the less-enabled mobile browsers like Opera Mini -->\\r\\n    <link rel="stylesheet" media="handheld" href="\', escape=False)\nresponse.write(URL(\'static\',\'css/handheld.css\'))\nresponse.write(\'">\\r\\n    \\r\\n    <!-- All JavaScript at the bottom, except for Modernizr which enables HTML5 elements & feature detects -->\\r\\n    <script src="\', escape=False)\nresponse.write(URL(\'static\',\'js/modernizr-1.7.min.js\'))\nresponse.write(\'"></script>\\r\\n    \\r\\n    \', escape=False)\n#------  require CSS and JS files for this page (read info in base.css) ------\nresponse.write(\'\\r\\n    \', escape=False)\nresponse.files.append(URL(\'static\',\'css/base.css\'))\nresponse.write(\'\\r\\n    \', escape=False)\nresponse.files.append(URL(\'static\',\'css/superfish.css\'))\nresponse.write(\'\\r\\n    \', escape=False)\nresponse.files.append(URL(\'static\',\'js/superfish.js\'))\nresponse.write(\'\\r\\n    \', escape=False)\n#------ include web2py specific js code (jquery, calendar, form stuff) ------\nresponse.write(\'\\r\\n    \', escape=False)\nresponse.files.insert(0,URL(\'static\',\'js/jquery.js\'))\nresponse.files.insert(1,URL(\'static\',\'css/anytime.css\'))\nresponse.files.insert(2,URL(\'static\',\'js/anytime.js\'))\nresponse.include_meta()\nresponse.include_files()\nresponse.write(\'\\n<script type="text/javascript"><!--\\n    // These variables are used by the web2py_ajax_init function in web2py_ajax.js (which is loaded below).\\n    var w2p_ajax_confirm_message = "\', escape=False)\nresponse.write(T(\'Are you sure you want to delete this object?\'))\nresponse.write(\'";\\n    var w2p_ajax_date_format = "\', escape=False)\nresponse.write(T(\'%Y-%m-%d\'))\nresponse.write(\'";\\n    var w2p_ajax_datetime_format = "\', escape=False)\nresponse.write(T(\'%Y-%m-%d %H:%M:%S\'))\nresponse.write(\'";\\n    //--></script>\\n    <script src="\', escape=False)\nresponse.write(URL(\'static\',\'js/web2py_ajax.js\'))\nresponse.write(\'" type="text/javascript"></script>\\n\', escape=False)\nresponse.write(\'\\r\\n\\r\\n    \', escape=False)\n#using sidebars need to know what sidebar you want to use\n#prior of using it, because of static width size of content, you can use\n#left_sidebar, right_sidebar, both or none (False left and right)\nleft_sidebar_enabled = globals().get(\'left_sidebar_enabled\',False)\nright_sidebar_enabled = globals().get(\'right_sidebar_enabled\',False)\nif left_sidebar_enabled and right_sidebar_enabled: width_content=\'63%\'\nelif left_sidebar_enabled != right_sidebar_enabled: width_content=\'740px\'\nelse: width_content=\'100%\'\nif left_sidebar_enabled: left_sidebar_style = \'style="display: block;"\'\nelse: left_sidebar_style = \'style="display: none;"\'\nif right_sidebar_enabled: right_sidebar_style = \'style="display: block;"\'\nelse: right_sidebar_style = \'style="display: none;"\'\nstyle_content = \'style="width: %s"\' % width_content\nresponse.write(\'\\r\\n    \\r\\n    <!-- uncomment here to load jquery-ui -->\\r\\n    \\r\\n    <link rel="stylesheet" href="http://ajax.googleapis.com/ajax/libs/jqueryui/1.8.16/themes/base/jquery-ui.css" type="text/css" media="all" />\\r\\n    <script src="http://ajax.googleapis.com/ajax/libs/jqueryui/1.8.16/jquery-ui.min.js" type="text/javascript"></script>\\r\\n    \\r\\n   <!-- uncomment to load jquery-ui -->\\r\\n    \\r\\n    \\r\\n  </head>\\r\\n  \\r\\n  <!-- paulirish.com/2008/conditional-stylesheets-vs-css-hacks-answer-neither/ -->  \\r\\n  <!--[if lt IE 7 ]> <body class="ie6"> <![endif]-->\\r\\n  <!--[if IE 7 ]>    <body class="ie7"> <![endif]-->\\r\\n  <!--[if IE 8 ]>    <body class="ie8"> <![endif]-->\\r\\n  <!--[if IE 9 ]>    <body class="ie9"> <![endif]-->\\r\\n  <!--[if (gt IE 9)|!(IE)]><!--> <body> <!--<![endif]-->\\r\\n    \\r\\n    <div class="flash">\', escape=False)\nresponse.write(response.flash or \'\')\nresponse.write(\'</div> <!-- notification div -->\\r\\n\\r\\n        \\r\\n\\r\\n    <div id="container">                        \\r\\n      \\r\\n      <div id="wrapper">        \\r\\n      \', escape=False)\ntry:\n    response.write(auth.navbar(action=URL(\'default\',\'user\')))\nexcept:pass\nresponse.write(\'\\r\\n    \\r\\n    <div id="header"> <!-- header and login nav -->\\r\\n      \', escape=False)\nresponse.write(\' <!-- this is default header -->\\r\\n      \\r\\n      <div style="clear: both;"></div><!-- Clear the divs -->\\r\\n      \', escape=False)\nresponse.write(\'\\r\\n    </div><!-- header  -->\\r\\n    \\r\\n    <div id="page"> <!-- Here my central body -->     \\r\\n\\r\\n      \', escape=False)\nif left_sidebar_enabled:\n    response.write(\'\\r\\n          <div id="left_sidebar" \', escape=False)\n    response.write(XML(left_sidebar_style))\n    response.write(\' >\\r\\n            <div style="padding: 4px;">\\r\\n          \', escape=False)\n    response.write(\'Content Left Sidebar\', escape=False)\n    response.write(\'       \\r\\n            </div>\\r\\n          </div><!-- left_sidebar -->\\r\\n      \', escape=False)\n    pass\nresponse.write(\'\\r\\n\\r\\n      <!-- content -->\\r\\n      <div id="content" \', escape=False)\nresponse.write(XML(style_content))\nresponse.write(\' >\\r\\n        \', escape=False)\nresponse.write(\'\\r\\n<h2>\', escape=False)\nresponse.write(T( request.args(0).replace(\'_\',\' \').capitalize() ))\nresponse.write(\'</h2>\\r\\n<div id="web2py_user_form">\\r\\n\\r\\n\', escape=False)\nif request.args(0)==\'register\':\n    response.write(\'\\r\\n    User Name = \', escape=False)\n    response.write(auth.user.first_name)\n    response.write(\'\\r\\n\\r\\n    \\r\\n\', escape=False)\n    pass\nresponse.write(\'\\r\\n\\r\\n\', escape=False)\nif request.args(0)==\'login\':\n    response.write(\'\\r\\n\', escape=False)\n    if not \'register\' in auth.settings.actions_disabled:\n        response.write(\'\\r\\n<br/><a href="\', escape=False)\n        response.write(URL(r=request,args=\'register\'))\n        response.write(\'">register</a>\\r\\n\', escape=False)\n        pass\n    response.write(\'\\r\\n\', escape=False)\n    if not \'request_reset_password\' in auth.settings.actions_disabled:\n        response.write(\'\\r\\n<br/><a href="\', escape=False)\n        response.write(URL(r=request,args=\'request_reset_password\'))\n        response.write(\'">lost password</a>\\r\\n\', escape=False)\n        pass\n    response.write(\'\\r\\n\', escape=False)\n    pass\nresponse.write(\'\\r\\n</div>\\r\\n\\r\\n<script language="javascript">\\r\\n<!--\\r\\n jQuery("#web2py_user_form input:visible:enabled:first").focus();\\r\\n//-->\\r\\n</script>\\r\\n\', escape=False)\nresponse.write(\' \\r\\n      </div>\\r\\n      <!-- content -->\\r\\n\\r\\n      \', escape=False)\nif right_sidebar_enabled:\n    response.write(\'\\r\\n          <div id="right_sidebar" \', escape=False)\n    response.write(XML(right_sidebar_style))\n    response.write(\' >\\r\\n            <div style="padding: 4px;">\\r\\n              \', escape=False)\n    response.write(\'Content Right Sidebar\', escape=False)\n    response.write(\'\\r\\n            </div>\\r\\n      </div><!-- right_sidebar -->\\r\\n          \', escape=False)\n    pass\nresponse.write(\'\\r\\n\\r\\n\\r\\n      <div style="clear: both;"></div><!-- Clear the divs -->\\r\\n      \\r\\n    </div><!-- page -->                         \\r\\n    \\r\\n    <div id="footer">\\r\\n      \', escape=False)\nresponse.write(\' <!-- this is default footer -->\\r\\n      <a href="http://www.web2py.com/" style="float: left; padding-right: 6px;">\\r\\n        <img src="\', escape=False)\nresponse.write(URL(\'static\',\'images/poweredby.png\'))\nresponse.write(\'"/>\\r\\n      </a>\\r\\n      \', escape=False)\nresponse.write(T(\'Copyright\'))\nresponse.write(\' &#169; 2011               \\r\\n      <div style="clear: both;"></div><!-- Clear the divs -->\\r\\n      \', escape=False)\nresponse.write(\'\\r\\n\\r\\n    </div><!-- footer -->           \\r\\n      </div><!-- wrapper -->\\r\\n    </div><!-- container -->        \\r\\n    \\r\\n    <!--[if lt IE 7 ]>\\r\\n    <script src="\', escape=False)\nresponse.write(URL(\'static\',\'js/dd_belatedpng.js\'))\nresponse.write(\'"></script>\\r\\n    <script> DD_belatedPNG.fix(\\\'img, .png_bg\\\'); //fix any <img> or .png_bg background-images </script>\\r\\n    <![endif]-->\\r\\n    \', escape=False)\nif response.google_analytics_id:\n    response.write("<script>/* http://mathiasbynens.be/notes/async-analytics-snippet */ var _gaq=[[\'_setAccount\',\'", escape=False)\n    response.write(response.google_analyitics_id)\n    response.write("\'],[\'_trackPageview\']];(function(d,t){var g=d.createElement(t),s=d.getElementsByTagName(t)[0];g.src=\'//www.google-analytics.com/ga.js\';s.parentNode.insertBefore(g,s)}(document,\'script\')) </script>", escape=False)\n    pass\nresponse.write(\'\\r\\n  </body>\\r\\n</html>\\r\\n\', escape=False)'
p6
sS'snapshot'
p7
(dp8
S'exception'
p9
(dp10
S'__hash__'
p11
S"<method-wrapper '__hash__' of exceptions.AttributeError object at 0x06E656C0>"
p12
sS'__setattr__'
p13
S"<method-wrapper '__setattr__' of exceptions.AttributeError object at 0x06E656C0>"
p14
sS'__reduce_ex__'
p15
S'<built-in method __reduce_ex__ of exceptions.AttributeError object at 0x06E656C0>'
p16
sS'__getslice__'
p17
S"<method-wrapper '__getslice__' of exceptions.AttributeError object at 0x06E656C0>"
p18
sS'__getitem__'
p19
S"<method-wrapper '__getitem__' of exceptions.AttributeError object at 0x06E656C0>"
p20
sS'__setstate__'
p21
S'<built-in method __setstate__ of exceptions.AttributeError object at 0x06E656C0>'
p22
sS'__reduce__'
p23
S'<built-in method __reduce__ of exceptions.AttributeError object at 0x06E656C0>'
p24
sS'__str__'
p25
S"<method-wrapper '__str__' of exceptions.AttributeError object at 0x06E656C0>"
p26
sS'args'
p27
S'("\'NoneType\' object has no attribute \'first_name\'",)'
p28
sS'__getattribute__'
p29
S"<method-wrapper '__getattribute__' of exceptions.AttributeError object at 0x06E656C0>"
p30
sS'__class__'
p31
S"<type 'exceptions.AttributeError'>"
p32
sS'__delattr__'
p33
S"<method-wrapper '__delattr__' of exceptions.AttributeError object at 0x06E656C0>"
p34
sS'__repr__'
p35
S"<method-wrapper '__repr__' of exceptions.AttributeError object at 0x06E656C0>"
p36
sS'__dict__'
p37
S'{}'
p38
sS'__doc__'
p39
S"'Attribute not found.'"
p40
sS'__init__'
p41
S"<method-wrapper '__init__' of exceptions.AttributeError object at 0x06E656C0>"
p42
sS'__new__'
p43
S'<built-in method __new__ of type object at 0x1E1CDA68>'
p44
ssS'evalue'
p45
S"'NoneType' object has no attribute 'first_name'"
p46
sS'request'
p47
ccopy_reg
_reconstructor
p48
(cgluon.html
BEAUTIFY
p49
c__builtin__
object
p50
NtRp51
(dp52
S'attributes'
p53
(dp54
sS'components'
p55
(lp56
g48
(cgluon.html
TABLE
p57
g50
NtRp58
(dp59
g53
(dp60
S'level'
p61
I5
ssS'parent'
p62
Nsg55
(lp63
g48
(cgluon.html
TR
p64
g50
NtRp65
(dp66
g53
(dp67
sg62
g58
sg55
(lp68
g48
(cgluon.html
TD
p69
g50
NtRp70
(dp71
g53
(dp72
S'_style'
p73
S'font-weight:bold;'
p74
ssg62
g65
sg55
(lp75
S'ajax'
p76
asbag48
(g69
g50
NtRp77
(dp78
g53
(dp79
S'_valign'
p80
S'top'
p81
ssg62
g65
sg55
(lp82
S':'
asbag48
(g69
g50
NtRp83
(dp84
g53
(dp85
sg62
g65
sg55
(lp86
g48
(g49
g50
NtRp87
(dp88
g53
(dp89
g61
I5
ssg62
g83
sg55
(lp90
S'False'
p91
asbasbasbag48
(g64
g50
NtRp92
(dp93
g53
(dp94
sg62
g58
sg55
(lp95
g48
(g69
g50
NtRp96
(dp97
g53
(dp98
g73
g74
ssg62
g92
sg55
(lp99
S'application'
p100
asbag48
(g69
g50
NtRp101
(dp102
g53
(dp103
g80
g81
ssg62
g92
sg55
(lp104
S':'
asbag48
(g69
g50
NtRp105
(dp106
g53
(dp107
sg62
g92
sg55
(lp108
g48
(g49
g50
NtRp109
(dp110
g53
(dp111
g61
I5
ssg62
g105
sg55
(lp112
S'init'
p113
asbasbasbag48
(g64
g50
NtRp114
(dp115
g53
(dp116
sg62
g58
sg55
(lp117
g48
(g69
g50
NtRp118
(dp119
g53
(dp120
g73
g74
ssg62
g114
sg55
(lp121
g27
asbag48
(g69
g50
NtRp122
(dp123
g53
(dp124
g80
g81
ssg62
g114
sg55
(lp125
S':'
asbag48
(g69
g50
NtRp126
(dp127
g53
(dp128
sg62
g114
sg55
(lp129
g48
(g49
g50
NtRp130
(dp131
g53
(dp132
g61
I5
ssg62
g126
sg55
(lp133
g48
(g57
g50
NtRp134
(dp135
g53
(dp136
g61
I4
ssg62
Nsg55
(lp137
g48
(g64
g50
NtRp138
(dp139
g53
(dp140
sg62
g134
sg55
(lp141
g48
(g69
g50
NtRp142
(dp143
g53
(dp144
sg62
g138
sg55
(lp145
g48
(g49
g50
NtRp146
(dp147
g53
(dp148
g61
I4
ssg62
g142
sg55
(lp149
S'register'
p150
asbasbasbasbasbasbasbag48
(g64
g50
NtRp151
(dp152
g53
(dp153
sg62
g58
sg55
(lp154
g48
(g69
g50
NtRp155
(dp156
g53
(dp157
g73
g74
ssg62
g151
sg55
(lp158
S'body'
p159
asbag48
(g69
g50
NtRp160
(dp161
g53
(dp162
g80
g81
ssg62
g151
sg55
(lp163
S':'
asbag48
(g69
g50
NtRp164
(dp165
g53
(dp166
sg62
g151
sg55
(lp167
g48
(g49
g50
NtRp168
(dp169
g53
(dp170
g61
I5
ssg62
g164
sg55
(lp171
S'<cStringIO.StringO object at 0x06F01900>'
p172
asbasbasbag48
(g64
g50
NtRp173
(dp174
g53
(dp175
sg62
g58
sg55
(lp176
g48
(g69
g50
NtRp177
(dp178
g53
(dp179
g73
g74
ssg62
g173
sg55
(lp180
S'client'
p181
asbag48
(g69
g50
NtRp182
(dp183
g53
(dp184
g80
g81
ssg62
g173
sg55
(lp185
S':'
asbag48
(g69
g50
NtRp186
(dp187
g53
(dp188
sg62
g173
sg55
(lp189
g48
(g49
g50
NtRp190
(dp191
g53
(dp192
g61
I5
ssg62
g186
sg55
(lp193
S'127.0.0.1'
p194
asbasbasbag48
(g64
g50
NtRp195
(dp196
g53
(dp197
sg62
g58
sg55
(lp198
g48
(g69
g50
NtRp199
(dp200
g53
(dp201
g73
g74
ssg62
g195
sg55
(lp202
S'controller'
p203
asbag48
(g69
g50
NtRp204
(dp205
g53
(dp206
g80
g81
ssg62
g195
sg55
(lp207
S':'
asbag48
(g69
g50
NtRp208
(dp209
g53
(dp210
sg62
g195
sg55
(lp211
g48
(g49
g50
NtRp212
(dp213
g53
(dp214
g61
I5
ssg62
g208
sg55
(lp215
S'default'
p216
asbasbasbag48
(g64
g50
NtRp217
(dp218
g53
(dp219
sg62
g58
sg55
(lp220
g48
(g69
g50
NtRp221
(dp222
g53
(dp223
g73
g74
ssg62
g217
sg55
(lp224
S'cookies'
p225
asbag48
(g69
g50
NtRp226
(dp227
g53
(dp228
g80
g81
ssg62
g217
sg55
(lp229
S':'
asbag48
(g69
g50
NtRp230
(dp231
g53
(dp232
sg62
g217
sg55
(lp233
g48
(g49
g50
NtRp234
(dp235
g53
(dp236
g61
I5
ssg62
g230
sg55
(lp237
g48
(g57
g50
NtRp238
(dp239
g53
(dp240
g61
I4
ssg62
Nsg55
(lp241
g48
(g64
g50
NtRp242
(dp243
g53
(dp244
sg62
g238
sg55
(lp245
g48
(g69
g50
NtRp246
(dp247
g53
(dp248
g73
g74
ssg62
g242
sg55
(lp249
S'session_id_admin'
p250
asbag48
(g69
g50
NtRp251
(dp252
g53
(dp253
g80
g81
ssg62
g242
sg55
(lp254
S':'
asbag48
(g69
g50
NtRp255
(dp256
g53
(dp257
sg62
g242
sg55
(lp258
g48
(g49
g50
NtRp259
(dp260
g53
(dp261
g61
I4
ssg62
g255
sg55
(lp262
g48
(g57
g50
NtRp263
(dp264
g53
(dp265
g61
I3
ssg62
Nsg55
(lp266
g48
(g64
g50
NtRp267
(dp268
g53
(dp269
sg62
g263
sg55
(lp270
g48
(g69
g50
NtRp271
(dp272
g53
(dp273
g73
g74
ssg62
g267
sg55
(lp274
S'comment'
p275
asbag48
(g69
g50
NtRp276
(dp277
g53
(dp278
g80
g81
ssg62
g267
sg55
(lp279
S':'
asbag48
(g69
g50
NtRp280
(dp281
g53
(dp282
sg62
g267
sg55
(lp283
g48
(g49
g50
NtRp284
(dp285
g53
(dp286
g61
I3
ssg62
g280
sg55
(lp287
S''
asbasbasbag48
(g64
g50
NtRp288
(dp289
g53
(dp290
sg62
g263
sg55
(lp291
g48
(g69
g50
NtRp292
(dp293
g53
(dp294
g73
g74
ssg62
g288
sg55
(lp295
S'domain'
p296
asbag48
(g69
g50
NtRp297
(dp298
g53
(dp299
g80
g81
ssg62
g288
sg55
(lp300
S':'
asbag48
(g69
g50
NtRp301
(dp302
g53
(dp303
sg62
g288
sg55
(lp304
g48
(g49
g50
NtRp305
(dp306
g53
(dp307
g61
I3
ssg62
g301
sg55
(lp308
S''
asbasbasbag48
(g64
g50
NtRp309
(dp310
g53
(dp311
sg62
g263
sg55
(lp312
g48
(g69
g50
NtRp313
(dp314
g53
(dp315
g73
g74
ssg62
g309
sg55
(lp316
S'expires'
p317
asbag48
(g69
g50
NtRp318
(dp319
g53
(dp320
g80
g81
ssg62
g309
sg55
(lp321
S':'
asbag48
(g69
g50
NtRp322
(dp323
g53
(dp324
sg62
g309
sg55
(lp325
g48
(g49
g50
NtRp326
(dp327
g53
(dp328
g61
I3
ssg62
g322
sg55
(lp329
S''
asbasbasbag48
(g64
g50
NtRp330
(dp331
g53
(dp332
sg62
g263
sg55
(lp333
g48
(g69
g50
NtRp334
(dp335
g53
(dp336
g73
g74
ssg62
g330
sg55
(lp337
S'max-age'
p338
asbag48
(g69
g50
NtRp339
(dp340
g53
(dp341
g80
g81
ssg62
g330
sg55
(lp342
S':'
asbag48
(g69
g50
NtRp343
(dp344
g53
(dp345
sg62
g330
sg55
(lp346
g48
(g49
g50
NtRp347
(dp348
g53
(dp349
g61
I3
ssg62
g343
sg55
(lp350
S''
asbasbasbag48
(g64
g50
NtRp351
(dp352
g53
(dp353
sg62
g263
sg55
(lp354
g48
(g69
g50
NtRp355
(dp356
g53
(dp357
g73
g74
ssg62
g351
sg55
(lp358
S'path'
p359
asbag48
(g69
g50
NtRp360
(dp361
g53
(dp362
g80
g81
ssg62
g351
sg55
(lp363
S':'
asbag48
(g69
g50
NtRp364
(dp365
g53
(dp366
sg62
g351
sg55
(lp367
g48
(g49
g50
NtRp368
(dp369
g53
(dp370
g61
I3
ssg62
g364
sg55
(lp371
S''
asbasbasbag48
(g64
g50
NtRp372
(dp373
g53
(dp374
sg62
g263
sg55
(lp375
g48
(g69
g50
NtRp376
(dp377
g53
(dp378
g73
g74
ssg62
g372
sg55
(lp379
S'secure'
p380
asbag48
(g69
g50
NtRp381
(dp382
g53
(dp383
g80
g81
ssg62
g372
sg55
(lp384
S':'
asbag48
(g69
g50
NtRp385
(dp386
g53
(dp387
sg62
g372
sg55
(lp388
g48
(g49
g50
NtRp389
(dp390
g53
(dp391
g61
I3
ssg62
g385
sg55
(lp392
S''
asbasbasbag48
(g64
g50
NtRp393
(dp394
g53
(dp395
sg62
g263
sg55
(lp396
g48
(g69
g50
NtRp397
(dp398
g53
(dp399
g73
g74
ssg62
g393
sg55
(lp400
S'version'
p401
asbag48
(g69
g50
NtRp402
(dp403
g53
(dp404
g80
g81
ssg62
g393
sg55
(lp405
S':'
asbag48
(g69
g50
NtRp406
(dp407
g53
(dp408
sg62
g393
sg55
(lp409
g48
(g49
g50
NtRp410
(dp411
g53
(dp412
g61
I3
ssg62
g406
sg55
(lp413
S''
asbasbasbasbasbasbasbag48
(g64
g50
NtRp414
(dp415
g53
(dp416
sg62
g238
sg55
(lp417
g48
(g69
g50
NtRp418
(dp419
g53
(dp420
g73
g74
ssg62
g414
sg55
(lp421
S'session_id_examples'
p422
asbag48
(g69
g50
NtRp423
(dp424
g53
(dp425
g80
g81
ssg62
g414
sg55
(lp426
S':'
asbag48
(g69
g50
NtRp427
(dp428
g53
(dp429
sg62
g414
sg55
(lp430
g48
(g49
g50
NtRp431
(dp432
g53
(dp433
g61
I4
ssg62
g427
sg55
(lp434
g48
(g57
g50
NtRp435
(dp436
g53
(dp437
g61
I3
ssg62
Nsg55
(lp438
g48
(g64
g50
NtRp439
(dp440
g53
(dp441
sg62
g435
sg55
(lp442
g48
(g69
g50
NtRp443
(dp444
g53
(dp445
g73
g74
ssg62
g439
sg55
(lp446
g275
asbag48
(g69
g50
NtRp447
(dp448
g53
(dp449
g80
g81
ssg62
g439
sg55
(lp450
S':'
asbag48
(g69
g50
NtRp451
(dp452
g53
(dp453
sg62
g439
sg55
(lp454
g48
(g49
g50
NtRp455
(dp456
g53
(dp457
g61
I3
ssg62
g451
sg55
(lp458
S''
asbasbasbag48
(g64
g50
NtRp459
(dp460
g53
(dp461
sg62
g435
sg55
(lp462
g48
(g69
g50
NtRp463
(dp464
g53
(dp465
g73
g74
ssg62
g459
sg55
(lp466
g296
asbag48
(g69
g50
NtRp467
(dp468
g53
(dp469
g80
g81
ssg62
g459
sg55
(lp470
S':'
asbag48
(g69
g50
NtRp471
(dp472
g53
(dp473
sg62
g459
sg55
(lp474
g48
(g49
g50
NtRp475
(dp476
g53
(dp477
g61
I3
ssg62
g471
sg55
(lp478
S''
asbasbasbag48
(g64
g50
NtRp479
(dp480
g53
(dp481
sg62
g435
sg55
(lp482
g48
(g69
g50
NtRp483
(dp484
g53
(dp485
g73
g74
ssg62
g479
sg55
(lp486
g317
asbag48
(g69
g50
NtRp487
(dp488
g53
(dp489
g80
g81
ssg62
g479
sg55
(lp490
S':'
asbag48
(g69
g50
NtRp491
(dp492
g53
(dp493
sg62
g479
sg55
(lp494
g48
(g49
g50
NtRp495
(dp496
g53
(dp497
g61
I3
ssg62
g491
sg55
(lp498
S''
asbasbasbag48
(g64
g50
NtRp499
(dp500
g53
(dp501
sg62
g435
sg55
(lp502
g48
(g69
g50
NtRp503
(dp504
g53
(dp505
g73
g74
ssg62
g499
sg55
(lp506
g338
asbag48
(g69
g50
NtRp507
(dp508
g53
(dp509
g80
g81
ssg62
g499
sg55
(lp510
S':'
asbag48
(g69
g50
NtRp511
(dp512
g53
(dp513
sg62
g499
sg55
(lp514
g48
(g49
g50
NtRp515
(dp516
g53
(dp517
g61
I3
ssg62
g511
sg55
(lp518
S''
asbasbasbag48
(g64
g50
NtRp519
(dp520
g53
(dp521
sg62
g435
sg55
(lp522
g48
(g69
g50
NtRp523
(dp524
g53
(dp525
g73
g74
ssg62
g519
sg55
(lp526
g359
asbag48
(g69
g50
NtRp527
(dp528
g53
(dp529
g80
g81
ssg62
g519
sg55
(lp530
S':'
asbag48
(g69
g50
NtRp531
(dp532
g53
(dp533
sg62
g519
sg55
(lp534
g48
(g49
g50
NtRp535
(dp536
g53
(dp537
g61
I3
ssg62
g531
sg55
(lp538
S''
asbasbasbag48
(g64
g50
NtRp539
(dp540
g53
(dp541
sg62
g435
sg55
(lp542
g48
(g69
g50
NtRp543
(dp544
g53
(dp545
g73
g74
ssg62
g539
sg55
(lp546
g380
asbag48
(g69
g50
NtRp547
(dp548
g53
(dp549
g80
g81
ssg62
g539
sg55
(lp550
S':'
asbag48
(g69
g50
NtRp551
(dp552
g53
(dp553
sg62
g539
sg55
(lp554
g48
(g49
g50
NtRp555
(dp556
g53
(dp557
g61
I3
ssg62
g551
sg55
(lp558
S''
asbasbasbag48
(g64
g50
NtRp559
(dp560
g53
(dp561
sg62
g435
sg55
(lp562
g48
(g69
g50
NtRp563
(dp564
g53
(dp565
g73
g74
ssg62
g559
sg55
(lp566
g401
asbag48
(g69
g50
NtRp567
(dp568
g53
(dp569
g80
g81
ssg62
g559
sg55
(lp570
S':'
asbag48
(g69
g50
NtRp571
(dp572
g53
(dp573
sg62
g559
sg55
(lp574
g48
(g49
g50
NtRp575
(dp576
g53
(dp577
g61
I3
ssg62
g571
sg55
(lp578
S''
asbasbasbasbasbasbasbag48
(g64
g50
NtRp579
(dp580
g53
(dp581
sg62
g238
sg55
(lp582
g48
(g69
g50
NtRp583
(dp584
g53
(dp585
g73
g74
ssg62
g579
sg55
(lp586
S'session_id_fitnessfriends'
p587
asbag48
(g69
g50
NtRp588
(dp589
g53
(dp590
g80
g81
ssg62
g579
sg55
(lp591
S':'
asbag48
(g69
g50
NtRp592
(dp593
g53
(dp594
sg62
g579
sg55
(lp595
g48
(g49
g50
NtRp596
(dp597
g53
(dp598
g61
I4
ssg62
g592
sg55
(lp599
g48
(g57
g50
NtRp600
(dp601
g53
(dp602
g61
I3
ssg62
Nsg55
(lp603
g48
(g64
g50
NtRp604
(dp605
g53
(dp606
sg62
g600
sg55
(lp607
g48
(g69
g50
NtRp608
(dp609
g53
(dp610
g73
g74
ssg62
g604
sg55
(lp611
g275
asbag48
(g69
g50
NtRp612
(dp613
g53
(dp614
g80
g81
ssg62
g604
sg55
(lp615
S':'
asbag48
(g69
g50
NtRp616
(dp617
g53
(dp618
sg62
g604
sg55
(lp619
g48
(g49
g50
NtRp620
(dp621
g53
(dp622
g61
I3
ssg62
g616
sg55
(lp623
S''
asbasbasbag48
(g64
g50
NtRp624
(dp625
g53
(dp626
sg62
g600
sg55
(lp627
g48
(g69
g50
NtRp628
(dp629
g53
(dp630
g73
g74
ssg62
g624
sg55
(lp631
g296
asbag48
(g69
g50
NtRp632
(dp633
g53
(dp634
g80
g81
ssg62
g624
sg55
(lp635
S':'
asbag48
(g69
g50
NtRp636
(dp637
g53
(dp638
sg62
g624
sg55
(lp639
g48
(g49
g50
NtRp640
(dp641
g53
(dp642
g61
I3
ssg62
g636
sg55
(lp643
S''
asbasbasbag48
(g64
g50
NtRp644
(dp645
g53
(dp646
sg62
g600
sg55
(lp647
g48
(g69
g50
NtRp648
(dp649
g53
(dp650
g73
g74
ssg62
g644
sg55
(lp651
g317
asbag48
(g69
g50
NtRp652
(dp653
g53
(dp654
g80
g81
ssg62
g644
sg55
(lp655
S':'
asbag48
(g69
g50
NtRp656
(dp657
g53
(dp658
sg62
g644
sg55
(lp659
g48
(g49
g50
NtRp660
(dp661
g53
(dp662
g61
I3
ssg62
g656
sg55
(lp663
S''
asbasbasbag48
(g64
g50
NtRp664
(dp665
g53
(dp666
sg62
g600
sg55
(lp667
g48
(g69
g50
NtRp668
(dp669
g53
(dp670
g73
g74
ssg62
g664
sg55
(lp671
g338
asbag48
(g69
g50
NtRp672
(dp673
g53
(dp674
g80
g81
ssg62
g664
sg55
(lp675
S':'
asbag48
(g69
g50
NtRp676
(dp677
g53
(dp678
sg62
g664
sg55
(lp679
g48
(g49
g50
NtRp680
(dp681
g53
(dp682
g61
I3
ssg62
g676
sg55
(lp683
S''
asbasbasbag48
(g64
g50
NtRp684
(dp685
g53
(dp686
sg62
g600
sg55
(lp687
g48
(g69
g50
NtRp688
(dp689
g53
(dp690
g73
g74
ssg62
g684
sg55
(lp691
g359
asbag48
(g69
g50
NtRp692
(dp693
g53
(dp694
g80
g81
ssg62
g684
sg55
(lp695
S':'
asbag48
(g69
g50
NtRp696
(dp697
g53
(dp698
sg62
g684
sg55
(lp699
g48
(g49
g50
NtRp700
(dp701
g53
(dp702
g61
I3
ssg62
g696
sg55
(lp703
S''
asbasbasbag48
(g64
g50
NtRp704
(dp705
g53
(dp706
sg62
g600
sg55
(lp707
g48
(g69
g50
NtRp708
(dp709
g53
(dp710
g73
g74
ssg62
g704
sg55
(lp711
g380
asbag48
(g69
g50
NtRp712
(dp713
g53
(dp714
g80
g81
ssg62
g704
sg55
(lp715
S':'
asbag48
(g69
g50
NtRp716
(dp717
g53
(dp718
sg62
g704
sg55
(lp719
g48
(g49
g50
NtRp720
(dp721
g53
(dp722
g61
I3
ssg62
g716
sg55
(lp723
S''
asbasbasbag48
(g64
g50
NtRp724
(dp725
g53
(dp726
sg62
g600
sg55
(lp727
g48
(g69
g50
NtRp728
(dp729
g53
(dp730
g73
g74
ssg62
g724
sg55
(lp731
g401
asbag48
(g69
g50
NtRp732
(dp733
g53
(dp734
g80
g81
ssg62
g724
sg55
(lp735
S':'
asbag48
(g69
g50
NtRp736
(dp737
g53
(dp738
sg62
g724
sg55
(lp739
g48
(g49
g50
NtRp740
(dp741
g53
(dp742
g61
I3
ssg62
g736
sg55
(lp743
S''
asbasbasbasbasbasbasbag48
(g64
g50
NtRp744
(dp745
g53
(dp746
sg62
g238
sg55
(lp747
g48
(g69
g50
NtRp748
(dp749
g53
(dp750
g73
g74
ssg62
g744
sg55
(lp751
S'session_id_init'
p752
asbag48
(g69
g50
NtRp753
(dp754
g53
(dp755
g80
g81
ssg62
g744
sg55
(lp756
S':'
asbag48
(g69
g50
NtRp757
(dp758
g53
(dp759
sg62
g744
sg55
(lp760
g48
(g49
g50
NtRp761
(dp762
g53
(dp763
g61
I4
ssg62
g757
sg55
(lp764
g48
(g57
g50
NtRp765
(dp766
g53
(dp767
g61
I3
ssg62
Nsg55
(lp768
g48
(g64
g50
NtRp769
(dp770
g53
(dp771
sg62
g765
sg55
(lp772
g48
(g69
g50
NtRp773
(dp774
g53
(dp775
g73
g74
ssg62
g769
sg55
(lp776
g275
asbag48
(g69
g50
NtRp777
(dp778
g53
(dp779
g80
g81
ssg62
g769
sg55
(lp780
S':'
asbag48
(g69
g50
NtRp781
(dp782
g53
(dp783
sg62
g769
sg55
(lp784
g48
(g49
g50
NtRp785
(dp786
g53
(dp787
g61
I3
ssg62
g781
sg55
(lp788
S''
asbasbasbag48
(g64
g50
NtRp789
(dp790
g53
(dp791
sg62
g765
sg55
(lp792
g48
(g69
g50
NtRp793
(dp794
g53
(dp795
g73
g74
ssg62
g789
sg55
(lp796
g296
asbag48
(g69
g50
NtRp797
(dp798
g53
(dp799
g80
g81
ssg62
g789
sg55
(lp800
S':'
asbag48
(g69
g50
NtRp801
(dp802
g53
(dp803
sg62
g789
sg55
(lp804
g48
(g49
g50
NtRp805
(dp806
g53
(dp807
g61
I3
ssg62
g801
sg55
(lp808
S''
asbasbasbag48
(g64
g50
NtRp809
(dp810
g53
(dp811
sg62
g765
sg55
(lp812
g48
(g69
g50
NtRp813
(dp814
g53
(dp815
g73
g74
ssg62
g809
sg55
(lp816
g317
asbag48
(g69
g50
NtRp817
(dp818
g53
(dp819
g80
g81
ssg62
g809
sg55
(lp820
S':'
asbag48
(g69
g50
NtRp821
(dp822
g53
(dp823
sg62
g809
sg55
(lp824
g48
(g49
g50
NtRp825
(dp826
g53
(dp827
g61
I3
ssg62
g821
sg55
(lp828
S''
asbasbasbag48
(g64
g50
NtRp829
(dp830
g53
(dp831
sg62
g765
sg55
(lp832
g48
(g69
g50
NtRp833
(dp834
g53
(dp835
g73
g74
ssg62
g829
sg55
(lp836
g338
asbag48
(g69
g50
NtRp837
(dp838
g53
(dp839
g80
g81
ssg62
g829
sg55
(lp840
S':'
asbag48
(g69
g50
NtRp841
(dp842
g53
(dp843
sg62
g829
sg55
(lp844
g48
(g49
g50
NtRp845
(dp846
g53
(dp847
g61
I3
ssg62
g841
sg55
(lp848
S''
asbasbasbag48
(g64
g50
NtRp849
(dp850
g53
(dp851
sg62
g765
sg55
(lp852
g48
(g69
g50
NtRp853
(dp854
g53
(dp855
g73
g74
ssg62
g849
sg55
(lp856
g359
asbag48
(g69
g50
NtRp857
(dp858
g53
(dp859
g80
g81
ssg62
g849
sg55
(lp860
S':'
asbag48
(g69
g50
NtRp861
(dp862
g53
(dp863
sg62
g849
sg55
(lp864
g48
(g49
g50
NtRp865
(dp866
g53
(dp867
g61
I3
ssg62
g861
sg55
(lp868
S''
asbasbasbag48
(g64
g50
NtRp869
(dp870
g53
(dp871
sg62
g765
sg55
(lp872
g48
(g69
g50
NtRp873
(dp874
g53
(dp875
g73
g74
ssg62
g869
sg55
(lp876
g380
asbag48
(g69
g50
NtRp877
(dp878
g53
(dp879
g80
g81
ssg62
g869
sg55
(lp880
S':'
asbag48
(g69
g50
NtRp881
(dp882
g53
(dp883
sg62
g869
sg55
(lp884
g48
(g49
g50
NtRp885
(dp886
g53
(dp887
g61
I3
ssg62
g881
sg55
(lp888
S''
asbasbasbag48
(g64
g50
NtRp889
(dp890
g53
(dp891
sg62
g765
sg55
(lp892
g48
(g69
g50
NtRp893
(dp894
g53
(dp895
g73
g74
ssg62
g889
sg55
(lp896
g401
asbag48
(g69
g50
NtRp897
(dp898
g53
(dp899
g80
g81
ssg62
g889
sg55
(lp900
S':'
asbag48
(g69
g50
NtRp901
(dp902
g53
(dp903
sg62
g889
sg55
(lp904
g48
(g49
g50
NtRp905
(dp906
g53
(dp907
g61
I3
ssg62
g901
sg55
(lp908
S''
asbasbasbasbasbasbasbag48
(g64
g50
NtRp909
(dp910
g53
(dp911
sg62
g238
sg55
(lp912
g48
(g69
g50
NtRp913
(dp914
g53
(dp915
g73
g74
ssg62
g909
sg55
(lp916
S'session_id_recipeapp'
p917
asbag48
(g69
g50
NtRp918
(dp919
g53
(dp920
g80
g81
ssg62
g909
sg55
(lp921
S':'
asbag48
(g69
g50
NtRp922
(dp923
g53
(dp924
sg62
g909
sg55
(lp925
g48
(g49
g50
NtRp926
(dp927
g53
(dp928
g61
I4
ssg62
g922
sg55
(lp929
g48
(g57
g50
NtRp930
(dp931
g53
(dp932
g61
I3
ssg62
Nsg55
(lp933
g48
(g64
g50
NtRp934
(dp935
g53
(dp936
sg62
g930
sg55
(lp937
g48
(g69
g50
NtRp938
(dp939
g53
(dp940
g73
g74
ssg62
g934
sg55
(lp941
g275
asbag48
(g69
g50
NtRp942
(dp943
g53
(dp944
g80
g81
ssg62
g934
sg55
(lp945
S':'
asbag48
(g69
g50
NtRp946
(dp947
g53
(dp948
sg62
g934
sg55
(lp949
g48
(g49
g50
NtRp950
(dp951
g53
(dp952
g61
I3
ssg62
g946
sg55
(lp953
S''
asbasbasbag48
(g64
g50
NtRp954
(dp955
g53
(dp956
sg62
g930
sg55
(lp957
g48
(g69
g50
NtRp958
(dp959
g53
(dp960
g73
g74
ssg62
g954
sg55
(lp961
g296
asbag48
(g69
g50
NtRp962
(dp963
g53
(dp964
g80
g81
ssg62
g954
sg55
(lp965
S':'
asbag48
(g69
g50
NtRp966
(dp967
g53
(dp968
sg62
g954
sg55
(lp969
g48
(g49
g50
NtRp970
(dp971
g53
(dp972
g61
I3
ssg62
g966
sg55
(lp973
S''
asbasbasbag48
(g64
g50
NtRp974
(dp975
g53
(dp976
sg62
g930
sg55
(lp977
g48
(g69
g50
NtRp978
(dp979
g53
(dp980
g73
g74
ssg62
g974
sg55
(lp981
g317
asbag48
(g69
g50
NtRp982
(dp983
g53
(dp984
g80
g81
ssg62
g974
sg55
(lp985
S':'
asbag48
(g69
g50
NtRp986
(dp987
g53
(dp988
sg62
g974
sg55
(lp989
g48
(g49
g50
NtRp990
(dp991
g53
(dp992
g61
I3
ssg62
g986
sg55
(lp993
S''
asbasbasbag48
(g64
g50
NtRp994
(dp995
g53
(dp996
sg62
g930
sg55
(lp997
g48
(g69
g50
NtRp998
(dp999
g53
(dp1000
g73
g74
ssg62
g994
sg55
(lp1001
g338
asbag48
(g69
g50
NtRp1002
(dp1003
g53
(dp1004
g80
g81
ssg62
g994
sg55
(lp1005
S':'
asbag48
(g69
g50
NtRp1006
(dp1007
g53
(dp1008
sg62
g994
sg55
(lp1009
g48
(g49
g50
NtRp1010
(dp1011
g53
(dp1012
g61
I3
ssg62
g1006
sg55
(lp1013
S''
asbasbasbag48
(g64
g50
NtRp1014
(dp1015
g53
(dp1016
sg62
g930
sg55
(lp1017
g48
(g69
g50
NtRp1018
(dp1019
g53
(dp1020
g73
g74
ssg62
g1014
sg55
(lp1021
g359
asbag48
(g69
g50
NtRp1022
(dp1023
g53
(dp1024
g80
g81
ssg62
g1014
sg55
(lp1025
S':'
asbag48
(g69
g50
NtRp1026
(dp1027
g53
(dp1028
sg62
g1014
sg55
(lp1029
g48
(g49
g50
NtRp1030
(dp1031
g53
(dp1032
g61
I3
ssg62
g1026
sg55
(lp1033
S''
asbasbasbag48
(g64
g50
NtRp1034
(dp1035
g53
(dp1036
sg62
g930
sg55
(lp1037
g48
(g69
g50
NtRp1038
(dp1039
g53
(dp1040
g73
g74
ssg62
g1034
sg55
(lp1041
g380
asbag48
(g69
g50
NtRp1042
(dp1043
g53
(dp1044
g80
g81
ssg62
g1034
sg55
(lp1045
S':'
asbag48
(g69
g50
NtRp1046
(dp1047
g53
(dp1048
sg62
g1034
sg55
(lp1049
g48
(g49
g50
NtRp1050
(dp1051
g53
(dp1052
g61
I3
ssg62
g1046
sg55
(lp1053
S''
asbasbasbag48
(g64
g50
NtRp1054
(dp1055
g53
(dp1056
sg62
g930
sg55
(lp1057
g48
(g69
g50
NtRp1058
(dp1059
g53
(dp1060
g73
g74
ssg62
g1054
sg55
(lp1061
g401
asbag48
(g69
g50
NtRp1062
(dp1063
g53
(dp1064
g80
g81
ssg62
g1054
sg55
(lp1065
S':'
asbag48
(g69
g50
NtRp1066
(dp1067
g53
(dp1068
sg62
g1054
sg55
(lp1069
g48
(g49
g50
NtRp1070
(dp1071
g53
(dp1072
g61
I3
ssg62
g1066
sg55
(lp1073
S''
asbasbasbasbasbasbasbag48
(g64
g50
NtRp1074
(dp1075
g53
(dp1076
sg62
g238
sg55
(lp1077
g48
(g69
g50
NtRp1078
(dp1079
g53
(dp1080
g73
g74
ssg62
g1074
sg55
(lp1081
S'session_id_welcome'
p1082
asbag48
(g69
g50
NtRp1083
(dp1084
g53
(dp1085
g80
g81
ssg62
g1074
sg55
(lp1086
S':'
asbag48
(g69
g50
NtRp1087
(dp1088
g53
(dp1089
sg62
g1074
sg55
(lp1090
g48
(g49
g50
NtRp1091
(dp1092
g53
(dp1093
g61
I4
ssg62
g1087
sg55
(lp1094
g48
(g57
g50
NtRp1095
(dp1096
g53
(dp1097
g61
I3
ssg62
Nsg55
(lp1098
g48
(g64
g50
NtRp1099
(dp1100
g53
(dp1101
sg62
g1095
sg55
(lp1102
g48
(g69
g50
NtRp1103
(dp1104
g53
(dp1105
g73
g74
ssg62
g1099
sg55
(lp1106
g275
asbag48
(g69
g50
NtRp1107
(dp1108
g53
(dp1109
g80
g81
ssg62
g1099
sg55
(lp1110
S':'
asbag48
(g69
g50
NtRp1111
(dp1112
g53
(dp1113
sg62
g1099
sg55
(lp1114
g48
(g49
g50
NtRp1115
(dp1116
g53
(dp1117
g61
I3
ssg62
g1111
sg55
(lp1118
S''
asbasbasbag48
(g64
g50
NtRp1119
(dp1120
g53
(dp1121
sg62
g1095
sg55
(lp1122
g48
(g69
g50
NtRp1123
(dp1124
g53
(dp1125
g73
g74
ssg62
g1119
sg55
(lp1126
g296
asbag48
(g69
g50
NtRp1127
(dp1128
g53
(dp1129
g80
g81
ssg62
g1119
sg55
(lp1130
S':'
asbag48
(g69
g50
NtRp1131
(dp1132
g53
(dp1133
sg62
g1119
sg55
(lp1134
g48
(g49
g50
NtRp1135
(dp1136
g53
(dp1137
g61
I3
ssg62
g1131
sg55
(lp1138
S''
asbasbasbag48
(g64
g50
NtRp1139
(dp1140
g53
(dp1141
sg62
g1095
sg55
(lp1142
g48
(g69
g50
NtRp1143
(dp1144
g53
(dp1145
g73
g74
ssg62
g1139
sg55
(lp1146
g317
asbag48
(g69
g50
NtRp1147
(dp1148
g53
(dp1149
g80
g81
ssg62
g1139
sg55
(lp1150
S':'
asbag48
(g69
g50
NtRp1151
(dp1152
g53
(dp1153
sg62
g1139
sg55
(lp1154
g48
(g49
g50
NtRp1155
(dp1156
g53
(dp1157
g61
I3
ssg62
g1151
sg55
(lp1158
S''
asbasbasbag48
(g64
g50
NtRp1159
(dp1160
g53
(dp1161
sg62
g1095
sg55
(lp1162
g48
(g69
g50
NtRp1163
(dp1164
g53
(dp1165
g73
g74
ssg62
g1159
sg55
(lp1166
g338
asbag48
(g69
g50
NtRp1167
(dp1168
g53
(dp1169
g80
g81
ssg62
g1159
sg55
(lp1170
S':'
asbag48
(g69
g50
NtRp1171
(dp1172
g53
(dp1173
sg62
g1159
sg55
(lp1174
g48
(g49
g50
NtRp1175
(dp1176
g53
(dp1177
g61
I3
ssg62
g1171
sg55
(lp1178
S''
asbasbasbag48
(g64
g50
NtRp1179
(dp1180
g53
(dp1181
sg62
g1095
sg55
(lp1182
g48
(g69
g50
NtRp1183
(dp1184
g53
(dp1185
g73
g74
ssg62
g1179
sg55
(lp1186
g359
asbag48
(g69
g50
NtRp1187
(dp1188
g53
(dp1189
g80
g81
ssg62
g1179
sg55
(lp1190
S':'
asbag48
(g69
g50
NtRp1191
(dp1192
g53
(dp1193
sg62
g1179
sg55
(lp1194
g48
(g49
g50
NtRp1195
(dp1196
g53
(dp1197
g61
I3
ssg62
g1191
sg55
(lp1198
S''
asbasbasbag48
(g64
g50
NtRp1199
(dp1200
g53
(dp1201
sg62
g1095
sg55
(lp1202
g48
(g69
g50
NtRp1203
(dp1204
g53
(dp1205
g73
g74
ssg62
g1199
sg55
(lp1206
g380
asbag48
(g69
g50
NtRp1207
(dp1208
g53
(dp1209
g80
g81
ssg62
g1199
sg55
(lp1210
S':'
asbag48
(g69
g50
NtRp1211
(dp1212
g53
(dp1213
sg62
g1199
sg55
(lp1214
g48
(g49
g50
NtRp1215
(dp1216
g53
(dp1217
g61
I3
ssg62
g1211
sg55
(lp1218
S''
asbasbasbag48
(g64
g50
NtRp1219
(dp1220
g53
(dp1221
sg62
g1095
sg55
(lp1222
g48
(g69
g50
NtRp1223
(dp1224
g53
(dp1225
g73
g74
ssg62
g1219
sg55
(lp1226
g401
asbag48
(g69
g50
NtRp1227
(dp1228
g53
(dp1229
g80
g81
ssg62
g1219
sg55
(lp1230
S':'
asbag48
(g69
g50
NtRp1231
(dp1232
g53
(dp1233
sg62
g1219
sg55
(lp1234
g48
(g49
g50
NtRp1235
(dp1236
g53
(dp1237
g61
I3
ssg62
g1231
sg55
(lp1238
S''
asbasbasbasbasbasbasbasbasbasbasbag48
(g64
g50
NtRp1239
(dp1240
g53
(dp1241
sg62
g58
sg55
(lp1242
g48
(g69
g50
NtRp1243
(dp1244
g53
(dp1245
g73
g74
ssg62
g1239
sg55
(lp1246
S'env'
p1247
asbag48
(g69
g50
NtRp1248
(dp1249
g53
(dp1250
g80
g81
ssg62
g1239
sg55
(lp1251
S':'
asbag48
(g69
g50
NtRp1252
(dp1253
g53
(dp1254
sg62
g1239
sg55
(lp1255
g48
(g49
g50
NtRp1256
(dp1257
g53
(dp1258
g61
I5
ssg62
g1252
sg55
(lp1259
g48
(g57
g50
NtRp1260
(dp1261
g53
(dp1262
g61
I4
ssg62
Nsg55
(lp1263
g48
(g64
g50
NtRp1264
(dp1265
g53
(dp1266
sg62
g1260
sg55
(lp1267
g48
(g69
g50
NtRp1268
(dp1269
g53
(dp1270
g73
g74
ssg62
g1264
sg55
(lp1271
S'app_folders'
p1272
asbag48
(g69
g50
NtRp1273
(dp1274
g53
(dp1275
g80
g81
ssg62
g1264
sg55
(lp1276
S':'
asbag48
(g69
g50
NtRp1277
(dp1278
g53
(dp1279
sg62
g1264
sg55
(lp1280
g48
(g49
g50
NtRp1281
(dp1282
g53
(dp1283
g61
I4
ssg62
g1277
sg55
(lp1284
S"set(['P:\\\\Workbench\\\\DevEnv\\\\web2py\\\\applications\\\\init\\\\', 'P:\\\\Workbench\\\\DevEnv\\\\web2py\\\\applications\\\\welcome\\\\', 'P:\\\\Workbench\\\\DevEnv\\\\web2py\\\\applications\\\\admin\\\\', 'P:\\\\Workbench\\\\DevEnv\\\\web2py\\\\applications\\\\RecipeApp\\\\', 'P:\\\\Workbench\\\\DevEnv\\\\web2py\\\\applications\\\\examples\\\\'])"
p1285
asbasbasbag48
(g64
g50
NtRp1286
(dp1287
g53
(dp1288
sg62
g1260
sg55
(lp1289
g48
(g69
g50
NtRp1290
(dp1291
g53
(dp1292
g73
g74
ssg62
g1286
sg55
(lp1293
S'applications_parent'
p1294
asbag48
(g69
g50
NtRp1295
(dp1296
g53
(dp1297
g80
g81
ssg62
g1286
sg55
(lp1298
S':'
asbag48
(g69
g50
NtRp1299
(dp1300
g53
(dp1301
sg62
g1286
sg55
(lp1302
g48
(g49
g50
NtRp1303
(dp1304
g53
(dp1305
g61
I4
ssg62
g1299
sg55
(lp1306
S'P:\\Workbench\\DevEnv\\web2py'
p1307
asbasbasbag48
(g64
g50
NtRp1308
(dp1309
g53
(dp1310
sg62
g1260
sg55
(lp1311
g48
(g69
g50
NtRp1312
(dp1313
g53
(dp1314
g73
g74
ssg62
g1308
sg55
(lp1315
S'cmd_args'
p1316
asbag48
(g69
g50
NtRp1317
(dp1318
g53
(dp1319
g80
g81
ssg62
g1308
sg55
(lp1320
S':'
asbag48
(g69
g50
NtRp1321
(dp1322
g53
(dp1323
sg62
g1308
sg55
(lp1324
g48
(g49
g50
NtRp1325
(dp1326
g53
(dp1327
g61
I4
ssg62
g1321
sg55
(lp1328
g48
(g57
g50
NtRp1329
(dp1330
g53
(dp1331
g61
I3
ssg62
Nsg55
(lp1332
sbasbasbasbag48
(g64
g50
NtRp1333
(dp1334
g53
(dp1335
sg62
g1260
sg55
(lp1336
g48
(g69
g50
NtRp1337
(dp1338
g53
(dp1339
g73
g74
ssg62
g1333
sg55
(lp1340
S'cmd_options'
p1341
asbag48
(g69
g50
NtRp1342
(dp1343
g53
(dp1344
g80
g81
ssg62
g1333
sg55
(lp1345
S':'
asbag48
(g69
g50
NtRp1346
(dp1347
g53
(dp1348
sg62
g1333
sg55
(lp1349
g48
(g49
g50
NtRp1350
(dp1351
g53
(dp1352
g61
I4
ssg62
g1346
sg55
(lp1353
S"<Values at 0x38e07b0: {'verbose': False, 'ip': '127.0.0.1', 'shutdown_timeout': 5, 'taskbar': False, 'nocron': False, 'pid_filename': 'httpserver.pid', 'maxthreads': None, 'softcron': False, 'server_name': 'Bishop-PC', 'bpython': False, 'nogui': False, 'port': 8000, 'extcron': False, 'debuglevel': 30, 'test': None, 'folder': 'P:\\\\Workbench\\\\DevEnv\\\\web2py', 'config': '', 'import_models': False, 'winservice': '', 'shell': None, 'run': '', 'log_filename': 'httpserver.log', 'args': [''], 'ssl_ca_certificate': None, 'scheduler': None, 'profiler_filename': None, 'ssl_private_key': '', 'password': '<ask>', 'request_queue_size': 5, 'ssl_certificate': '', 'cronjob': False, 'plain': False, 'quiet': False, 'interfaces': None, 'minthreads': None, 'timeout': 10, 'numthreads': None, 'nobanner': False}>"
p1354
asbasbasbag48
(g64
g50
NtRp1355
(dp1356
g53
(dp1357
sg62
g1260
sg55
(lp1358
g48
(g69
g50
NtRp1359
(dp1360
g53
(dp1361
g73
g74
ssg62
g1355
sg55
(lp1362
S'db_sessions'
p1363
asbag48
(g69
g50
NtRp1364
(dp1365
g53
(dp1366
g80
g81
ssg62
g1355
sg55
(lp1367
S':'
asbag48
(g69
g50
NtRp1368
(dp1369
g53
(dp1370
sg62
g1355
sg55
(lp1371
g48
(g49
g50
NtRp1372
(dp1373
g53
(dp1374
g61
I4
ssg62
g1368
sg55
(lp1375
S'set([])'
p1376
asbasbasbag48
(g64
g50
NtRp1377
(dp1378
g53
(dp1379
sg62
g1260
sg55
(lp1380
g48
(g69
g50
NtRp1381
(dp1382
g53
(dp1383
g73
g74
ssg62
g1377
sg55
(lp1384
S'debugging'
p1385
asbag48
(g69
g50
NtRp1386
(dp1387
g53
(dp1388
g80
g81
ssg62
g1377
sg55
(lp1389
S':'
asbag48
(g69
g50
NtRp1390
(dp1391
g53
(dp1392
sg62
g1377
sg55
(lp1393
g48
(g49
g50
NtRp1394
(dp1395
g53
(dp1396
g61
I4
ssg62
g1390
sg55
(lp1397
g91
asbasbasbag48
(g64
g50
NtRp1398
(dp1399
g53
(dp1400
sg62
g1260
sg55
(lp1401
g48
(g69
g50
NtRp1402
(dp1403
g53
(dp1404
g73
g74
ssg62
g1398
sg55
(lp1405
S'gluon_parent'
p1406
asbag48
(g69
g50
NtRp1407
(dp1408
g53
(dp1409
g80
g81
ssg62
g1398
sg55
(lp1410
S':'
asbag48
(g69
g50
NtRp1411
(dp1412
g53
(dp1413
sg62
g1398
sg55
(lp1414
g48
(g49
g50
NtRp1415
(dp1416
g53
(dp1417
g61
I4
ssg62
g1411
sg55
(lp1418
S'P:\\Workbench\\DevEnv\\web2py'
p1419
asbasbasbag48
(g64
g50
NtRp1420
(dp1421
g53
(dp1422
sg62
g1260
sg55
(lp1423
g48
(g69
g50
NtRp1424
(dp1425
g53
(dp1426
g73
g74
ssg62
g1420
sg55
(lp1427
S'http_accept'
p1428
asbag48
(g69
g50
NtRp1429
(dp1430
g53
(dp1431
g80
g81
ssg62
g1420
sg55
(lp1432
S':'
asbag48
(g69
g50
NtRp1433
(dp1434
g53
(dp1435
sg62
g1420
sg55
(lp1436
g48
(g49
g50
NtRp1437
(dp1438
g53
(dp1439
g61
I4
ssg62
g1433
sg55
(lp1440
S'text/html,application/xhtml+xml,application/xml;q=0.9,*/*;q=0.8'
p1441
asbasbasbag48
(g64
g50
NtRp1442
(dp1443
g53
(dp1444
sg62
g1260
sg55
(lp1445
g48
(g69
g50
NtRp1446
(dp1447
g53
(dp1448
g73
g74
ssg62
g1442
sg55
(lp1449
S'http_accept_charset'
p1450
asbag48
(g69
g50
NtRp1451
(dp1452
g53
(dp1453
g80
g81
ssg62
g1442
sg55
(lp1454
S':'
asbag48
(g69
g50
NtRp1455
(dp1456
g53
(dp1457
sg62
g1442
sg55
(lp1458
g48
(g49
g50
NtRp1459
(dp1460
g53
(dp1461
g61
I4
ssg62
g1455
sg55
(lp1462
S'ISO-8859-1,utf-8;q=0.7,*;q=0.7'
p1463
asbasbasbag48
(g64
g50
NtRp1464
(dp1465
g53
(dp1466
sg62
g1260
sg55
(lp1467
g48
(g69
g50
NtRp1468
(dp1469
g53
(dp1470
g73
g74
ssg62
g1464
sg55
(lp1471
S'http_accept_encoding'
p1472
asbag48
(g69
g50
NtRp1473
(dp1474
g53
(dp1475
g80
g81
ssg62
g1464
sg55
(lp1476
S':'
asbag48
(g69
g50
NtRp1477
(dp1478
g53
(dp1479
sg62
g1464
sg55
(lp1480
g48
(g49
g50
NtRp1481
(dp1482
g53
(dp1483
g61
I4
ssg62
g1477
sg55
(lp1484
S'gzip,deflate'
p1485
asbasbasbag48
(g64
g50
NtRp1486
(dp1487
g53
(dp1488
sg62
g1260
sg55
(lp1489
g48
(g69
g50
NtRp1490
(dp1491
g53
(dp1492
g73
g74
ssg62
g1486
sg55
(lp1493
S'http_accept_language'
p1494
asbag48
(g69
g50
NtRp1495
(dp1496
g53
(dp1497
g80
g81
ssg62
g1486
sg55
(lp1498
S':'
asbag48
(g69
g50
NtRp1499
(dp1500
g53
(dp1501
sg62
g1486
sg55
(lp1502
g48
(g49
g50
NtRp1503
(dp1504
g53
(dp1505
g61
I4
ssg62
g1499
sg55
(lp1506
S'en-us,en;q=0.5'
p1507
asbasbasbag48
(g64
g50
NtRp1508
(dp1509
g53
(dp1510
sg62
g1260
sg55
(lp1511
g48
(g69
g50
NtRp1512
(dp1513
g53
(dp1514
g73
g74
ssg62
g1508
sg55
(lp1515
S'http_connection'
p1516
asbag48
(g69
g50
NtRp1517
(dp1518
g53
(dp1519
g80
g81
ssg62
g1508
sg55
(lp1520
S':'
asbag48
(g69
g50
NtRp1521
(dp1522
g53
(dp1523
sg62
g1508
sg55
(lp1524
g48
(g49
g50
NtRp1525
(dp1526
g53
(dp1527
g61
I4
ssg62
g1521
sg55
(lp1528
S'keep-alive'
p1529
asbasbasbag48
(g64
g50
NtRp1530
(dp1531
g53
(dp1532
sg62
g1260
sg55
(lp1533
g48
(g69
g50
NtRp1534
(dp1535
g53
(dp1536
g73
g74
ssg62
g1530
sg55
(lp1537
S'http_cookie'
p1538
asbag48
(g69
g50
NtRp1539
(dp1540
g53
(dp1541
g80
g81
ssg62
g1530
sg55
(lp1542
S':'
asbag48
(g69
g50
NtRp1543
(dp1544
g53
(dp1545
sg62
g1530
sg55
(lp1546
g48
(g49
g50
NtRp1547
(dp1548
g53
(dp1549
g61
I4
ssg62
g1543
sg55
(lp1550
S'__utma_a2a=4518867300.1350888199.1319331273.1319375111.1319375111.5; session_id_welcome=127.0.0.1-1c8a66eb-aca4-45bc-b3aa-6398dc39c9e2; session_id_admin=127.0.0.1-a3a197fc-7807-4f8d-981d-b450c8cb33e4; session_id_fitnessfriends=127.0.0.1-f9472285-2ac4-4db2-b544-090801b27d20; session_id_recipeapp=127.0.0.1-04cb37b8-d078-45b4-9b40-40bec035696f; session_id_init=127.0.0.1-b664747d-5a4d-45cc-a1d2-dd0447ed1e85; session_id_examples=127.0.0.1-8a4061d3-ecf6-4e47-84a6-89933c44d5c6'
p1551
asbasbasbag48
(g64
g50
NtRp1552
(dp1553
g53
(dp1554
sg62
g1260
sg55
(lp1555
g48
(g69
g50
NtRp1556
(dp1557
g53
(dp1558
g73
g74
ssg62
g1552
sg55
(lp1559
S'http_host'
p1560
asbag48
(g69
g50
NtRp1561
(dp1562
g53
(dp1563
g80
g81
ssg62
g1552
sg55
(lp1564
S':'
asbag48
(g69
g50
NtRp1565
(dp1566
g53
(dp1567
sg62
g1552
sg55
(lp1568
g48
(g49
g50
NtRp1569
(dp1570
g53
(dp1571
g61
I4
ssg62
g1565
sg55
(lp1572
S'127.0.0.1:8000'
p1573
asbasbasbag48
(g64
g50
NtRp1574
(dp1575
g53
(dp1576
sg62
g1260
sg55
(lp1577
g48
(g69
g50
NtRp1578
(dp1579
g53
(dp1580
g73
g74
ssg62
g1574
sg55
(lp1581
S'http_keep_alive'
p1582
asbag48
(g69
g50
NtRp1583
(dp1584
g53
(dp1585
g80
g81
ssg62
g1574
sg55
(lp1586
S':'
asbag48
(g69
g50
NtRp1587
(dp1588
g53
(dp1589
sg62
g1574
sg55
(lp1590
g48
(g49
g50
NtRp1591
(dp1592
g53
(dp1593
g61
I4
ssg62
g1587
sg55
(lp1594
S'115'
p1595
asbasbasbag48
(g64
g50
NtRp1596
(dp1597
g53
(dp1598
sg62
g1260
sg55
(lp1599
g48
(g69
g50
NtRp1600
(dp1601
g53
(dp1602
g73
g74
ssg62
g1596
sg55
(lp1603
S'http_user_agent'
p1604
asbag48
(g69
g50
NtRp1605
(dp1606
g53
(dp1607
g80
g81
ssg62
g1596
sg55
(lp1608
S':'
asbag48
(g69
g50
NtRp1609
(dp1610
g53
(dp1611
sg62
g1596
sg55
(lp1612
g48
(g49
g50
NtRp1613
(dp1614
g53
(dp1615
g61
I4
ssg62
g1609
sg55
(lp1616
S'Mozilla/5.0 (Windows; U; Windows NT 6.1; en-US; rv:1.9.2.23) Gecko/20110920 Firefox/3.6.23'
p1617
asbasbasbag48
(g64
g50
NtRp1618
(dp1619
g53
(dp1620
sg62
g1260
sg55
(lp1621
g48
(g69
g50
NtRp1622
(dp1623
g53
(dp1624
g73
g74
ssg62
g1618
sg55
(lp1625
S'is_jython'
p1626
asbag48
(g69
g50
NtRp1627
(dp1628
g53
(dp1629
g80
g81
ssg62
g1618
sg55
(lp1630
S':'
asbag48
(g69
g50
NtRp1631
(dp1632
g53
(dp1633
sg62
g1618
sg55
(lp1634
g48
(g49
g50
NtRp1635
(dp1636
g53
(dp1637
g61
I4
ssg62
g1631
sg55
(lp1638
g91
asbasbasbag48
(g64
g50
NtRp1639
(dp1640
g53
(dp1641
sg62
g1260
sg55
(lp1642
g48
(g69
g50
NtRp1643
(dp1644
g53
(dp1645
g73
g74
ssg62
g1639
sg55
(lp1646
S'path_info'
p1647
asbag48
(g69
g50
NtRp1648
(dp1649
g53
(dp1650
g80
g81
ssg62
g1639
sg55
(lp1651
S':'
asbag48
(g69
g50
NtRp1652
(dp1653
g53
(dp1654
sg62
g1639
sg55
(lp1655
g48
(g49
g50
NtRp1656
(dp1657
g53
(dp1658
g61
I4
ssg62
g1652
sg55
(lp1659
S'/init/default/user/register'
p1660
asbasbasbag48
(g64
g50
NtRp1661
(dp1662
g53
(dp1663
sg62
g1260
sg55
(lp1664
g48
(g69
g50
NtRp1665
(dp1666
g53
(dp1667
g73
g74
ssg62
g1661
sg55
(lp1668
S'query_string'
p1669
asbag48
(g69
g50
NtRp1670
(dp1671
g53
(dp1672
g80
g81
ssg62
g1661
sg55
(lp1673
S':'
asbag48
(g69
g50
NtRp1674
(dp1675
g53
(dp1676
sg62
g1661
sg55
(lp1677
g48
(g49
g50
NtRp1678
(dp1679
g53
(dp1680
g61
I4
ssg62
g1674
sg55
(lp1681
S''
asbasbasbag48
(g64
g50
NtRp1682
(dp1683
g53
(dp1684
sg62
g1260
sg55
(lp1685
g48
(g69
g50
NtRp1686
(dp1687
g53
(dp1688
g73
g74
ssg62
g1682
sg55
(lp1689
S'remote_addr'
p1690
asbag48
(g69
g50
NtRp1691
(dp1692
g53
(dp1693
g80
g81
ssg62
g1682
sg55
(lp1694
S':'
asbag48
(g69
g50
NtRp1695
(dp1696
g53
(dp1697
sg62
g1682
sg55
(lp1698
g48
(g49
g50
NtRp1699
(dp1700
g53
(dp1701
g61
I4
ssg62
g1695
sg55
(lp1702
g194
asbasbasbag48
(g64
g50
NtRp1703
(dp1704
g53
(dp1705
sg62
g1260
sg55
(lp1706
g48
(g69
g50
NtRp1707
(dp1708
g53
(dp1709
g73
g74
ssg62
g1703
sg55
(lp1710
S'remote_port'
p1711
asbag48
(g69
g50
NtRp1712
(dp1713
g53
(dp1714
g80
g81
ssg62
g1703
sg55
(lp1715
S':'
asbag48
(g69
g50
NtRp1716
(dp1717
g53
(dp1718
sg62
g1703
sg55
(lp1719
g48
(g49
g50
NtRp1720
(dp1721
g53
(dp1722
g61
I4
ssg62
g1716
sg55
(lp1723
S'50273'
p1724
asbasbasbag48
(g64
g50
NtRp1725
(dp1726
g53
(dp1727
sg62
g1260
sg55
(lp1728
g48
(g69
g50
NtRp1729
(dp1730
g53
(dp1731
g73
g74
ssg62
g1725
sg55
(lp1732
S'request_method'
p1733
asbag48
(g69
g50
NtRp1734
(dp1735
g53
(dp1736
g80
g81
ssg62
g1725
sg55
(lp1737
S':'
asbag48
(g69
g50
NtRp1738
(dp1739
g53
(dp1740
sg62
g1725
sg55
(lp1741
g48
(g49
g50
NtRp1742
(dp1743
g53
(dp1744
g61
I4
ssg62
g1738
sg55
(lp1745
S'GET'
p1746
asbasbasbag48
(g64
g50
NtRp1747
(dp1748
g53
(dp1749
sg62
g1260
sg55
(lp1750
g48
(g69
g50
NtRp1751
(dp1752
g53
(dp1753
g73
g74
ssg62
g1747
sg55
(lp1754
S'script_name'
p1755
asbag48
(g69
g50
NtRp1756
(dp1757
g53
(dp1758
g80
g81
ssg62
g1747
sg55
(lp1759
S':'
asbag48
(g69
g50
NtRp1760
(dp1761
g53
(dp1762
sg62
g1747
sg55
(lp1763
g48
(g49
g50
NtRp1764
(dp1765
g53
(dp1766
g61
I4
ssg62
g1760
sg55
(lp1767
S''
asbasbasbag48
(g64
g50
NtRp1768
(dp1769
g53
(dp1770
sg62
g1260
sg55
(lp1771
g48
(g69
g50
NtRp1772
(dp1773
g53
(dp1774
g73
g74
ssg62
g1768
sg55
(lp1775
S'server_name'
p1776
asbag48
(g69
g50
NtRp1777
(dp1778
g53
(dp1779
g80
g81
ssg62
g1768
sg55
(lp1780
S':'
asbag48
(g69
g50
NtRp1781
(dp1782
g53
(dp1783
sg62
g1768
sg55
(lp1784
g48
(g49
g50
NtRp1785
(dp1786
g53
(dp1787
g61
I4
ssg62
g1781
sg55
(lp1788
S'Bishop-PC'
p1789
asbasbasbag48
(g64
g50
NtRp1790
(dp1791
g53
(dp1792
sg62
g1260
sg55
(lp1793
g48
(g69
g50
NtRp1794
(dp1795
g53
(dp1796
g73
g74
ssg62
g1790
sg55
(lp1797
S'server_port'
p1798
asbag48
(g69
g50
NtRp1799
(dp1800
g53
(dp1801
g80
g81
ssg62
g1790
sg55
(lp1802
S':'
asbag48
(g69
g50
NtRp1803
(dp1804
g53
(dp1805
sg62
g1790
sg55
(lp1806
g48
(g49
g50
NtRp1807
(dp1808
g53
(dp1809
g61
I4
ssg62
g1803
sg55
(lp1810
S'8000'
p1811
asbasbasbag48
(g64
g50
NtRp1812
(dp1813
g53
(dp1814
sg62
g1260
sg55
(lp1815
g48
(g69
g50
NtRp1816
(dp1817
g53
(dp1818
g73
g74
ssg62
g1812
sg55
(lp1819
S'server_protocol'
p1820
asbag48
(g69
g50
NtRp1821
(dp1822
g53
(dp1823
g80
g81
ssg62
g1812
sg55
(lp1824
S':'
asbag48
(g69
g50
NtRp1825
(dp1826
g53
(dp1827
sg62
g1812
sg55
(lp1828
g48
(g49
g50
NtRp1829
(dp1830
g53
(dp1831
g61
I4
ssg62
g1825
sg55
(lp1832
S'HTTP/1.1'
p1833
asbasbasbag48
(g64
g50
NtRp1834
(dp1835
g53
(dp1836
sg62
g1260
sg55
(lp1837
g48
(g69
g50
NtRp1838
(dp1839
g53
(dp1840
g73
g74
ssg62
g1834
sg55
(lp1841
S'server_software'
p1842
asbag48
(g69
g50
NtRp1843
(dp1844
g53
(dp1845
g80
g81
ssg62
g1834
sg55
(lp1846
S':'
asbag48
(g69
g50
NtRp1847
(dp1848
g53
(dp1849
sg62
g1834
sg55
(lp1850
g48
(g49
g50
NtRp1851
(dp1852
g53
(dp1853
g61
I4
ssg62
g1847
sg55
(lp1854
S'Rocket 1.2.4'
p1855
asbasbasbag48
(g64
g50
NtRp1856
(dp1857
g53
(dp1858
sg62
g1260
sg55
(lp1859
g48
(g69
g50
NtRp1860
(dp1861
g53
(dp1862
g73
g74
ssg62
g1856
sg55
(lp1863
S'web2py_crontype'
p1864
asbag48
(g69
g50
NtRp1865
(dp1866
g53
(dp1867
g80
g81
ssg62
g1856
sg55
(lp1868
S':'
asbag48
(g69
g50
NtRp1869
(dp1870
g53
(dp1871
sg62
g1856
sg55
(lp1872
g48
(g49
g50
NtRp1873
(dp1874
g53
(dp1875
g61
I4
ssg62
g1869
sg55
(lp1876
S'hard'
p1877
asbasbasbag48
(g64
g50
NtRp1878
(dp1879
g53
(dp1880
sg62
g1260
sg55
(lp1881
g48
(g69
g50
NtRp1882
(dp1883
g53
(dp1884
g73
g74
ssg62
g1878
sg55
(lp1885
S'web2py_path'
p1886
asbag48
(g69
g50
NtRp1887
(dp1888
g53
(dp1889
g80
g81
ssg62
g1878
sg55
(lp1890
S':'
asbag48
(g69
g50
NtRp1891
(dp1892
g53
(dp1893
sg62
g1878
sg55
(lp1894
g48
(g49
g50
NtRp1895
(dp1896
g53
(dp1897
g61
I4
ssg62
g1891
sg55
(lp1898
g1307
asbasbasbag48
(g64
g50
NtRp1899
(dp1900
g53
(dp1901
sg62
g1260
sg55
(lp1902
g48
(g69
g50
NtRp1903
(dp1904
g53
(dp1905
g73
g74
ssg62
g1899
sg55
(lp1906
S'web2py_version'
p1907
asbag48
(g69
g50
NtRp1908
(dp1909
g53
(dp1910
g80
g81
ssg62
g1899
sg55
(lp1911
S':'
asbag48
(g69
g50
NtRp1912
(dp1913
g53
(dp1914
sg62
g1899
sg55
(lp1915
g48
(g49
g50
NtRp1916
(dp1917
g53
(dp1918
g61
I4
ssg62
g1912
sg55
(lp1919
g48
(g57
g50
NtRp1920
(dp1921
g53
(dp1922
g61
I3
ssg62
Nsg55
(lp1923
g48
(g64
g50
NtRp1924
(dp1925
g53
(dp1926
sg62
g1920
sg55
(lp1927
g48
(g69
g50
NtRp1928
(dp1929
g53
(dp1930
sg62
g1924
sg55
(lp1931
g48
(g49
g50
NtRp1932
(dp1933
g53
(dp1934
g61
I3
ssg62
g1928
sg55
(lp1935
S'1'
asbasbasbag48
(g64
g50
NtRp1936
(dp1937
g53
(dp1938
sg62
g1920
sg55
(lp1939
g48
(g69
g50
NtRp1940
(dp1941
g53
(dp1942
sg62
g1936
sg55
(lp1943
g48
(g49
g50
NtRp1944
(dp1945
g53
(dp1946
g61
I3
ssg62
g1940
sg55
(lp1947
S'99'
p1948
asbasbasbag48
(g64
g50
NtRp1949
(dp1950
g53
(dp1951
sg62
g1920
sg55
(lp1952
g48
(g69
g50
NtRp1953
(dp1954
g53
(dp1955
sg62
g1949
sg55
(lp1956
g48
(g49
g50
NtRp1957
(dp1958
g53
(dp1959
g61
I3
ssg62
g1953
sg55
(lp1960
S'2'
asbasbasbag48
(g64
g50
NtRp1961
(dp1962
g53
(dp1963
sg62
g1920
sg55
(lp1964
g48
(g69
g50
NtRp1965
(dp1966
g53
(dp1967
sg62
g1961
sg55
(lp1968
g48
(g49
g50
NtRp1969
(dp1970
g53
(dp1971
g61
I3
ssg62
g1965
sg55
(lp1972
S'datetime.datetime(2011, 9, 26, 6, 55, 33)'
p1973
asbasbasbag48
(g64
g50
NtRp1974
(dp1975
g53
(dp1976
sg62
g1920
sg55
(lp1977
g48
(g69
g50
NtRp1978
(dp1979
g53
(dp1980
sg62
g1974
sg55
(lp1981
g48
(g49
g50
NtRp1982
(dp1983
g53
(dp1984
g61
I3
ssg62
g1978
sg55
(lp1985
S'stable'
p1986
asbasbasbasbasbasbasbag48
(g64
g50
NtRp1987
(dp1988
g53
(dp1989
sg62
g1260
sg55
(lp1990
g48
(g69
g50
NtRp1991
(dp1992
g53
(dp1993
g73
g74
ssg62
g1987
sg55
(lp1994
S'wsgi_errors'
p1995
asbag48
(g69
g50
NtRp1996
(dp1997
g53
(dp1998
g80
g81
ssg62
g1987
sg55
(lp1999
S':'
asbag48
(g69
g50
NtRp2000
(dp2001
g53
(dp2002
sg62
g1987
sg55
(lp2003
g48
(g49
g50
NtRp2004
(dp2005
g53
(dp2006
g61
I4
ssg62
g2000
sg55
(lp2007
S"<open file '<stderr>', mode 'w' at 0x01EC00B0>"
p2008
asbasbasbag48
(g64
g50
NtRp2009
(dp2010
g53
(dp2011
sg62
g1260
sg55
(lp2012
g48
(g69
g50
NtRp2013
(dp2014
g53
(dp2015
g73
g74
ssg62
g2009
sg55
(lp2016
S'wsgi_file_wrapper'
p2017
asbag48
(g69
g50
NtRp2018
(dp2019
g53
(dp2020
g80
g81
ssg62
g2009
sg55
(lp2021
S':'
asbag48
(g69
g50
NtRp2022
(dp2023
g53
(dp2024
sg62
g2009
sg55
(lp2025
g48
(g49
g50
NtRp2026
(dp2027
g53
(dp2028
g61
I4
ssg62
g2022
sg55
(lp2029
S'<class wsgiref.util.FileWrapper at 0x02A93FC0>'
p2030
asbasbasbag48
(g64
g50
NtRp2031
(dp2032
g53
(dp2033
sg62
g1260
sg55
(lp2034
g48
(g69
g50
NtRp2035
(dp2036
g53
(dp2037
g73
g74
ssg62
g2031
sg55
(lp2038
S'wsgi_input'
p2039
asbag48
(g69
g50
NtRp2040
(dp2041
g53
(dp2042
g80
g81
ssg62
g2031
sg55
(lp2043
S':'
asbag48
(g69
g50
NtRp2044
(dp2045
g53
(dp2046
sg62
g2031
sg55
(lp2047
g48
(g49
g50
NtRp2048
(dp2049
g53
(dp2050
g61
I4
ssg62
g2044
sg55
(lp2051
S'<socket._fileobject object at 0x03A6E730>'
p2052
asbasbasbag48
(g64
g50
NtRp2053
(dp2054
g53
(dp2055
sg62
g1260
sg55
(lp2056
g48
(g69
g50
NtRp2057
(dp2058
g53
(dp2059
g73
g74
ssg62
g2053
sg55
(lp2060
S'wsgi_multiprocess'
p2061
asbag48
(g69
g50
NtRp2062
(dp2063
g53
(dp2064
g80
g81
ssg62
g2053
sg55
(lp2065
S':'
asbag48
(g69
g50
NtRp2066
(dp2067
g53
(dp2068
sg62
g2053
sg55
(lp2069
g48
(g49
g50
NtRp2070
(dp2071
g53
(dp2072
g61
I4
ssg62
g2066
sg55
(lp2073
g91
asbasbasbag48
(g64
g50
NtRp2074
(dp2075
g53
(dp2076
sg62
g1260
sg55
(lp2077
g48
(g69
g50
NtRp2078
(dp2079
g53
(dp2080
g73
g74
ssg62
g2074
sg55
(lp2081
S'wsgi_multithread'
p2082
asbag48
(g69
g50
NtRp2083
(dp2084
g53
(dp2085
g80
g81
ssg62
g2074
sg55
(lp2086
S':'
asbag48
(g69
g50
NtRp2087
(dp2088
g53
(dp2089
sg62
g2074
sg55
(lp2090
g48
(g49
g50
NtRp2091
(dp2092
g53
(dp2093
g61
I4
ssg62
g2087
sg55
(lp2094
S'True'
p2095
asbasbasbag48
(g64
g50
NtRp2096
(dp2097
g53
(dp2098
sg62
g1260
sg55
(lp2099
g48
(g69
g50
NtRp2100
(dp2101
g53
(dp2102
g73
g74
ssg62
g2096
sg55
(lp2103
S'wsgi_run_once'
p2104
asbag48
(g69
g50
NtRp2105
(dp2106
g53
(dp2107
g80
g81
ssg62
g2096
sg55
(lp2108
S':'
asbag48
(g69
g50
NtRp2109
(dp2110
g53
(dp2111
sg62
g2096
sg55
(lp2112
g48
(g49
g50
NtRp2113
(dp2114
g53
(dp2115
g61
I4
ssg62
g2109
sg55
(lp2116
g91
asbasbasbag48
(g64
g50
NtRp2117
(dp2118
g53
(dp2119
sg62
g1260
sg55
(lp2120
g48
(g69
g50
NtRp2121
(dp2122
g53
(dp2123
g73
g74
ssg62
g2117
sg55
(lp2124
S'wsgi_url_scheme'
p2125
asbag48
(g69
g50
NtRp2126
(dp2127
g53
(dp2128
g80
g81
ssg62
g2117
sg55
(lp2129
S':'
asbag48
(g69
g50
NtRp2130
(dp2131
g53
(dp2132
sg62
g2117
sg55
(lp2133
g48
(g49
g50
NtRp2134
(dp2135
g53
(dp2136
g61
I4
ssg62
g2130
sg55
(lp2137
S'http'
p2138
asbasbasbag48
(g64
g50
NtRp2139
(dp2140
g53
(dp2141
sg62
g1260
sg55
(lp2142
g48
(g69
g50
NtRp2143
(dp2144
g53
(dp2145
g73
g74
ssg62
g2139
sg55
(lp2146
S'wsgi_version'
p2147
asbag48
(g69
g50
NtRp2148
(dp2149
g53
(dp2150
g80
g81
ssg62
g2139
sg55
(lp2151
S':'
asbag48
(g69
g50
NtRp2152
(dp2153
g53
(dp2154
sg62
g2139
sg55
(lp2155
g48
(g49
g50
NtRp2156
(dp2157
g53
(dp2158
g61
I4
ssg62
g2152
sg55
(lp2159
g48
(g57
g50
NtRp2160
(dp2161
g53
(dp2162
g61
I3
ssg62
Nsg55
(lp2163
g48
(g64
g50
NtRp2164
(dp2165
g53
(dp2166
sg62
g2160
sg55
(lp2167
g48
(g69
g50
NtRp2168
(dp2169
g53
(dp2170
sg62
g2164
sg55
(lp2171
g48
(g49
g50
NtRp2172
(dp2173
g53
(dp2174
g61
I3
ssg62
g2168
sg55
(lp2175
S'1'
asbasbasbag48
(g64
g50
NtRp2176
(dp2177
g53
(dp2178
sg62
g2160
sg55
(lp2179
g48
(g69
g50
NtRp2180
(dp2181
g53
(dp2182
sg62
g2176
sg55
(lp2183
g48
(g49
g50
NtRp2184
(dp2185
g53
(dp2186
g61
I3
ssg62
g2180
sg55
(lp2187
S'0'
asbasbasbasbasbasbasbasbasbasbasbag48
(g64
g50
NtRp2188
(dp2189
g53
(dp2190
sg62
g58
sg55
(lp2191
g48
(g69
g50
NtRp2192
(dp2193
g53
(dp2194
g73
g74
ssg62
g2188
sg55
(lp2195
S'extension'
p2196
asbag48
(g69
g50
NtRp2197
(dp2198
g53
(dp2199
g80
g81
ssg62
g2188
sg55
(lp2200
S':'
asbag48
(g69
g50
NtRp2201
(dp2202
g53
(dp2203
sg62
g2188
sg55
(lp2204
g48
(g49
g50
NtRp2205
(dp2206
g53
(dp2207
g61
I5
ssg62
g2201
sg55
(lp2208
S'html'
p2209
asbasbasbag48
(g64
g50
NtRp2210
(dp2211
g53
(dp2212
sg62
g58
sg55
(lp2213
g48
(g69
g50
NtRp2214
(dp2215
g53
(dp2216
g73
g74
ssg62
g2210
sg55
(lp2217
S'folder'
p2218
asbag48
(g69
g50
NtRp2219
(dp2220
g53
(dp2221
g80
g81
ssg62
g2210
sg55
(lp2222
S':'
asbag48
(g69
g50
NtRp2223
(dp2224
g53
(dp2225
sg62
g2210
sg55
(lp2226
g48
(g49
g50
NtRp2227
(dp2228
g53
(dp2229
g61
I5
ssg62
g2223
sg55
(lp2230
S'P:\\Workbench\\DevEnv\\web2py\\applications\\init\\'
p2231
asbasbasbag48
(g64
g50
NtRp2232
(dp2233
g53
(dp2234
sg62
g58
sg55
(lp2235
g48
(g69
g50
NtRp2236
(dp2237
g53
(dp2238
g73
g74
ssg62
g2232
sg55
(lp2239
S'function'
p2240
asbag48
(g69
g50
NtRp2241
(dp2242
g53
(dp2243
g80
g81
ssg62
g2232
sg55
(lp2244
S':'
asbag48
(g69
g50
NtRp2245
(dp2246
g53
(dp2247
sg62
g2232
sg55
(lp2248
g48
(g49
g50
NtRp2249
(dp2250
g53
(dp2251
g61
I5
ssg62
g2245
sg55
(lp2252
S'user'
p2253
asbasbasbag48
(g64
g50
NtRp2254
(dp2255
g53
(dp2256
sg62
g58
sg55
(lp2257
g48
(g69
g50
NtRp2258
(dp2259
g53
(dp2260
g73
g74
ssg62
g2254
sg55
(lp2261
S'get_vars'
p2262
asbag48
(g69
g50
NtRp2263
(dp2264
g53
(dp2265
g80
g81
ssg62
g2254
sg55
(lp2266
S':'
asbag48
(g69
g50
NtRp2267
(dp2268
g53
(dp2269
sg62
g2254
sg55
(lp2270
g48
(g49
g50
NtRp2271
(dp2272
g53
(dp2273
g61
I5
ssg62
g2267
sg55
(lp2274
g48
(g57
g50
NtRp2275
(dp2276
g53
(dp2277
g61
I4
ssg62
Nsg55
(lp2278
sbasbasbasbag48
(g64
g50
NtRp2279
(dp2280
g53
(dp2281
sg62
g58
sg55
(lp2282
g48
(g69
g50
NtRp2283
(dp2284
g53
(dp2285
g73
g74
ssg62
g2279
sg55
(lp2286
S'global_settings'
p2287
asbag48
(g69
g50
NtRp2288
(dp2289
g53
(dp2290
g80
g81
ssg62
g2279
sg55
(lp2291
S':'
asbag48
(g69
g50
NtRp2292
(dp2293
g53
(dp2294
sg62
g2279
sg55
(lp2295
g48
(g49
g50
NtRp2296
(dp2297
g53
(dp2298
g61
I5
ssg62
g2292
sg55
(lp2299
g48
(g57
g50
NtRp2300
(dp2301
g53
(dp2302
g61
I4
ssg62
Nsg55
(lp2303
g48
(g64
g50
NtRp2304
(dp2305
g53
(dp2306
sg62
g2300
sg55
(lp2307
g48
(g69
g50
NtRp2308
(dp2309
g53
(dp2310
g73
g74
ssg62
g2304
sg55
(lp2311
g1272
asbag48
(g69
g50
NtRp2312
(dp2313
g53
(dp2314
g80
g81
ssg62
g2304
sg55
(lp2315
S':'
asbag48
(g69
g50
NtRp2316
(dp2317
g53
(dp2318
sg62
g2304
sg55
(lp2319
g48
(g49
g50
NtRp2320
(dp2321
g53
(dp2322
g61
I4
ssg62
g2316
sg55
(lp2323
S"set(['P:\\\\Workbench\\\\DevEnv\\\\web2py\\\\applications\\\\init\\\\', 'P:\\\\Workbench\\\\DevEnv\\\\web2py\\\\applications\\\\welcome\\\\', 'P:\\\\Workbench\\\\DevEnv\\\\web2py\\\\applications\\\\admin\\\\', 'P:\\\\Workbench\\\\DevEnv\\\\web2py\\\\applications\\\\RecipeApp\\\\', 'P:\\\\Workbench\\\\DevEnv\\\\web2py\\\\applications\\\\examples\\\\'])"
p2324
asbasbasbag48
(g64
g50
NtRp2325
(dp2326
g53
(dp2327
sg62
g2300
sg55
(lp2328
g48
(g69
g50
NtRp2329
(dp2330
g53
(dp2331
g73
g74
ssg62
g2325
sg55
(lp2332
g1294
asbag48
(g69
g50
NtRp2333
(dp2334
g53
(dp2335
g80
g81
ssg62
g2325
sg55
(lp2336
S':'
asbag48
(g69
g50
NtRp2337
(dp2338
g53
(dp2339
sg62
g2325
sg55
(lp2340
g48
(g49
g50
NtRp2341
(dp2342
g53
(dp2343
g61
I4
ssg62
g2337
sg55
(lp2344
g1307
asbasbasbag48
(g64
g50
NtRp2345
(dp2346
g53
(dp2347
sg62
g2300
sg55
(lp2348
g48
(g69
g50
NtRp2349
(dp2350
g53
(dp2351
g73
g74
ssg62
g2345
sg55
(lp2352
g1316
asbag48
(g69
g50
NtRp2353
(dp2354
g53
(dp2355
g80
g81
ssg62
g2345
sg55
(lp2356
S':'
asbag48
(g69
g50
NtRp2357
(dp2358
g53
(dp2359
sg62
g2345
sg55
(lp2360
g48
(g49
g50
NtRp2361
(dp2362
g53
(dp2363
g61
I4
ssg62
g2357
sg55
(lp2364
g48
(g57
g50
NtRp2365
(dp2366
g53
(dp2367
g61
I3
ssg62
Nsg55
(lp2368
sbasbasbasbag48
(g64
g50
NtRp2369
(dp2370
g53
(dp2371
sg62
g2300
sg55
(lp2372
g48
(g69
g50
NtRp2373
(dp2374
g53
(dp2375
g73
g74
ssg62
g2369
sg55
(lp2376
g1341
asbag48
(g69
g50
NtRp2377
(dp2378
g53
(dp2379
g80
g81
ssg62
g2369
sg55
(lp2380
S':'
asbag48
(g69
g50
NtRp2381
(dp2382
g53
(dp2383
sg62
g2369
sg55
(lp2384
g48
(g49
g50
NtRp2385
(dp2386
g53
(dp2387
g61
I4
ssg62
g2381
sg55
(lp2388
S"<Values at 0x38e07b0: {'verbose': False, 'ip': '127.0.0.1', 'shutdown_timeout': 5, 'taskbar': False, 'nocron': False, 'pid_filename': 'httpserver.pid', 'maxthreads': None, 'softcron': False, 'server_name': 'Bishop-PC', 'bpython': False, 'nogui': False, 'port': 8000, 'extcron': False, 'debuglevel': 30, 'test': None, 'folder': 'P:\\\\Workbench\\\\DevEnv\\\\web2py', 'config': '', 'import_models': False, 'winservice': '', 'shell': None, 'run': '', 'log_filename': 'httpserver.log', 'args': [''], 'ssl_ca_certificate': None, 'scheduler': None, 'profiler_filename': None, 'ssl_private_key': '', 'password': '<ask>', 'request_queue_size': 5, 'ssl_certificate': '', 'cronjob': False, 'plain': False, 'quiet': False, 'interfaces': None, 'minthreads': None, 'timeout': 10, 'numthreads': None, 'nobanner': False}>"
p2389
asbasbasbag48
(g64
g50
NtRp2390
(dp2391
g53
(dp2392
sg62
g2300
sg55
(lp2393
g48
(g69
g50
NtRp2394
(dp2395
g53
(dp2396
g73
g74
ssg62
g2390
sg55
(lp2397
g1363
asbag48
(g69
g50
NtRp2398
(dp2399
g53
(dp2400
g80
g81
ssg62
g2390
sg55
(lp2401
S':'
asbag48
(g69
g50
NtRp2402
(dp2403
g53
(dp2404
sg62
g2390
sg55
(lp2405
g48
(g49
g50
NtRp2406
(dp2407
g53
(dp2408
g61
I4
ssg62
g2402
sg55
(lp2409
S'set([])'
p2410
asbasbasbag48
(g64
g50
NtRp2411
(dp2412
g53
(dp2413
sg62
g2300
sg55
(lp2414
g48
(g69
g50
NtRp2415
(dp2416
g53
(dp2417
g73
g74
ssg62
g2411
sg55
(lp2418
g1385
asbag48
(g69
g50
NtRp2419
(dp2420
g53
(dp2421
g80
g81
ssg62
g2411
sg55
(lp2422
S':'
asbag48
(g69
g50
NtRp2423
(dp2424
g53
(dp2425
sg62
g2411
sg55
(lp2426
g48
(g49
g50
NtRp2427
(dp2428
g53
(dp2429
g61
I4
ssg62
g2423
sg55
(lp2430
g91
asbasbasbag48
(g64
g50
NtRp2431
(dp2432
g53
(dp2433
sg62
g2300
sg55
(lp2434
g48
(g69
g50
NtRp2435
(dp2436
g53
(dp2437
g73
g74
ssg62
g2431
sg55
(lp2438
g1406
asbag48
(g69
g50
NtRp2439
(dp2440
g53
(dp2441
g80
g81
ssg62
g2431
sg55
(lp2442
S':'
asbag48
(g69
g50
NtRp2443
(dp2444
g53
(dp2445
sg62
g2431
sg55
(lp2446
g48
(g49
g50
NtRp2447
(dp2448
g53
(dp2449
g61
I4
ssg62
g2443
sg55
(lp2450
g1419
asbasbasbag48
(g64
g50
NtRp2451
(dp2452
g53
(dp2453
sg62
g2300
sg55
(lp2454
g48
(g69
g50
NtRp2455
(dp2456
g53
(dp2457
g73
g74
ssg62
g2451
sg55
(lp2458
g1626
asbag48
(g69
g50
NtRp2459
(dp2460
g53
(dp2461
g80
g81
ssg62
g2451
sg55
(lp2462
S':'
asbag48
(g69
g50
NtRp2463
(dp2464
g53
(dp2465
sg62
g2451
sg55
(lp2466
g48
(g49
g50
NtRp2467
(dp2468
g53
(dp2469
g61
I4
ssg62
g2463
sg55
(lp2470
g91
asbasbasbag48
(g64
g50
NtRp2471
(dp2472
g53
(dp2473
sg62
g2300
sg55
(lp2474
g48
(g69
g50
NtRp2475
(dp2476
g53
(dp2477
g73
g74
ssg62
g2471
sg55
(lp2478
g1864
asbag48
(g69
g50
NtRp2479
(dp2480
g53
(dp2481
g80
g81
ssg62
g2471
sg55
(lp2482
S':'
asbag48
(g69
g50
NtRp2483
(dp2484
g53
(dp2485
sg62
g2471
sg55
(lp2486
g48
(g49
g50
NtRp2487
(dp2488
g53
(dp2489
g61
I4
ssg62
g2483
sg55
(lp2490
g1877
asbasbasbag48
(g64
g50
NtRp2491
(dp2492
g53
(dp2493
sg62
g2300
sg55
(lp2494
g48
(g69
g50
NtRp2495
(dp2496
g53
(dp2497
g73
g74
ssg62
g2491
sg55
(lp2498
g1907
asbag48
(g69
g50
NtRp2499
(dp2500
g53
(dp2501
g80
g81
ssg62
g2491
sg55
(lp2502
S':'
asbag48
(g69
g50
NtRp2503
(dp2504
g53
(dp2505
sg62
g2491
sg55
(lp2506
g48
(g49
g50
NtRp2507
(dp2508
g53
(dp2509
g61
I4
ssg62
g2503
sg55
(lp2510
g48
(g57
g50
NtRp2511
(dp2512
g53
(dp2513
g61
I3
ssg62
Nsg55
(lp2514
g48
(g64
g50
NtRp2515
(dp2516
g53
(dp2517
sg62
g2511
sg55
(lp2518
g48
(g69
g50
NtRp2519
(dp2520
g53
(dp2521
sg62
g2515
sg55
(lp2522
g48
(g49
g50
NtRp2523
(dp2524
g53
(dp2525
g61
I3
ssg62
g2519
sg55
(lp2526
S'1'
asbasbasbag48
(g64
g50
NtRp2527
(dp2528
g53
(dp2529
sg62
g2511
sg55
(lp2530
g48
(g69
g50
NtRp2531
(dp2532
g53
(dp2533
sg62
g2527
sg55
(lp2534
g48
(g49
g50
NtRp2535
(dp2536
g53
(dp2537
g61
I3
ssg62
g2531
sg55
(lp2538
S'99'
p2539
asbasbasbag48
(g64
g50
NtRp2540
(dp2541
g53
(dp2542
sg62
g2511
sg55
(lp2543
g48
(g69
g50
NtRp2544
(dp2545
g53
(dp2546
sg62
g2540
sg55
(lp2547
g48
(g49
g50
NtRp2548
(dp2549
g53
(dp2550
g61
I3
ssg62
g2544
sg55
(lp2551
S'2'
asbasbasbag48
(g64
g50
NtRp2552
(dp2553
g53
(dp2554
sg62
g2511
sg55
(lp2555
g48
(g69
g50
NtRp2556
(dp2557
g53
(dp2558
sg62
g2552
sg55
(lp2559
g48
(g49
g50
NtRp2560
(dp2561
g53
(dp2562
g61
I3
ssg62
g2556
sg55
(lp2563
S'datetime.datetime(2011, 9, 26, 6, 55, 33)'
p2564
asbasbasbag48
(g64
g50
NtRp2565
(dp2566
g53
(dp2567
sg62
g2511
sg55
(lp2568
g48
(g69
g50
NtRp2569
(dp2570
g53
(dp2571
sg62
g2565
sg55
(lp2572
g48
(g49
g50
NtRp2573
(dp2574
g53
(dp2575
g61
I3
ssg62
g2569
sg55
(lp2576
g1986
asbasbasbasbasbasbasbasbasbasbasbag48
(g64
g50
NtRp2577
(dp2578
g53
(dp2579
sg62
g58
sg55
(lp2580
g48
(g69
g50
NtRp2581
(dp2582
g53
(dp2583
g73
g74
ssg62
g2577
sg55
(lp2584
S'is_https'
p2585
asbag48
(g69
g50
NtRp2586
(dp2587
g53
(dp2588
g80
g81
ssg62
g2577
sg55
(lp2589
S':'
asbag48
(g69
g50
NtRp2590
(dp2591
g53
(dp2592
sg62
g2577
sg55
(lp2593
g48
(g49
g50
NtRp2594
(dp2595
g53
(dp2596
g61
I5
ssg62
g2590
sg55
(lp2597
g91
asbasbasbag48
(g64
g50
NtRp2598
(dp2599
g53
(dp2600
sg62
g58
sg55
(lp2601
g48
(g69
g50
NtRp2602
(dp2603
g53
(dp2604
g73
g74
ssg62
g2598
sg55
(lp2605
S'is_local'
p2606
asbag48
(g69
g50
NtRp2607
(dp2608
g53
(dp2609
g80
g81
ssg62
g2598
sg55
(lp2610
S':'
asbag48
(g69
g50
NtRp2611
(dp2612
g53
(dp2613
sg62
g2598
sg55
(lp2614
g48
(g49
g50
NtRp2615
(dp2616
g53
(dp2617
g61
I5
ssg62
g2611
sg55
(lp2618
g2095
asbasbasbag48
(g64
g50
NtRp2619
(dp2620
g53
(dp2621
sg62
g58
sg55
(lp2622
g48
(g69
g50
NtRp2623
(dp2624
g53
(dp2625
g73
g74
ssg62
g2619
sg55
(lp2626
S'is_restful'
p2627
asbag48
(g69
g50
NtRp2628
(dp2629
g53
(dp2630
g80
g81
ssg62
g2619
sg55
(lp2631
S':'
asbag48
(g69
g50
NtRp2632
(dp2633
g53
(dp2634
sg62
g2619
sg55
(lp2635
g48
(g49
g50
NtRp2636
(dp2637
g53
(dp2638
g61
I5
ssg62
g2632
sg55
(lp2639
g91
asbasbasbag48
(g64
g50
NtRp2640
(dp2641
g53
(dp2642
sg62
g58
sg55
(lp2643
g48
(g69
g50
NtRp2644
(dp2645
g53
(dp2646
g73
g74
ssg62
g2640
sg55
(lp2647
S'now'
p2648
asbag48
(g69
g50
NtRp2649
(dp2650
g53
(dp2651
g80
g81
ssg62
g2640
sg55
(lp2652
S':'
asbag48
(g69
g50
NtRp2653
(dp2654
g53
(dp2655
sg62
g2640
sg55
(lp2656
g48
(g49
g50
NtRp2657
(dp2658
g53
(dp2659
g61
I5
ssg62
g2653
sg55
(lp2660
S'datetime.datetime(2011, 10, 30, 20, 26, 8, 560000)'
p2661
asbasbasbag48
(g64
g50
NtRp2662
(dp2663
g53
(dp2664
sg62
g58
sg55
(lp2665
g48
(g69
g50
NtRp2666
(dp2667
g53
(dp2668
g73
g74
ssg62
g2662
sg55
(lp2669
S'post_vars'
p2670
asbag48
(g69
g50
NtRp2671
(dp2672
g53
(dp2673
g80
g81
ssg62
g2662
sg55
(lp2674
S':'
asbag48
(g69
g50
NtRp2675
(dp2676
g53
(dp2677
sg62
g2662
sg55
(lp2678
g48
(g49
g50
NtRp2679
(dp2680
g53
(dp2681
g61
I5
ssg62
g2675
sg55
(lp2682
g48
(g57
g50
NtRp2683
(dp2684
g53
(dp2685
g61
I4
ssg62
Nsg55
(lp2686
sbasbasbasbag48
(g64
g50
NtRp2687
(dp2688
g53
(dp2689
sg62
g58
sg55
(lp2690
g48
(g69
g50
NtRp2691
(dp2692
g53
(dp2693
g73
g74
ssg62
g2687
sg55
(lp2694
S'raw_args'
p2695
asbag48
(g69
g50
NtRp2696
(dp2697
g53
(dp2698
g80
g81
ssg62
g2687
sg55
(lp2699
S':'
asbag48
(g69
g50
NtRp2700
(dp2701
g53
(dp2702
sg62
g2687
sg55
(lp2703
g48
(g49
g50
NtRp2704
(dp2705
g53
(dp2706
g61
I5
ssg62
g2700
sg55
(lp2707
S'register'
p2708
asbasbasbag48
(g64
g50
NtRp2709
(dp2710
g53
(dp2711
sg62
g58
sg55
(lp2712
g48
(g69
g50
NtRp2713
(dp2714
g53
(dp2715
g73
g74
ssg62
g2709
sg55
(lp2716
S'url'
p2717
asbag48
(g69
g50
NtRp2718
(dp2719
g53
(dp2720
g80
g81
ssg62
g2709
sg55
(lp2721
S':'
asbag48
(g69
g50
NtRp2722
(dp2723
g53
(dp2724
sg62
g2709
sg55
(lp2725
g48
(g49
g50
NtRp2726
(dp2727
g53
(dp2728
g61
I5
ssg62
g2722
sg55
(lp2729
S'/init/default/user/register'
p2730
asbasbasbag48
(g64
g50
NtRp2731
(dp2732
g53
(dp2733
sg62
g58
sg55
(lp2734
g48
(g69
g50
NtRp2735
(dp2736
g53
(dp2737
g73
g74
ssg62
g2731
sg55
(lp2738
S'utcnow'
p2739
asbag48
(g69
g50
NtRp2740
(dp2741
g53
(dp2742
g80
g81
ssg62
g2731
sg55
(lp2743
S':'
asbag48
(g69
g50
NtRp2744
(dp2745
g53
(dp2746
sg62
g2731
sg55
(lp2747
g48
(g49
g50
NtRp2748
(dp2749
g53
(dp2750
g61
I5
ssg62
g2744
sg55
(lp2751
S'datetime.datetime(2011, 10, 31, 0, 26, 8, 560000)'
p2752
asbasbasbag48
(g64
g50
NtRp2753
(dp2754
g53
(dp2755
sg62
g58
sg55
(lp2756
g48
(g69
g50
NtRp2757
(dp2758
g53
(dp2759
g73
g74
ssg62
g2753
sg55
(lp2760
S'uuid'
p2761
asbag48
(g69
g50
NtRp2762
(dp2763
g53
(dp2764
g80
g81
ssg62
g2753
sg55
(lp2765
S':'
asbag48
(g69
g50
NtRp2766
(dp2767
g53
(dp2768
sg62
g2753
sg55
(lp2769
g48
(g49
g50
NtRp2770
(dp2771
g53
(dp2772
g61
I5
ssg62
g2766
sg55
(lp2773
S'init/127.0.0.1.2011-10-30.20-26-08.b5d8b8a4-3edf-45eb-8a44-593ade0aaf1f'
p2774
asbasbasbag48
(g64
g50
NtRp2775
(dp2776
g53
(dp2777
sg62
g58
sg55
(lp2778
g48
(g69
g50
NtRp2779
(dp2780
g53
(dp2781
g73
g74
ssg62
g2775
sg55
(lp2782
S'vars'
p2783
asbag48
(g69
g50
NtRp2784
(dp2785
g53
(dp2786
g80
g81
ssg62
g2775
sg55
(lp2787
S':'
asbag48
(g69
g50
NtRp2788
(dp2789
g53
(dp2790
sg62
g2775
sg55
(lp2791
g48
(g49
g50
NtRp2792
(dp2793
g53
(dp2794
g61
I5
ssg62
g2788
sg55
(lp2795
g48
(g57
g50
NtRp2796
(dp2797
g53
(dp2798
g61
I4
ssg62
Nsg55
(lp2799
sbasbasbasbag48
(g64
g50
NtRp2800
(dp2801
g53
(dp2802
sg62
g58
sg55
(lp2803
g48
(g69
g50
NtRp2804
(dp2805
g53
(dp2806
g73
g74
ssg62
g2800
sg55
(lp2807
S'wsgi'
p2808
asbag48
(g69
g50
NtRp2809
(dp2810
g53
(dp2811
g80
g81
ssg62
g2800
sg55
(lp2812
S':'
asbag48
(g69
g50
NtRp2813
(dp2814
g53
(dp2815
sg62
g2800
sg55
(lp2816
g48
(g49
g50
NtRp2817
(dp2818
g53
(dp2819
g61
I5
ssg62
g2813
sg55
(lp2820
g48
(g57
g50
NtRp2821
(dp2822
g53
(dp2823
g61
I4
ssg62
Nsg55
(lp2824
g48
(g64
g50
NtRp2825
(dp2826
g53
(dp2827
sg62
g2821
sg55
(lp2828
g48
(g69
g50
NtRp2829
(dp2830
g53
(dp2831
g73
g74
ssg62
g2825
sg55
(lp2832
S'environ'
p2833
asbag48
(g69
g50
NtRp2834
(dp2835
g53
(dp2836
g80
g81
ssg62
g2825
sg55
(lp2837
S':'
asbag48
(g69
g50
NtRp2838
(dp2839
g53
(dp2840
sg62
g2825
sg55
(lp2841
g48
(g49
g50
NtRp2842
(dp2843
g53
(dp2844
g61
I4
ssg62
g2838
sg55
(lp2845
g48
(g57
g50
NtRp2846
(dp2847
g53
(dp2848
g61
I3
ssg62
Nsg55
(lp2849
g48
(g64
g50
NtRp2850
(dp2851
g53
(dp2852
sg62
g2846
sg55
(lp2853
g48
(g69
g50
NtRp2854
(dp2855
g53
(dp2856
g73
g74
ssg62
g2850
sg55
(lp2857
S'HTTP_ACCEPT'
p2858
asbag48
(g69
g50
NtRp2859
(dp2860
g53
(dp2861
g80
g81
ssg62
g2850
sg55
(lp2862
S':'
asbag48
(g69
g50
NtRp2863
(dp2864
g53
(dp2865
sg62
g2850
sg55
(lp2866
g48
(g49
g50
NtRp2867
(dp2868
g53
(dp2869
g61
I3
ssg62
g2863
sg55
(lp2870
g1441
asbasbasbag48
(g64
g50
NtRp2871
(dp2872
g53
(dp2873
sg62
g2846
sg55
(lp2874
g48
(g69
g50
NtRp2875
(dp2876
g53
(dp2877
g73
g74
ssg62
g2871
sg55
(lp2878
S'HTTP_ACCEPT_CHARSET'
p2879
asbag48
(g69
g50
NtRp2880
(dp2881
g53
(dp2882
g80
g81
ssg62
g2871
sg55
(lp2883
S':'
asbag48
(g69
g50
NtRp2884
(dp2885
g53
(dp2886
sg62
g2871
sg55
(lp2887
g48
(g49
g50
NtRp2888
(dp2889
g53
(dp2890
g61
I3
ssg62
g2884
sg55
(lp2891
g1463
asbasbasbag48
(g64
g50
NtRp2892
(dp2893
g53
(dp2894
sg62
g2846
sg55
(lp2895
g48
(g69
g50
NtRp2896
(dp2897
g53
(dp2898
g73
g74
ssg62
g2892
sg55
(lp2899
S'HTTP_ACCEPT_ENCODING'
p2900
asbag48
(g69
g50
NtRp2901
(dp2902
g53
(dp2903
g80
g81
ssg62
g2892
sg55
(lp2904
S':'
asbag48
(g69
g50
NtRp2905
(dp2906
g53
(dp2907
sg62
g2892
sg55
(lp2908
g48
(g49
g50
NtRp2909
(dp2910
g53
(dp2911
g61
I3
ssg62
g2905
sg55
(lp2912
g1485
asbasbasbag48
(g64
g50
NtRp2913
(dp2914
g53
(dp2915
sg62
g2846
sg55
(lp2916
g48
(g69
g50
NtRp2917
(dp2918
g53
(dp2919
g73
g74
ssg62
g2913
sg55
(lp2920
S'HTTP_ACCEPT_LANGUAGE'
p2921
asbag48
(g69
g50
NtRp2922
(dp2923
g53
(dp2924
g80
g81
ssg62
g2913
sg55
(lp2925
S':'
asbag48
(g69
g50
NtRp2926
(dp2927
g53
(dp2928
sg62
g2913
sg55
(lp2929
g48
(g49
g50
NtRp2930
(dp2931
g53
(dp2932
g61
I3
ssg62
g2926
sg55
(lp2933
g1507
asbasbasbag48
(g64
g50
NtRp2934
(dp2935
g53
(dp2936
sg62
g2846
sg55
(lp2937
g48
(g69
g50
NtRp2938
(dp2939
g53
(dp2940
g73
g74
ssg62
g2934
sg55
(lp2941
S'HTTP_CONNECTION'
p2942
asbag48
(g69
g50
NtRp2943
(dp2944
g53
(dp2945
g80
g81
ssg62
g2934
sg55
(lp2946
S':'
asbag48
(g69
g50
NtRp2947
(dp2948
g53
(dp2949
sg62
g2934
sg55
(lp2950
g48
(g49
g50
NtRp2951
(dp2952
g53
(dp2953
g61
I3
ssg62
g2947
sg55
(lp2954
g1529
asbasbasbag48
(g64
g50
NtRp2955
(dp2956
g53
(dp2957
sg62
g2846
sg55
(lp2958
g48
(g69
g50
NtRp2959
(dp2960
g53
(dp2961
g73
g74
ssg62
g2955
sg55
(lp2962
S'HTTP_COOKIE'
p2963
asbag48
(g69
g50
NtRp2964
(dp2965
g53
(dp2966
g80
g81
ssg62
g2955
sg55
(lp2967
S':'
asbag48
(g69
g50
NtRp2968
(dp2969
g53
(dp2970
sg62
g2955
sg55
(lp2971
g48
(g49
g50
NtRp2972
(dp2973
g53
(dp2974
g61
I3
ssg62
g2968
sg55
(lp2975
g1551
asbasbasbag48
(g64
g50
NtRp2976
(dp2977
g53
(dp2978
sg62
g2846
sg55
(lp2979
g48
(g69
g50
NtRp2980
(dp2981
g53
(dp2982
g73
g74
ssg62
g2976
sg55
(lp2983
S'HTTP_HOST'
p2984
asbag48
(g69
g50
NtRp2985
(dp2986
g53
(dp2987
g80
g81
ssg62
g2976
sg55
(lp2988
S':'
asbag48
(g69
g50
NtRp2989
(dp2990
g53
(dp2991
sg62
g2976
sg55
(lp2992
g48
(g49
g50
NtRp2993
(dp2994
g53
(dp2995
g61
I3
ssg62
g2989
sg55
(lp2996
g1573
asbasbasbag48
(g64
g50
NtRp2997
(dp2998
g53
(dp2999
sg62
g2846
sg55
(lp3000
g48
(g69
g50
NtRp3001
(dp3002
g53
(dp3003
g73
g74
ssg62
g2997
sg55
(lp3004
S'HTTP_KEEP_ALIVE'
p3005
asbag48
(g69
g50
NtRp3006
(dp3007
g53
(dp3008
g80
g81
ssg62
g2997
sg55
(lp3009
S':'
asbag48
(g69
g50
NtRp3010
(dp3011
g53
(dp3012
sg62
g2997
sg55
(lp3013
g48
(g49
g50
NtRp3014
(dp3015
g53
(dp3016
g61
I3
ssg62
g3010
sg55
(lp3017
g1595
asbasbasbag48
(g64
g50
NtRp3018
(dp3019
g53
(dp3020
sg62
g2846
sg55
(lp3021
g48
(g69
g50
NtRp3022
(dp3023
g53
(dp3024
g73
g74
ssg62
g3018
sg55
(lp3025
S'HTTP_USER_AGENT'
p3026
asbag48
(g69
g50
NtRp3027
(dp3028
g53
(dp3029
g80
g81
ssg62
g3018
sg55
(lp3030
S':'
asbag48
(g69
g50
NtRp3031
(dp3032
g53
(dp3033
sg62
g3018
sg55
(lp3034
g48
(g49
g50
NtRp3035
(dp3036
g53
(dp3037
g61
I3
ssg62
g3031
sg55
(lp3038
g1617
asbasbasbag48
(g64
g50
NtRp3039
(dp3040
g53
(dp3041
sg62
g2846
sg55
(lp3042
g48
(g69
g50
NtRp3043
(dp3044
g53
(dp3045
g73
g74
ssg62
g3039
sg55
(lp3046
S'PATH_INFO'
p3047
asbag48
(g69
g50
NtRp3048
(dp3049
g53
(dp3050
g80
g81
ssg62
g3039
sg55
(lp3051
S':'
asbag48
(g69
g50
NtRp3052
(dp3053
g53
(dp3054
sg62
g3039
sg55
(lp3055
g48
(g49
g50
NtRp3056
(dp3057
g53
(dp3058
g61
I3
ssg62
g3052
sg55
(lp3059
g1660
asbasbasbag48
(g64
g50
NtRp3060
(dp3061
g53
(dp3062
sg62
g2846
sg55
(lp3063
g48
(g69
g50
NtRp3064
(dp3065
g53
(dp3066
g73
g74
ssg62
g3060
sg55
(lp3067
S'QUERY_STRING'
p3068
asbag48
(g69
g50
NtRp3069
(dp3070
g53
(dp3071
g80
g81
ssg62
g3060
sg55
(lp3072
S':'
asbag48
(g69
g50
NtRp3073
(dp3074
g53
(dp3075
sg62
g3060
sg55
(lp3076
g48
(g49
g50
NtRp3077
(dp3078
g53
(dp3079
g61
I3
ssg62
g3073
sg55
(lp3080
S''
asbasbasbag48
(g64
g50
NtRp3081
(dp3082
g53
(dp3083
sg62
g2846
sg55
(lp3084
g48
(g69
g50
NtRp3085
(dp3086
g53
(dp3087
g73
g74
ssg62
g3081
sg55
(lp3088
S'REMOTE_ADDR'
p3089
asbag48
(g69
g50
NtRp3090
(dp3091
g53
(dp3092
g80
g81
ssg62
g3081
sg55
(lp3093
S':'
asbag48
(g69
g50
NtRp3094
(dp3095
g53
(dp3096
sg62
g3081
sg55
(lp3097
g48
(g49
g50
NtRp3098
(dp3099
g53
(dp3100
g61
I3
ssg62
g3094
sg55
(lp3101
g194
asbasbasbag48
(g64
g50
NtRp3102
(dp3103
g53
(dp3104
sg62
g2846
sg55
(lp3105
g48
(g69
g50
NtRp3106
(dp3107
g53
(dp3108
g73
g74
ssg62
g3102
sg55
(lp3109
S'REMOTE_PORT'
p3110
asbag48
(g69
g50
NtRp3111
(dp3112
g53
(dp3113
g80
g81
ssg62
g3102
sg55
(lp3114
S':'
asbag48
(g69
g50
NtRp3115
(dp3116
g53
(dp3117
sg62
g3102
sg55
(lp3118
g48
(g49
g50
NtRp3119
(dp3120
g53
(dp3121
g61
I3
ssg62
g3115
sg55
(lp3122
g1724
asbasbasbag48
(g64
g50
NtRp3123
(dp3124
g53
(dp3125
sg62
g2846
sg55
(lp3126
g48
(g69
g50
NtRp3127
(dp3128
g53
(dp3129
g73
g74
ssg62
g3123
sg55
(lp3130
S'REQUEST_METHOD'
p3131
asbag48
(g69
g50
NtRp3132
(dp3133
g53
(dp3134
g80
g81
ssg62
g3123
sg55
(lp3135
S':'
asbag48
(g69
g50
NtRp3136
(dp3137
g53
(dp3138
sg62
g3123
sg55
(lp3139
g48
(g49
g50
NtRp3140
(dp3141
g53
(dp3142
g61
I3
ssg62
g3136
sg55
(lp3143
g1746
asbasbasbag48
(g64
g50
NtRp3144
(dp3145
g53
(dp3146
sg62
g2846
sg55
(lp3147
g48
(g69
g50
NtRp3148
(dp3149
g53
(dp3150
g73
g74
ssg62
g3144
sg55
(lp3151
S'SCRIPT_NAME'
p3152
asbag48
(g69
g50
NtRp3153
(dp3154
g53
(dp3155
g80
g81
ssg62
g3144
sg55
(lp3156
S':'
asbag48
(g69
g50
NtRp3157
(dp3158
g53
(dp3159
sg62
g3144
sg55
(lp3160
g48
(g49
g50
NtRp3161
(dp3162
g53
(dp3163
g61
I3
ssg62
g3157
sg55
(lp3164
S''
asbasbasbag48
(g64
g50
NtRp3165
(dp3166
g53
(dp3167
sg62
g2846
sg55
(lp3168
g48
(g69
g50
NtRp3169
(dp3170
g53
(dp3171
g73
g74
ssg62
g3165
sg55
(lp3172
S'SERVER_NAME'
p3173
asbag48
(g69
g50
NtRp3174
(dp3175
g53
(dp3176
g80
g81
ssg62
g3165
sg55
(lp3177
S':'
asbag48
(g69
g50
NtRp3178
(dp3179
g53
(dp3180
sg62
g3165
sg55
(lp3181
g48
(g49
g50
NtRp3182
(dp3183
g53
(dp3184
g61
I3
ssg62
g3178
sg55
(lp3185
g1789
asbasbasbag48
(g64
g50
NtRp3186
(dp3187
g53
(dp3188
sg62
g2846
sg55
(lp3189
g48
(g69
g50
NtRp3190
(dp3191
g53
(dp3192
g73
g74
ssg62
g3186
sg55
(lp3193
S'SERVER_PORT'
p3194
asbag48
(g69
g50
NtRp3195
(dp3196
g53
(dp3197
g80
g81
ssg62
g3186
sg55
(lp3198
S':'
asbag48
(g69
g50
NtRp3199
(dp3200
g53
(dp3201
sg62
g3186
sg55
(lp3202
g48
(g49
g50
NtRp3203
(dp3204
g53
(dp3205
g61
I3
ssg62
g3199
sg55
(lp3206
g1811
asbasbasbag48
(g64
g50
NtRp3207
(dp3208
g53
(dp3209
sg62
g2846
sg55
(lp3210
g48
(g69
g50
NtRp3211
(dp3212
g53
(dp3213
g73
g74
ssg62
g3207
sg55
(lp3214
S'SERVER_PROTOCOL'
p3215
asbag48
(g69
g50
NtRp3216
(dp3217
g53
(dp3218
g80
g81
ssg62
g3207
sg55
(lp3219
S':'
asbag48
(g69
g50
NtRp3220
(dp3221
g53
(dp3222
sg62
g3207
sg55
(lp3223
g48
(g49
g50
NtRp3224
(dp3225
g53
(dp3226
g61
I3
ssg62
g3220
sg55
(lp3227
g1833
asbasbasbag48
(g64
g50
NtRp3228
(dp3229
g53
(dp3230
sg62
g2846
sg55
(lp3231
g48
(g69
g50
NtRp3232
(dp3233
g53
(dp3234
g73
g74
ssg62
g3228
sg55
(lp3235
S'SERVER_SOFTWARE'
p3236
asbag48
(g69
g50
NtRp3237
(dp3238
g53
(dp3239
g80
g81
ssg62
g3228
sg55
(lp3240
S':'
asbag48
(g69
g50
NtRp3241
(dp3242
g53
(dp3243
sg62
g3228
sg55
(lp3244
g48
(g49
g50
NtRp3245
(dp3246
g53
(dp3247
g61
I3
ssg62
g3241
sg55
(lp3248
g1855
asbasbasbag48
(g64
g50
NtRp3249
(dp3250
g53
(dp3251
sg62
g2846
sg55
(lp3252
g48
(g69
g50
NtRp3253
(dp3254
g53
(dp3255
g73
g74
ssg62
g3249
sg55
(lp3256
S'wsgi.errors'
p3257
asbag48
(g69
g50
NtRp3258
(dp3259
g53
(dp3260
g80
g81
ssg62
g3249
sg55
(lp3261
S':'
asbag48
(g69
g50
NtRp3262
(dp3263
g53
(dp3264
sg62
g3249
sg55
(lp3265
g48
(g49
g50
NtRp3266
(dp3267
g53
(dp3268
g61
I3
ssg62
g3262
sg55
(lp3269
S"<open file '<stderr>', mode 'w' at 0x01EC00B0>"
p3270
asbasbasbag48
(g64
g50
NtRp3271
(dp3272
g53
(dp3273
sg62
g2846
sg55
(lp3274
g48
(g69
g50
NtRp3275
(dp3276
g53
(dp3277
g73
g74
ssg62
g3271
sg55
(lp3278
S'wsgi.file_wrapper'
p3279
asbag48
(g69
g50
NtRp3280
(dp3281
g53
(dp3282
g80
g81
ssg62
g3271
sg55
(lp3283
S':'
asbag48
(g69
g50
NtRp3284
(dp3285
g53
(dp3286
sg62
g3271
sg55
(lp3287
g48
(g49
g50
NtRp3288
(dp3289
g53
(dp3290
g61
I3
ssg62
g3284
sg55
(lp3291
S'<class wsgiref.util.FileWrapper at 0x02A93FC0>'
p3292
asbasbasbag48
(g64
g50
NtRp3293
(dp3294
g53
(dp3295
sg62
g2846
sg55
(lp3296
g48
(g69
g50
NtRp3297
(dp3298
g53
(dp3299
g73
g74
ssg62
g3293
sg55
(lp3300
S'wsgi.input'
p3301
asbag48
(g69
g50
NtRp3302
(dp3303
g53
(dp3304
g80
g81
ssg62
g3293
sg55
(lp3305
S':'
asbag48
(g69
g50
NtRp3306
(dp3307
g53
(dp3308
sg62
g3293
sg55
(lp3309
g48
(g49
g50
NtRp3310
(dp3311
g53
(dp3312
g61
I3
ssg62
g3306
sg55
(lp3313
S'<cStringIO.StringO object at 0x06F01900>'
p3314
asbasbasbag48
(g64
g50
NtRp3315
(dp3316
g53
(dp3317
sg62
g2846
sg55
(lp3318
g48
(g69
g50
NtRp3319
(dp3320
g53
(dp3321
g73
g74
ssg62
g3315
sg55
(lp3322
S'wsgi.multiprocess'
p3323
asbag48
(g69
g50
NtRp3324
(dp3325
g53
(dp3326
g80
g81
ssg62
g3315
sg55
(lp3327
S':'
asbag48
(g69
g50
NtRp3328
(dp3329
g53
(dp3330
sg62
g3315
sg55
(lp3331
g48
(g49
g50
NtRp3332
(dp3333
g53
(dp3334
g61
I3
ssg62
g3328
sg55
(lp3335
g91
asbasbasbag48
(g64
g50
NtRp3336
(dp3337
g53
(dp3338
sg62
g2846
sg55
(lp3339
g48
(g69
g50
NtRp3340
(dp3341
g53
(dp3342
g73
g74
ssg62
g3336
sg55
(lp3343
S'wsgi.multithread'
p3344
asbag48
(g69
g50
NtRp3345
(dp3346
g53
(dp3347
g80
g81
ssg62
g3336
sg55
(lp3348
S':'
asbag48
(g69
g50
NtRp3349
(dp3350
g53
(dp3351
sg62
g3336
sg55
(lp3352
g48
(g49
g50
NtRp3353
(dp3354
g53
(dp3355
g61
I3
ssg62
g3349
sg55
(lp3356
g2095
asbasbasbag48
(g64
g50
NtRp3357
(dp3358
g53
(dp3359
sg62
g2846
sg55
(lp3360
g48
(g69
g50
NtRp3361
(dp3362
g53
(dp3363
g73
g74
ssg62
g3357
sg55
(lp3364
S'wsgi.run_once'
p3365
asbag48
(g69
g50
NtRp3366
(dp3367
g53
(dp3368
g80
g81
ssg62
g3357
sg55
(lp3369
S':'
asbag48
(g69
g50
NtRp3370
(dp3371
g53
(dp3372
sg62
g3357
sg55
(lp3373
g48
(g49
g50
NtRp3374
(dp3375
g53
(dp3376
g61
I3
ssg62
g3370
sg55
(lp3377
g91
asbasbasbag48
(g64
g50
NtRp3378
(dp3379
g53
(dp3380
sg62
g2846
sg55
(lp3381
g48
(g69
g50
NtRp3382
(dp3383
g53
(dp3384
g73
g74
ssg62
g3378
sg55
(lp3385
S'wsgi.url_scheme'
p3386
asbag48
(g69
g50
NtRp3387
(dp3388
g53
(dp3389
g80
g81
ssg62
g3378
sg55
(lp3390
S':'
asbag48
(g69
g50
NtRp3391
(dp3392
g53
(dp3393
sg62
g3378
sg55
(lp3394
g48
(g49
g50
NtRp3395
(dp3396
g53
(dp3397
g61
I3
ssg62
g3391
sg55
(lp3398
g2138
asbasbasbag48
(g64
g50
NtRp3399
(dp3400
g53
(dp3401
sg62
g2846
sg55
(lp3402
g48
(g69
g50
NtRp3403
(dp3404
g53
(dp3405
g73
g74
ssg62
g3399
sg55
(lp3406
S'wsgi.version'
p3407
asbag48
(g69
g50
NtRp3408
(dp3409
g53
(dp3410
g80
g81
ssg62
g3399
sg55
(lp3411
S':'
asbag48
(g69
g50
NtRp3412
(dp3413
g53
(dp3414
sg62
g3399
sg55
(lp3415
g48
(g49
g50
NtRp3416
(dp3417
g53
(dp3418
g61
I3
ssg62
g3412
sg55
(lp3419
S'1'
asbasbasbasbasbasbasbasbasbasbasbasbasbsS'frames'
p3420
(lp3421
(dp3422
S'file'
p3423
S'P:\\Workbench\\DevEnv\\web2py\\gluon\\restricted.py'
p3424
sS'dump'
p3425
(dp3426
sS'lnum'
p3427
I194
sS'lines'
p3428
(dp3429
I192
S'        else:'
p3430
sI193
S'            ccode = compile2(code,layer)'
p3431
sI194
S'        exec ccode in environment'
p3432
sI195
S'    except HTTP:'
p3433
sI196
S'        raise'
p3434
sI197
S'    except Exception, error:'
p3435
sI198
S'        # XXX Show exception in Wing IDE if running in debugger'
p3436
sI189
S'    try:'
p3437
sI190
S'        if type(code) == types.CodeType:'
p3438
sI191
S'            ccode = code'
p3439
ssS'call'
p3440
S'(code=\'response.write(\\\'<!DOCTYPE html>\\\\r\\\\n<html lang="\\\'...ite(\\\'\\\\r\\\\n  </body>\\\\r\\\\n</html>\\\\r\\\\n\\\', escape=False)\', environment={\'A\': <class \'gluon.html.A\'>, \'Auth\': <class \'gluon.tools.Auth\'>, \'B\': <class \'gluon.html.B\'>, \'BEAUTIFY\': <class \'gluon.html.BEAUTIFY\'>, \'BODY\': <class \'gluon.html.BODY\'>, \'BR\': <class \'gluon.html.BR\'>, \'BUTTON\': <class \'gluon.html.BUTTON\'>, \'CAT\': <class \'gluon.html.CAT\'>, \'CENTER\': <class \'gluon.html.CENTER\'>, \'CLEANUP\': <class \'gluon.validators.CLEANUP\'>, ...}, layer=r\'P:\\Workbench\\DevEnv\\web2py\\applications\\init\\views\\default/user.html\')'
p3441
sS'func'
p3442
S'restricted'
p3443
sa(dp3444
g3423
S'P:\\Workbench\\DevEnv\\web2py\\applications\\init\\views\\default\\user.html'
p3445
sg3425
(dp3446
sg3427
I76
sg3428
(dp3447
I67
S'    pass'
p3448
sI68
S'response.write(\'\\r\\n\\r\\n      <!-- content -->\\r\\n      <div id="content" \', escape=False)'
p3449
sI69
S'response.write(XML(style_content))'
p3450
sI70
S"response.write(' >\\r\\n        ', escape=False)"
p3451
sI71
S"response.write('\\r\\n<h2>', escape=False)"
p3452
sI72
S"response.write(T( request.args(0).replace('_',' ').capitalize() ))"
p3453
sI73
S'response.write(\'</h2>\\r\\n<div id="web2py_user_form">\\r\\n\\r\\n\', escape=False)'
p3454
sI74
S"if request.args(0)=='register':"
p3455
sI75
S"    response.write('\\r\\n    User Name = ', escape=False)"
p3456
sI76
S'    response.write(auth.user.first_name)'
p3457
sI77
S"    response.write('\\r\\n\\r\\n    \\r\\n', escape=False)"
p3458
sI78
S'    pass'
p3459
sI79
S"response.write('\\r\\n\\r\\n', escape=False)"
p3460
sI80
S"if request.args(0)=='login':"
p3461
sI81
S"    response.write('\\r\\n', escape=False)"
p3462
sI82
S"    if not 'register' in auth.settings.actions_disabled:"
p3463
sI83
S'        response.write(\'\\r\\n<br/><a href="\', escape=False)'
p3464
sI84
S"        response.write(URL(r=request,args='register'))"
p3465
sI85
S'        response.write(\'">register</a>\\r\\n\', escape=False)'
p3466
sI86
S'        pass'
p3467
ssg3440
S'()'
p3468
sg3442
S'<module>'
p3469
sasS'pyver'
p3470
S'Python 2.5.4: P:\\Workbench\\DevEnv\\web2py\\web2py.exe'
p3471
sS'session'
p3472
g48
(g49
g50
NtRp3473
(dp3474
g53
(dp3475
sg55
(lp3476
g48
(g57
g50
NtRp3477
(dp3478
g53
(dp3479
g61
I5
ssg62
Nsg55
(lp3480
sbasbsS'etype'
p3481
S"<type 'exceptions.AttributeError'>"
p3482
sS'date'
p3483
S'Sun Oct 30 20:26:08 2011'
p3484
sS'response'
p3485
g48
(g49
g50
NtRp3486
(dp3487
g53
(dp3488
sg55
(lp3489
g48
(g57
g50
NtRp3490
(dp3491
g53
(dp3492
g61
I5
ssg62
Nsg55
(lp3493
g48
(g64
g50
NtRp3494
(dp3495
g53
(dp3496
sg62
g3490
sg55
(lp3497
g48
(g69
g50
NtRp3498
(dp3499
g53
(dp3500
g73
g74
ssg62
g3494
sg55
(lp3501
g159
asbag48
(g69
g50
NtRp3502
(dp3503
g53
(dp3504
g80
g81
ssg62
g3494
sg55
(lp3505
S':'
asbag48
(g69
g50
NtRp3506
(dp3507
g53
(dp3508
sg62
g3494
sg55
(lp3509
g48
(g49
g50
NtRp3510
(dp3511
g53
(dp3512
g61
I5
ssg62
g3506
sg55
(lp3513
S'<cStringIO.StringO object at 0x03E43100>'
p3514
asbasbasbag48
(g64
g50
NtRp3515
(dp3516
g53
(dp3517
sg62
g3490
sg55
(lp3518
g48
(g69
g50
NtRp3519
(dp3520
g53
(dp3521
g73
g74
ssg62
g3515
sg55
(lp3522
g225
asbag48
(g69
g50
NtRp3523
(dp3524
g53
(dp3525
g80
g81
ssg62
g3515
sg55
(lp3526
S':'
asbag48
(g69
g50
NtRp3527
(dp3528
g53
(dp3529
sg62
g3515
sg55
(lp3530
g48
(g49
g50
NtRp3531
(dp3532
g53
(dp3533
g61
I5
ssg62
g3527
sg55
(lp3534
g48
(g57
g50
NtRp3535
(dp3536
g53
(dp3537
g61
I4
ssg62
Nsg55
(lp3538
g48
(g64
g50
NtRp3539
(dp3540
g53
(dp3541
sg62
g3535
sg55
(lp3542
g48
(g69
g50
NtRp3543
(dp3544
g53
(dp3545
g73
g74
ssg62
g3539
sg55
(lp3546
S'session_id_init'
p3547
asbag48
(g69
g50
NtRp3548
(dp3549
g53
(dp3550
g80
g81
ssg62
g3539
sg55
(lp3551
S':'
asbag48
(g69
g50
NtRp3552
(dp3553
g53
(dp3554
sg62
g3539
sg55
(lp3555
g48
(g49
g50
NtRp3556
(dp3557
g53
(dp3558
g61
I4
ssg62
g3552
sg55
(lp3559
g48
(g57
g50
NtRp3560
(dp3561
g53
(dp3562
g61
I3
ssg62
Nsg55
(lp3563
g48
(g64
g50
NtRp3564
(dp3565
g53
(dp3566
sg62
g3560
sg55
(lp3567
g48
(g69
g50
NtRp3568
(dp3569
g53
(dp3570
g73
g74
ssg62
g3564
sg55
(lp3571
g275
asbag48
(g69
g50
NtRp3572
(dp3573
g53
(dp3574
g80
g81
ssg62
g3564
sg55
(lp3575
S':'
asbag48
(g69
g50
NtRp3576
(dp3577
g53
(dp3578
sg62
g3564
sg55
(lp3579
g48
(g49
g50
NtRp3580
(dp3581
g53
(dp3582
g61
I3
ssg62
g3576
sg55
(lp3583
S''
asbasbasbag48
(g64
g50
NtRp3584
(dp3585
g53
(dp3586
sg62
g3560
sg55
(lp3587
g48
(g69
g50
NtRp3588
(dp3589
g53
(dp3590
g73
g74
ssg62
g3584
sg55
(lp3591
g296
asbag48
(g69
g50
NtRp3592
(dp3593
g53
(dp3594
g80
g81
ssg62
g3584
sg55
(lp3595
S':'
asbag48
(g69
g50
NtRp3596
(dp3597
g53
(dp3598
sg62
g3584
sg55
(lp3599
g48
(g49
g50
NtRp3600
(dp3601
g53
(dp3602
g61
I3
ssg62
g3596
sg55
(lp3603
S''
asbasbasbag48
(g64
g50
NtRp3604
(dp3605
g53
(dp3606
sg62
g3560
sg55
(lp3607
g48
(g69
g50
NtRp3608
(dp3609
g53
(dp3610
g73
g74
ssg62
g3604
sg55
(lp3611
g317
asbag48
(g69
g50
NtRp3612
(dp3613
g53
(dp3614
g80
g81
ssg62
g3604
sg55
(lp3615
S':'
asbag48
(g69
g50
NtRp3616
(dp3617
g53
(dp3618
sg62
g3604
sg55
(lp3619
g48
(g49
g50
NtRp3620
(dp3621
g53
(dp3622
g61
I3
ssg62
g3616
sg55
(lp3623
S''
asbasbasbag48
(g64
g50
NtRp3624
(dp3625
g53
(dp3626
sg62
g3560
sg55
(lp3627
g48
(g69
g50
NtRp3628
(dp3629
g53
(dp3630
g73
g74
ssg62
g3624
sg55
(lp3631
g338
asbag48
(g69
g50
NtRp3632
(dp3633
g53
(dp3634
g80
g81
ssg62
g3624
sg55
(lp3635
S':'
asbag48
(g69
g50
NtRp3636
(dp3637
g53
(dp3638
sg62
g3624
sg55
(lp3639
g48
(g49
g50
NtRp3640
(dp3641
g53
(dp3642
g61
I3
ssg62
g3636
sg55
(lp3643
S''
asbasbasbag48
(g64
g50
NtRp3644
(dp3645
g53
(dp3646
sg62
g3560
sg55
(lp3647
g48
(g69
g50
NtRp3648
(dp3649
g53
(dp3650
g73
g74
ssg62
g3644
sg55
(lp3651
g359
asbag48
(g69
g50
NtRp3652
(dp3653
g53
(dp3654
g80
g81
ssg62
g3644
sg55
(lp3655
S':'
asbag48
(g69
g50
NtRp3656
(dp3657
g53
(dp3658
sg62
g3644
sg55
(lp3659
g48
(g49
g50
NtRp3660
(dp3661
g53
(dp3662
g61
I3
ssg62
g3656
sg55
(lp3663
S'/'
asbasbasbag48
(g64
g50
NtRp3664
(dp3665
g53
(dp3666
sg62
g3560
sg55
(lp3667
g48
(g69
g50
NtRp3668
(dp3669
g53
(dp3670
g73
g74
ssg62
g3664
sg55
(lp3671
g380
asbag48
(g69
g50
NtRp3672
(dp3673
g53
(dp3674
g80
g81
ssg62
g3664
sg55
(lp3675
S':'
asbag48
(g69
g50
NtRp3676
(dp3677
g53
(dp3678
sg62
g3664
sg55
(lp3679
g48
(g49
g50
NtRp3680
(dp3681
g53
(dp3682
g61
I3
ssg62
g3676
sg55
(lp3683
S''
asbasbasbag48
(g64
g50
NtRp3684
(dp3685
g53
(dp3686
sg62
g3560
sg55
(lp3687
g48
(g69
g50
NtRp3688
(dp3689
g53
(dp3690
g73
g74
ssg62
g3684
sg55
(lp3691
g401
asbag48
(g69
g50
NtRp3692
(dp3693
g53
(dp3694
g80
g81
ssg62
g3684
sg55
(lp3695
S':'
asbag48
(g69
g50
NtRp3696
(dp3697
g53
(dp3698
sg62
g3684
sg55
(lp3699
g48
(g49
g50
NtRp3700
(dp3701
g53
(dp3702
g61
I3
ssg62
g3696
sg55
(lp3703
S''
asbasbasbasbasbasbasbasbasbasbasbag48
(g64
g50
NtRp3704
(dp3705
g53
(dp3706
sg62
g3490
sg55
(lp3707
g48
(g69
g50
NtRp3708
(dp3709
g53
(dp3710
g73
g74
ssg62
g3704
sg55
(lp3711
S'files'
p3712
asbag48
(g69
g50
NtRp3713
(dp3714
g53
(dp3715
g80
g81
ssg62
g3704
sg55
(lp3716
S':'
asbag48
(g69
g50
NtRp3717
(dp3718
g53
(dp3719
sg62
g3704
sg55
(lp3720
g48
(g49
g50
NtRp3721
(dp3722
g53
(dp3723
g61
I5
ssg62
g3717
sg55
(lp3724
g48
(g57
g50
NtRp3725
(dp3726
g53
(dp3727
g61
I4
ssg62
Nsg55
(lp3728
g48
(g64
g50
NtRp3729
(dp3730
g53
(dp3731
sg62
g3725
sg55
(lp3732
g48
(g69
g50
NtRp3733
(dp3734
g53
(dp3735
sg62
g3729
sg55
(lp3736
g48
(g49
g50
NtRp3737
(dp3738
g53
(dp3739
g61
I4
ssg62
g3733
sg55
(lp3740
S'/init/static/js/jquery.js'
p3741
asbasbasbag48
(g64
g50
NtRp3742
(dp3743
g53
(dp3744
sg62
g3725
sg55
(lp3745
g48
(g69
g50
NtRp3746
(dp3747
g53
(dp3748
sg62
g3742
sg55
(lp3749
g48
(g49
g50
NtRp3750
(dp3751
g53
(dp3752
g61
I4
ssg62
g3746
sg55
(lp3753
S'/init/static/css/anytime.css'
p3754
asbasbasbag48
(g64
g50
NtRp3755
(dp3756
g53
(dp3757
sg62
g3725
sg55
(lp3758
g48
(g69
g50
NtRp3759
(dp3760
g53
(dp3761
sg62
g3755
sg55
(lp3762
g48
(g49
g50
NtRp3763
(dp3764
g53
(dp3765
g61
I4
ssg62
g3759
sg55
(lp3766
S'/init/static/js/anytime.js'
p3767
asbasbasbag48
(g64
g50
NtRp3768
(dp3769
g53
(dp3770
sg62
g3725
sg55
(lp3771
g48
(g69
g50
NtRp3772
(dp3773
g53
(dp3774
sg62
g3768
sg55
(lp3775
g48
(g49
g50
NtRp3776
(dp3777
g53
(dp3778
g61
I4
ssg62
g3772
sg55
(lp3779
S'/init/static/css/base.css'
p3780
asbasbasbag48
(g64
g50
NtRp3781
(dp3782
g53
(dp3783
sg62
g3725
sg55
(lp3784
g48
(g69
g50
NtRp3785
(dp3786
g53
(dp3787
sg62
g3781
sg55
(lp3788
g48
(g49
g50
NtRp3789
(dp3790
g53
(dp3791
g61
I4
ssg62
g3785
sg55
(lp3792
S'/init/static/css/superfish.css'
p3793
asbasbasbag48
(g64
g50
NtRp3794
(dp3795
g53
(dp3796
sg62
g3725
sg55
(lp3797
g48
(g69
g50
NtRp3798
(dp3799
g53
(dp3800
sg62
g3794
sg55
(lp3801
g48
(g49
g50
NtRp3802
(dp3803
g53
(dp3804
g61
I4
ssg62
g3798
sg55
(lp3805
S'/init/static/js/superfish.js'
p3806
asbasbasbasbasbasbasbag48
(g64
g50
NtRp3807
(dp3808
g53
(dp3809
sg62
g3490
sg55
(lp3810
g48
(g69
g50
NtRp3811
(dp3812
g53
(dp3813
g73
g74
ssg62
g3807
sg55
(lp3814
S'flash'
p3815
asbag48
(g69
g50
NtRp3816
(dp3817
g53
(dp3818
g80
g81
ssg62
g3807
sg55
(lp3819
S':'
asbag48
(g69
g50
NtRp3820
(dp3821
g53
(dp3822
sg62
g3807
sg55
(lp3823
g48
(g49
g50
NtRp3824
(dp3825
g53
(dp3826
g61
I5
ssg62
g3820
sg55
(lp3827
S''
asbasbasbag48
(g64
g50
NtRp3828
(dp3829
g53
(dp3830
sg62
g3490
sg55
(lp3831
g48
(g69
g50
NtRp3832
(dp3833
g53
(dp3834
g73
g74
ssg62
g3828
sg55
(lp3835
S'generic_patterns'
p3836
asbag48
(g69
g50
NtRp3837
(dp3838
g53
(dp3839
g80
g81
ssg62
g3828
sg55
(lp3840
S':'
asbag48
(g69
g50
NtRp3841
(dp3842
g53
(dp3843
sg62
g3828
sg55
(lp3844
g48
(g49
g50
NtRp3845
(dp3846
g53
(dp3847
g61
I5
ssg62
g3841
sg55
(lp3848
g48
(g57
g50
NtRp3849
(dp3850
g53
(dp3851
g61
I4
ssg62
Nsg55
(lp3852
g48
(g64
g50
NtRp3853
(dp3854
g53
(dp3855
sg62
g3849
sg55
(lp3856
g48
(g69
g50
NtRp3857
(dp3858
g53
(dp3859
sg62
g3853
sg55
(lp3860
g48
(g49
g50
NtRp3861
(dp3862
g53
(dp3863
g61
I4
ssg62
g3857
sg55
(lp3864
S'*'
asbasbasbasbasbasbasbag48
(g64
g50
NtRp3865
(dp3866
g53
(dp3867
sg62
g3490
sg55
(lp3868
g48
(g69
g50
NtRp3869
(dp3870
g53
(dp3871
g73
g74
ssg62
g3865
sg55
(lp3872
S'headers'
p3873
asbag48
(g69
g50
NtRp3874
(dp3875
g53
(dp3876
g80
g81
ssg62
g3865
sg55
(lp3877
S':'
asbag48
(g69
g50
NtRp3878
(dp3879
g53
(dp3880
sg62
g3865
sg55
(lp3881
g48
(g49
g50
NtRp3882
(dp3883
g53
(dp3884
g61
I5
ssg62
g3878
sg55
(lp3885
g48
(g57
g50
NtRp3886
(dp3887
g53
(dp3888
g61
I4
ssg62
Nsg55
(lp3889
g48
(g64
g50
NtRp3890
(dp3891
g53
(dp3892
sg62
g3886
sg55
(lp3893
g48
(g69
g50
NtRp3894
(dp3895
g53
(dp3896
g73
g74
ssg62
g3890
sg55
(lp3897
S'Cache-Control'
p3898
asbag48
(g69
g50
NtRp3899
(dp3900
g53
(dp3901
g80
g81
ssg62
g3890
sg55
(lp3902
S':'
asbag48
(g69
g50
NtRp3903
(dp3904
g53
(dp3905
sg62
g3890
sg55
(lp3906
g48
(g49
g50
NtRp3907
(dp3908
g53
(dp3909
g61
I4
ssg62
g3903
sg55
(lp3910
S'no-store, no-cache, must-revalidate, post-check=0, pre-check=0'
p3911
asbasbasbag48
(g64
g50
NtRp3912
(dp3913
g53
(dp3914
sg62
g3886
sg55
(lp3915
g48
(g69
g50
NtRp3916
(dp3917
g53
(dp3918
g73
g74
ssg62
g3912
sg55
(lp3919
S'Content-Type'
p3920
asbag48
(g69
g50
NtRp3921
(dp3922
g53
(dp3923
g80
g81
ssg62
g3912
sg55
(lp3924
S':'
asbag48
(g69
g50
NtRp3925
(dp3926
g53
(dp3927
sg62
g3912
sg55
(lp3928
g48
(g49
g50
NtRp3929
(dp3930
g53
(dp3931
g61
I4
ssg62
g3925
sg55
(lp3932
S'text/html; charset=utf-8'
p3933
asbasbasbag48
(g64
g50
NtRp3934
(dp3935
g53
(dp3936
sg62
g3886
sg55
(lp3937
g48
(g69
g50
NtRp3938
(dp3939
g53
(dp3940
g73
g74
ssg62
g3934
sg55
(lp3941
S'Expires'
p3942
asbag48
(g69
g50
NtRp3943
(dp3944
g53
(dp3945
g80
g81
ssg62
g3934
sg55
(lp3946
S':'
asbag48
(g69
g50
NtRp3947
(dp3948
g53
(dp3949
sg62
g3934
sg55
(lp3950
g48
(g49
g50
NtRp3951
(dp3952
g53
(dp3953
g61
I4
ssg62
g3947
sg55
(lp3954
S'Mon, 31 Oct 2011 00:26:08 GMT'
p3955
asbasbasbag48
(g64
g50
NtRp3956
(dp3957
g53
(dp3958
sg62
g3886
sg55
(lp3959
g48
(g69
g50
NtRp3960
(dp3961
g53
(dp3962
g73
g74
ssg62
g3956
sg55
(lp3963
S'Pragma'
p3964
asbag48
(g69
g50
NtRp3965
(dp3966
g53
(dp3967
g80
g81
ssg62
g3956
sg55
(lp3968
S':'
asbag48
(g69
g50
NtRp3969
(dp3970
g53
(dp3971
sg62
g3956
sg55
(lp3972
g48
(g49
g50
NtRp3973
(dp3974
g53
(dp3975
g61
I4
ssg62
g3969
sg55
(lp3976
S'no-cache'
p3977
asbasbasbag48
(g64
g50
NtRp3978
(dp3979
g53
(dp3980
sg62
g3886
sg55
(lp3981
g48
(g69
g50
NtRp3982
(dp3983
g53
(dp3984
g73
g74
ssg62
g3978
sg55
(lp3985
S'X-Powered-By'
p3986
asbag48
(g69
g50
NtRp3987
(dp3988
g53
(dp3989
g80
g81
ssg62
g3978
sg55
(lp3990
S':'
asbag48
(g69
g50
NtRp3991
(dp3992
g53
(dp3993
sg62
g3978
sg55
(lp3994
g48
(g49
g50
NtRp3995
(dp3996
g53
(dp3997
g61
I4
ssg62
g3991
sg55
(lp3998
S'web2py'
p3999
asbasbasbasbasbasbasbag48
(g64
g50
NtRp4000
(dp4001
g53
(dp4002
sg62
g3490
sg55
(lp4003
g48
(g69
g50
NtRp4004
(dp4005
g53
(dp4006
g73
g74
ssg62
g4000
sg55
(lp4007
S'menu'
p4008
asbag48
(g69
g50
NtRp4009
(dp4010
g53
(dp4011
g80
g81
ssg62
g4000
sg55
(lp4012
S':'
asbag48
(g69
g50
NtRp4013
(dp4014
g53
(dp4015
sg62
g4000
sg55
(lp4016
g48
(g49
g50
NtRp4017
(dp4018
g53
(dp4019
g61
I5
ssg62
g4013
sg55
(lp4020
g48
(g57
g50
NtRp4021
(dp4022
g53
(dp4023
g61
I4
ssg62
Nsg55
(lp4024
g48
(g64
g50
NtRp4025
(dp4026
g53
(dp4027
sg62
g4021
sg55
(lp4028
g48
(g69
g50
NtRp4029
(dp4030
g53
(dp4031
sg62
g4025
sg55
(lp4032
g48
(g49
g50
NtRp4033
(dp4034
g53
(dp4035
g61
I4
ssg62
g4029
sg55
(lp4036
g48
(g57
g50
NtRp4037
(dp4038
g53
(dp4039
g61
I3
ssg62
Nsg55
(lp4040
g48
(g64
g50
NtRp4041
(dp4042
g53
(dp4043
sg62
g4037
sg55
(lp4044
g48
(g69
g50
NtRp4045
(dp4046
g53
(dp4047
sg62
g4041
sg55
(lp4048
g48
(g49
g50
NtRp4049
(dp4050
g53
(dp4051
g61
I3
ssg62
g4045
sg55
(lp4052
cgluon.languages
lazyT_unpickle
p4053
(S's\x04\x00\x00\x00Home'
tRp4054
asbasbasbag48
(g64
g50
NtRp4055
(dp4056
g53
(dp4057
sg62
g4037
sg55
(lp4058
g48
(g69
g50
NtRp4059
(dp4060
g53
(dp4061
sg62
g4055
sg55
(lp4062
g48
(g49
g50
NtRp4063
(dp4064
g53
(dp4065
g61
I3
ssg62
g4059
sg55
(lp4066
g91
asbasbasbag48
(g64
g50
NtRp4067
(dp4068
g53
(dp4069
sg62
g4037
sg55
(lp4070
g48
(g69
g50
NtRp4071
(dp4072
g53
(dp4073
sg62
g4067
sg55
(lp4074
g48
(g49
g50
NtRp4075
(dp4076
g53
(dp4077
g61
I3
ssg62
g4071
sg55
(lp4078
S'/init/default/index'
p4079
asbasbasbag48
(g64
g50
NtRp4080
(dp4081
g53
(dp4082
sg62
g4037
sg55
(lp4083
g48
(g69
g50
NtRp4084
(dp4085
g53
(dp4086
sg62
g4080
sg55
(lp4087
g48
(g49
g50
NtRp4088
(dp4089
g53
(dp4090
g61
I3
ssg62
g4084
sg55
(lp4091
g48
(g57
g50
NtRp4092
(dp4093
g53
(dp4094
g61
I2
ssg62
Nsg55
(lp4095
sbasbasbasbasbasbasbasbag48
(g64
g50
NtRp4096
(dp4097
g53
(dp4098
sg62
g4021
sg55
(lp4099
g48
(g69
g50
NtRp4100
(dp4101
g53
(dp4102
sg62
g4096
sg55
(lp4103
g48
(g49
g50
NtRp4104
(dp4105
g53
(dp4106
g61
I4
ssg62
g4100
sg55
(lp4107
g48
(g57
g50
NtRp4108
(dp4109
g53
(dp4110
g61
I3
ssg62
Nsg55
(lp4111
g48
(g64
g50
NtRp4112
(dp4113
g53
(dp4114
sg62
g4108
sg55
(lp4115
g48
(g69
g50
NtRp4116
(dp4117
g53
(dp4118
sg62
g4112
sg55
(lp4119
g48
(g49
g50
NtRp4120
(dp4121
g53
(dp4122
g61
I3
ssg62
g4116
sg55
(lp4123
g4053
(S's\x08\x00\x00\x00This App'
tRp4124
asbasbasbag48
(g64
g50
NtRp4125
(dp4126
g53
(dp4127
sg62
g4108
sg55
(lp4128
g48
(g69
g50
NtRp4129
(dp4130
g53
(dp4131
sg62
g4125
sg55
(lp4132
g48
(g49
g50
NtRp4133
(dp4134
g53
(dp4135
g61
I3
ssg62
g4129
sg55
(lp4136
g91
asbasbasbag48
(g64
g50
NtRp4137
(dp4138
g53
(dp4139
sg62
g4108
sg55
(lp4140
g48
(g69
g50
NtRp4141
(dp4142
g53
(dp4143
sg62
g4137
sg55
(lp4144
g48
(g49
g50
NtRp4145
(dp4146
g53
(dp4147
g61
I3
ssg62
g4141
sg55
(lp4148
S'/admin/default/design/init'
p4149
asbasbasbag48
(g64
g50
NtRp4150
(dp4151
g53
(dp4152
sg62
g4108
sg55
(lp4153
g48
(g69
g50
NtRp4154
(dp4155
g53
(dp4156
sg62
g4150
sg55
(lp4157
g48
(g49
g50
NtRp4158
(dp4159
g53
(dp4160
g61
I3
ssg62
g4154
sg55
(lp4161
g48
(g57
g50
NtRp4162
(dp4163
g53
(dp4164
g61
I2
ssg62
Nsg55
(lp4165
g48
(g64
g50
NtRp4166
(dp4167
g53
(dp4168
sg62
g4162
sg55
(lp4169
g48
(g69
g50
NtRp4170
(dp4171
g53
(dp4172
sg62
g4166
sg55
(lp4173
g48
(g49
g50
NtRp4174
(dp4175
g53
(dp4176
g61
I2
ssg62
g4170
sg55
(lp4177
g48
(g57
g50
NtRp4178
(dp4179
g53
(dp4180
g61
I1
ssg62
Nsg55
(lp4181
g48
(g64
g50
NtRp4182
(dp4183
g53
(dp4184
sg62
g4178
sg55
(lp4185
g48
(g69
g50
NtRp4186
(dp4187
g53
(dp4188
sg62
g4182
sg55
(lp4189
g48
(g49
g50
NtRp4190
(dp4191
g53
(dp4192
g61
I1
ssg62
g4186
sg55
(lp4193
g4053
(S's\n\x00\x00\x00Controller'
tRp4194
asbasbasbag48
(g64
g50
NtRp4195
(dp4196
g53
(dp4197
sg62
g4178
sg55
(lp4198
g48
(g69
g50
NtRp4199
(dp4200
g53
(dp4201
sg62
g4195
sg55
(lp4202
g48
(g49
g50
NtRp4203
(dp4204
g53
(dp4205
g61
I1
ssg62
g4199
sg55
(lp4206
I00
asbasbasbag48
(g64
g50
NtRp4207
(dp4208
g53
(dp4209
sg62
g4178
sg55
(lp4210
g48
(g69
g50
NtRp4211
(dp4212
g53
(dp4213
sg62
g4207
sg55
(lp4214
g48
(g49
g50
NtRp4215
(dp4216
g53
(dp4217
g61
I1
ssg62
g4211
sg55
(lp4218
S'/admin/default/edit/init/controllers/default.py'
p4219
asbasbasbasbasbasbasbag48
(g64
g50
NtRp4220
(dp4221
g53
(dp4222
sg62
g4162
sg55
(lp4223
g48
(g69
g50
NtRp4224
(dp4225
g53
(dp4226
sg62
g4220
sg55
(lp4227
g48
(g49
g50
NtRp4228
(dp4229
g53
(dp4230
g61
I2
ssg62
g4224
sg55
(lp4231
g48
(g57
g50
NtRp4232
(dp4233
g53
(dp4234
g61
I1
ssg62
Nsg55
(lp4235
g48
(g64
g50
NtRp4236
(dp4237
g53
(dp4238
sg62
g4232
sg55
(lp4239
g48
(g69
g50
NtRp4240
(dp4241
g53
(dp4242
sg62
g4236
sg55
(lp4243
g48
(g49
g50
NtRp4244
(dp4245
g53
(dp4246
g61
I1
ssg62
g4240
sg55
(lp4247
g4053
(S's\x04\x00\x00\x00View'
tRp4248
asbasbasbag48
(g64
g50
NtRp4249
(dp4250
g53
(dp4251
sg62
g4232
sg55
(lp4252
g48
(g69
g50
NtRp4253
(dp4254
g53
(dp4255
sg62
g4249
sg55
(lp4256
g48
(g49
g50
NtRp4257
(dp4258
g53
(dp4259
g61
I1
ssg62
g4253
sg55
(lp4260
I00
asbasbasbag48
(g64
g50
NtRp4261
(dp4262
g53
(dp4263
sg62
g4232
sg55
(lp4264
g48
(g69
g50
NtRp4265
(dp4266
g53
(dp4267
sg62
g4261
sg55
(lp4268
g48
(g49
g50
NtRp4269
(dp4270
g53
(dp4271
g61
I1
ssg62
g4265
sg55
(lp4272
S'/admin/default/edit/init/views/default/user.html'
p4273
asbasbasbasbasbasbasbag48
(g64
g50
NtRp4274
(dp4275
g53
(dp4276
sg62
g4162
sg55
(lp4277
g48
(g69
g50
NtRp4278
(dp4279
g53
(dp4280
sg62
g4274
sg55
(lp4281
g48
(g49
g50
NtRp4282
(dp4283
g53
(dp4284
g61
I2
ssg62
g4278
sg55
(lp4285
g48
(g57
g50
NtRp4286
(dp4287
g53
(dp4288
g61
I1
ssg62
Nsg55
(lp4289
g48
(g64
g50
NtRp4290
(dp4291
g53
(dp4292
sg62
g4286
sg55
(lp4293
g48
(g69
g50
NtRp4294
(dp4295
g53
(dp4296
sg62
g4290
sg55
(lp4297
g48
(g49
g50
NtRp4298
(dp4299
g53
(dp4300
g61
I1
ssg62
g4294
sg55
(lp4301
g4053
(S's\x06\x00\x00\x00Layout'
tRp4302
asbasbasbag48
(g64
g50
NtRp4303
(dp4304
g53
(dp4305
sg62
g4286
sg55
(lp4306
g48
(g69
g50
NtRp4307
(dp4308
g53
(dp4309
sg62
g4303
sg55
(lp4310
g48
(g49
g50
NtRp4311
(dp4312
g53
(dp4313
g61
I1
ssg62
g4307
sg55
(lp4314
I00
asbasbasbag48
(g64
g50
NtRp4315
(dp4316
g53
(dp4317
sg62
g4286
sg55
(lp4318
g48
(g69
g50
NtRp4319
(dp4320
g53
(dp4321
sg62
g4315
sg55
(lp4322
g48
(g49
g50
NtRp4323
(dp4324
g53
(dp4325
g61
I1
ssg62
g4319
sg55
(lp4326
S'/admin/default/edit/init/views/layout.html'
p4327
asbasbasbasbasbasbasbag48
(g64
g50
NtRp4328
(dp4329
g53
(dp4330
sg62
g4162
sg55
(lp4331
g48
(g69
g50
NtRp4332
(dp4333
g53
(dp4334
sg62
g4328
sg55
(lp4335
g48
(g49
g50
NtRp4336
(dp4337
g53
(dp4338
g61
I2
ssg62
g4332
sg55
(lp4339
g48
(g57
g50
NtRp4340
(dp4341
g53
(dp4342
g61
I1
ssg62
Nsg55
(lp4343
g48
(g64
g50
NtRp4344
(dp4345
g53
(dp4346
sg62
g4340
sg55
(lp4347
g48
(g69
g50
NtRp4348
(dp4349
g53
(dp4350
sg62
g4344
sg55
(lp4351
g48
(g49
g50
NtRp4352
(dp4353
g53
(dp4354
g61
I1
ssg62
g4348
sg55
(lp4355
g4053
(S's\n\x00\x00\x00Stylesheet'
tRp4356
asbasbasbag48
(g64
g50
NtRp4357
(dp4358
g53
(dp4359
sg62
g4340
sg55
(lp4360
g48
(g69
g50
NtRp4361
(dp4362
g53
(dp4363
sg62
g4357
sg55
(lp4364
g48
(g49
g50
NtRp4365
(dp4366
g53
(dp4367
g61
I1
ssg62
g4361
sg55
(lp4368
I00
asbasbasbag48
(g64
g50
NtRp4369
(dp4370
g53
(dp4371
sg62
g4340
sg55
(lp4372
g48
(g69
g50
NtRp4373
(dp4374
g53
(dp4375
sg62
g4369
sg55
(lp4376
g48
(g49
g50
NtRp4377
(dp4378
g53
(dp4379
g61
I1
ssg62
g4373
sg55
(lp4380
S'/admin/default/edit/init/static/base.css'
p4381
asbasbasbasbasbasbasbag48
(g64
g50
NtRp4382
(dp4383
g53
(dp4384
sg62
g4162
sg55
(lp4385
g48
(g69
g50
NtRp4386
(dp4387
g53
(dp4388
sg62
g4382
sg55
(lp4389
g48
(g49
g50
NtRp4390
(dp4391
g53
(dp4392
g61
I2
ssg62
g4386
sg55
(lp4393
g48
(g57
g50
NtRp4394
(dp4395
g53
(dp4396
g61
I1
ssg62
Nsg55
(lp4397
g48
(g64
g50
NtRp4398
(dp4399
g53
(dp4400
sg62
g4394
sg55
(lp4401
g48
(g69
g50
NtRp4402
(dp4403
g53
(dp4404
sg62
g4398
sg55
(lp4405
g48
(g49
g50
NtRp4406
(dp4407
g53
(dp4408
g61
I1
ssg62
g4402
sg55
(lp4409
g4053
(S's\x08\x00\x00\x00DB Model'
tRp4410
asbasbasbag48
(g64
g50
NtRp4411
(dp4412
g53
(dp4413
sg62
g4394
sg55
(lp4414
g48
(g69
g50
NtRp4415
(dp4416
g53
(dp4417
sg62
g4411
sg55
(lp4418
g48
(g49
g50
NtRp4419
(dp4420
g53
(dp4421
g61
I1
ssg62
g4415
sg55
(lp4422
I00
asbasbasbag48
(g64
g50
NtRp4423
(dp4424
g53
(dp4425
sg62
g4394
sg55
(lp4426
g48
(g69
g50
NtRp4427
(dp4428
g53
(dp4429
sg62
g4423
sg55
(lp4430
g48
(g49
g50
NtRp4431
(dp4432
g53
(dp4433
g61
I1
ssg62
g4427
sg55
(lp4434
S'/admin/default/edit/init/models/db.py'
p4435
asbasbasbasbasbasbasbag48
(g64
g50
NtRp4436
(dp4437
g53
(dp4438
sg62
g4162
sg55
(lp4439
g48
(g69
g50
NtRp4440
(dp4441
g53
(dp4442
sg62
g4436
sg55
(lp4443
g48
(g49
g50
NtRp4444
(dp4445
g53
(dp4446
g61
I2
ssg62
g4440
sg55
(lp4447
g48
(g57
g50
NtRp4448
(dp4449
g53
(dp4450
g61
I1
ssg62
Nsg55
(lp4451
g48
(g64
g50
NtRp4452
(dp4453
g53
(dp4454
sg62
g4448
sg55
(lp4455
g48
(g69
g50
NtRp4456
(dp4457
g53
(dp4458
sg62
g4452
sg55
(lp4459
g48
(g49
g50
NtRp4460
(dp4461
g53
(dp4462
g61
I1
ssg62
g4456
sg55
(lp4463
g4053
(S's\n\x00\x00\x00Menu Model'
tRp4464
asbasbasbag48
(g64
g50
NtRp4465
(dp4466
g53
(dp4467
sg62
g4448
sg55
(lp4468
g48
(g69
g50
NtRp4469
(dp4470
g53
(dp4471
sg62
g4465
sg55
(lp4472
g48
(g49
g50
NtRp4473
(dp4474
g53
(dp4475
g61
I1
ssg62
g4469
sg55
(lp4476
I00
asbasbasbag48
(g64
g50
NtRp4477
(dp4478
g53
(dp4479
sg62
g4448
sg55
(lp4480
g48
(g69
g50
NtRp4481
(dp4482
g53
(dp4483
sg62
g4477
sg55
(lp4484
g48
(g49
g50
NtRp4485
(dp4486
g53
(dp4487
g61
I1
ssg62
g4481
sg55
(lp4488
S'/admin/default/edit/init/models/menu.py'
p4489
asbasbasbasbasbasbasbag48
(g64
g50
NtRp4490
(dp4491
g53
(dp4492
sg62
g4162
sg55
(lp4493
g48
(g69
g50
NtRp4494
(dp4495
g53
(dp4496
sg62
g4490
sg55
(lp4497
g48
(g49
g50
NtRp4498
(dp4499
g53
(dp4500
g61
I2
ssg62
g4494
sg55
(lp4501
g48
(g57
g50
NtRp4502
(dp4503
g53
(dp4504
g61
I1
ssg62
Nsg55
(lp4505
g48
(g64
g50
NtRp4506
(dp4507
g53
(dp4508
sg62
g4502
sg55
(lp4509
g48
(g69
g50
NtRp4510
(dp4511
g53
(dp4512
sg62
g4506
sg55
(lp4513
g48
(g49
g50
NtRp4514
(dp4515
g53
(dp4516
g61
I1
ssg62
g4510
sg55
(lp4517
g4053
(S's\x08\x00\x00\x00Database'
tRp4518
asbasbasbag48
(g64
g50
NtRp4519
(dp4520
g53
(dp4521
sg62
g4502
sg55
(lp4522
g48
(g69
g50
NtRp4523
(dp4524
g53
(dp4525
sg62
g4519
sg55
(lp4526
g48
(g49
g50
NtRp4527
(dp4528
g53
(dp4529
g61
I1
ssg62
g4523
sg55
(lp4530
I00
asbasbasbag48
(g64
g50
NtRp4531
(dp4532
g53
(dp4533
sg62
g4502
sg55
(lp4534
g48
(g69
g50
NtRp4535
(dp4536
g53
(dp4537
sg62
g4531
sg55
(lp4538
g48
(g49
g50
NtRp4539
(dp4540
g53
(dp4541
g61
I1
ssg62
g4535
sg55
(lp4542
S'/init/appadmin/index'
p4543
asbasbasbasbasbasbasbag48
(g64
g50
NtRp4544
(dp4545
g53
(dp4546
sg62
g4162
sg55
(lp4547
g48
(g69
g50
NtRp4548
(dp4549
g53
(dp4550
sg62
g4544
sg55
(lp4551
g48
(g49
g50
NtRp4552
(dp4553
g53
(dp4554
g61
I2
ssg62
g4548
sg55
(lp4555
g48
(g57
g50
NtRp4556
(dp4557
g53
(dp4558
g61
I1
ssg62
Nsg55
(lp4559
g48
(g64
g50
NtRp4560
(dp4561
g53
(dp4562
sg62
g4556
sg55
(lp4563
g48
(g69
g50
NtRp4564
(dp4565
g53
(dp4566
sg62
g4560
sg55
(lp4567
g48
(g49
g50
NtRp4568
(dp4569
g53
(dp4570
g61
I1
ssg62
g4564
sg55
(lp4571
g4053
(S's\x06\x00\x00\x00Errors'
tRp4572
asbasbasbag48
(g64
g50
NtRp4573
(dp4574
g53
(dp4575
sg62
g4556
sg55
(lp4576
g48
(g69
g50
NtRp4577
(dp4578
g53
(dp4579
sg62
g4573
sg55
(lp4580
g48
(g49
g50
NtRp4581
(dp4582
g53
(dp4583
g61
I1
ssg62
g4577
sg55
(lp4584
I00
asbasbasbag48
(g64
g50
NtRp4585
(dp4586
g53
(dp4587
sg62
g4556
sg55
(lp4588
g48
(g69
g50
NtRp4589
(dp4590
g53
(dp4591
sg62
g4585
sg55
(lp4592
g48
(g49
g50
NtRp4593
(dp4594
g53
(dp4595
g61
I1
ssg62
g4589
sg55
(lp4596
S'/admin/default/errors/init'
p4597
asbasbasbasbasbasbasbag48
(g64
g50
NtRp4598
(dp4599
g53
(dp4600
sg62
g4162
sg55
(lp4601
g48
(g69
g50
NtRp4602
(dp4603
g53
(dp4604
sg62
g4598
sg55
(lp4605
g48
(g49
g50
NtRp4606
(dp4607
g53
(dp4608
g61
I2
ssg62
g4602
sg55
(lp4609
g48
(g57
g50
NtRp4610
(dp4611
g53
(dp4612
g61
I1
ssg62
Nsg55
(lp4613
g48
(g64
g50
NtRp4614
(dp4615
g53
(dp4616
sg62
g4610
sg55
(lp4617
g48
(g69
g50
NtRp4618
(dp4619
g53
(dp4620
sg62
g4614
sg55
(lp4621
g48
(g49
g50
NtRp4622
(dp4623
g53
(dp4624
g61
I1
ssg62
g4618
sg55
(lp4625
g4053
(S's\x05\x00\x00\x00About'
tRp4626
asbasbasbag48
(g64
g50
NtRp4627
(dp4628
g53
(dp4629
sg62
g4610
sg55
(lp4630
g48
(g69
g50
NtRp4631
(dp4632
g53
(dp4633
sg62
g4627
sg55
(lp4634
g48
(g49
g50
NtRp4635
(dp4636
g53
(dp4637
g61
I1
ssg62
g4631
sg55
(lp4638
I00
asbasbasbag48
(g64
g50
NtRp4639
(dp4640
g53
(dp4641
sg62
g4610
sg55
(lp4642
g48
(g69
g50
NtRp4643
(dp4644
g53
(dp4645
sg62
g4639
sg55
(lp4646
g48
(g49
g50
NtRp4647
(dp4648
g53
(dp4649
g61
I1
ssg62
g4643
sg55
(lp4650
S'/admin/default/about/init'
p4651
asbasbasbasbasbasbasbasbasbasbasbasbasbasbasbag48
(g64
g50
NtRp4652
(dp4653
g53
(dp4654
sg62
g4021
sg55
(lp4655
g48
(g69
g50
NtRp4656
(dp4657
g53
(dp4658
sg62
g4652
sg55
(lp4659
g48
(g49
g50
NtRp4660
(dp4661
g53
(dp4662
g61
I4
ssg62
g4656
sg55
(lp4663
g48
(g57
g50
NtRp4664
(dp4665
g53
(dp4666
g61
I3
ssg62
Nsg55
(lp4667
g48
(g64
g50
NtRp4668
(dp4669
g53
(dp4670
sg62
g4664
sg55
(lp4671
g48
(g69
g50
NtRp4672
(dp4673
g53
(dp4674
sg62
g4668
sg55
(lp4675
g48
(g49
g50
NtRp4676
(dp4677
g53
(dp4678
g61
I3
ssg62
g4672
sg55
(lp4679
g4053
(S's\t\x00\x00\x00Resources'
tRp4680
asbasbasbag48
(g64
g50
NtRp4681
(dp4682
g53
(dp4683
sg62
g4664
sg55
(lp4684
g48
(g69
g50
NtRp4685
(dp4686
g53
(dp4687
sg62
g4681
sg55
(lp4688
g48
(g49
g50
NtRp4689
(dp4690
g53
(dp4691
g61
I3
ssg62
g4685
sg55
(lp4692
g91
asbasbasbag48
(g64
g50
NtRp4693
(dp4694
g53
(dp4695
sg62
g4664
sg55
(lp4696
g48
(g69
g50
NtRp4697
(dp4698
g53
(dp4699
sg62
g4693
sg55
(lp4700
g48
(g49
g50
NtRp4701
(dp4702
g53
(dp4703
g61
I3
ssg62
g4697
sg55
(lp4704
S'None'
p4705
asbasbasbag48
(g64
g50
NtRp4706
(dp4707
g53
(dp4708
sg62
g4664
sg55
(lp4709
g48
(g69
g50
NtRp4710
(dp4711
g53
(dp4712
sg62
g4706
sg55
(lp4713
g48
(g49
g50
NtRp4714
(dp4715
g53
(dp4716
g61
I3
ssg62
g4710
sg55
(lp4717
g48
(g57
g50
NtRp4718
(dp4719
g53
(dp4720
g61
I2
ssg62
Nsg55
(lp4721
g48
(g64
g50
NtRp4722
(dp4723
g53
(dp4724
sg62
g4718
sg55
(lp4725
g48
(g69
g50
NtRp4726
(dp4727
g53
(dp4728
sg62
g4722
sg55
(lp4729
g48
(g49
g50
NtRp4730
(dp4731
g53
(dp4732
g61
I2
ssg62
g4726
sg55
(lp4733
g48
(g57
g50
NtRp4734
(dp4735
g53
(dp4736
g61
I1
ssg62
Nsg55
(lp4737
g48
(g64
g50
NtRp4738
(dp4739
g53
(dp4740
sg62
g4734
sg55
(lp4741
g48
(g69
g50
NtRp4742
(dp4743
g53
(dp4744
sg62
g4738
sg55
(lp4745
g48
(g49
g50
NtRp4746
(dp4747
g53
(dp4748
g61
I1
ssg62
g4742
sg55
(lp4749
g4053
(S's\r\x00\x00\x00Documentation'
tRp4750
asbasbasbag48
(g64
g50
NtRp4751
(dp4752
g53
(dp4753
sg62
g4734
sg55
(lp4754
g48
(g69
g50
NtRp4755
(dp4756
g53
(dp4757
sg62
g4751
sg55
(lp4758
g48
(g49
g50
NtRp4759
(dp4760
g53
(dp4761
g61
I1
ssg62
g4755
sg55
(lp4762
I00
asbasbasbag48
(g64
g50
NtRp4763
(dp4764
g53
(dp4765
sg62
g4734
sg55
(lp4766
g48
(g69
g50
NtRp4767
(dp4768
g53
(dp4769
sg62
g4763
sg55
(lp4770
g48
(g49
g50
NtRp4771
(dp4772
g53
(dp4773
g61
I1
ssg62
g4767
sg55
(lp4774
S'http://www.web2py.com/book'
p4775
asbasbasbag48
(g64
g50
NtRp4776
(dp4777
g53
(dp4778
sg62
g4734
sg55
(lp4779
g48
(g69
g50
NtRp4780
(dp4781
g53
(dp4782
sg62
g4776
sg55
(lp4783
g48
(g49
g50
NtRp4784
(dp4785
g53
(dp4786
g61
I1
ssg62
g4780
sg55
(lp4787
(lp4788
(g4053
(S's\x07\x00\x00\x00Preface'
tRp4789
I00
S'http://www.web2py.com/book/default/chapter/00'
p4790
tp4791
a(g4053
(S's\x0c\x00\x00\x00Introduction'
tRp4792
I00
S'http://www.web2py.com/book/default/chapter/01'
p4793
tp4794
a(g4053
(S's\x06\x00\x00\x00Python'
tRp4795
I00
S'http://www.web2py.com/book/default/chapter/02'
p4796
tp4797
a(g4053
(S's\x08\x00\x00\x00Overview'
tRp4798
I00
S'http://www.web2py.com/book/default/chapter/03'
p4799
tp4800
a(g4053
(S's\x08\x00\x00\x00The Core'
tRp4801
I00
S'http://www.web2py.com/book/default/chapter/04'
p4802
tp4803
a(g4053
(S's\t\x00\x00\x00The Views'
tRp4804
I00
S'http://www.web2py.com/book/default/chapter/05'
p4805
tp4806
a(g4053
(S's\x08\x00\x00\x00Database'
tRp4807
I00
S'http://www.web2py.com/book/default/chapter/06'
p4808
tp4809
a(g4053
(S's\x14\x00\x00\x00Forms and Validators'
tRp4810
I00
S'http://www.web2py.com/book/default/chapter/07'
p4811
tp4812
a(g4053
(S's\x0e\x00\x00\x00Access Control'
tRp4813
I00
S'http://www.web2py.com/book/default/chapter/08'
p4814
tp4815
a(g4053
(S's\x08\x00\x00\x00Services'
tRp4816
I00
S'http://www.web2py.com/book/default/chapter/09'
p4817
tp4818
a(g4053
(S's\x0c\x00\x00\x00Ajax Recipes'
tRp4819
I00
S'http://www.web2py.com/book/default/chapter/10'
p4820
tp4821
a(g4053
(S's\x12\x00\x00\x00Deployment Recipes'
tRp4822
I00
S'http://www.web2py.com/book/default/chapter/11'
p4823
tp4824
a(g4053
(S's\r\x00\x00\x00Other Recipes'
tRp4825
I00
S'http://www.web2py.com/book/default/chapter/12'
p4826
tp4827
a(g4053
(S's\r\x00\x00\x00Buy this book'
tRp4828
I00
S'http://stores.lulu.com/web2py'
p4829
tp4830
aasbasbasbasbasbasbasbag48
(g64
g50
NtRp4831
(dp4832
g53
(dp4833
sg62
g4718
sg55
(lp4834
g48
(g69
g50
NtRp4835
(dp4836
g53
(dp4837
sg62
g4831
sg55
(lp4838
g48
(g49
g50
NtRp4839
(dp4840
g53
(dp4841
g61
I2
ssg62
g4835
sg55
(lp4842
g48
(g57
g50
NtRp4843
(dp4844
g53
(dp4845
g61
I1
ssg62
Nsg55
(lp4846
g48
(g64
g50
NtRp4847
(dp4848
g53
(dp4849
sg62
g4843
sg55
(lp4850
g48
(g69
g50
NtRp4851
(dp4852
g53
(dp4853
sg62
g4847
sg55
(lp4854
g48
(g49
g50
NtRp4855
(dp4856
g53
(dp4857
g61
I1
ssg62
g4851
sg55
(lp4858
g4053
(S's\t\x00\x00\x00Community'
tRp4859
asbasbasbag48
(g64
g50
NtRp4860
(dp4861
g53
(dp4862
sg62
g4843
sg55
(lp4863
g48
(g69
g50
NtRp4864
(dp4865
g53
(dp4866
sg62
g4860
sg55
(lp4867
g48
(g49
g50
NtRp4868
(dp4869
g53
(dp4870
g61
I1
ssg62
g4864
sg55
(lp4871
I00
asbasbasbag48
(g64
g50
NtRp4872
(dp4873
g53
(dp4874
sg62
g4843
sg55
(lp4875
g48
(g69
g50
NtRp4876
(dp4877
g53
(dp4878
sg62
g4872
sg55
(lp4879
g48
(g49
g50
NtRp4880
(dp4881
g53
(dp4882
g61
I1
ssg62
g4876
sg55
(lp4883
Nasbasbasbag48
(g64
g50
NtRp4884
(dp4885
g53
(dp4886
sg62
g4843
sg55
(lp4887
g48
(g69
g50
NtRp4888
(dp4889
g53
(dp4890
sg62
g4884
sg55
(lp4891
g48
(g49
g50
NtRp4892
(dp4893
g53
(dp4894
g61
I1
ssg62
g4888
sg55
(lp4895
(lp4896
(g4053
(S's\x06\x00\x00\x00Groups'
tRp4897
I00
S'http://www.web2py.com/examples/default/usergroups'
p4898
tp4899
a(g4053
(S's\x07\x00\x00\x00Twitter'
tRp4900
I00
S'http://twitter.com/web2py'
p4901
tp4902
a(g4053
(S's\t\x00\x00\x00Live chat'
tRp4903
I00
S'http://mibbit.com/?channel=%23web2py&server=irc.mibbit.net'
p4904
tp4905
a(g4053
(S's\n\x00\x00\x00User Voice'
tRp4906
I00
S'http://web2py.uservoice.com/'
p4907
tp4908
aasbasbasbasbasbasbasbag48
(g64
g50
NtRp4909
(dp4910
g53
(dp4911
sg62
g4718
sg55
(lp4912
g48
(g69
g50
NtRp4913
(dp4914
g53
(dp4915
sg62
g4909
sg55
(lp4916
g48
(g49
g50
NtRp4917
(dp4918
g53
(dp4919
g61
I2
ssg62
g4913
sg55
(lp4920
g48
(g57
g50
NtRp4921
(dp4922
g53
(dp4923
g61
I1
ssg62
Nsg55
(lp4924
g48
(g64
g50
NtRp4925
(dp4926
g53
(dp4927
sg62
g4921
sg55
(lp4928
g48
(g69
g50
NtRp4929
(dp4930
g53
(dp4931
sg62
g4925
sg55
(lp4932
g48
(g49
g50
NtRp4933
(dp4934
g53
(dp4935
g61
I1
ssg62
g4929
sg55
(lp4936
g4053
(S's\x06\x00\x00\x00Web2py'
tRp4937
asbasbasbag48
(g64
g50
NtRp4938
(dp4939
g53
(dp4940
sg62
g4921
sg55
(lp4941
g48
(g69
g50
NtRp4942
(dp4943
g53
(dp4944
sg62
g4938
sg55
(lp4945
g48
(g49
g50
NtRp4946
(dp4947
g53
(dp4948
g61
I1
ssg62
g4942
sg55
(lp4949
I00
asbasbasbag48
(g64
g50
NtRp4950
(dp4951
g53
(dp4952
sg62
g4921
sg55
(lp4953
g48
(g69
g50
NtRp4954
(dp4955
g53
(dp4956
sg62
g4950
sg55
(lp4957
g48
(g49
g50
NtRp4958
(dp4959
g53
(dp4960
g61
I1
ssg62
g4954
sg55
(lp4961
S'http://www.web2py.com'
p4962
asbasbasbag48
(g64
g50
NtRp4963
(dp4964
g53
(dp4965
sg62
g4921
sg55
(lp4966
g48
(g69
g50
NtRp4967
(dp4968
g53
(dp4969
sg62
g4963
sg55
(lp4970
g48
(g49
g50
NtRp4971
(dp4972
g53
(dp4973
g61
I1
ssg62
g4967
sg55
(lp4974
(lp4975
(g4053
(S's\x08\x00\x00\x00Download'
tRp4976
I00
S'http://www.web2py.com/examples/default/download'
p4977
tp4978
a(g4053
(S's\x07\x00\x00\x00Support'
tRp4979
I00
S'http://www.web2py.com/examples/default/support'
p4980
tp4981
a(g4053
(S's\x0e\x00\x00\x00Quick Examples'
tRp4982
I00
S'http://web2py.com/examples/default/examples'
p4983
tp4984
a(g4053
(S's\x03\x00\x00\x00FAQ'
tRp4985
I00
S'http://web2py.com/AlterEgo'
p4986
tp4987
a(g4053
(S's\x11\x00\x00\x00Free Applications'
tRp4988
I00
S'http://web2py.com/appliances'
p4989
tp4990
a(g4053
(S's\x07\x00\x00\x00Plugins'
tRp4991
I00
S'http://web2py.com/plugins'
p4992
tp4993
a(g4053
(S's\x07\x00\x00\x00Recipes'
tRp4994
I00
S'http://web2pyslices.com/'
p4995
tp4996
a(g4053
(S's\x04\x00\x00\x00Demo'
tRp4997
I00
S'http://web2py.com/demo_admin'
p4998
tp4999
a(g4053
(S's\x08\x00\x00\x00Semantic'
tRp5000
I00
S'http://web2py.com/semantic'
p5001
tp5002
a(g4053
(S's\x07\x00\x00\x00Layouts'
tRp5003
I00
S'http://web2py.com/layouts'
p5004
tp5005
a(g4053
(S's\x06\x00\x00\x00Videos'
tRp5006
I00
S'http://www.web2py.com/examples/default/videos/'
p5007
tp5008
aasbasbasbasbasbasbasbasbasbasbasbasbasbasbasbasbasbasbasbag48
(g64
g50
NtRp5009
(dp5010
g53
(dp5011
sg62
g3490
sg55
(lp5012
g48
(g69
g50
NtRp5013
(dp5014
g53
(dp5015
g73
g74
ssg62
g5009
sg55
(lp5016
S'meta'
p5017
asbag48
(g69
g50
NtRp5018
(dp5019
g53
(dp5020
g80
g81
ssg62
g5009
sg55
(lp5021
S':'
asbag48
(g69
g50
NtRp5022
(dp5023
g53
(dp5024
sg62
g5009
sg55
(lp5025
g48
(g49
g50
NtRp5026
(dp5027
g53
(dp5028
g61
I5
ssg62
g5022
sg55
(lp5029
g48
(g57
g50
NtRp5030
(dp5031
g53
(dp5032
g61
I4
ssg62
Nsg55
(lp5033
g48
(g64
g50
NtRp5034
(dp5035
g53
(dp5036
sg62
g5030
sg55
(lp5037
g48
(g69
g50
NtRp5038
(dp5039
g53
(dp5040
g73
g74
ssg62
g5034
sg55
(lp5041
S'author'
p5042
asbag48
(g69
g50
NtRp5043
(dp5044
g53
(dp5045
g80
g81
ssg62
g5034
sg55
(lp5046
S':'
asbag48
(g69
g50
NtRp5047
(dp5048
g53
(dp5049
sg62
g5034
sg55
(lp5050
g48
(g49
g50
NtRp5051
(dp5052
g53
(dp5053
g61
I4
ssg62
g5047
sg55
(lp5054
S'Your Name <you@example.com>'
p5055
asbasbasbag48
(g64
g50
NtRp5056
(dp5057
g53
(dp5058
sg62
g5030
sg55
(lp5059
g48
(g69
g50
NtRp5060
(dp5061
g53
(dp5062
g73
g74
ssg62
g5056
sg55
(lp5063
S'copyright'
p5064
asbag48
(g69
g50
NtRp5065
(dp5066
g53
(dp5067
g80
g81
ssg62
g5056
sg55
(lp5068
S':'
asbag48
(g69
g50
NtRp5069
(dp5070
g53
(dp5071
sg62
g5056
sg55
(lp5072
g48
(g49
g50
NtRp5073
(dp5074
g53
(dp5075
g61
I4
ssg62
g5069
sg55
(lp5076
S'Copyright 2011'
p5077
asbasbasbag48
(g64
g50
NtRp5078
(dp5079
g53
(dp5080
sg62
g5030
sg55
(lp5081
g48
(g69
g50
NtRp5082
(dp5083
g53
(dp5084
g73
g74
ssg62
g5078
sg55
(lp5085
S'description'
p5086
asbag48
(g69
g50
NtRp5087
(dp5088
g53
(dp5089
g80
g81
ssg62
g5078
sg55
(lp5090
S':'
asbag48
(g69
g50
NtRp5091
(dp5092
g53
(dp5093
sg62
g5078
sg55
(lp5094
g48
(g49
g50
NtRp5095
(dp5096
g53
(dp5097
g61
I4
ssg62
g5091
sg55
(lp5098
S'a cool new app'
p5099
asbasbasbag48
(g64
g50
NtRp5100
(dp5101
g53
(dp5102
sg62
g5030
sg55
(lp5103
g48
(g69
g50
NtRp5104
(dp5105
g53
(dp5106
g73
g74
ssg62
g5100
sg55
(lp5107
S'generator'
p5108
asbag48
(g69
g50
NtRp5109
(dp5110
g53
(dp5111
g80
g81
ssg62
g5100
sg55
(lp5112
S':'
asbag48
(g69
g50
NtRp5113
(dp5114
g53
(dp5115
sg62
g5100
sg55
(lp5116
g48
(g49
g50
NtRp5117
(dp5118
g53
(dp5119
g61
I4
ssg62
g5113
sg55
(lp5120
S'Web2py Web Framework'
p5121
asbasbasbag48
(g64
g50
NtRp5122
(dp5123
g53
(dp5124
sg62
g5030
sg55
(lp5125
g48
(g69
g50
NtRp5126
(dp5127
g53
(dp5128
g73
g74
ssg62
g5122
sg55
(lp5129
S'keywords'
p5130
asbag48
(g69
g50
NtRp5131
(dp5132
g53
(dp5133
g80
g81
ssg62
g5122
sg55
(lp5134
S':'
asbag48
(g69
g50
NtRp5135
(dp5136
g53
(dp5137
sg62
g5122
sg55
(lp5138
g48
(g49
g50
NtRp5139
(dp5140
g53
(dp5141
g61
I4
ssg62
g5135
sg55
(lp5142
S'web2py, python, framework'
p5143
asbasbasbasbasbasbasbag48
(g64
g50
NtRp5144
(dp5145
g53
(dp5146
sg62
g3490
sg55
(lp5147
g48
(g69
g50
NtRp5148
(dp5149
g53
(dp5150
g73
g74
ssg62
g5144
sg55
(lp5151
S'postprocessing'
p5152
asbag48
(g69
g50
NtRp5153
(dp5154
g53
(dp5155
g80
g81
ssg62
g5144
sg55
(lp5156
S':'
asbag48
(g69
g50
NtRp5157
(dp5158
g53
(dp5159
sg62
g5144
sg55
(lp5160
g48
(g49
g50
NtRp5161
(dp5162
g53
(dp5163
g61
I5
ssg62
g5157
sg55
(lp5164
g48
(g57
g50
NtRp5165
(dp5166
g53
(dp5167
g61
I4
ssg62
Nsg55
(lp5168
sbasbasbasbag48
(g64
g50
NtRp5169
(dp5170
g53
(dp5171
sg62
g3490
sg55
(lp5172
g48
(g69
g50
NtRp5173
(dp5174
g53
(dp5175
g73
g74
ssg62
g5169
sg55
(lp5176
S'session_file'
p5177
asbag48
(g69
g50
NtRp5178
(dp5179
g53
(dp5180
g80
g81
ssg62
g5169
sg55
(lp5181
S':'
asbag48
(g69
g50
NtRp5182
(dp5183
g53
(dp5184
sg62
g5169
sg55
(lp5185
g48
(g49
g50
NtRp5186
(dp5187
g53
(dp5188
g61
I5
ssg62
g5182
sg55
(lp5189
S"<open file 'P:\\Workbench\\DevEnv\\web2py\\applications\\init\\sessions\\127.0.0.1-b664747d-5a4d-45cc-a1d2-dd0447ed1e85', mode 'rb+' at 0x06C30D10>"
p5190
asbasbasbag48
(g64
g50
NtRp5191
(dp5192
g53
(dp5193
sg62
g3490
sg55
(lp5194
g48
(g69
g50
NtRp5195
(dp5196
g53
(dp5197
g73
g74
ssg62
g5191
sg55
(lp5198
S'session_filename'
p5199
asbag48
(g69
g50
NtRp5200
(dp5201
g53
(dp5202
g80
g81
ssg62
g5191
sg55
(lp5203
S':'
asbag48
(g69
g50
NtRp5204
(dp5205
g53
(dp5206
sg62
g5191
sg55
(lp5207
g48
(g49
g50
NtRp5208
(dp5209
g53
(dp5210
g61
I5
ssg62
g5204
sg55
(lp5211
S'P:\\Workbench\\DevEnv\\web2py\\applications\\init\\sessions\\127.0.0.1-b664747d-5a4d-45cc-a1d2-dd0447ed1e85'
p5212
asbasbasbag48
(g64
g50
NtRp5213
(dp5214
g53
(dp5215
sg62
g3490
sg55
(lp5216
g48
(g69
g50
NtRp5217
(dp5218
g53
(dp5219
g73
g74
ssg62
g5213
sg55
(lp5220
S'session_id'
p5221
asbag48
(g69
g50
NtRp5222
(dp5223
g53
(dp5224
g80
g81
ssg62
g5213
sg55
(lp5225
S':'
asbag48
(g69
g50
NtRp5226
(dp5227
g53
(dp5228
sg62
g5213
sg55
(lp5229
g48
(g49
g50
NtRp5230
(dp5231
g53
(dp5232
g61
I5
ssg62
g5226
sg55
(lp5233
S'127.0.0.1-b664747d-5a4d-45cc-a1d2-dd0447ed1e85'
p5234
asbasbasbag48
(g64
g50
NtRp5235
(dp5236
g53
(dp5237
sg62
g3490
sg55
(lp5238
g48
(g69
g50
NtRp5239
(dp5240
g53
(dp5241
g73
g74
ssg62
g5235
sg55
(lp5242
S'session_id_name'
p5243
asbag48
(g69
g50
NtRp5244
(dp5245
g53
(dp5246
g80
g81
ssg62
g5235
sg55
(lp5247
S':'
asbag48
(g69
g50
NtRp5248
(dp5249
g53
(dp5250
sg62
g5235
sg55
(lp5251
g48
(g49
g50
NtRp5252
(dp5253
g53
(dp5254
g61
I5
ssg62
g5248
sg55
(lp5255
g3547
asbasbasbag48
(g64
g50
NtRp5256
(dp5257
g53
(dp5258
sg62
g3490
sg55
(lp5259
g48
(g69
g50
NtRp5260
(dp5261
g53
(dp5262
g73
g74
ssg62
g5256
sg55
(lp5263
S'session_locked'
p5264
asbag48
(g69
g50
NtRp5265
(dp5266
g53
(dp5267
g80
g81
ssg62
g5256
sg55
(lp5268
S':'
asbag48
(g69
g50
NtRp5269
(dp5270
g53
(dp5271
sg62
g5256
sg55
(lp5272
g48
(g49
g50
NtRp5273
(dp5274
g53
(dp5275
g61
I5
ssg62
g5269
sg55
(lp5276
g2095
asbasbasbag48
(g64
g50
NtRp5277
(dp5278
g53
(dp5279
sg62
g3490
sg55
(lp5280
g48
(g69
g50
NtRp5281
(dp5282
g53
(dp5283
g73
g74
ssg62
g5277
sg55
(lp5284
S'session_new'
p5285
asbag48
(g69
g50
NtRp5286
(dp5287
g53
(dp5288
g80
g81
ssg62
g5277
sg55
(lp5289
S':'
asbag48
(g69
g50
NtRp5290
(dp5291
g53
(dp5292
sg62
g5277
sg55
(lp5293
g48
(g49
g50
NtRp5294
(dp5295
g53
(dp5296
g61
I5
ssg62
g5290
sg55
(lp5297
g91
asbasbasbag48
(g64
g50
NtRp5298
(dp5299
g53
(dp5300
sg62
g3490
sg55
(lp5301
g48
(g69
g50
NtRp5302
(dp5303
g53
(dp5304
g73
g74
ssg62
g5298
sg55
(lp5305
S'status'
p5306
asbag48
(g69
g50
NtRp5307
(dp5308
g53
(dp5309
g80
g81
ssg62
g5298
sg55
(lp5310
S':'
asbag48
(g69
g50
NtRp5311
(dp5312
g53
(dp5313
sg62
g5298
sg55
(lp5314
g48
(g49
g50
NtRp5315
(dp5316
g53
(dp5317
g61
I5
ssg62
g5311
sg55
(lp5318
S'200'
p5319
asbasbasbag48
(g64
g50
NtRp5320
(dp5321
g53
(dp5322
sg62
g3490
sg55
(lp5323
g48
(g69
g50
NtRp5324
(dp5325
g53
(dp5326
g73
g74
ssg62
g5320
sg55
(lp5327
S'subtitle'
p5328
asbag48
(g69
g50
NtRp5329
(dp5330
g53
(dp5331
g80
g81
ssg62
g5320
sg55
(lp5332
S':'
asbag48
(g69
g50
NtRp5333
(dp5334
g53
(dp5335
sg62
g5320
sg55
(lp5336
g48
(g49
g50
NtRp5337
(dp5338
g53
(dp5339
g61
I5
ssg62
g5333
sg55
(lp5340
g4053
(S's\r\x00\x00\x00customize me!'
tRp5341
asbasbasbag48
(g64
g50
NtRp5342
(dp5343
g53
(dp5344
sg62
g3490
sg55
(lp5345
g48
(g69
g50
NtRp5346
(dp5347
g53
(dp5348
g73
g74
ssg62
g5342
sg55
(lp5349
S'title'
p5350
asbag48
(g69
g50
NtRp5351
(dp5352
g53
(dp5353
g80
g81
ssg62
g5342
sg55
(lp5354
S':'
asbag48
(g69
g50
NtRp5355
(dp5356
g53
(dp5357
sg62
g5342
sg55
(lp5358
g48
(g49
g50
NtRp5359
(dp5360
g53
(dp5361
g61
I5
ssg62
g5355
sg55
(lp5362
g113
asbasbasbag48
(g64
g50
NtRp5363
(dp5364
g53
(dp5365
sg62
g3490
sg55
(lp5366
g48
(g69
g50
NtRp5367
(dp5368
g53
(dp5369
g73
g74
ssg62
g5363
sg55
(lp5370
g2761
asbag48
(g69
g50
NtRp5371
(dp5372
g53
(dp5373
g80
g81
ssg62
g5363
sg55
(lp5374
S':'
asbag48
(g69
g50
NtRp5375
(dp5376
g53
(dp5377
sg62
g5363
sg55
(lp5378
g48
(g49
g50
NtRp5379
(dp5380
g53
(dp5381
g61
I5
ssg62
g5375
sg55
(lp5382
g2774
asbasbasbag48
(g64
g50
NtRp5383
(dp5384
g53
(dp5385
sg62
g3490
sg55
(lp5386
g48
(g69
g50
NtRp5387
(dp5388
g53
(dp5389
g73
g74
ssg62
g5383
sg55
(lp5390
S'view'
p5391
asbag48
(g69
g50
NtRp5392
(dp5393
g53
(dp5394
g80
g81
ssg62
g5383
sg55
(lp5395
S':'
asbag48
(g69
g50
NtRp5396
(dp5397
g53
(dp5398
sg62
g5383
sg55
(lp5399
g48
(g49
g50
NtRp5400
(dp5401
g53
(dp5402
g61
I5
ssg62
g5396
sg55
(lp5403
S'default/user.html'
p5404
asbasbasbasbasbsS'locals'
p5405
(dp5406
S'Service'
p5407
S"<class 'gluon.tools.Service'>"
p5408
sS'OBJECT'
p5409
S"<class 'gluon.html.OBJECT'>"
p5410
sS'SQLDB'
p5411
S"<class 'gluon.dal.DAL'>"
p5412
sg3472
S"<Storage {'_formkey[register]': '475dec9e-6010-4...: '\\xfd\\xec\\xee\\xe5q\\xc6\\x11\\x0b{\\xa0uFbXF\\x01'}>"
p5413
sS'LINK'
p5414
S"<class 'gluon.html.LINK'>"
p5415
sS'BR'
p5416
S"<class 'gluon.html.BR'>"
p5417
sS'local_import'
p5418
S'<function <lambda> at 0x044668F0>'
p5419
sS'OPTGROUP'
p5420
S"<class 'gluon.html.OPTGROUP'>"
p5421
sS'PRE'
p5422
S"<class 'gluon.html.PRE'>"
p5423
sS'IS_INT_IN_RANGE'
p5424
S"<class 'gluon.validators.IS_INT_IN_RANGE'>"
p5425
sS'left_sidebar_enabled'
p5426
g91
sS'IS_LOWER'
p5427
S"<class 'gluon.validators.IS_LOWER'>"
p5428
sS'IS_STRONG'
p5429
S"<class 'gluon.validators.IS_STRONG'>"
p5430
sS'cache'
p5431
S'<gluon.cache.Cache object at 0x06F01130>'
p5432
sS'IS_IN_DB'
p5433
S"<class 'gluon.validators.IS_IN_DB'>"
p5434
sS'TAG'
p5435
S'<gluon.html.__TAG__ object at 0x02390730>'
p5436
sS'SQLField'
p5437
S"<class 'gluon.dal.Field'>"
p5438
sS'mail'
p5439
S'<gluon.tools.Mail object at 0x03CA9170>'
p5440
sS'BODY'
p5441
S"<class 'gluon.html.BODY'>"
p5442
sS'IS_DATE_IN_RANGE'
p5443
S"<class 'gluon.validators.IS_DATE_IN_RANGE'>"
p5444
sS'TH'
p5445
S"<class 'gluon.html.TH'>"
p5446
sS'URL'
p5447
S'<function URL at 0x023E9B70>'
p5448
sS'__file__'
p5449
S"r'P:\\Workbench\\DevEnv\\web2py\\applications\\init\\views\\default/user.html'"
p5450
sS'db'
p5451
S"<DAL {'auth_event': <Table {'origin': <gluon.dal...'_id': <gluon.dal.Field object at 0x078E7570>}>}>"
p5452
sS'auth'
p5453
S'<gluon.tools.Auth object at 0x03CA9B90>'
p5454
sS'P'
S"<class 'gluon.html.P'>"
p5455
sS'TFOOT'
p5456
S"<class 'gluon.html.TFOOT'>"
p5457
sS'XHTML'
p5458
S"<class 'gluon.html.XHTML'>"
p5459
sS'ON'
p5460
g2095
sS'OL'
p5461
S"<class 'gluon.html.OL'>"
p5462
sS'TEXTAREA'
p5463
S"<class 'gluon.html.TEXTAREA'>"
p5464
sS'MENU'
p5465
S"<class 'gluon.html.MENU'>"
p5466
sS'LOAD'
p5467
S'<gluon.compileapp.LoadFactory object at 0x06BA4950>'
p5468
sS'CODE'
p5469
S"<class 'gluon.html.CODE'>"
p5470
sS'HTTP'
p5471
S"<class 'gluon.http.HTTP'>"
p5472
sS'HR'
p5473
S"<class 'gluon.html.HR'>"
p5474
sS'IS_DATETIME'
p5475
S"<class 'gluon.validators.IS_DATETIME'>"
p5476
sS'HEAD'
p5477
S"<class 'gluon.html.HEAD'>"
p5478
sS'LABEL'
p5479
S"<class 'gluon.html.LABEL'>"
p5480
sS'CLEANUP'
p5481
S"<class 'gluon.validators.CLEANUP'>"
p5482
sS'plugins'
p5483
S'<gluon.tools.PluginManager object at 0x03B237F0>'
p5484
sS'SELECT'
p5485
S"<class 'gluon.html.SELECT'>"
p5486
sS'use_janrain'
p5487
S'<function use_janrain at 0x03839370>'
p5488
sS'CENTER'
p5489
S"<class 'gluon.html.CENTER'>"
p5490
sS'prettydate'
p5491
S'<function prettydate at 0x02C9D4F0>'
p5492
sS'Crud'
p5493
S"<class 'gluon.tools.Crud'>"
p5494
sS'Auth'
p5495
S"<class 'gluon.tools.Auth'>"
p5496
sS'__builtins__'
p5497
S"{'ArithmeticError': <type 'exceptions.ArithmeticError'>, 'AssertionError': <type 'exceptions.AssertionError'>, 'AttributeError': <type 'exceptions.AttributeError'>, 'BaseException': <type 'exceptions.BaseException'>, 'DeprecationWarning': <type 'exceptions.DeprecationWarning'>, 'EOFError': <type 'exceptions.EOFError'>, 'Ellipsis': Ellipsis, 'EnvironmentError': <type 'exceptions.EnvironmentError'>, 'Exception': <type 'exceptions.Exception'>, 'False': False, ...}"
p5498
sS'HTML'
p5499
S"<class 'gluon.html.HTML'>"
p5500
sS'SQLFORM'
p5501
S"<class 'gluon.sqlhtml.SQLFORM'>"
p5502
sS'EM'
p5503
S"<class 'gluon.html.EM'>"
p5504
sS'redirect'
p5505
S'<function redirect at 0x0212B530>'
p5506
sS'FIELDSET'
p5507
S"<class 'gluon.html.FIELDSET'>"
p5508
sS'IS_EQUAL_TO'
p5509
S"<class 'gluon.validators.IS_EQUAL_TO'>"
p5510
sS'embed64'
p5511
S'<function embed64 at 0x023F06B0>'
p5512
sS'IS_LIST_OF'
p5513
S"<class 'gluon.validators.IS_LIST_OF'>"
p5514
sS'INPUT'
p5515
S"<class 'gluon.html.INPUT'>"
p5516
sS'EMBED'
p5517
S"<class 'gluon.html.EMBED'>"
p5518
sS'_'
S'<function _ at 0x04466470>'
p5519
sS'FORM'
p5520
S"<class 'gluon.html.FORM'>"
p5521
sS'width_content'
p5522
S"'100%'"
p5523
sS'H2'
p5524
S"<class 'gluon.html.H2'>"
p5525
sS'H3'
p5526
S"<class 'gluon.html.H3'>"
p5527
sS'BUTTON'
p5528
S"<class 'gluon.html.BUTTON'>"
p5529
sS'H1'
p5530
S"<class 'gluon.html.H1'>"
p5531
sS'H6'
p5532
S"<class 'gluon.html.H6'>"
p5533
sS'H4'
p5534
S"<class 'gluon.html.H4'>"
p5535
sS'H5'
p5536
S"<class 'gluon.html.H5'>"
p5537
sS'UL'
p5538
S"<class 'gluon.html.UL'>"
p5539
sS'IS_UPPER'
p5540
S"<class 'gluon.validators.IS_UPPER'>"
p5541
sS'xmlescape'
p5542
S'<function xmlescape at 0x023E9B30>'
p5543
sS'IS_TIME'
p5544
S"<class 'gluon.validators.IS_TIME'>"
p5545
sS'OPTION'
p5546
S"<class 'gluon.html.OPTION'>"
p5547
sS'TITLE'
p5548
S"<class 'gluon.html.TITLE'>"
p5549
sS'CRYPT'
p5550
S"<class 'gluon.validators.CRYPT'>"
p5551
sS'IS_EMPTY_OR'
p5552
S"<class 'gluon.validators.IS_EMPTY_OR'>"
p5553
sS'MARKMIN'
p5554
S"<class 'gluon.html.MARKMIN'>"
p5555
sS'COL'
p5556
S"<class 'gluon.html.COL'>"
p5557
sS'service'
p5558
S'<gluon.tools.Service object at 0x078E7030>'
p5559
sS'SCRIPT'
p5560
S"<class 'gluon.html.SCRIPT'>"
p5561
sS'TABLE'
p5562
S"<class 'gluon.html.TABLE'>"
p5563
sS'IS_IPV4'
p5564
S"<class 'gluon.validators.IS_IPV4'>"
p5565
sS'IS_LENGTH'
p5566
S"<class 'gluon.validators.IS_LENGTH'>"
p5567
sS'XML'
p5568
S"<class 'gluon.html.XML'>"
p5569
sS'B'
S"<class 'gluon.html.B'>"
p5570
sS'form'
p5571
S'<gluon.sqlhtml.SQLFORM object at 0x044E71F0>'
p5572
sS'SQLTABLE'
p5573
S"<class 'gluon.sqlhtml.SQLTABLE'>"
p5574
sS'IS_MATCH'
p5575
S"<class 'gluon.validators.IS_MATCH'>"
p5576
sS'IS_ALPHANUMERIC'
p5577
S"<class 'gluon.validators.IS_ALPHANUMERIC'>"
p5578
sS'SPAN'
p5579
S"<class 'gluon.html.SPAN'>"
p5580
sS'IS_SLUG'
p5581
S"<class 'gluon.validators.IS_SLUG'>"
p5582
sS'BEAUTIFY'
p5583
S"<class 'gluon.html.BEAUTIFY'>"
p5584
sS'META'
p5585
S"<class 'gluon.html.META'>"
p5586
sS'IS_DATE'
p5587
S"<class 'gluon.validators.IS_DATE'>"
p5588
sS'IS_EMAIL'
p5589
S"<class 'gluon.validators.IS_EMAIL'>"
p5590
sS'IS_NOT_EMPTY'
p5591
S"<class 'gluon.validators.IS_NOT_EMPTY'>"
p5592
sS'IS_FLOAT_IN_RANGE'
p5593
S"<class 'gluon.validators.IS_FLOAT_IN_RANGE'>"
p5594
sS'TBODY'
p5595
S"<class 'gluon.html.TBODY'>"
p5596
sS'CAT'
p5597
S"<class 'gluon.html.CAT'>"
p5598
sS'Field'
p5599
S"<class 'gluon.dal.Field'>"
p5600
sS'DIV'
p5601
S"<class 'gluon.html.DIV'>"
p5602
sS'LEGEND'
p5603
S"<class 'gluon.html.LEGEND'>"
p5604
sS'IMG'
p5605
S"<class 'gluon.html.IMG'>"
p5606
sS'COLGROUP'
p5607
S"<class 'gluon.html.COLGROUP'>"
p5608
sS'DAL'
p5609
S"<class 'gluon.dal.DAL'>"
p5610
sS'TT'
p5611
S"<class 'gluon.html.TT'>"
p5612
sS'TR'
p5613
S"<class 'gluon.html.TR'>"
p5614
sS'LI'
p5615
S"<class 'gluon.html.LI'>"
p5616
sS'right_sidebar_enabled'
p5617
g91
sS'IFRAME'
p5618
S"<class 'gluon.html.IFRAME'>"
p5619
sS'TD'
p5620
S"<class 'gluon.html.TD'>"
p5621
sS'PluginManager'
p5622
S"<class 'gluon.tools.PluginManager'>"
p5623
sS'IS_URL'
p5624
S"<class 'gluon.validators.IS_URL'>"
p5625
sS'A'
S"<class 'gluon.html.A'>"
p5626
sS'STYLE'
p5627
S"<class 'gluon.html.STYLE'>"
p5628
sS'IS_DATETIME_IN_RANGE'
p5629
S"<class 'gluon.validators.IS_DATETIME_IN_RANGE'>"
p5630
sS'IS_IMAGE'
p5631
S"<class 'gluon.validators.IS_IMAGE'>"
p5632
sS'I'
S"<class 'gluon.html.I'>"
p5633
sS'crud'
p5634
S'<gluon.tools.Crud object at 0x078E7410>'
p5635
sS'right_sidebar_style'
p5636
S'\'style="display: none;"\''
p5637
sS'IS_NOT_IN_DB'
p5638
S"<class 'gluon.validators.IS_NOT_IN_DB'>"
p5639
sg3485
S"<Storage {'body': <cStringIO.StringO object at 0...da> at 0x044661B0>, 'view': 'default/user.html'}>"
p5640
sS'THEAD'
p5641
S"<class 'gluon.html.THEAD'>"
p5642
sS'IS_NULL_OR'
p5643
S"<class 'gluon.validators.IS_EMPTY_OR'>"
p5644
sS'left_sidebar_style'
p5645
S'\'style="display: none;"\''
p5646
sg47
S"<Storage {'body': <cStringIO.StringO object at 0..._vars': <Storage {}>, 'post_vars': <Storage {}>}>"
p5647
sS'IS_EXPR'
p5648
S"<class 'gluon.validators.IS_EXPR'>"
p5649
sS'T'
S'<gluon.languages.translator object at 0x06EE43F0>'
p5650
sS'IS_IN_SET'
p5651
S"<class 'gluon.validators.IS_IN_SET'>"
p5652
sS'IS_UPLOAD_FILENAME'
p5653
S"<class 'gluon.validators.IS_UPLOAD_FILENAME'>"
p5654
sS'style_content'
p5655
S'\'style="width: 100%"\''
p5656
sS'IS_DECIMAL_IN_RANGE'
p5657
S"<class 'gluon.validators.IS_DECIMAL_IN_RANGE'>"
p5658
sssS'traceback'
p5659
S'Traceback (most recent call last):\n  File "gluon/restricted.py", line 194, in restricted\n  File "P:\\Workbench\\DevEnv\\web2py\\applications\\init\\views\\default/user.html", line 76, in <module>\nAttributeError: \'NoneType\' object has no attribute \'first_name\'\n'
p5660
s.