(dp1
S'event_name'
p2
(dp3
S'type'
p4
S'string'
p5
sS'sortable'
p6
I2
sS'sql'
p7
S'CHAR(512)'
p8
ssS'check_in'
p9
(dp10
g4
S'list:integer'
p11
sg6
I5
sg7
S'TEXT'
p12
ssS'user_name'
p13
(dp14
g4
g5
sg6
I3
sg7
S'CHAR(512)'
p15
ssS'id'
p16
(dp17
g4
g16
sg6
I1
sg7
S'INTEGER PRIMARY KEY AUTOINCREMENT'
p18
ssS'goal'
p19
(dp20
g4
S'integer'
p21
sg6
I4
sg7
S'INTEGER'
p22
ss.