(dp1
S'goal'
p2
(dp3
S'type'
p4
S'double'
p5
sS'sortable'
p6
I4
sS'sql'
p7
S'DOUBLE'
p8
ssS'last_entry'
p9
(dp10
g4
S'date'
p11
sg6
I5
sg7
S'DATE'
p12
ssS'user_name'
p13
(dp14
g4
S'reference auth_user'
p15
sg6
I3
sg7
S'INTEGER REFERENCES auth_user(id) ON DELETE CASCADE'
p16
ssS'id'
p17
(dp18
g4
S'id'
p19
sg6
I1
sg7
S'INTEGER PRIMARY KEY AUTOINCREMENT'
p20
ssS'event'
p21
(dp22
g4
S'reference events'
p23
sg6
I2
sg7
S'INTEGER REFERENCES events(id) ON DELETE CASCADE'
p24
ss.